###############################################################################
#                                                                             #
# IAR C/C++ Compiler V8.10.1.10194/W32 for 8051         08/Feb/2015  17:41:56 #
# Copyright 2004-2011 IAR Systems AB.                                         #
#                                                                             #
#    Core               =  plain                                              #
#    Code model         =  banked                                             #
#    Data model         =  large                                              #
#    Calling convention =  xdata reentrant                                    #
#    Constant location  =  data_rom                                           #
#    Dptr setup         =  1,16                                               #
#    Source file        =  D:\RE_1_2_0_FORMAL_APP(251)-14-12-8\Projects\zstac #
#                          k\Samples\SampleApp\Source\EN_WALL_SOKET_device\CS #
#                          5463_spi.c                                         #
#    Command line       =  -f "D:\RE_1_2_0_FORMAL_APP(251)-14-12-8\Projects\z #
#                          stack\Samples\SampleApp\CC2530DB\..\..\..\Tools\CC #
#                          2530DB\f8wRouter.cfg" (-DCPU32MHZ                  #
#                          -DROOT=__near_func -DMAC_CFG_APP_PENDING_QUEUE=TRU #
#                          E -DMAC_CFG_TX_DATA_MAX=5 -DMAC_CFG_TX_MAX=8       #
#                          -DMAC_CFG_RX_MAX=5 -DRTR_NWK) -f                   #
#                          "D:\RE_1_2_0_FORMAL_APP(251)-14-12-8\Projects\zsta #
#                          ck\Samples\SampleApp\CC2530DB\..\..\..\Tools\CC253 #
#                          0DB\f8wConfig.cfg" (-DZIGBEEPRO -DSECURE=1         #
#                          -DZG_SECURE_DYNAMIC=0 -DREFLECTOR                  #
#                          -DZDAPP_CONFIG_PAN_ID=0xFFFF                       #
#                          -DNWK_START_DELAY=100 -DEXTENDED_JOINING_RANDOM_MA #
#                          SK=0x007F -DBEACON_REQUEST_DELAY=100               #
#                          -DBEACON_REQ_DELAY_MASK=0x00FF                     #
#                          -DLINK_STATUS_JITTER_MASK=0x007F                   #
#                          -DROUTE_EXPIRY_TIME=30 -DAPSC_ACK_WAIT_DURATION_PO #
#                          LLED=3000 -DNWK_INDIRECT_MSG_TIMEOUT=60            #
#                          -DMAX_RREQ_ENTRIES=8 -DAPSC_MAX_FRAME_RETRIES=3    #
#                          -DNWK_MAX_DATA_RETRIES=2                           #
#                          -DMAX_POLL_FAILURE_RETRIES=2 -DMAX_BCAST=9         #
#                          -DAPS_MAX_GROUPS=16 -DMAX_RTG_ENTRIES=30           #
#                          -DNWK_MAX_BINDING_ENTRIES=10                       #
#                          -DMAX_BINDING_CLUSTER_IDS=4 -DASSERT_RESET         #
#                          -DMAC_MAX_FRAME_SIZE=116                           #
#                          -DZDNWKMGR_MIN_TRANSMISSIONS=20 "-DCONST=const     #
#                          __code" -DGENERIC=__generic                        #
#                          -DRFD_RCVC_ALWAYS_ON=FALSE -DPOLL_RATE=8000        #
#                          -DQUEUED_POLL_RATE=100 -DRESPONSE_POLL_RATE=1000)  #
#                          -DREJOIN_POLL_RATE=440 "D:\RE_1_2_0_FORMAL_APP(251 #
#                          )-14-12-8\Projects\zstack\Samples\SampleApp\Source #
#                          \EN_WALL_SOKET_device\CS5463_spi.c" -D NV_INIT -D  #
#                          NV_RESTORE -D HOLD_AUTO_START -D MT_TASK -D        #
#                          MT_APP_FUNC -D MT_SYS_FUNC -D MT_ZDO_FUNC -D       #
#                          MT_ZDO_MGMT -D ISR_KEYINTERRUPT -D WDT_IN_PM1 -D   #
#                          xOSC32K_CRYSTAL_INSTALLED=0 -D xLARGER_NETWORK -D  #
#                          POWER_PA -D EN_WALL_SOKET -lC                      #
#                          "D:\RE_1_2_0_FORMAL_APP(251)-14-12-8\Projects\zsta #
#                          ck\Samples\SampleApp\CC2530DB\EN_WALL_SOKET_ROUTER #
#                          \List\" -lA "D:\RE_1_2_0_FORMAL_APP(251)-14-12-8\P #
#                          rojects\zstack\Samples\SampleApp\CC2530DB\EN_WALL_ #
#                          SOKET_ROUTER\List\" --diag_suppress Pe001,Pa010    #
#                          -o "D:\RE_1_2_0_FORMAL_APP(251)-14-12-8\Projects\z #
#                          stack\Samples\SampleApp\CC2530DB\EN_WALL_SOKET_ROU #
#                          TER\Obj\" -e --no_cse --no_unroll --no_inline      #
#                          --no_code_motion --no_tbaa --debug --core=plain    #
#                          --dptr=16,1 --data_model=large                     #
#                          --code_model=banked --calling_convention=xdata_ree #
#                          ntrant --place_constants=data_rom                  #
#                          --nr_virtual_regs 16 -I "D:\RE_1_2_0_FORMAL_APP(25 #
#                          1)-14-12-8\Projects\zstack\Samples\SampleApp\CC253 #
#                          0DB\" -I "D:\RE_1_2_0_FORMAL_APP(251)-14-12-8\Proj #
#                          ects\zstack\Samples\SampleApp\CC2530DB\..\Source\" #
#                           -I "D:\RE_1_2_0_FORMAL_APP(251)-14-12-8\Projects\ #
#                          zstack\Samples\SampleApp\CC2530DB\..\Source\EN_WAL #
#                          L_SOKET_device\" -I "D:\RE_1_2_0_FORMAL_APP(251)-1 #
#                          4-12-8\Projects\zstack\Samples\SampleApp\CC2530DB\ #
#                          ..\..\..\ZMain\TI2530DB\" -I                       #
#                          "D:\RE_1_2_0_FORMAL_APP(251)-14-12-8\Projects\zsta #
#                          ck\Samples\SampleApp\CC2530DB\..\..\..\..\..\Compo #
#                          nents\hal\include\" -I "D:\RE_1_2_0_FORMAL_APP(251 #
#                          )-14-12-8\Projects\zstack\Samples\SampleApp\CC2530 #
#                          DB\..\..\..\..\..\Components\hal\target\CC2530EB\" #
#                           -I "D:\RE_1_2_0_FORMAL_APP(251)-14-12-8\Projects\ #
#                          zstack\Samples\SampleApp\CC2530DB\..\..\..\..\..\C #
#                          omponents\mac\include\" -I                         #
#                          "D:\RE_1_2_0_FORMAL_APP(251)-14-12-8\Projects\zsta #
#                          ck\Samples\SampleApp\CC2530DB\..\..\..\..\..\Compo #
#                          nents\mac\high_level\" -I                          #
#                          "D:\RE_1_2_0_FORMAL_APP(251)-14-12-8\Projects\zsta #
#                          ck\Samples\SampleApp\CC2530DB\..\..\..\..\..\Compo #
#                          nents\mac\low_level\srf04\" -I                     #
#                          "D:\RE_1_2_0_FORMAL_APP(251)-14-12-8\Projects\zsta #
#                          ck\Samples\SampleApp\CC2530DB\..\..\..\..\..\Compo #
#                          nents\mac\low_level\srf04\single_chip\" -I         #
#                          "D:\RE_1_2_0_FORMAL_APP(251)-14-12-8\Projects\zsta #
#                          ck\Samples\SampleApp\CC2530DB\..\..\..\..\..\Compo #
#                          nents\mt\" -I "D:\RE_1_2_0_FORMAL_APP(251)-14-12-8 #
#                          \Projects\zstack\Samples\SampleApp\CC2530DB\..\..\ #
#                          ..\..\..\Components\osal\include\" -I              #
#                          "D:\RE_1_2_0_FORMAL_APP(251)-14-12-8\Projects\zsta #
#                          ck\Samples\SampleApp\CC2530DB\..\..\..\..\..\Compo #
#                          nents\services\saddr\" -I                          #
#                          "D:\RE_1_2_0_FORMAL_APP(251)-14-12-8\Projects\zsta #
#                          ck\Samples\SampleApp\CC2530DB\..\..\..\..\..\Compo #
#                          nents\services\sdata\" -I                          #
#                          "D:\RE_1_2_0_FORMAL_APP(251)-14-12-8\Projects\zsta #
#                          ck\Samples\SampleApp\CC2530DB\..\..\..\..\..\Compo #
#                          nents\stack\af\" -I "D:\RE_1_2_0_FORMAL_APP(251)-1 #
#                          4-12-8\Projects\zstack\Samples\SampleApp\CC2530DB\ #
#                          ..\..\..\..\..\Components\stack\nwk\" -I           #
#                          "D:\RE_1_2_0_FORMAL_APP(251)-14-12-8\Projects\zsta #
#                          ck\Samples\SampleApp\CC2530DB\..\..\..\..\..\Compo #
#                          nents\stack\sapi\" -I "D:\RE_1_2_0_FORMAL_APP(251) #
#                          -14-12-8\Projects\zstack\Samples\SampleApp\CC2530D #
#                          B\..\..\..\..\..\Components\stack\sec\" -I         #
#                          "D:\RE_1_2_0_FORMAL_APP(251)-14-12-8\Projects\zsta #
#                          ck\Samples\SampleApp\CC2530DB\..\..\..\..\..\Compo #
#                          nents\stack\sys\" -I "D:\RE_1_2_0_FORMAL_APP(251)- #
#                          14-12-8\Projects\zstack\Samples\SampleApp\CC2530DB #
#                          \..\..\..\..\..\Components\stack\zdo\" -I          #
#                          "D:\RE_1_2_0_FORMAL_APP(251)-14-12-8\Projects\zsta #
#                          ck\Samples\SampleApp\CC2530DB\..\..\..\..\..\Compo #
#                          nents\zmac\" -I "D:\RE_1_2_0_FORMAL_APP(251)-14-12 #
#                          -8\Projects\zstack\Samples\SampleApp\CC2530DB\..\. #
#                          .\..\..\..\Components\zmac\f8w\" -On               #
#                          --require_prototypes                               #
#    List file          =  D:\RE_1_2_0_FORMAL_APP(251)-14-12-8\Projects\zstac #
#                          k\Samples\SampleApp\CC2530DB\EN_WALL_SOKET_ROUTER\ #
#                          List\CS5463_spi.lst                                #
#    Object file        =  D:\RE_1_2_0_FORMAL_APP(251)-14-12-8\Projects\zstac #
#                          k\Samples\SampleApp\CC2530DB\EN_WALL_SOKET_ROUTER\ #
#                          Obj\CS5463_spi.r51                                 #
#                                                                             #
#                                                                             #
###############################################################################

D:\RE_1_2_0_FORMAL_APP(251)-14-12-8\Projects\zstack\Samples\SampleApp\Source\EN_WALL_SOKET_device\CS5463_spi.c
      1          /******************** (C) COPYRIGHT 2014 Owner************** *******************
      2          * File Name		: CS5463_spi.c
      3          * Author		: yukk@yuantuo.mobi
      4          * Version		: V1.0.0
      5          * Date			: 07/11/2014
      6          * Description   : CC2530通过spi对CS5463 操作。
      7          				功率最高+3000W  温度-128°C ~ +128 °C
      8          *******************************************************************************/
      9          
     10          #include "CS5463_spi.h"

   \                                 In  segment SFR_AN, at 0x80
   \   union <unnamed> volatile __sfr _A_P0
   \                     _A_P0:
   \   000000                DS 1

   \                                 In  segment SFR_AN, at 0x90
   \   union <unnamed> volatile __sfr _A_P1
   \                     _A_P1:
   \   000000                DS 1

   \                                 In  segment SFR_AN, at 0xfd
   \   unsigned char volatile __sfr P0DIR
   \                     P0DIR:
   \   000000                DS 1

   \                                 In  segment SFR_AN, at 0xfe
   \   unsigned char volatile __sfr P1DIR
   \                     P1DIR:
   \   000000                DS 1
     11          
     12          //全局变量----------------------------------------------------------------------

   \                                 In  segment XDATA_I, align 1, keep-with-next
     13          uint32  CS543_CFG_DATA = 0X010001;
   \                     CS543_CFG_DATA:
   \   000000                DS 4
   \   000004                REQUIRE `?<Initializer for CS543_CFG_DATA>`
   \   000004                REQUIRE __INIT_XDATA_I
     14          
     15          
     16          /*******************************************************************************
     17          * 函数名称：Delay_1u
     18          * 功能描述：延时1us
     19          * 入口参数：无
     20          * 出口参数：无
     21          * 注意事项：无
     22          * 备注说明：无
     23          *******************************************************************************/

   \                                 In  segment BANKED_CODE, align 1, keep-with-next
     24          static void Delay_1u(uint8 k)
   \                     Delay_1u:
     25          { 
   \   000000                ; Saved register size: 0
   \   000000                ; Auto size: 0
     26            while(k--)
   \                     ??Delay_1u_0:
   \   000000   E9           MOV     A,R1
   \   000001   F8           MOV     R0,A
   \   000002   74FF         MOV     A,#-0x1
   \   000004   28           ADD     A,R0
   \   000005   F9           MOV     R1,A
   \   000006   E8           MOV     A,R0
   \   000007   6022         JZ      ??Delay_1u_1
     27            {
     28              /* 32 NOPs == 1 usecs */
     29              asm("nop"); asm("nop"); asm("nop"); asm("nop"); asm("nop");
   \   000009   00           nop
   \   00000A   00           nop
   \   00000B   00           nop
   \   00000C   00           nop
   \   00000D   00           nop
     30              asm("nop"); asm("nop"); asm("nop"); asm("nop"); asm("nop");
   \   00000E   00           nop
   \   00000F   00           nop
   \   000010   00           nop
   \   000011   00           nop
   \   000012   00           nop
     31              asm("nop"); asm("nop"); asm("nop"); asm("nop"); asm("nop");
   \   000013   00           nop
   \   000014   00           nop
   \   000015   00           nop
   \   000016   00           nop
   \   000017   00           nop
     32              asm("nop"); asm("nop"); asm("nop"); asm("nop"); asm("nop");
   \   000018   00           nop
   \   000019   00           nop
   \   00001A   00           nop
   \   00001B   00           nop
   \   00001C   00           nop
     33              asm("nop"); asm("nop"); asm("nop"); asm("nop"); asm("nop");
   \   00001D   00           nop
   \   00001E   00           nop
   \   00001F   00           nop
   \   000020   00           nop
   \   000021   00           nop
     34              asm("nop"); asm("nop"); asm("nop"); asm("nop"); asm("nop");
   \   000022   00           nop
   \   000023   00           nop
   \   000024   00           nop
   \   000025   00           nop
   \   000026   00           nop
     35              asm("nop"); asm("nop");
   \   000027   00           nop
   \   000028   00           nop
   \   000029   80D5         SJMP    ??Delay_1u_0
     36            }
     37          }
   \                     ??Delay_1u_1:
   \   00002B   02....       LJMP    ?BRET
     38          /*******************************************************************************
     39          * 函数名称：SPI_Configration
     40          * 功能描述：配置SPI接口
     41          * 入口参数：无
     42          * 出口参数：无
     43          * 注意事项：无
     44          * 备注说明：无
     45          *******************************************************************************/

   \                                 In  segment BANKED_CODE, align 1, keep-with-next
     46          static void SPI_Configration(void) 
   \                     SPI_Configration:
     47          {  
   \   000000                ; Saved register size: 0
   \   000000                ; Auto size: 0
     48          	P0DIR   |= 0X68;//P0.3，P0.5，P0.6设置为输出
   \   000000   43FD68       ORL     0xfd,#0x68
     49          	P1DIR   |= 0x08;//reset脚P1.3，设置为输出	
   \   000003   43FE08       ORL     0xfe,#0x8
     50          }
   \   000006   02....       LJMP    ?BRET
   \   000009                REQUIRE P0DIR
   \   000009                REQUIRE P1DIR
     51          
     52          /*******************************************************************************
     53          * 函数名称：SPI_Receive_byte
     54          * 功能描述：读取一个字节的数据
     55          * 入口参数：无
     56          * 出口参数：RX_data：读取到的一个字节的数据
     57          * 注意事项：无
     58          * 备注说明：无
     59          *******************************************************************************/

   \                                 In  segment BANKED_CODE, align 1, keep-with-next
     60          static unsigned char SPI_Receive_byte(void)   // Read CS5464 DATA
   \                     SPI_Receive_byte:
     61          {
   \   000000   74F7         MOV     A,#-0x9
   \   000002   12....       LCALL   ?BANKED_ENTER_XDATA
   \   000005                ; Saved register size: 9
   \   000005                ; Auto size: 0
     62          	
     63          	unsigned char RX_data;
     64          	unsigned char i;
     65          	
     66          	RX_data=0;
   \   000005   7E00         MOV     R6,#0x0
     67          
     68          	P0DIR   |= 0X68;//P0.3，P0.5，P0.6设置为输出，P0.2设置为输入
   \   000007   43FD68       ORL     0xfd,#0x68
     69          	CS5463_SDI = 1;	//输入管脚设置为1，上拉    
   \   00000A   D282         SETB    0x80.2
     70              CS5463_SDO=1;//输出管脚设置为0
   \   00000C   D283         SETB    0x80.3
     71              
     72          	for(i=0;i<8;i++)
   \   00000E   7F00         MOV     R7,#0x0
   \                     ??SPI_Receive_byte_0:
   \   000010   EF           MOV     A,R7
   \   000011   C3           CLR     C
   \   000012   9408         SUBB    A,#0x8
   \   000014   502A         JNC     ??SPI_Receive_byte_1
     73          	{   
     74          	    CS5463_SCLK=0;
   \   000016   C285         CLR     0x80.5
     75          		CS5463_SDI = 1;	//先输出1，上拉
   \   000018   D282         SETB    0x80.2
     76          		Delay_1u(DELAY); 
   \   00001A                ; Setup parameters for call to function Delay_1u
   \   00001A   7932         MOV     R1,#0x32
   \   00001C   12....       LCALL   ??Delay_1u?relay
     77          	    RX_data=RX_data<<1;
   \   00001F   EE           MOV     A,R6
   \   000020   C3           CLR     C
   \   000021   33           RLC     A
   \   000022   FE           MOV     R6,A
     78          		Delay_1u(DELAY); 	
   \   000023                ; Setup parameters for call to function Delay_1u
   \   000023   7932         MOV     R1,#0x32
   \   000025   12....       LCALL   ??Delay_1u?relay
     79          	    CS5463_SCLK=1;
   \   000028   D285         SETB    0x80.5
     80          		Delay_1u(DELAY); 
   \   00002A                ; Setup parameters for call to function Delay_1u
   \   00002A   7932         MOV     R1,#0x32
   \   00002C   12....       LCALL   ??Delay_1u?relay
     81          	    if(CS5463_SDI) RX_data|=0x01;
   \   00002F   A282         MOV     C,0x80.2
   \   000031   5005         JNC     ??SPI_Receive_byte_2
   \   000033   D3           SETB    C
   \   000034   EE           MOV     A,R6
   \   000035   92E0         MOV     0xE0 /* A   */.0,C
   \   000037   FE           MOV     R6,A
     82          	  	else RX_data|=0x00;
     83          		Delay_1u(DELAY); 
   \                     ??SPI_Receive_byte_2:
   \   000038                ; Setup parameters for call to function Delay_1u
   \   000038   7932         MOV     R1,#0x32
   \   00003A   12....       LCALL   ??Delay_1u?relay
     84          	  		  	
     85          	}
   \   00003D   0F           INC     R7
   \   00003E   80D0         SJMP    ??SPI_Receive_byte_0
     86          		
     87          	return(RX_data);
   \                     ??SPI_Receive_byte_1:
   \   000040   EE           MOV     A,R6
   \   000041   F9           MOV     R1,A
   \   000042   7F01         MOV     R7,#0x1
   \   000044   02....       LJMP    ?BANKED_LEAVE_XDATA
   \   000047                REQUIRE P0DIR
   \   000047                REQUIRE _A_P0
     88          }
     89          
     90          /*******************************************************************************
     91          * 函数名称：SPI_Transfer_byte
     92          * 功能描述：向芯片写入一个字节数据
     93          * 入口参数：无
     94          * 出口参数：TX_data：待发送的一个字节的数据
     95          * 注意事项：无
     96          * 备注说明：无
     97          *******************************************************************************/

   \                                 In  segment BANKED_CODE, align 1, keep-with-next
     98          static void SPI_Transfer_byte(unsigned char TX_data)   // Write DATA TO CS5464
   \                     SPI_Transfer_byte:
     99          {
   \   000000   74F7         MOV     A,#-0x9
   \   000002   12....       LCALL   ?BANKED_ENTER_XDATA
   \   000005                ; Saved register size: 9
   \   000005                ; Auto size: 0
   \   000005   E9           MOV     A,R1
   \   000006   FF           MOV     R7,A
    100          	unsigned char i;          
    101          	P0DIR   |= 0X68;//P0.3，P0.5，P0.6设置为输出，P0.2设置为输入     
   \   000007   43FD68       ORL     0xfd,#0x68
    102          	CS5463_SDI=1;//输入管脚设置为1
   \   00000A   D282         SETB    0x80.2
    103          	
    104          	for(i=0;i<8;i++)
   \   00000C   7E00         MOV     R6,#0x0
   \                     ??SPI_Transfer_byte_0:
   \   00000E   EE           MOV     A,R6
   \   00000F   C3           CLR     C
   \   000010   9408         SUBB    A,#0x8
   \   000012   502A         JNC     ??SPI_Transfer_byte_1
    105          	{
    106          	    CS5463_SCLK=0;
   \   000014   C285         CLR     0x80.5
    107          		Delay_1u(DELAY);
   \   000016                ; Setup parameters for call to function Delay_1u
   \   000016   7932         MOV     R1,#0x32
   \   000018   12....       LCALL   ??Delay_1u?relay
    108          	   	if(TX_data&0x80) CS5463_SDO=1;
   \   00001B   EF           MOV     A,R7
   \   00001C   A2E7         MOV     C,0xE0 /* A   */.7
   \   00001E   5004         JNC     ??SPI_Transfer_byte_2
   \   000020   D283         SETB    0x80.3
   \   000022   8002         SJMP    ??SPI_Transfer_byte_3
    109                	else CS5463_SDO=0;
   \                     ??SPI_Transfer_byte_2:
   \   000024   C283         CLR     0x80.3
    110          		Delay_1u(DELAY);
   \                     ??SPI_Transfer_byte_3:
   \   000026                ; Setup parameters for call to function Delay_1u
   \   000026   7932         MOV     R1,#0x32
   \   000028   12....       LCALL   ??Delay_1u?relay
    111                  CS5463_SCLK=1;
   \   00002B   D285         SETB    0x80.5
    112          		Delay_1u(DELAY);
   \   00002D                ; Setup parameters for call to function Delay_1u
   \   00002D   7932         MOV     R1,#0x32
   \   00002F   12....       LCALL   ??Delay_1u?relay
    113          	  	TX_data=TX_data<<1;
   \   000032   EF           MOV     A,R7
   \   000033   C3           CLR     C
   \   000034   33           RLC     A
   \   000035   FF           MOV     R7,A
    114          		Delay_1u(DELAY);     
   \   000036                ; Setup parameters for call to function Delay_1u
   \   000036   7932         MOV     R1,#0x32
   \   000038   12....       LCALL   ??Delay_1u?relay
    115             	}	
   \   00003B   0E           INC     R6
   \   00003C   80D0         SJMP    ??SPI_Transfer_byte_0
    116          }
   \                     ??SPI_Transfer_byte_1:
   \   00003E   7F01         MOV     R7,#0x1
   \   000040   02....       LJMP    ?BANKED_LEAVE_XDATA
   \   000043                REQUIRE P0DIR
   \   000043                REQUIRE _A_P0
    117          /*******************************************************************************
    118          * 函数名称：CfgRegToCC5463
    119          * 功能描述：向CS5463芯片写入一个命令码，及命令数据
    120          * 入口参数：cmd：命令码       data：命令数据
    121          * 出口参数：无
    122          * 注意事项：无
    123          * 备注说明：无
    124          *******************************************************************************/

   \                                 In  segment BANKED_CODE, align 1, keep-with-next
    125          static void CfgRegToCC5463(uint8 cmd,uint32 data)
   \                     CfgRegToCC5463:
    126          { 
   \   000000   74F0         MOV     A,#-0x10
   \   000002   12....       LCALL   ?BANKED_ENTER_XDATA
   \   000005                ; Saved register size: 16
   \   000005                ; Auto size: 0
   \   000005   E9           MOV     A,R1
   \   000006   FE           MOV     R6,A
   \   000007   8A..         MOV     ?V0 + 4,R2
   \   000009   8B..         MOV     ?V0 + 5,R3
   \   00000B   8C..         MOV     ?V0 + 6,R4
   \   00000D   8D..         MOV     ?V0 + 7,R5
    127          	
    128          	CS5463_CS=0;
   \   00000F   C286         CLR     0x80.6
    129          	Delay_1u(DELAY); 
   \   000011                ; Setup parameters for call to function Delay_1u
   \   000011   7932         MOV     R1,#0x32
   \   000013   12....       LCALL   ??Delay_1u?relay
    130          	
    131          	SPI_Transfer_byte(cmd);
   \   000016                ; Setup parameters for call to function SPI_Transfer_byte
   \   000016   EE           MOV     A,R6
   \   000017   F9           MOV     R1,A
   \   000018   12....       LCALL   ??SPI_Transfer_byte?relay
    132          	SPI_Transfer_byte(data >> 16);
   \   00001B                ; Setup parameters for call to function SPI_Transfer_byte
   \   00001B   85....       MOV     ?V0 + 0,?V0 + 4
   \   00001E   85....       MOV     ?V0 + 1,?V0 + 5
   \   000021   85....       MOV     ?V0 + 2,?V0 + 6
   \   000024   85....       MOV     ?V0 + 3,?V0 + 7
   \   000027   7410         MOV     A,#0x10
   \   000029   78..         MOV     R0,#?V0 + 0
   \   00002B   12....       LCALL   ?UL_SHR
   \   00002E   A9..         MOV     R1,?V0 + 0
   \   000030   12....       LCALL   ??SPI_Transfer_byte?relay
    133          	SPI_Transfer_byte(data >> 8);
   \   000033                ; Setup parameters for call to function SPI_Transfer_byte
   \   000033   85....       MOV     ?V0 + 0,?V0 + 4
   \   000036   85....       MOV     ?V0 + 1,?V0 + 5
   \   000039   E4           CLR     A
   \   00003A   E5..         MOV     A,?V0 + 1
   \   00003C   F5..         MOV     ?V0 + 0,A
   \   00003E   A9..         MOV     R1,?V0 + 0
   \   000040   12....       LCALL   ??SPI_Transfer_byte?relay
    134          	SPI_Transfer_byte(data);
   \   000043                ; Setup parameters for call to function SPI_Transfer_byte
   \   000043   85....       MOV     ?V0 + 0,?V0 + 4
   \   000046   85....       MOV     ?V0 + 1,?V0 + 5
   \   000049   A9..         MOV     R1,?V0 + 0
   \   00004B   12....       LCALL   ??SPI_Transfer_byte?relay
    135          	
    136          	
    137          	CS5463_CS=1;
   \   00004E   D286         SETB    0x80.6
    138          	CS5463_SDO=1;
   \   000050   D283         SETB    0x80.3
    139          	Delay_1u(DELAY); 
   \   000052                ; Setup parameters for call to function Delay_1u
   \   000052   7932         MOV     R1,#0x32
   \   000054   12....       LCALL   ??Delay_1u?relay
    140          }
   \   000057   7F08         MOV     R7,#0x8
   \   000059   02....       LJMP    ?BANKED_LEAVE_XDATA
   \   00005C                REQUIRE _A_P0
    141          /*******************************************************************************
    142          * 函数名称：Send_Command_To_Cs5463
    143          * 功能描述：向CS5463发送一个单字节命令
    144          * 入口参数：cmd;命令码
    145          * 出口参数：无
    146          * 注意事项：无
    147          * 备注说明：无
    148          *******************************************************************************/

   \                                 In  segment BANKED_CODE, align 1, keep-with-next
    149          static void Send_Command_To_Cs5463(uint8 cmd)
   \                     Send_Command_To_Cs5463:
    150          { 
   \   000000   74F7         MOV     A,#-0x9
   \   000002   12....       LCALL   ?BANKED_ENTER_XDATA
   \   000005                ; Saved register size: 9
   \   000005                ; Auto size: 0
   \   000005   E9           MOV     A,R1
   \   000006   FE           MOV     R6,A
    151          	CS5463_CS=0;
   \   000007   C286         CLR     0x80.6
    152              Delay_1u(DELAY); 
   \   000009                ; Setup parameters for call to function Delay_1u
   \   000009   7932         MOV     R1,#0x32
   \   00000B   12....       LCALL   ??Delay_1u?relay
    153          	
    154            	SPI_Transfer_byte(cmd);
   \   00000E                ; Setup parameters for call to function SPI_Transfer_byte
   \   00000E   EE           MOV     A,R6
   \   00000F   F9           MOV     R1,A
   \   000010   12....       LCALL   ??SPI_Transfer_byte?relay
    155            	
    156          	CS5463_CS=1;
   \   000013   D286         SETB    0x80.6
    157          	CS5463_SDO=1;
   \   000015   D283         SETB    0x80.3
    158          	Delay_1u(DELAY); 
   \   000017                ; Setup parameters for call to function Delay_1u
   \   000017   7932         MOV     R1,#0x32
   \   000019   12....       LCALL   ??Delay_1u?relay
    159          }
   \   00001C   7F01         MOV     R7,#0x1
   \   00001E   02....       LJMP    ?BANKED_LEAVE_XDATA
   \   000021                REQUIRE _A_P0
    160          /*******************************************************************************
    161          * 函数名称：ReadMsgFromCC5463
    162          * 功能描述：从CS5463中读取3字节的数据
    163          * 入口参数：cmd：待读取的字节的地址
    164          * 出口参数：value：读取到的3字节数据
    165          * 注意事项：无
    166          * 备注说明：无
    167          *******************************************************************************/

   \                                 In  segment BANKED_CODE, align 1, keep-with-next
    168          static uint32 ReadMsgFromCC5463(uint8 cmd)
   \                     ReadMsgFromCC5463:
    169          {
   \   000000   74F0         MOV     A,#-0x10
   \   000002   12....       LCALL   ?BANKED_ENTER_XDATA
   \   000005                ; Saved register size: 16
   \   000005                ; Auto size: 0
   \   000005   E9           MOV     A,R1
   \   000006   FE           MOV     R6,A
    170          	uint32 value = 0L;
   \   000007   90....       MOV     DPTR,#__Constant_0
   \   00000A   78..         MOV     R0,#?V0 + 4
   \   00000C   12....       LCALL   ?L_MOV_X
    171          	
    172          	CS5463_CS=0;
   \   00000F   C286         CLR     0x80.6
    173          	Delay_1u(DELAY); 
   \   000011                ; Setup parameters for call to function Delay_1u
   \   000011   7932         MOV     R1,#0x32
   \   000013   12....       LCALL   ??Delay_1u?relay
    174          	
    175          	SPI_Transfer_byte(cmd);
   \   000016                ; Setup parameters for call to function SPI_Transfer_byte
   \   000016   EE           MOV     A,R6
   \   000017   F9           MOV     R1,A
   \   000018   12....       LCALL   ??SPI_Transfer_byte?relay
    176          	value |= (uint32)SPI_Receive_byte() << 16;    //   high
   \   00001B                ; Setup parameters for call to function SPI_Receive_byte
   \   00001B   12....       LCALL   ??SPI_Receive_byte?relay
   \   00001E   E9           MOV     A,R1
   \   00001F   F5..         MOV     ?V0 + 0,A
   \   000021   E4           CLR     A
   \   000022   F5..         MOV     ?V0 + 1,A
   \   000024   F5..         MOV     ?V0 + 2,A
   \   000026   F5..         MOV     ?V0 + 3,A
   \   000028   7410         MOV     A,#0x10
   \   00002A   78..         MOV     R0,#?V0 + 0
   \   00002C   12....       LCALL   ?L_SHL
   \   00002F   78..         MOV     R0,#?V0 + 4
   \   000031   79..         MOV     R1,#?V0 + 0
   \   000033   12....       LCALL   ?L_IOR
    177          	value |= (uint32)SPI_Receive_byte() << 8;     //  mid
   \   000036                ; Setup parameters for call to function SPI_Receive_byte
   \   000036   12....       LCALL   ??SPI_Receive_byte?relay
   \   000039   E9           MOV     A,R1
   \   00003A   F5..         MOV     ?V0 + 0,A
   \   00003C   E4           CLR     A
   \   00003D   F5..         MOV     ?V0 + 1,A
   \   00003F   F5..         MOV     ?V0 + 2,A
   \   000041   F5..         MOV     ?V0 + 3,A
   \   000043   7408         MOV     A,#0x8
   \   000045   78..         MOV     R0,#?V0 + 0
   \   000047   12....       LCALL   ?L_SHL
   \   00004A   78..         MOV     R0,#?V0 + 4
   \   00004C   79..         MOV     R1,#?V0 + 0
   \   00004E   12....       LCALL   ?L_IOR
    178          	value |= (uint32)SPI_Receive_byte();    //   low
   \   000051                ; Setup parameters for call to function SPI_Receive_byte
   \   000051   12....       LCALL   ??SPI_Receive_byte?relay
   \   000054   E9           MOV     A,R1
   \   000055   F5..         MOV     ?V0 + 0,A
   \   000057   E4           CLR     A
   \   000058   F5..         MOV     ?V0 + 1,A
   \   00005A   F5..         MOV     ?V0 + 2,A
   \   00005C   F5..         MOV     ?V0 + 3,A
   \   00005E   78..         MOV     R0,#?V0 + 4
   \   000060   79..         MOV     R1,#?V0 + 0
   \   000062   12....       LCALL   ?L_IOR
    179          	
    180          	CS5463_CS=1;
   \   000065   D286         SETB    0x80.6
    181          	CS5463_SDO=1;
   \   000067   D283         SETB    0x80.3
    182          	Delay_1u(DELAY);
   \   000069                ; Setup parameters for call to function Delay_1u
   \   000069   7932         MOV     R1,#0x32
   \   00006B   12....       LCALL   ??Delay_1u?relay
    183          	
    184          	return value;
   \   00006E   AA..         MOV     R2,?V0 + 4
   \   000070   AB..         MOV     R3,?V0 + 5
   \   000072   AC..         MOV     R4,?V0 + 6
   \   000074   AD..         MOV     R5,?V0 + 7
   \   000076   7F08         MOV     R7,#0x8
   \   000078   02....       LJMP    ?BANKED_LEAVE_XDATA
   \   00007B                REQUIRE _A_P0
    185          }
    186          /*******************************************************************************
    187          * 函数名称：Read_Cfg_FromCC5463
    188          * 功能描述：从CS5463中读取3字节的数据
    189          * 入口参数：cmd：待读取的字节的地址
    190          * 出口参数：value：读取到的3字节数据
    191          * 注意事项：无
    192          * 备注说明：无
    193          *******************************************************************************/

   \                                 In  segment BANKED_CODE, align 1, keep-with-next
    194          static uint32 Read_Cfg_FromCC5463(void)
   \                     Read_Cfg_FromCC5463:
    195          {
   \   000000   74F0         MOV     A,#-0x10
   \   000002   12....       LCALL   ?BANKED_ENTER_XDATA
   \   000005                ; Saved register size: 16
   \   000005                ; Auto size: 0
    196          	uint32 value = 0L;
   \   000005   90....       MOV     DPTR,#__Constant_0
   \   000008   78..         MOV     R0,#?V0 + 4
   \   00000A   12....       LCALL   ?L_MOV_X
    197          	
    198          	CS5463_CS=0;
   \   00000D   C286         CLR     0x80.6
    199          	Delay_1u(DELAY); 
   \   00000F                ; Setup parameters for call to function Delay_1u
   \   00000F   7932         MOV     R1,#0x32
   \   000011   12....       LCALL   ??Delay_1u?relay
    200          	
    201          	SPI_Transfer_byte(READ_CFG_CMD);
   \   000014                ; Setup parameters for call to function SPI_Transfer_byte
   \   000014   7900         MOV     R1,#0x0
   \   000016   12....       LCALL   ??SPI_Transfer_byte?relay
    202          	
    203          	value |= (uint32)SPI_Receive_byte() << 16;    //   high
   \   000019                ; Setup parameters for call to function SPI_Receive_byte
   \   000019   12....       LCALL   ??SPI_Receive_byte?relay
   \   00001C   E9           MOV     A,R1
   \   00001D   F5..         MOV     ?V0 + 0,A
   \   00001F   E4           CLR     A
   \   000020   F5..         MOV     ?V0 + 1,A
   \   000022   F5..         MOV     ?V0 + 2,A
   \   000024   F5..         MOV     ?V0 + 3,A
   \   000026   7410         MOV     A,#0x10
   \   000028   78..         MOV     R0,#?V0 + 0
   \   00002A   12....       LCALL   ?L_SHL
   \   00002D   78..         MOV     R0,#?V0 + 4
   \   00002F   79..         MOV     R1,#?V0 + 0
   \   000031   12....       LCALL   ?L_IOR
    204          	value |= (uint32)SPI_Receive_byte() << 8;     //  mid
   \   000034                ; Setup parameters for call to function SPI_Receive_byte
   \   000034   12....       LCALL   ??SPI_Receive_byte?relay
   \   000037   E9           MOV     A,R1
   \   000038   F5..         MOV     ?V0 + 0,A
   \   00003A   E4           CLR     A
   \   00003B   F5..         MOV     ?V0 + 1,A
   \   00003D   F5..         MOV     ?V0 + 2,A
   \   00003F   F5..         MOV     ?V0 + 3,A
   \   000041   7408         MOV     A,#0x8
   \   000043   78..         MOV     R0,#?V0 + 0
   \   000045   12....       LCALL   ?L_SHL
   \   000048   78..         MOV     R0,#?V0 + 4
   \   00004A   79..         MOV     R1,#?V0 + 0
   \   00004C   12....       LCALL   ?L_IOR
    205          	value |= (uint32)SPI_Receive_byte();    //   low
   \   00004F                ; Setup parameters for call to function SPI_Receive_byte
   \   00004F   12....       LCALL   ??SPI_Receive_byte?relay
   \   000052   E9           MOV     A,R1
   \   000053   F5..         MOV     ?V0 + 0,A
   \   000055   E4           CLR     A
   \   000056   F5..         MOV     ?V0 + 1,A
   \   000058   F5..         MOV     ?V0 + 2,A
   \   00005A   F5..         MOV     ?V0 + 3,A
   \   00005C   78..         MOV     R0,#?V0 + 4
   \   00005E   79..         MOV     R1,#?V0 + 0
   \   000060   12....       LCALL   ?L_IOR
    206          	
    207          	CS5463_CS=1;
   \   000063   D286         SETB    0x80.6
    208          	CS5463_SDO=1;
   \   000065   D283         SETB    0x80.3
    209          	Delay_1u(DELAY);
   \   000067                ; Setup parameters for call to function Delay_1u
   \   000067   7932         MOV     R1,#0x32
   \   000069   12....       LCALL   ??Delay_1u?relay
    210          	
    211          	return value;
   \   00006C   AA..         MOV     R2,?V0 + 4
   \   00006E   AB..         MOV     R3,?V0 + 5
   \   000070   AC..         MOV     R4,?V0 + 6
   \   000072   AD..         MOV     R5,?V0 + 7
   \   000074   7F08         MOV     R7,#0x8
   \   000076   02....       LJMP    ?BANKED_LEAVE_XDATA
   \   000079                REQUIRE _A_P0
    212          }
    213          /*******************************************************************************
    214          * 函数名称：ComplementToOriginalCode
    215          * 功能描述：补码转源码
    216          * 入口参数：Complement：补码数据
    217          * 出口参数：tmp：源码数据
    218          * 注意事项：无
    219          * 备注说明：无
    220          *******************************************************************************/

   \                                 In  segment BANKED_CODE, align 1, keep-with-next
    221          static uint32 ComplementToOriginalCode(uint32 Complement)
   \                     ComplementToOriginalCode:
    222          {
   \   000000   74EC         MOV     A,#-0x14
   \   000002   12....       LCALL   ?BANKED_ENTER_XDATA
   \   000005                ; Saved register size: 20
   \   000005                ; Auto size: 0
   \   000005   8A..         MOV     ?V0 + 8,R2
   \   000007   8B..         MOV     ?V0 + 9,R3
   \   000009   8C..         MOV     ?V0 + 10,R4
   \   00000B   8D..         MOV     ?V0 + 11,R5
    223          	uint32 tmp;
    224          	
    225          	tmp = Complement;
   \   00000D   85....       MOV     ?V0 + 0,?V0 + 8
   \   000010   85....       MOV     ?V0 + 1,?V0 + 9
   \   000013   85....       MOV     ?V0 + 2,?V0 + 10
   \   000016   85....       MOV     ?V0 + 3,?V0 + 11
    226          	
    227          	if(Complement&(1L<<23)) //为负数则需要求原码
   \   000019   85....       MOV     ?V0 + 4,?V0 + 8
   \   00001C   85....       MOV     ?V0 + 5,?V0 + 9
   \   00001F   85....       MOV     ?V0 + 6,?V0 + 10
   \   000022   85....       MOV     ?V0 + 7,?V0 + 11
   \   000025   90....       MOV     DPTR,#__Constant_800000
   \   000028   78..         MOV     R0,#?V0 + 4
   \   00002A   12....       LCALL   ?L_AND_X
   \   00002D   E5..         MOV     A,?V0 + 4
   \   00002F   45..         ORL     A,?V0 + 5
   \   000031   45..         ORL     A,?V0 + 6
   \   000033   45..         ORL     A,?V0 + 7
   \   000035   6035         JZ      ??ComplementToOriginalCode_0
    228          	{
    229          		tmp  = ((~Complement)+1)&0x007FFFFF;   //按位取反后仅保留数据位，符号位取消
   \   000037   85....       MOV     ?V0 + 4,?V0 + 8
   \   00003A   85....       MOV     ?V0 + 5,?V0 + 9
   \   00003D   85....       MOV     ?V0 + 6,?V0 + 10
   \   000040   85....       MOV     ?V0 + 7,?V0 + 11
   \   000043   78..         MOV     R0,#?V0 + 4
   \   000045   12....       LCALL   ?L_NOT
   \   000048   90....       MOV     DPTR,#__Constant_1
   \   00004B   78..         MOV     R0,#?V0 + 4
   \   00004D   12....       LCALL   ?L_ADD_X
   \   000050   90....       MOV     DPTR,#__Constant_7fffff
   \   000053   78..         MOV     R0,#?V0 + 4
   \   000055   12....       LCALL   ?L_AND_X
   \   000058   85....       MOV     ?V0 + 0,?V0 + 4
   \   00005B   85....       MOV     ?V0 + 1,?V0 + 5
   \   00005E   85....       MOV     ?V0 + 2,?V0 + 6
   \   000061   85....       MOV     ?V0 + 3,?V0 + 7
    230          		tmp |= (1L<<23);                       //将符号位填充在最高位(第24位)
   \   000064   90....       MOV     DPTR,#__Constant_800000
   \   000067   78..         MOV     R0,#?V0 + 0
   \   000069   12....       LCALL   ?L_IOR_X
    231          	}
    232          	
    233          	return tmp;
   \                     ??ComplementToOriginalCode_0:
   \   00006C   AA..         MOV     R2,?V0 + 0
   \   00006E   AB..         MOV     R3,?V0 + 1
   \   000070   AC..         MOV     R4,?V0 + 2
   \   000072   AD..         MOV     R5,?V0 + 3
   \   000074   7F0C         MOV     R7,#0xc
   \   000076   02....       LJMP    ?BANKED_LEAVE_XDATA
    234          }
    235          /*******************************************************************************
    236          * 函数名称：InitCS5463
    237          * 功能描述：启动CS5463
    238          * 入口参数：无
    239          * 出口参数：无
    240          * 注意事项：无
    241          * 备注说明：无
    242          *******************************************************************************/

   \                                 In  segment BANKED_CODE, align 1, keep-with-next
    243          void InitCS5463(void)
   \                     InitCS5463:
    244          {
   \   000000   74F7         MOV     A,#-0x9
   \   000002   12....       LCALL   ?BANKED_ENTER_XDATA
   \   000005                ; Saved register size: 9
   \   000005                ; Auto size: 0
    245          	uint8 i;
    246          	
    247          	SPI_Configration();//初始化spi接口
   \   000005                ; Setup parameters for call to function SPI_Configration
   \   000005   12....       LCALL   ??SPI_Configration?relay
    248          	
    249          	/*reset 5463*/
    250              CS5463_RESET=1;
   \   000008   D293         SETB    0x90.3
    251          	Delay_1u(DELAY); 
   \   00000A                ; Setup parameters for call to function Delay_1u
   \   00000A   7932         MOV     R1,#0x32
   \   00000C   12....       LCALL   ??Delay_1u?relay
    252              CS5463_RESET=0;
   \   00000F   C293         CLR     0x90.3
    253          	Delay_1u(DELAY); 
   \   000011                ; Setup parameters for call to function Delay_1u
   \   000011   7932         MOV     R1,#0x32
   \   000013   12....       LCALL   ??Delay_1u?relay
    254              CS5463_RESET=1;
   \   000016   D293         SETB    0x90.3
    255          	Delay_1u(DELAY); 
   \   000018                ; Setup parameters for call to function Delay_1u
   \   000018   7932         MOV     R1,#0x32
   \   00001A   12....       LCALL   ??Delay_1u?relay
    256          
    257          	
    258          	/*spi io init*/
    259          	P0DIR |= 0x04;  //SDI先设置成输出（p0.2）
   \   00001D   43FD04       ORL     0xfd,#0x4
    260          	
    261          	CS5463_SDO=1;
   \   000020   D283         SETB    0x80.3
    262          	CS5463_SDI=1;
   \   000022   D282         SETB    0x80.2
    263          	CS5463_SCLK = 1;
   \   000024   D285         SETB    0x80.5
    264          	CS5463_CS=0;
   \   000026   C286         CLR     0x80.6
    265          	Delay_1u(DELAY); 
   \   000028                ; Setup parameters for call to function Delay_1u
   \   000028   7932         MOV     R1,#0x32
   \   00002A   12....       LCALL   ??Delay_1u?relay
    266          		
    267            	for(i=0;i<31;i++) 		// clock in 3 bytes of 0xff and then seven 1's
   \   00002D   7E00         MOV     R6,#0x0
   \                     ??InitCS5463_0:
   \   00002F   EE           MOV     A,R6
   \   000030   C3           CLR     C
   \   000031   941F         SUBB    A,#0x1f
   \   000033   5011         JNC     ??InitCS5463_1
    268            	{
    269            	   
    270             	   	CS5463_SCLK=0;
   \   000035   C285         CLR     0x80.5
    271          		Delay_1u(DELAY); 
   \   000037                ; Setup parameters for call to function Delay_1u
   \   000037   7932         MOV     R1,#0x32
   \   000039   12....       LCALL   ??Delay_1u?relay
    272             	   	CS5463_SCLK=1;
   \   00003C   D285         SETB    0x80.5
    273          		Delay_1u(DELAY); 
   \   00003E                ; Setup parameters for call to function Delay_1u
   \   00003E   7932         MOV     R1,#0x32
   \   000040   12....       LCALL   ??Delay_1u?relay
    274             	}
   \   000043   0E           INC     R6
   \   000044   80E9         SJMP    ??InitCS5463_0
    275            	CS5463_SDI=0;
   \                     ??InitCS5463_1:
   \   000046   C282         CLR     0x80.2
    276          	Delay_1u(DELAY); 
   \   000048                ; Setup parameters for call to function Delay_1u
   \   000048   7932         MOV     R1,#0x32
   \   00004A   12....       LCALL   ??Delay_1u?relay
    277            	CS5463_SCLK=0;
   \   00004D   C285         CLR     0x80.5
    278          	Delay_1u(DELAY); 
   \   00004F                ; Setup parameters for call to function Delay_1u
   \   00004F   7932         MOV     R1,#0x32
   \   000051   12....       LCALL   ??Delay_1u?relay
    279            	CS5463_SCLK=1;
   \   000054   D285         SETB    0x80.5
    280          	Delay_1u(DELAY); 
   \   000056                ; Setup parameters for call to function Delay_1u
   \   000056   7932         MOV     R1,#0x32
   \   000058   12....       LCALL   ??Delay_1u?relay
    281             	CS5463_CS=1;
   \   00005B   D286         SETB    0x80.6
    282          	Delay_1u(DELAY); 
   \   00005D                ; Setup parameters for call to function Delay_1u
   \   00005D   7932         MOV     R1,#0x32
   \   00005F   12....       LCALL   ??Delay_1u?relay
    283          }
   \   000062   7F01         MOV     R7,#0x1
   \   000064   02....       LJMP    ?BANKED_LEAVE_XDATA
   \   000067                REQUIRE _A_P1
   \   000067                REQUIRE P0DIR
   \   000067                REQUIRE _A_P0
    284          
    285          /*******************************************************************************
    286          * 函数名称：ConfigCS5463
    287          * 功能描述：初始化CS5463
    288          * 入口参数：无
    289          * 出口参数：无
    290          * 注意事项：无
    291          * 备注说明：无
    292          *******************************************************************************/

   \                                 In  segment BANKED_CODE, align 1, keep-with-next
    293          void ConfigCS5463(void)
   \                     ConfigCS5463:
    294          {
   \   000000   C082         PUSH    DPL
   \   000002   C083         PUSH    DPH
   \   000004                ; Saved register size: 2
   \   000004                ; Auto size: 0
    295          	Send_Command_To_Cs5463(PWR_UP_HALT_CMD);//暂停
   \   000004                ; Setup parameters for call to function Send_Command_To_Cs5463
   \   000004   79A0         MOV     R1,#-0x60
   \   000006   12....       LCALL   ??Send_Command_To_Cs5463?relay
    296          	
    297          	CfgRegToCC5463(WRITE_STATUS_CMD     ,0x800000);//状态寄存器
   \   000009                ; Setup parameters for call to function CfgRegToCC5463
   \   000009   90....       MOV     DPTR,#__Constant_800000
   \   00000C   12....       LCALL   ?XLOAD_R2345
   \   00000F   795E         MOV     R1,#0x5e
   \   000011   12....       LCALL   ??CfgRegToCC5463?relay
    298          	CfgRegToCC5463(WRITE_CFG_CMD        ,CS543_CFG_DATA);//配置寄存器  K = 0,电流通道增益为10*
   \   000014                ; Setup parameters for call to function CfgRegToCC5463
   \   000014   90....       MOV     DPTR,#CS543_CFG_DATA
   \   000017   12....       LCALL   ?XLOAD_R2345
   \   00001A   7940         MOV     R1,#0x40
   \   00001C   12....       LCALL   ??CfgRegToCC5463?relay
    299          	CfgRegToCC5463(WRITE_CYCLE_CNT_CMD  ,0x000fa0);//周期计数寄存器:每一个计算周期长度 MCLK=4.096MHz, K=1, N=4000时，计算周期是一秒
   \   00001F                ; Setup parameters for call to function CfgRegToCC5463
   \   00001F   90....       MOV     DPTR,#__Constant_fa0
   \   000022   12....       LCALL   ?XLOAD_R2345
   \   000025   794A         MOV     R1,#0x4a
   \   000027   12....       LCALL   ??CfgRegToCC5463?relay
    300          	CfgRegToCC5463(WRITE_INT_MASK_CMD   ,0x000000);//屏蔽寄存器
   \   00002A                ; Setup parameters for call to function CfgRegToCC5463
   \   00002A   90....       MOV     DPTR,#__Constant_0
   \   00002D   12....       LCALL   ?XLOAD_R2345
   \   000030   7974         MOV     R1,#0x74
   \   000032   12....       LCALL   ??CfgRegToCC5463?relay
    301          	CfgRegToCC5463(WRITE_MODE_CMD       ,0x000001);//操作模式寄存器   允许自动在线频率测量
   \   000035                ; Setup parameters for call to function CfgRegToCC5463
   \   000035   90....       MOV     DPTR,#__Constant_1
   \   000038   12....       LCALL   ?XLOAD_R2345
   \   00003B   7964         MOV     R1,#0x64
   \   00003D   12....       LCALL   ??CfgRegToCC5463?relay
    302          	
    303          //	CfgRegToCC5463(WRITE_VDCOFF_CMD,VDCOFF_DATA );//写电压通道DC偏移寄存器值
    304          //	CfgRegToCC5463(WRITE_VACOFF_CMD,VACOFF_DATA );//写电压通道AC偏移寄存器值
    305          //	CfgRegToCC5463(WRITE_IDCOFF_CMD,IDCOFF_DATA );//写电流通道DC偏移寄存器值
    306          //	CfgRegToCC5463(WRITE_IACOFF_CMD,IACOFF_DATA );//写电流通道AC偏移寄存器值	
    307          //	CfgRegToCC5463(WRITE_VGN_CMD   ,VGN_DATA );//写电压通道AC增益寄存器值
    308          //	CfgRegToCC5463(WRITE_IGN_CMD   ,IGN_DATA );//写电流通道AC增益寄存器值
    309          	
    310          	//把偏移数据从内存中取出来
    311          		
    312          	Send_Command_To_Cs5463(START_C31_CMD);	//开始连续计量
   \   000040                ; Setup parameters for call to function Send_Command_To_Cs5463
   \   000040   79E8         MOV     R1,#-0x18
   \   000042   12....       LCALL   ??Send_Command_To_Cs5463?relay
    313          }
   \   000045   D083         POP     DPH
   \   000047   D082         POP     DPL
   \   000049   02....       LJMP    ?BRET
    314          
    315          
    316          
    317          /*******************************************************************************
    318          * 函数名称：GetSamplingPeriod
    319          * 功能描述：获取采样周期,采样周期的倒数，用补码表示 -1 ~ -23 次方
    320          * 入口参数：无
    321          * 出口参数：无
    322          * 注意事项：无
    323          * 备注说明：例：K=1，MCLK=4.096MHz，Fi = 50Hz；则 ∈ = 0.0125
    324          *******************************************************************************/

   \                                 In  segment BANKED_CODE, align 1, keep-with-next
    325          sint32 GetSamplingPeriod(void)
   \                     GetSamplingPeriod:
    326          {
   \   000000   74E8         MOV     A,#-0x18
   \   000002   12....       LCALL   ?BANKED_ENTER_XDATA
   \   000005                ; Saved register size: 24
   \   000005                ; Auto size: 0
    327          	float sampli_value;
    328          	uint32 sampli_reg;
    329          	
    330          	Send_Command_To_Cs5463(PWR_UP_HALT_CMD);//暂停
   \   000005                ; Setup parameters for call to function Send_Command_To_Cs5463
   \   000005   79A0         MOV     R1,#-0x60
   \   000007   12....       LCALL   ??Send_Command_To_Cs5463?relay
    331          	sampli_reg = ComplementToOriginalCode(ReadMsgFromCC5463(READ_SAMP_TIM_CMD));              
   \   00000A                ; Setup parameters for call to function ComplementToOriginalCode
   \   00000A                ; Setup parameters for call to function ReadMsgFromCC5463
   \   00000A   791A         MOV     R1,#0x1a
   \   00000C   12....       LCALL   ??ReadMsgFromCC5463?relay
   \   00000F   12....       LCALL   ??ComplementToOriginalCode?relay
   \   000012   8A..         MOV     ?V0 + 8,R2
   \   000014   8B..         MOV     ?V0 + 9,R3
   \   000016   8C..         MOV     ?V0 + 10,R4
   \   000018   8D..         MOV     ?V0 + 11,R5
   \   00001A   85....       MOV     ?V0 + 4,?V0 + 8
   \   00001D   85....       MOV     ?V0 + 5,?V0 + 9
   \   000020   85....       MOV     ?V0 + 6,?V0 + 10
   \   000023   85....       MOV     ?V0 + 7,?V0 + 11
    332          	Send_Command_To_Cs5463(START_C31_CMD);	//开启
   \   000026                ; Setup parameters for call to function Send_Command_To_Cs5463
   \   000026   79E8         MOV     R1,#-0x18
   \   000028   12....       LCALL   ??Send_Command_To_Cs5463?relay
    333          	
    334          	sampli_reg &= 0x007FFFFF;
   \   00002B   90....       MOV     DPTR,#__Constant_7fffff
   \   00002E   78..         MOV     R0,#?V0 + 4
   \   000030   12....       LCALL   ?L_AND_X
    335          	sampli_value = (float)sampli_reg/8388607.0; // 分母为2^23 = 8388608-1
   \   000033   85....       MOV     ?V0 + 8,?V0 + 4
   \   000036   85....       MOV     ?V0 + 9,?V0 + 5
   \   000039   85....       MOV     ?V0 + 10,?V0 + 6
   \   00003C   85....       MOV     ?V0 + 11,?V0 + 7
   \   00003F   78..         MOV     R0,#?V0 + 8
   \   000041   12....       LCALL   ?UL_TO_FLT
   \   000044   90....       MOV     DPTR,#__Constant_4afffffe
   \   000047   78..         MOV     R0,#?V0 + 12
   \   000049   12....       LCALL   ?L_MOV_X
   \   00004C   78..         MOV     R0,#?V0 + 8
   \   00004E   79..         MOV     R1,#?V0 + 12
   \   000050   12....       LCALL   ?FLT_DIV
   \   000053   85....       MOV     ?V0 + 0,?V0 + 8
   \   000056   85....       MOV     ?V0 + 1,?V0 + 9
   \   000059   85....       MOV     ?V0 + 2,?V0 + 10
   \   00005C   85....       MOV     ?V0 + 3,?V0 + 11
    336          	sampli_value *= 10000;                      // 放大10000倍
   \   00005F   90....       MOV     DPTR,#__Constant_461c4000
   \   000062   78..         MOV     R0,#?V0 + 8
   \   000064   12....       LCALL   ?L_MOV_X
   \   000067   78..         MOV     R0,#?V0 + 0
   \   000069   79..         MOV     R1,#?V0 + 8
   \   00006B   12....       LCALL   ?FLT_MUL
    337          	
    338          	if(1 == (sampli_reg&(1L<<23)))
    339          	{
    340          		return -((uint32)sampli_value);
    341          	}
    342          	
    343          	return ((uint32)sampli_value);
   \   00006E   78..         MOV     R0,#?V0 + 0
   \   000070   12....       LCALL   ?FLT_TO_UL
   \   000073   AA..         MOV     R2,?V0 + 0
   \   000075   AB..         MOV     R3,?V0 + 1
   \   000077   AC..         MOV     R4,?V0 + 2
   \   000079   AD..         MOV     R5,?V0 + 3
   \   00007B   7F10         MOV     R7,#0x10
   \   00007D   02....       LJMP    ?BANKED_LEAVE_XDATA
    344          }
    345          /*******************************************************************************
    346          * 函数名称：GetCurrentIrms
    347          * 功能描述：获取电流有效值 -1 ~ -24 次方
    348          * 入口参数：ratioi:校正比例
    349          * 出口参数：irms_value：实际电流值*10000
    350          * 注意事项：无
    351          * 备注说明：无
    352          *******************************************************************************/

   \                                 In  segment BANKED_CODE, align 1, keep-with-next
    353          uint32 GetCurrentIrms(float ratioi, uint32 valueapp, uint32 valueapp_discrepancy)
   \                     GetCurrentIrms:
    354          {
   \   000000   74E8         MOV     A,#-0x18
   \   000002   12....       LCALL   ?BANKED_ENTER_XDATA
   \   000005                ; Saved register size: 24
   \   000005                ; Auto size: 8
   \   000005   74F8         MOV     A,#-0x8
   \   000007   12....       LCALL   ?ALLOC_XSTACK8
   \   00000A   7404         MOV     A,#0x4
   \   00000C   12....       LCALL   ?XSTACK_DISP0_8
   \   00000F   EA           MOV     A,R2
   \   000010   F0           MOVX    @DPTR,A
   \   000011   A3           INC     DPTR
   \   000012   EB           MOV     A,R3
   \   000013   F0           MOVX    @DPTR,A
   \   000014   A3           INC     DPTR
   \   000015   EC           MOV     A,R4
   \   000016   F0           MOVX    @DPTR,A
   \   000017   A3           INC     DPTR
   \   000018   ED           MOV     A,R5
   \   000019   F0           MOVX    @DPTR,A
   \   00001A   7424         MOV     A,#0x24
   \   00001C   12....       LCALL   ?XSTACK_DISP0_8
   \   00001F   78..         MOV     R0,#?V0 + 4
   \   000021   12....       LCALL   ?L_MOV_X
    355          	uint32 irms_reg;
    356          	float  irms_value;
    357          	
    358          	irms_reg   = ComplementToOriginalCode(ReadMsgFromCC5463(READ_IRMS_CMD));
   \   000024                ; Setup parameters for call to function ComplementToOriginalCode
   \   000024                ; Setup parameters for call to function ReadMsgFromCC5463
   \   000024   7916         MOV     R1,#0x16
   \   000026   12....       LCALL   ??ReadMsgFromCC5463?relay
   \   000029   12....       LCALL   ??ComplementToOriginalCode?relay
   \   00002C   85..82       MOV     DPL,?XSP + 0
   \   00002F   85..83       MOV     DPH,?XSP + 1
   \   000032   12....       LCALL   ?XSTORE_R2345
    359          	irms_value = (float)irms_reg/16777215.0; // 2^24 -1
   \   000035   85..82       MOV     DPL,?XSP + 0
   \   000038   85..83       MOV     DPH,?XSP + 1
   \   00003B   78..         MOV     R0,#?V0 + 0
   \   00003D   12....       LCALL   ?L_MOV_X
   \   000040   78..         MOV     R0,#?V0 + 0
   \   000042   12....       LCALL   ?UL_TO_FLT
   \   000045   90....       MOV     DPTR,#__Constant_4b7fffff
   \   000048   78..         MOV     R0,#?V0 + 12
   \   00004A   12....       LCALL   ?L_MOV_X
   \   00004D   78..         MOV     R0,#?V0 + 0
   \   00004F   79..         MOV     R1,#?V0 + 12
   \   000051   12....       LCALL   ?FLT_DIV
   \   000054   85....       MOV     ?V0 + 8,?V0 + 0
   \   000057   85....       MOV     ?V0 + 9,?V0 + 1
   \   00005A   85....       MOV     ?V0 + 10,?V0 + 2
   \   00005D   85....       MOV     ?V0 + 11,?V0 + 3
    360          	irms_value *= 0.05;//250mv满量程
   \   000060   90....       MOV     DPTR,#__Constant_3d4ccccd
   \   000063   78..         MOV     R0,#?V0 + 0
   \   000065   12....       LCALL   ?L_MOV_X
   \   000068   78..         MOV     R0,#?V0 + 8
   \   00006A   79..         MOV     R1,#?V0 + 0
   \   00006C   12....       LCALL   ?FLT_MUL
    361          	irms_value /= 0.002;//电压/电阻=电流，电阻等于0.002Ω
   \   00006F   90....       MOV     DPTR,#__Constant_3b03126f
   \   000072   78..         MOV     R0,#?V0 + 0
   \   000074   12....       LCALL   ?L_MOV_X
   \   000077   78..         MOV     R0,#?V0 + 8
   \   000079   79..         MOV     R1,#?V0 + 0
   \   00007B   12....       LCALL   ?FLT_DIV
    362          	irms_value *= ratioi;                // 与实际电路比值
   \   00007E   7404         MOV     A,#0x4
   \   000080   12....       LCALL   ?XSTACK_DISP0_8
   \   000083   78..         MOV     R0,#?V0 + 0
   \   000085   12....       LCALL   ?L_MOV_X
   \   000088   78..         MOV     R0,#?V0 + 8
   \   00008A   79..         MOV     R1,#?V0 + 0
   \   00008C   12....       LCALL   ?FLT_MUL
    363          	irms_value *= 10000;
   \   00008F   90....       MOV     DPTR,#__Constant_461c4000
   \   000092   78..         MOV     R0,#?V0 + 0
   \   000094   12....       LCALL   ?L_MOV_X
   \   000097   78..         MOV     R0,#?V0 + 8
   \   000099   79..         MOV     R1,#?V0 + 0
   \   00009B   12....       LCALL   ?FLT_MUL
    364          	irms_value -= valueapp_discrepancy;
   \   00009E   85....       MOV     ?V0 + 0,?V0 + 4
   \   0000A1   85....       MOV     ?V0 + 1,?V0 + 5
   \   0000A4   85....       MOV     ?V0 + 2,?V0 + 6
   \   0000A7   85....       MOV     ?V0 + 3,?V0 + 7
   \   0000AA   78..         MOV     R0,#?V0 + 0
   \   0000AC   12....       LCALL   ?UL_TO_FLT
   \   0000AF   78..         MOV     R0,#?V0 + 8
   \   0000B1   79..         MOV     R1,#?V0 + 0
   \   0000B3   12....       LCALL   ?FLT_SUB
    365          	irms_value *= (float)valueapp / 10000.0; 
   \   0000B6   7420         MOV     A,#0x20
   \   0000B8   12....       LCALL   ?XSTACK_DISP0_8
   \   0000BB   78..         MOV     R0,#?V0 + 0
   \   0000BD   12....       LCALL   ?L_MOV_X
   \   0000C0   78..         MOV     R0,#?V0 + 0
   \   0000C2   12....       LCALL   ?UL_TO_FLT
   \   0000C5   90....       MOV     DPTR,#__Constant_461c4000
   \   0000C8   78..         MOV     R0,#?V0 + 12
   \   0000CA   12....       LCALL   ?L_MOV_X
   \   0000CD   78..         MOV     R0,#?V0 + 0
   \   0000CF   79..         MOV     R1,#?V0 + 12
   \   0000D1   12....       LCALL   ?FLT_DIV
   \   0000D4   78..         MOV     R0,#?V0 + 0
   \   0000D6   79..         MOV     R1,#?V0 + 8
   \   0000D8   12....       LCALL   ?FLT_MUL
   \   0000DB   85....       MOV     ?V0 + 8,?V0 + 0
   \   0000DE   85....       MOV     ?V0 + 9,?V0 + 1
   \   0000E1   85....       MOV     ?V0 + 10,?V0 + 2
   \   0000E4   85....       MOV     ?V0 + 11,?V0 + 3
    366          	
    367          	return (uint32)irms_value;
   \   0000E7   78..         MOV     R0,#?V0 + 8
   \   0000E9   12....       LCALL   ?FLT_TO_UL
   \   0000EC   AA..         MOV     R2,?V0 + 8
   \   0000EE   AB..         MOV     R3,?V0 + 9
   \   0000F0   AC..         MOV     R4,?V0 + 10
   \   0000F2   AD..         MOV     R5,?V0 + 11
   \   0000F4   7408         MOV     A,#0x8
   \   0000F6   12....       LCALL   ?DEALLOC_XSTACK8
   \   0000F9   7F10         MOV     R7,#0x10
   \   0000FB   02....       LJMP    ?BANKED_LEAVE_XDATA
    368          }
    369          
    370          /*******************************************************************************
    371          * 函数名称：GetCurrentIvalue
    372          * 功能描述：获取电流瞬时值 -1 ~ -24 次方
    373          * 入口参数：ratioi:校正比例
    374          * 出口参数：irms_value：实际电流值*10000
    375          * 注意事项：无
    376          * 备注说明：无
    377          *******************************************************************************/

   \                                 In  segment BANKED_CODE, align 1, keep-with-next
    378          uint32 GetCurrentIvalue(float ratioi, uint32 valueapp, uint32 valueapp_discrepancy)
   \                     GetCurrentIvalue:
    379          {
   \   000000   74E8         MOV     A,#-0x18
   \   000002   12....       LCALL   ?BANKED_ENTER_XDATA
   \   000005                ; Saved register size: 24
   \   000005                ; Auto size: 8
   \   000005   74F8         MOV     A,#-0x8
   \   000007   12....       LCALL   ?ALLOC_XSTACK8
   \   00000A   7404         MOV     A,#0x4
   \   00000C   12....       LCALL   ?XSTACK_DISP0_8
   \   00000F   EA           MOV     A,R2
   \   000010   F0           MOVX    @DPTR,A
   \   000011   A3           INC     DPTR
   \   000012   EB           MOV     A,R3
   \   000013   F0           MOVX    @DPTR,A
   \   000014   A3           INC     DPTR
   \   000015   EC           MOV     A,R4
   \   000016   F0           MOVX    @DPTR,A
   \   000017   A3           INC     DPTR
   \   000018   ED           MOV     A,R5
   \   000019   F0           MOVX    @DPTR,A
   \   00001A   7424         MOV     A,#0x24
   \   00001C   12....       LCALL   ?XSTACK_DISP0_8
   \   00001F   78..         MOV     R0,#?V0 + 4
   \   000021   12....       LCALL   ?L_MOV_X
    380          	uint32 irms_reg;
    381          	float  irms_value;
    382          	
    383          	irms_reg   = ComplementToOriginalCode(ReadMsgFromCC5463(READ_INS_I_CMD));//读取瞬时电流值
   \   000024                ; Setup parameters for call to function ComplementToOriginalCode
   \   000024                ; Setup parameters for call to function ReadMsgFromCC5463
   \   000024   790E         MOV     R1,#0xe
   \   000026   12....       LCALL   ??ReadMsgFromCC5463?relay
   \   000029   12....       LCALL   ??ComplementToOriginalCode?relay
   \   00002C   85..82       MOV     DPL,?XSP + 0
   \   00002F   85..83       MOV     DPH,?XSP + 1
   \   000032   12....       LCALL   ?XSTORE_R2345
    384          	irms_value = (float)irms_reg/16777215.0; // 2^24 -1
   \   000035   85..82       MOV     DPL,?XSP + 0
   \   000038   85..83       MOV     DPH,?XSP + 1
   \   00003B   78..         MOV     R0,#?V0 + 0
   \   00003D   12....       LCALL   ?L_MOV_X
   \   000040   78..         MOV     R0,#?V0 + 0
   \   000042   12....       LCALL   ?UL_TO_FLT
   \   000045   90....       MOV     DPTR,#__Constant_4b7fffff
   \   000048   78..         MOV     R0,#?V0 + 12
   \   00004A   12....       LCALL   ?L_MOV_X
   \   00004D   78..         MOV     R0,#?V0 + 0
   \   00004F   79..         MOV     R1,#?V0 + 12
   \   000051   12....       LCALL   ?FLT_DIV
   \   000054   85....       MOV     ?V0 + 8,?V0 + 0
   \   000057   85....       MOV     ?V0 + 9,?V0 + 1
   \   00005A   85....       MOV     ?V0 + 10,?V0 + 2
   \   00005D   85....       MOV     ?V0 + 11,?V0 + 3
    385          	irms_value *= 0.05;//250mv满量程
   \   000060   90....       MOV     DPTR,#__Constant_3d4ccccd
   \   000063   78..         MOV     R0,#?V0 + 0
   \   000065   12....       LCALL   ?L_MOV_X
   \   000068   78..         MOV     R0,#?V0 + 8
   \   00006A   79..         MOV     R1,#?V0 + 0
   \   00006C   12....       LCALL   ?FLT_MUL
    386          	irms_value /= 0.002;//电压/电阻=电流，电阻等于0.002Ω
   \   00006F   90....       MOV     DPTR,#__Constant_3b03126f
   \   000072   78..         MOV     R0,#?V0 + 0
   \   000074   12....       LCALL   ?L_MOV_X
   \   000077   78..         MOV     R0,#?V0 + 8
   \   000079   79..         MOV     R1,#?V0 + 0
   \   00007B   12....       LCALL   ?FLT_DIV
    387          	irms_value *= ratioi;                // 与实际电路比值
   \   00007E   7404         MOV     A,#0x4
   \   000080   12....       LCALL   ?XSTACK_DISP0_8
   \   000083   78..         MOV     R0,#?V0 + 0
   \   000085   12....       LCALL   ?L_MOV_X
   \   000088   78..         MOV     R0,#?V0 + 8
   \   00008A   79..         MOV     R1,#?V0 + 0
   \   00008C   12....       LCALL   ?FLT_MUL
    388          	irms_value *= 10000;
   \   00008F   90....       MOV     DPTR,#__Constant_461c4000
   \   000092   78..         MOV     R0,#?V0 + 0
   \   000094   12....       LCALL   ?L_MOV_X
   \   000097   78..         MOV     R0,#?V0 + 8
   \   000099   79..         MOV     R1,#?V0 + 0
   \   00009B   12....       LCALL   ?FLT_MUL
    389          	irms_value -= valueapp_discrepancy;
   \   00009E   85....       MOV     ?V0 + 0,?V0 + 4
   \   0000A1   85....       MOV     ?V0 + 1,?V0 + 5
   \   0000A4   85....       MOV     ?V0 + 2,?V0 + 6
   \   0000A7   85....       MOV     ?V0 + 3,?V0 + 7
   \   0000AA   78..         MOV     R0,#?V0 + 0
   \   0000AC   12....       LCALL   ?UL_TO_FLT
   \   0000AF   78..         MOV     R0,#?V0 + 8
   \   0000B1   79..         MOV     R1,#?V0 + 0
   \   0000B3   12....       LCALL   ?FLT_SUB
    390          	irms_value *= (float)valueapp / 10000.0; 
   \   0000B6   7420         MOV     A,#0x20
   \   0000B8   12....       LCALL   ?XSTACK_DISP0_8
   \   0000BB   78..         MOV     R0,#?V0 + 0
   \   0000BD   12....       LCALL   ?L_MOV_X
   \   0000C0   78..         MOV     R0,#?V0 + 0
   \   0000C2   12....       LCALL   ?UL_TO_FLT
   \   0000C5   90....       MOV     DPTR,#__Constant_461c4000
   \   0000C8   78..         MOV     R0,#?V0 + 12
   \   0000CA   12....       LCALL   ?L_MOV_X
   \   0000CD   78..         MOV     R0,#?V0 + 0
   \   0000CF   79..         MOV     R1,#?V0 + 12
   \   0000D1   12....       LCALL   ?FLT_DIV
   \   0000D4   78..         MOV     R0,#?V0 + 0
   \   0000D6   79..         MOV     R1,#?V0 + 8
   \   0000D8   12....       LCALL   ?FLT_MUL
   \   0000DB   85....       MOV     ?V0 + 8,?V0 + 0
   \   0000DE   85....       MOV     ?V0 + 9,?V0 + 1
   \   0000E1   85....       MOV     ?V0 + 10,?V0 + 2
   \   0000E4   85....       MOV     ?V0 + 11,?V0 + 3
    391          	
    392          	return (uint32)irms_value;
   \   0000E7   78..         MOV     R0,#?V0 + 8
   \   0000E9   12....       LCALL   ?FLT_TO_UL
   \   0000EC   AA..         MOV     R2,?V0 + 8
   \   0000EE   AB..         MOV     R3,?V0 + 9
   \   0000F0   AC..         MOV     R4,?V0 + 10
   \   0000F2   AD..         MOV     R5,?V0 + 11
   \   0000F4   7408         MOV     A,#0x8
   \   0000F6   12....       LCALL   ?DEALLOC_XSTACK8
   \   0000F9   7F10         MOV     R7,#0x10
   \   0000FB   02....       LJMP    ?BANKED_LEAVE_XDATA
    393          }
    394          /*******************************************************************************
    395          * 函数名称：GetVoltageVrms
    396          * 功能描述：获取电压有效值
    397          * 入口参数：ratiov：采样电压比值
    398          * 出口参数：vrms_value：实际电压值*10000
    399          * 注意事项：无
    400          * 备注说明：+250mv对应1      -250mv对应-1
    401          		得到的数据其实质是1~-1之间的数据，此数据需要进行如下运算才能得到有效电压：
    402          		（检测得到的数据 * 250mv） * （R1 + R2）/ R1 = V
    403          *******************************************************************************/

   \                                 In  segment BANKED_CODE, align 1, keep-with-next
    404          uint32 GetVoltageVrms(float ratiov, uint32 valueapp, uint32 valueapp_discrepancy)
   \                     GetVoltageVrms:
    405          {
   \   000000   74E8         MOV     A,#-0x18
   \   000002   12....       LCALL   ?BANKED_ENTER_XDATA
   \   000005                ; Saved register size: 24
   \   000005                ; Auto size: 8
   \   000005   74F8         MOV     A,#-0x8
   \   000007   12....       LCALL   ?ALLOC_XSTACK8
   \   00000A   7404         MOV     A,#0x4
   \   00000C   12....       LCALL   ?XSTACK_DISP0_8
   \   00000F   EA           MOV     A,R2
   \   000010   F0           MOVX    @DPTR,A
   \   000011   A3           INC     DPTR
   \   000012   EB           MOV     A,R3
   \   000013   F0           MOVX    @DPTR,A
   \   000014   A3           INC     DPTR
   \   000015   EC           MOV     A,R4
   \   000016   F0           MOVX    @DPTR,A
   \   000017   A3           INC     DPTR
   \   000018   ED           MOV     A,R5
   \   000019   F0           MOVX    @DPTR,A
   \   00001A   7424         MOV     A,#0x24
   \   00001C   12....       LCALL   ?XSTACK_DISP0_8
   \   00001F   78..         MOV     R0,#?V0 + 4
   \   000021   12....       LCALL   ?L_MOV_X
    406          	uint32 vrms_reg;
    407          	float  vrms_value;
    408          	
    409          	vrms_reg = ComplementToOriginalCode(ReadMsgFromCC5463(READ_VRMS_CMD));
   \   000024                ; Setup parameters for call to function ComplementToOriginalCode
   \   000024                ; Setup parameters for call to function ReadMsgFromCC5463
   \   000024   7918         MOV     R1,#0x18
   \   000026   12....       LCALL   ??ReadMsgFromCC5463?relay
   \   000029   12....       LCALL   ??ComplementToOriginalCode?relay
   \   00002C   85..82       MOV     DPL,?XSP + 0
   \   00002F   85..83       MOV     DPH,?XSP + 1
   \   000032   12....       LCALL   ?XSTORE_R2345
    410          	vrms_value = (float)vrms_reg/16777215.0; // 2^24 -1,得到实际的有效值数据
   \   000035   85..82       MOV     DPL,?XSP + 0
   \   000038   85..83       MOV     DPH,?XSP + 1
   \   00003B   78..         MOV     R0,#?V0 + 0
   \   00003D   12....       LCALL   ?L_MOV_X
   \   000040   78..         MOV     R0,#?V0 + 0
   \   000042   12....       LCALL   ?UL_TO_FLT
   \   000045   90....       MOV     DPTR,#__Constant_4b7fffff
   \   000048   78..         MOV     R0,#?V0 + 12
   \   00004A   12....       LCALL   ?L_MOV_X
   \   00004D   78..         MOV     R0,#?V0 + 0
   \   00004F   79..         MOV     R1,#?V0 + 12
   \   000051   12....       LCALL   ?FLT_DIV
   \   000054   85....       MOV     ?V0 + 8,?V0 + 0
   \   000057   85....       MOV     ?V0 + 9,?V0 + 1
   \   00005A   85....       MOV     ?V0 + 10,?V0 + 2
   \   00005D   85....       MOV     ?V0 + 11,?V0 + 3
    411          	vrms_value *= 0.25;//250mv
   \   000060   90....       MOV     DPTR,#__Constant_3e800000
   \   000063   78..         MOV     R0,#?V0 + 0
   \   000065   12....       LCALL   ?L_MOV_X
   \   000068   78..         MOV     R0,#?V0 + 8
   \   00006A   79..         MOV     R1,#?V0 + 0
   \   00006C   12....       LCALL   ?FLT_MUL
    412          	vrms_value *= ratiov;                // 与实际电路比值	
   \   00006F   7404         MOV     A,#0x4
   \   000071   12....       LCALL   ?XSTACK_DISP0_8
   \   000074   78..         MOV     R0,#?V0 + 0
   \   000076   12....       LCALL   ?L_MOV_X
   \   000079   78..         MOV     R0,#?V0 + 8
   \   00007B   79..         MOV     R1,#?V0 + 0
   \   00007D   12....       LCALL   ?FLT_MUL
    413          	vrms_value *= 10000;
   \   000080   90....       MOV     DPTR,#__Constant_461c4000
   \   000083   78..         MOV     R0,#?V0 + 0
   \   000085   12....       LCALL   ?L_MOV_X
   \   000088   78..         MOV     R0,#?V0 + 8
   \   00008A   79..         MOV     R1,#?V0 + 0
   \   00008C   12....       LCALL   ?FLT_MUL
    414          	vrms_value -= valueapp_discrepancy;
   \   00008F   85....       MOV     ?V0 + 0,?V0 + 4
   \   000092   85....       MOV     ?V0 + 1,?V0 + 5
   \   000095   85....       MOV     ?V0 + 2,?V0 + 6
   \   000098   85....       MOV     ?V0 + 3,?V0 + 7
   \   00009B   78..         MOV     R0,#?V0 + 0
   \   00009D   12....       LCALL   ?UL_TO_FLT
   \   0000A0   78..         MOV     R0,#?V0 + 8
   \   0000A2   79..         MOV     R1,#?V0 + 0
   \   0000A4   12....       LCALL   ?FLT_SUB
    415          	vrms_value *= (float)valueapp / 10000.0; 	
   \   0000A7   7420         MOV     A,#0x20
   \   0000A9   12....       LCALL   ?XSTACK_DISP0_8
   \   0000AC   78..         MOV     R0,#?V0 + 0
   \   0000AE   12....       LCALL   ?L_MOV_X
   \   0000B1   78..         MOV     R0,#?V0 + 0
   \   0000B3   12....       LCALL   ?UL_TO_FLT
   \   0000B6   90....       MOV     DPTR,#__Constant_461c4000
   \   0000B9   78..         MOV     R0,#?V0 + 12
   \   0000BB   12....       LCALL   ?L_MOV_X
   \   0000BE   78..         MOV     R0,#?V0 + 0
   \   0000C0   79..         MOV     R1,#?V0 + 12
   \   0000C2   12....       LCALL   ?FLT_DIV
   \   0000C5   78..         MOV     R0,#?V0 + 0
   \   0000C7   79..         MOV     R1,#?V0 + 8
   \   0000C9   12....       LCALL   ?FLT_MUL
   \   0000CC   85....       MOV     ?V0 + 8,?V0 + 0
   \   0000CF   85....       MOV     ?V0 + 9,?V0 + 1
   \   0000D2   85....       MOV     ?V0 + 10,?V0 + 2
   \   0000D5   85....       MOV     ?V0 + 11,?V0 + 3
    416          	
    417          	return (uint32)vrms_value;
   \   0000D8   78..         MOV     R0,#?V0 + 8
   \   0000DA   12....       LCALL   ?FLT_TO_UL
   \   0000DD   AA..         MOV     R2,?V0 + 8
   \   0000DF   AB..         MOV     R3,?V0 + 9
   \   0000E1   AC..         MOV     R4,?V0 + 10
   \   0000E3   AD..         MOV     R5,?V0 + 11
   \   0000E5   7408         MOV     A,#0x8
   \   0000E7   12....       LCALL   ?DEALLOC_XSTACK8
   \   0000EA   7F10         MOV     R7,#0x10
   \   0000EC   02....       LJMP    ?BANKED_LEAVE_XDATA
    418          }
    419          /*******************************************************************************
    420          * 函数名称：GetPactive
    421          * 功能描述：获取有功功率 有符号
    422          * 入口参数：ratiop:校正比例
    423          * 出口参数：pact_value：功率比例值*10000   
    424          * 注意事项：无
    425          * 备注说明：无
    426          *******************************************************************************/

   \                                 In  segment BANKED_CODE, align 1, keep-with-next
    427          sint32 GetPactive(float ratiop, uint32 valueapp,uint32 valueapp_discrepancy)
   \                     GetPactive:
    428          {
   \   000000   74E8         MOV     A,#-0x18
   \   000002   12....       LCALL   ?BANKED_ENTER_XDATA
   \   000005                ; Saved register size: 24
   \   000005                ; Auto size: 8
   \   000005   74F8         MOV     A,#-0x8
   \   000007   12....       LCALL   ?ALLOC_XSTACK8
   \   00000A   7404         MOV     A,#0x4
   \   00000C   12....       LCALL   ?XSTACK_DISP0_8
   \   00000F   EA           MOV     A,R2
   \   000010   F0           MOVX    @DPTR,A
   \   000011   A3           INC     DPTR
   \   000012   EB           MOV     A,R3
   \   000013   F0           MOVX    @DPTR,A
   \   000014   A3           INC     DPTR
   \   000015   EC           MOV     A,R4
   \   000016   F0           MOVX    @DPTR,A
   \   000017   A3           INC     DPTR
   \   000018   ED           MOV     A,R5
   \   000019   F0           MOVX    @DPTR,A
   \   00001A   7424         MOV     A,#0x24
   \   00001C   12....       LCALL   ?XSTACK_DISP0_8
   \   00001F   78..         MOV     R0,#?V0 + 4
   \   000021   12....       LCALL   ?L_MOV_X
    429          	uint32 pact_reg;
    430          	float  pact_value;
    431          	
    432          	pact_reg = ComplementToOriginalCode(ReadMsgFromCC5463(READ_PACTIVE_CMD));
   \   000024                ; Setup parameters for call to function ComplementToOriginalCode
   \   000024                ; Setup parameters for call to function ReadMsgFromCC5463
   \   000024   7914         MOV     R1,#0x14
   \   000026   12....       LCALL   ??ReadMsgFromCC5463?relay
   \   000029   12....       LCALL   ??ComplementToOriginalCode?relay
   \   00002C   85..82       MOV     DPL,?XSP + 0
   \   00002F   85..83       MOV     DPH,?XSP + 1
   \   000032   12....       LCALL   ?XSTORE_R2345
    433          	pact_value = (float)(pact_reg & 0x007FFFFF)/8388607.0;
   \   000035   85..82       MOV     DPL,?XSP + 0
   \   000038   85..83       MOV     DPH,?XSP + 1
   \   00003B   78..         MOV     R0,#?V0 + 0
   \   00003D   12....       LCALL   ?L_MOV_X
   \   000040   90....       MOV     DPTR,#__Constant_7fffff
   \   000043   78..         MOV     R0,#?V0 + 0
   \   000045   12....       LCALL   ?L_AND_X
   \   000048   78..         MOV     R0,#?V0 + 0
   \   00004A   12....       LCALL   ?UL_TO_FLT
   \   00004D   90....       MOV     DPTR,#__Constant_4afffffe
   \   000050   78..         MOV     R0,#?V0 + 12
   \   000052   12....       LCALL   ?L_MOV_X
   \   000055   78..         MOV     R0,#?V0 + 0
   \   000057   79..         MOV     R1,#?V0 + 12
   \   000059   12....       LCALL   ?FLT_DIV
   \   00005C   85....       MOV     ?V0 + 8,?V0 + 0
   \   00005F   85....       MOV     ?V0 + 9,?V0 + 1
   \   000062   85....       MOV     ?V0 + 10,?V0 + 2
   \   000065   85....       MOV     ?V0 + 11,?V0 + 3
    434          	pact_value *= ratiop;
   \   000068   7404         MOV     A,#0x4
   \   00006A   12....       LCALL   ?XSTACK_DISP0_8
   \   00006D   78..         MOV     R0,#?V0 + 0
   \   00006F   12....       LCALL   ?L_MOV_X
   \   000072   78..         MOV     R0,#?V0 + 8
   \   000074   79..         MOV     R1,#?V0 + 0
   \   000076   12....       LCALL   ?FLT_MUL
    435          	pact_value *= 10000;
   \   000079   90....       MOV     DPTR,#__Constant_461c4000
   \   00007C   78..         MOV     R0,#?V0 + 0
   \   00007E   12....       LCALL   ?L_MOV_X
   \   000081   78..         MOV     R0,#?V0 + 8
   \   000083   79..         MOV     R1,#?V0 + 0
   \   000085   12....       LCALL   ?FLT_MUL
    436          	pact_value -= valueapp_discrepancy;	
   \   000088   85....       MOV     ?V0 + 0,?V0 + 4
   \   00008B   85....       MOV     ?V0 + 1,?V0 + 5
   \   00008E   85....       MOV     ?V0 + 2,?V0 + 6
   \   000091   85....       MOV     ?V0 + 3,?V0 + 7
   \   000094   78..         MOV     R0,#?V0 + 0
   \   000096   12....       LCALL   ?UL_TO_FLT
   \   000099   78..         MOV     R0,#?V0 + 8
   \   00009B   79..         MOV     R1,#?V0 + 0
   \   00009D   12....       LCALL   ?FLT_SUB
    437          	pact_value *= (float)valueapp / 10000.0;	
   \   0000A0   7420         MOV     A,#0x20
   \   0000A2   12....       LCALL   ?XSTACK_DISP0_8
   \   0000A5   78..         MOV     R0,#?V0 + 0
   \   0000A7   12....       LCALL   ?L_MOV_X
   \   0000AA   78..         MOV     R0,#?V0 + 0
   \   0000AC   12....       LCALL   ?UL_TO_FLT
   \   0000AF   90....       MOV     DPTR,#__Constant_461c4000
   \   0000B2   78..         MOV     R0,#?V0 + 12
   \   0000B4   12....       LCALL   ?L_MOV_X
   \   0000B7   78..         MOV     R0,#?V0 + 0
   \   0000B9   79..         MOV     R1,#?V0 + 12
   \   0000BB   12....       LCALL   ?FLT_DIV
   \   0000BE   78..         MOV     R0,#?V0 + 0
   \   0000C0   79..         MOV     R1,#?V0 + 8
   \   0000C2   12....       LCALL   ?FLT_MUL
   \   0000C5   85....       MOV     ?V0 + 8,?V0 + 0
   \   0000C8   85....       MOV     ?V0 + 9,?V0 + 1
   \   0000CB   85....       MOV     ?V0 + 10,?V0 + 2
   \   0000CE   85....       MOV     ?V0 + 11,?V0 + 3
    438          	
    439          	if(1 == (pact_reg & (1L<<23)))
    440          	{
    441          		return (-((uint32)pact_value));
    442          	}
    443          	
    444          	return ((uint32)pact_value);
   \   0000D1   78..         MOV     R0,#?V0 + 8
   \   0000D3   12....       LCALL   ?FLT_TO_UL
   \   0000D6   AA..         MOV     R2,?V0 + 8
   \   0000D8   AB..         MOV     R3,?V0 + 9
   \   0000DA   AC..         MOV     R4,?V0 + 10
   \   0000DC   AD..         MOV     R5,?V0 + 11
   \   0000DE   7408         MOV     A,#0x8
   \   0000E0   12....       LCALL   ?DEALLOC_XSTACK8
   \   0000E3   7F10         MOV     R7,#0x10
   \   0000E5   02....       LJMP    ?BANKED_LEAVE_XDATA
    445          }
    446          /*******************************************************************************
    447          * 函数名称：GetApparenPower
    448          * 功能描述：获取视在功率(有功功率 + 无功功率)   无符号
    449          * 入口参数：ratios：校正比例
    450          * 出口参数：appa_value：功率比例值*10000
    451          * 注意事项：无
    452          * 备注说明：无
    453          *******************************************************************************/

   \                                 In  segment BANKED_CODE, align 1, keep-with-next
    454          uint32 GetApparenPower(float ratios, uint32 valueapp,uint32 valueapp_discrepancy)
   \                     GetApparenPower:
    455          {
   \   000000   74E8         MOV     A,#-0x18
   \   000002   12....       LCALL   ?BANKED_ENTER_XDATA
   \   000005                ; Saved register size: 24
   \   000005                ; Auto size: 8
   \   000005   74F8         MOV     A,#-0x8
   \   000007   12....       LCALL   ?ALLOC_XSTACK8
   \   00000A   7404         MOV     A,#0x4
   \   00000C   12....       LCALL   ?XSTACK_DISP0_8
   \   00000F   EA           MOV     A,R2
   \   000010   F0           MOVX    @DPTR,A
   \   000011   A3           INC     DPTR
   \   000012   EB           MOV     A,R3
   \   000013   F0           MOVX    @DPTR,A
   \   000014   A3           INC     DPTR
   \   000015   EC           MOV     A,R4
   \   000016   F0           MOVX    @DPTR,A
   \   000017   A3           INC     DPTR
   \   000018   ED           MOV     A,R5
   \   000019   F0           MOVX    @DPTR,A
   \   00001A   7424         MOV     A,#0x24
   \   00001C   12....       LCALL   ?XSTACK_DISP0_8
   \   00001F   78..         MOV     R0,#?V0 + 4
   \   000021   12....       LCALL   ?L_MOV_X
    456          	uint32 appa_reg;
    457          	float  appa_value;	
    458          	
    459          	appa_reg = ComplementToOriginalCode(ReadMsgFromCC5463(READ_S_CMD));
   \   000024                ; Setup parameters for call to function ComplementToOriginalCode
   \   000024                ; Setup parameters for call to function ReadMsgFromCC5463
   \   000024   7936         MOV     R1,#0x36
   \   000026   12....       LCALL   ??ReadMsgFromCC5463?relay
   \   000029   12....       LCALL   ??ComplementToOriginalCode?relay
   \   00002C   85..82       MOV     DPL,?XSP + 0
   \   00002F   85..83       MOV     DPH,?XSP + 1
   \   000032   12....       LCALL   ?XSTORE_R2345
    460          	appa_value = (float)(appa_reg&0x007FFFFF)/8388607.0;
   \   000035   85..82       MOV     DPL,?XSP + 0
   \   000038   85..83       MOV     DPH,?XSP + 1
   \   00003B   78..         MOV     R0,#?V0 + 0
   \   00003D   12....       LCALL   ?L_MOV_X
   \   000040   90....       MOV     DPTR,#__Constant_7fffff
   \   000043   78..         MOV     R0,#?V0 + 0
   \   000045   12....       LCALL   ?L_AND_X
   \   000048   78..         MOV     R0,#?V0 + 0
   \   00004A   12....       LCALL   ?UL_TO_FLT
   \   00004D   90....       MOV     DPTR,#__Constant_4afffffe
   \   000050   78..         MOV     R0,#?V0 + 12
   \   000052   12....       LCALL   ?L_MOV_X
   \   000055   78..         MOV     R0,#?V0 + 0
   \   000057   79..         MOV     R1,#?V0 + 12
   \   000059   12....       LCALL   ?FLT_DIV
   \   00005C   85....       MOV     ?V0 + 8,?V0 + 0
   \   00005F   85....       MOV     ?V0 + 9,?V0 + 1
   \   000062   85....       MOV     ?V0 + 10,?V0 + 2
   \   000065   85....       MOV     ?V0 + 11,?V0 + 3
    461          	appa_value *= ratios;
   \   000068   7404         MOV     A,#0x4
   \   00006A   12....       LCALL   ?XSTACK_DISP0_8
   \   00006D   78..         MOV     R0,#?V0 + 0
   \   00006F   12....       LCALL   ?L_MOV_X
   \   000072   78..         MOV     R0,#?V0 + 8
   \   000074   79..         MOV     R1,#?V0 + 0
   \   000076   12....       LCALL   ?FLT_MUL
    462          	appa_value *= 10000;
   \   000079   90....       MOV     DPTR,#__Constant_461c4000
   \   00007C   78..         MOV     R0,#?V0 + 0
   \   00007E   12....       LCALL   ?L_MOV_X
   \   000081   78..         MOV     R0,#?V0 + 8
   \   000083   79..         MOV     R1,#?V0 + 0
   \   000085   12....       LCALL   ?FLT_MUL
    463          	appa_value -= valueapp_discrepancy;	
   \   000088   85....       MOV     ?V0 + 0,?V0 + 4
   \   00008B   85....       MOV     ?V0 + 1,?V0 + 5
   \   00008E   85....       MOV     ?V0 + 2,?V0 + 6
   \   000091   85....       MOV     ?V0 + 3,?V0 + 7
   \   000094   78..         MOV     R0,#?V0 + 0
   \   000096   12....       LCALL   ?UL_TO_FLT
   \   000099   78..         MOV     R0,#?V0 + 8
   \   00009B   79..         MOV     R1,#?V0 + 0
   \   00009D   12....       LCALL   ?FLT_SUB
    464          	appa_value *= (float)valueapp / 10000.0;		
   \   0000A0   7420         MOV     A,#0x20
   \   0000A2   12....       LCALL   ?XSTACK_DISP0_8
   \   0000A5   78..         MOV     R0,#?V0 + 0
   \   0000A7   12....       LCALL   ?L_MOV_X
   \   0000AA   78..         MOV     R0,#?V0 + 0
   \   0000AC   12....       LCALL   ?UL_TO_FLT
   \   0000AF   90....       MOV     DPTR,#__Constant_461c4000
   \   0000B2   78..         MOV     R0,#?V0 + 12
   \   0000B4   12....       LCALL   ?L_MOV_X
   \   0000B7   78..         MOV     R0,#?V0 + 0
   \   0000B9   79..         MOV     R1,#?V0 + 12
   \   0000BB   12....       LCALL   ?FLT_DIV
   \   0000BE   78..         MOV     R0,#?V0 + 0
   \   0000C0   79..         MOV     R1,#?V0 + 8
   \   0000C2   12....       LCALL   ?FLT_MUL
   \   0000C5   85....       MOV     ?V0 + 8,?V0 + 0
   \   0000C8   85....       MOV     ?V0 + 9,?V0 + 1
   \   0000CB   85....       MOV     ?V0 + 10,?V0 + 2
   \   0000CE   85....       MOV     ?V0 + 11,?V0 + 3
    465          	
    466          	return ((uint32)appa_value);
   \   0000D1   78..         MOV     R0,#?V0 + 8
   \   0000D3   12....       LCALL   ?FLT_TO_UL
   \   0000D6   AA..         MOV     R2,?V0 + 8
   \   0000D8   AB..         MOV     R3,?V0 + 9
   \   0000DA   AC..         MOV     R4,?V0 + 10
   \   0000DC   AD..         MOV     R5,?V0 + 11
   \   0000DE   7408         MOV     A,#0x8
   \   0000E0   12....       LCALL   ?DEALLOC_XSTACK8
   \   0000E3   7F10         MOV     R7,#0x10
   \   0000E5   02....       LJMP    ?BANKED_LEAVE_XDATA
    467          }
    468          /*******************************************************************************
    469          * 函数名称：GetPowerFactor
    470          * 功能描述：获取功率因数 功率因数是有功功率和视在功率的比值，即cosΦ=P/S. 有符号
    471          * 入口参数：无
    472          * 出口参数：pwr_value：功率因数*10000
    473          * 注意事项：无
    474          * 备注说明：无
    475          *******************************************************************************/

   \                                 In  segment BANKED_CODE, align 1, keep-with-next
    476          sint32 GetPowerFactor(float ratios, uint32 valueapp,uint32 valueapp_discrepancy)
   \                     GetPowerFactor:
    477          {
   \   000000   74E8         MOV     A,#-0x18
   \   000002   12....       LCALL   ?BANKED_ENTER_XDATA
   \   000005                ; Saved register size: 24
   \   000005                ; Auto size: 8
   \   000005   74F8         MOV     A,#-0x8
   \   000007   12....       LCALL   ?ALLOC_XSTACK8
   \   00000A   7404         MOV     A,#0x4
   \   00000C   12....       LCALL   ?XSTACK_DISP0_8
   \   00000F   EA           MOV     A,R2
   \   000010   F0           MOVX    @DPTR,A
   \   000011   A3           INC     DPTR
   \   000012   EB           MOV     A,R3
   \   000013   F0           MOVX    @DPTR,A
   \   000014   A3           INC     DPTR
   \   000015   EC           MOV     A,R4
   \   000016   F0           MOVX    @DPTR,A
   \   000017   A3           INC     DPTR
   \   000018   ED           MOV     A,R5
   \   000019   F0           MOVX    @DPTR,A
   \   00001A   7424         MOV     A,#0x24
   \   00001C   12....       LCALL   ?XSTACK_DISP0_8
   \   00001F   78..         MOV     R0,#?V0 + 4
   \   000021   12....       LCALL   ?L_MOV_X
    478          	uint32 pwr_reg;
    479          	float  pwr_value;
    480          
    481          	Send_Command_To_Cs5463(PWR_UP_HALT_CMD);
   \   000024                ; Setup parameters for call to function Send_Command_To_Cs5463
   \   000024   79A0         MOV     R1,#-0x60
   \   000026   12....       LCALL   ??Send_Command_To_Cs5463?relay
    482          	pwr_reg = ComplementToOriginalCode(ReadMsgFromCC5463(READ_PF_CMD));//
   \   000029                ; Setup parameters for call to function ComplementToOriginalCode
   \   000029                ; Setup parameters for call to function ReadMsgFromCC5463
   \   000029   7932         MOV     R1,#0x32
   \   00002B   12....       LCALL   ??ReadMsgFromCC5463?relay
   \   00002E   12....       LCALL   ??ComplementToOriginalCode?relay
   \   000031   85..82       MOV     DPL,?XSP + 0
   \   000034   85..83       MOV     DPH,?XSP + 1
   \   000037   12....       LCALL   ?XSTORE_R2345
    483          	Send_Command_To_Cs5463(START_C31_CMD);	
   \   00003A                ; Setup parameters for call to function Send_Command_To_Cs5463
   \   00003A   79E8         MOV     R1,#-0x18
   \   00003C   12....       LCALL   ??Send_Command_To_Cs5463?relay
    484          	
    485          	pwr_value = (float)(pwr_reg&0x007FFFFF)/8388607.0;
   \   00003F   85..82       MOV     DPL,?XSP + 0
   \   000042   85..83       MOV     DPH,?XSP + 1
   \   000045   78..         MOV     R0,#?V0 + 0
   \   000047   12....       LCALL   ?L_MOV_X
   \   00004A   90....       MOV     DPTR,#__Constant_7fffff
   \   00004D   78..         MOV     R0,#?V0 + 0
   \   00004F   12....       LCALL   ?L_AND_X
   \   000052   78..         MOV     R0,#?V0 + 0
   \   000054   12....       LCALL   ?UL_TO_FLT
   \   000057   90....       MOV     DPTR,#__Constant_4afffffe
   \   00005A   78..         MOV     R0,#?V0 + 12
   \   00005C   12....       LCALL   ?L_MOV_X
   \   00005F   78..         MOV     R0,#?V0 + 0
   \   000061   79..         MOV     R1,#?V0 + 12
   \   000063   12....       LCALL   ?FLT_DIV
   \   000066   85....       MOV     ?V0 + 8,?V0 + 0
   \   000069   85....       MOV     ?V0 + 9,?V0 + 1
   \   00006C   85....       MOV     ?V0 + 10,?V0 + 2
   \   00006F   85....       MOV     ?V0 + 11,?V0 + 3
    486          	pwr_value *= ratios;	
   \   000072   7404         MOV     A,#0x4
   \   000074   12....       LCALL   ?XSTACK_DISP0_8
   \   000077   78..         MOV     R0,#?V0 + 0
   \   000079   12....       LCALL   ?L_MOV_X
   \   00007C   78..         MOV     R0,#?V0 + 8
   \   00007E   79..         MOV     R1,#?V0 + 0
   \   000080   12....       LCALL   ?FLT_MUL
    487          	pwr_value *= 10000;
   \   000083   90....       MOV     DPTR,#__Constant_461c4000
   \   000086   78..         MOV     R0,#?V0 + 0
   \   000088   12....       LCALL   ?L_MOV_X
   \   00008B   78..         MOV     R0,#?V0 + 8
   \   00008D   79..         MOV     R1,#?V0 + 0
   \   00008F   12....       LCALL   ?FLT_MUL
    488          	pwr_value -= valueapp_discrepancy;	
   \   000092   85....       MOV     ?V0 + 0,?V0 + 4
   \   000095   85....       MOV     ?V0 + 1,?V0 + 5
   \   000098   85....       MOV     ?V0 + 2,?V0 + 6
   \   00009B   85....       MOV     ?V0 + 3,?V0 + 7
   \   00009E   78..         MOV     R0,#?V0 + 0
   \   0000A0   12....       LCALL   ?UL_TO_FLT
   \   0000A3   78..         MOV     R0,#?V0 + 8
   \   0000A5   79..         MOV     R1,#?V0 + 0
   \   0000A7   12....       LCALL   ?FLT_SUB
    489          	pwr_value *= (float)valueapp / 10000.0; 	
   \   0000AA   7420         MOV     A,#0x20
   \   0000AC   12....       LCALL   ?XSTACK_DISP0_8
   \   0000AF   78..         MOV     R0,#?V0 + 0
   \   0000B1   12....       LCALL   ?L_MOV_X
   \   0000B4   78..         MOV     R0,#?V0 + 0
   \   0000B6   12....       LCALL   ?UL_TO_FLT
   \   0000B9   90....       MOV     DPTR,#__Constant_461c4000
   \   0000BC   78..         MOV     R0,#?V0 + 12
   \   0000BE   12....       LCALL   ?L_MOV_X
   \   0000C1   78..         MOV     R0,#?V0 + 0
   \   0000C3   79..         MOV     R1,#?V0 + 12
   \   0000C5   12....       LCALL   ?FLT_DIV
   \   0000C8   78..         MOV     R0,#?V0 + 0
   \   0000CA   79..         MOV     R1,#?V0 + 8
   \   0000CC   12....       LCALL   ?FLT_MUL
   \   0000CF   85....       MOV     ?V0 + 8,?V0 + 0
   \   0000D2   85....       MOV     ?V0 + 9,?V0 + 1
   \   0000D5   85....       MOV     ?V0 + 10,?V0 + 2
   \   0000D8   85....       MOV     ?V0 + 11,?V0 + 3
    490          	
    491          	if(1 == (pwr_reg&(1L<<23)))
    492          	{
    493          		return (-((uint32)pwr_value));
    494          	}
    495          	
    496          	return ((uint32)pwr_value);
   \   0000DB   78..         MOV     R0,#?V0 + 8
   \   0000DD   12....       LCALL   ?FLT_TO_UL
   \   0000E0   AA..         MOV     R2,?V0 + 8
   \   0000E2   AB..         MOV     R3,?V0 + 9
   \   0000E4   AC..         MOV     R4,?V0 + 10
   \   0000E6   AD..         MOV     R5,?V0 + 11
   \   0000E8   7408         MOV     A,#0x8
   \   0000EA   12....       LCALL   ?DEALLOC_XSTACK8
   \   0000ED   7F10         MOV     R7,#0x10
   \   0000EF   02....       LJMP    ?BANKED_LEAVE_XDATA
    497          }
    498          
    499          /*******************************************************************************
    500          * 函数名称：GetTemperature
    501          * 功能描述：获取温度传感器值
    502          * 入口参数：无
    503          * 出口参数：value：实际温度值*10000
    504          * 注意事项：无
    505          * 备注说明：无
    506          *******************************************************************************/

   \                                 In  segment BANKED_CODE, align 1, keep-with-next
    507          sint32 GetTemperature(uint32 Temper_App_Value)
   \                     GetTemperature:
    508          {
   \   000000   74E8         MOV     A,#-0x18
   \   000002   12....       LCALL   ?BANKED_ENTER_XDATA
   \   000005                ; Saved register size: 24
   \   000005                ; Auto size: 8
   \   000005   74F8         MOV     A,#-0x8
   \   000007   12....       LCALL   ?ALLOC_XSTACK8
   \   00000A   7404         MOV     A,#0x4
   \   00000C   12....       LCALL   ?XSTACK_DISP0_8
   \   00000F   EA           MOV     A,R2
   \   000010   F0           MOVX    @DPTR,A
   \   000011   A3           INC     DPTR
   \   000012   EB           MOV     A,R3
   \   000013   F0           MOVX    @DPTR,A
   \   000014   A3           INC     DPTR
   \   000015   EC           MOV     A,R4
   \   000016   F0           MOVX    @DPTR,A
   \   000017   A3           INC     DPTR
   \   000018   ED           MOV     A,R5
   \   000019   F0           MOVX    @DPTR,A
    509          	uint32 temper_reg = 0;
   \   00001A   90....       MOV     DPTR,#__Constant_0
   \   00001D   78..         MOV     R0,#?V0 + 4
   \   00001F   12....       LCALL   ?L_MOV_X
    510          	uint8 Integer_part = 0;
   \   000022   7E00         MOV     R6,#0x0
    511          	float decimal_part = 0.0;
   \   000024   90....       MOV     DPTR,#__Constant_0
   \   000027   78..         MOV     R0,#?V0 + 8
   \   000029   12....       LCALL   ?L_MOV_X
    512          	float value = 0.0;			
   \   00002C   90....       MOV     DPTR,#__Constant_0
   \   00002F   12....       LCALL   ?XLOAD_R2345
   \   000032   85..82       MOV     DPL,?XSP + 0
   \   000035   85..83       MOV     DPH,?XSP + 1
   \   000038   12....       LCALL   ?XSTORE_R2345
    513          	
    514          	CfgRegToCC5463(OPER_PAGE_CMD,OPER_PAGE1_CMD );            // 温度传感器偏移寄存器 换页
   \   00003B                ; Setup parameters for call to function CfgRegToCC5463
   \   00003B   90....       MOV     DPTR,#__Constant_1
   \   00003E   12....       LCALL   ?XLOAD_R2345
   \   000041   797E         MOV     R1,#0x7e
   \   000043   12....       LCALL   ??CfgRegToCC5463?relay
    515          	temper_reg = ComplementToOriginalCode(ReadMsgFromCC5463(READ_TOFF_CMD));
   \   000046                ; Setup parameters for call to function ComplementToOriginalCode
   \   000046                ; Setup parameters for call to function ReadMsgFromCC5463
   \   000046   7906         MOV     R1,#0x6
   \   000048   12....       LCALL   ??ReadMsgFromCC5463?relay
   \   00004B   12....       LCALL   ??ComplementToOriginalCode?relay
   \   00004E   8A..         MOV     ?V0 + 0,R2
   \   000050   8B..         MOV     ?V0 + 1,R3
   \   000052   8C..         MOV     ?V0 + 2,R4
   \   000054   8D..         MOV     ?V0 + 3,R5
   \   000056   85....       MOV     ?V0 + 4,?V0 + 0
   \   000059   85....       MOV     ?V0 + 5,?V0 + 1
   \   00005C   85....       MOV     ?V0 + 6,?V0 + 2
   \   00005F   85....       MOV     ?V0 + 7,?V0 + 3
    516          	decimal_part = (float)(temper_reg&0x007FFFFF)/8388607.0;  // 分母为2^23 = 8388608-1
   \   000062   85....       MOV     ?V0 + 12,?V0 + 4
   \   000065   85....       MOV     ?V0 + 13,?V0 + 5
   \   000068   85....       MOV     ?V0 + 14,?V0 + 6
   \   00006B   85....       MOV     ?V0 + 15,?V0 + 7
   \   00006E   90....       MOV     DPTR,#__Constant_7fffff
   \   000071   78..         MOV     R0,#?V0 + 12
   \   000073   12....       LCALL   ?L_AND_X
   \   000076   78..         MOV     R0,#?V0 + 12
   \   000078   12....       LCALL   ?UL_TO_FLT
   \   00007B   90....       MOV     DPTR,#__Constant_4afffffe
   \   00007E   78..         MOV     R0,#?V0 + 0
   \   000080   12....       LCALL   ?L_MOV_X
   \   000083   78..         MOV     R0,#?V0 + 12
   \   000085   79..         MOV     R1,#?V0 + 0
   \   000087   12....       LCALL   ?FLT_DIV
   \   00008A   85....       MOV     ?V0 + 8,?V0 + 12
   \   00008D   85....       MOV     ?V0 + 9,?V0 + 13
   \   000090   85....       MOV     ?V0 + 10,?V0 + 14
   \   000093   85....       MOV     ?V0 + 11,?V0 + 15
    517          	value = decimal_part;
   \   000096   85..82       MOV     DPL,?XSP + 0
   \   000099   85..83       MOV     DPH,?XSP + 1
   \   00009C   78..         MOV     R0,#?V0 + 8
   \   00009E   12....       LCALL   ?L_MOV_TO_X
    518          	CfgRegToCC5463(OPER_PAGE_CMD,OPER_PAGE0_CMD );            // 温度传感器偏移寄存器 换页	
   \   0000A1                ; Setup parameters for call to function CfgRegToCC5463
   \   0000A1   90....       MOV     DPTR,#__Constant_0
   \   0000A4   12....       LCALL   ?XLOAD_R2345
   \   0000A7   797E         MOV     R1,#0x7e
   \   0000A9   12....       LCALL   ??CfgRegToCC5463?relay
    519          	temper_reg = ComplementToOriginalCode(ReadMsgFromCC5463(READ_TEMPER_CMD));
   \   0000AC                ; Setup parameters for call to function ComplementToOriginalCode
   \   0000AC                ; Setup parameters for call to function ReadMsgFromCC5463
   \   0000AC   7926         MOV     R1,#0x26
   \   0000AE   12....       LCALL   ??ReadMsgFromCC5463?relay
   \   0000B1   12....       LCALL   ??ComplementToOriginalCode?relay
   \   0000B4   8A..         MOV     ?V0 + 0,R2
   \   0000B6   8B..         MOV     ?V0 + 1,R3
   \   0000B8   8C..         MOV     ?V0 + 2,R4
   \   0000BA   8D..         MOV     ?V0 + 3,R5
   \   0000BC   85....       MOV     ?V0 + 4,?V0 + 0
   \   0000BF   85....       MOV     ?V0 + 5,?V0 + 1
   \   0000C2   85....       MOV     ?V0 + 6,?V0 + 2
   \   0000C5   85....       MOV     ?V0 + 7,?V0 + 3
    520          	Integer_part = (temper_reg>>16)&0x7F;                     // 高8位 整数部分不含符号位
   \   0000C8   85....       MOV     ?V0 + 0,?V0 + 4
   \   0000CB   85....       MOV     ?V0 + 1,?V0 + 5
   \   0000CE   85....       MOV     ?V0 + 2,?V0 + 6
   \   0000D1   85....       MOV     ?V0 + 3,?V0 + 7
   \   0000D4   7410         MOV     A,#0x10
   \   0000D6   78..         MOV     R0,#?V0 + 0
   \   0000D8   12....       LCALL   ?UL_SHR
   \   0000DB   E5..         MOV     A,?V0 + 0
   \   0000DD   547F         ANL     A,#0x7f
   \   0000DF   FE           MOV     R6,A
    521          	decimal_part = (float)(temper_reg&0x0000FFFF)/65535.0;    // 低16位 2^16-1   小数部分
   \   0000E0   85....       MOV     ?V0 + 12,?V0 + 4
   \   0000E3   85....       MOV     ?V0 + 13,?V0 + 5
   \   0000E6   85....       MOV     ?V0 + 14,?V0 + 6
   \   0000E9   85....       MOV     ?V0 + 15,?V0 + 7
   \   0000EC   90....       MOV     DPTR,#__Constant_ffff
   \   0000EF   78..         MOV     R0,#?V0 + 12
   \   0000F1   12....       LCALL   ?L_AND_X
   \   0000F4   78..         MOV     R0,#?V0 + 12
   \   0000F6   12....       LCALL   ?UL_TO_FLT
   \   0000F9   90....       MOV     DPTR,#__Constant_477fff00
   \   0000FC   78..         MOV     R0,#?V0 + 0
   \   0000FE   12....       LCALL   ?L_MOV_X
   \   000101   78..         MOV     R0,#?V0 + 12
   \   000103   79..         MOV     R1,#?V0 + 0
   \   000105   12....       LCALL   ?FLT_DIV
   \   000108   85....       MOV     ?V0 + 8,?V0 + 12
   \   00010B   85....       MOV     ?V0 + 9,?V0 + 13
   \   00010E   85....       MOV     ?V0 + 10,?V0 + 14
   \   000111   85....       MOV     ?V0 + 11,?V0 + 15
    522          	value += ((float)Integer_part + decimal_part);
   \   000114   8E..         MOV     ?V0 + 12,R6
   \   000116   E4           CLR     A
   \   000117   F5..         MOV     ?V0 + 13,A
   \   000119   F5..         MOV     ?V0 + 14,A
   \   00011B   F5..         MOV     ?V0 + 15,A
   \   00011D   78..         MOV     R0,#?V0 + 12
   \   00011F   12....       LCALL   ?UL_TO_FLT
   \   000122   78..         MOV     R0,#?V0 + 12
   \   000124   79..         MOV     R1,#?V0 + 8
   \   000126   12....       LCALL   ?FLT_ADD
   \   000129   85..82       MOV     DPL,?XSP + 0
   \   00012C   85..83       MOV     DPH,?XSP + 1
   \   00012F   78..         MOV     R0,#?V0 + 0
   \   000131   12....       LCALL   ?L_MOV_X
   \   000134   78..         MOV     R0,#?V0 + 12
   \   000136   79..         MOV     R1,#?V0 + 0
   \   000138   12....       LCALL   ?FLT_ADD
   \   00013B   85..82       MOV     DPL,?XSP + 0
   \   00013E   85..83       MOV     DPH,?XSP + 1
   \   000141   78..         MOV     R0,#?V0 + 12
   \   000143   12....       LCALL   ?L_MOV_TO_X
    523          	value *= 10000;	
   \   000146   85..82       MOV     DPL,?XSP + 0
   \   000149   85..83       MOV     DPH,?XSP + 1
   \   00014C   78..         MOV     R0,#?V0 + 12
   \   00014E   12....       LCALL   ?L_MOV_X
   \   000151   90....       MOV     DPTR,#__Constant_461c4000
   \   000154   78..         MOV     R0,#?V0 + 0
   \   000156   12....       LCALL   ?L_MOV_X
   \   000159   78..         MOV     R0,#?V0 + 12
   \   00015B   79..         MOV     R1,#?V0 + 0
   \   00015D   12....       LCALL   ?FLT_MUL
   \   000160   85..82       MOV     DPL,?XSP + 0
   \   000163   85..83       MOV     DPH,?XSP + 1
   \   000166   78..         MOV     R0,#?V0 + 12
   \   000168   12....       LCALL   ?L_MOV_TO_X
    524          	value -= Temper_App_Value;//偏移校准	
   \   00016B   85..82       MOV     DPL,?XSP + 0
   \   00016E   85..83       MOV     DPH,?XSP + 1
   \   000171   78..         MOV     R0,#?V0 + 12
   \   000173   12....       LCALL   ?L_MOV_X
   \   000176   7404         MOV     A,#0x4
   \   000178   12....       LCALL   ?XSTACK_DISP0_8
   \   00017B   78..         MOV     R0,#?V0 + 0
   \   00017D   12....       LCALL   ?L_MOV_X
   \   000180   78..         MOV     R0,#?V0 + 0
   \   000182   12....       LCALL   ?UL_TO_FLT
   \   000185   78..         MOV     R0,#?V0 + 12
   \   000187   79..         MOV     R1,#?V0 + 0
   \   000189   12....       LCALL   ?FLT_SUB
   \   00018C   85..82       MOV     DPL,?XSP + 0
   \   00018F   85..83       MOV     DPH,?XSP + 1
   \   000192   78..         MOV     R0,#?V0 + 12
   \   000194   12....       LCALL   ?L_MOV_TO_X
    525          	if(1 == (temper_reg&(1L<<23)))
    526          	{
    527          		return (-(uint32)value);
    528          	}
    529          	
    530          	return ((uint32)value);
   \   000197   85..82       MOV     DPL,?XSP + 0
   \   00019A   85..83       MOV     DPH,?XSP + 1
   \   00019D   12....       LCALL   ?XLOAD_R2345
   \   0001A0   12....       LCALL   ?R2345_FLT_TO_UL
   \   0001A3   AA..         MOV     R2,?V0 + 0
   \   0001A5   AB..         MOV     R3,?V0 + 1
   \   0001A7   AC..         MOV     R4,?V0 + 2
   \   0001A9   AD..         MOV     R5,?V0 + 3
   \   0001AB   7408         MOV     A,#0x8
   \   0001AD   12....       LCALL   ?DEALLOC_XSTACK8
   \   0001B0   7F10         MOV     R7,#0x10
   \   0001B2   02....       LJMP    ?BANKED_LEAVE_XDATA
    531          }
    532          /*******************************************************************************
    533          * 函数名称：Read_CFG_Regester
    534          * 功能描述：获取配置寄存器的值
    535          * 入口参数：无
    536          * 出口参数：
    537          * 注意事项：无
    538          * 备注说明：无
    539          *******************************************************************************/

   \                                 In  segment BANKED_CODE, align 1, keep-with-next
    540          uint32 Read_CFG_Regester(void)
   \                     Read_CFG_Regester:
    541          {
   \   000000   74F0         MOV     A,#-0x10
   \   000002   12....       LCALL   ?BANKED_ENTER_XDATA
   \   000005                ; Saved register size: 16
   \   000005                ; Auto size: 0
    542          	uint32 temper_reg = 0;	
   \   000005   90....       MOV     DPTR,#__Constant_0
   \   000008   78..         MOV     R0,#?V0 + 0
   \   00000A   12....       LCALL   ?L_MOV_X
    543          	Send_Command_To_Cs5463(PWR_UP_HALT_CMD);//暂停	
   \   00000D                ; Setup parameters for call to function Send_Command_To_Cs5463
   \   00000D   79A0         MOV     R1,#-0x60
   \   00000F   12....       LCALL   ??Send_Command_To_Cs5463?relay
    544          	temper_reg = Read_Cfg_FromCC5463();
   \   000012                ; Setup parameters for call to function Read_Cfg_FromCC5463
   \   000012   12....       LCALL   ??Read_Cfg_FromCC5463?relay
   \   000015   8A..         MOV     ?V0 + 4,R2
   \   000017   8B..         MOV     ?V0 + 5,R3
   \   000019   8C..         MOV     ?V0 + 6,R4
   \   00001B   8D..         MOV     ?V0 + 7,R5
   \   00001D   85....       MOV     ?V0 + 0,?V0 + 4
   \   000020   85....       MOV     ?V0 + 1,?V0 + 5
   \   000023   85....       MOV     ?V0 + 2,?V0 + 6
   \   000026   85....       MOV     ?V0 + 3,?V0 + 7
    545          	Send_Command_To_Cs5463(START_C31_CMD);	//开始连续计量	
   \   000029                ; Setup parameters for call to function Send_Command_To_Cs5463
   \   000029   79E8         MOV     R1,#-0x18
   \   00002B   12....       LCALL   ??Send_Command_To_Cs5463?relay
    546          	return temper_reg;
   \   00002E   AA..         MOV     R2,?V0 + 0
   \   000030   AB..         MOV     R3,?V0 + 1
   \   000032   AC..         MOV     R4,?V0 + 2
   \   000034   AD..         MOV     R5,?V0 + 3
   \   000036   7F08         MOV     R7,#0x8
   \   000038   02....       LJMP    ?BANKED_LEAVE_XDATA
    547          }
    548          /*******************************************************************************
    549          偏移量校准
    550          校准电压V电流I通道DC偏移量
    551          要求把芯片的VIN±和IIN±接地。
    552          
    553          增益校准
    554          在指定电压范围内输入交流信号到芯片的VIN±、IIN±脚。 例如：电压/电流通道最大
    555          输入电压为±250mV,为适应更大的电压范围，系数取0.6, 则输入交流信号为150mV，实
    556          际上一般取110mV
    557            cali_vdcoff,
    558            cali_vacoff,
    559            cali_idcoff,
    560            cali_iacoff,
    561            cali_vacgain,
    562            cali_iacgain
    563          *******************************************************************************/

   \                                 In  segment BANKED_CODE, align 1, keep-with-next
    564          uint32 GetCalibrationVIoffOrGain(CALI_TypeDef cali_num)
   \                     GetCalibrationVIoffOrGain:
    565          {
   \   000000   74F0         MOV     A,#-0x10
   \   000002   12....       LCALL   ?BANKED_ENTER_XDATA
   \   000005                ; Saved register size: 16
   \   000005                ; Auto size: 0
   \   000005   89..         MOV     ?V0 + 0,R1
    566          	uint8 calix_cmd;
    567          	uint8 readx_cmd;
    568          	
    569          	Send_Command_To_Cs5463(PWR_UP_HALT_CMD);
   \   000007                ; Setup parameters for call to function Send_Command_To_Cs5463
   \   000007   79A0         MOV     R1,#-0x60
   \   000009   12....       LCALL   ??Send_Command_To_Cs5463?relay
    570          	
    571          	//电压通道DC偏移校准命令,读电压通道DC偏移寄存器值
    572          	if     (cali_vdcoff  == cali_num){calix_cmd =CAL_VDCOFF_CMD; readx_cmd = READ_VDCOFF_CMD;}
   \   00000C   E5..         MOV     A,?V0 + 0
   \   00000E   7006         JNZ     ??GetCalibrationVIoffOrGain_0
   \   000010   7FD1         MOV     R7,#-0x2f
   \   000012   7E06         MOV     R6,#0x6
   \   000014   803A         SJMP    ??GetCalibrationVIoffOrGain_1
    573          	//电压通道AC偏移校准命令,读电压通道AC偏移寄存器值
    574          	else if(cali_vacoff  == cali_num){calix_cmd =CAL_VACOFF_CMD; readx_cmd = READ_VACOFF_CMD;}
   \                     ??GetCalibrationVIoffOrGain_0:
   \   000016   7401         MOV     A,#0x1
   \   000018   65..         XRL     A,?V0 + 0
   \   00001A   7006         JNZ     ??GetCalibrationVIoffOrGain_2
   \   00001C   7FD5         MOV     R7,#-0x2b
   \   00001E   7E22         MOV     R6,#0x22
   \   000020   802E         SJMP    ??GetCalibrationVIoffOrGain_1
    575          	//电流通道DC偏移校准命令,读电流通道DC偏移寄存器值
    576          	else if(cali_idcoff  == cali_num){calix_cmd =CAL_IDCOFF_CMD; readx_cmd = READ_IDCOFF_CMD;}
   \                     ??GetCalibrationVIoffOrGain_2:
   \   000022   7402         MOV     A,#0x2
   \   000024   65..         XRL     A,?V0 + 0
   \   000026   7006         JNZ     ??GetCalibrationVIoffOrGain_3
   \   000028   7FC9         MOV     R7,#-0x37
   \   00002A   7E02         MOV     R6,#0x2
   \   00002C   8022         SJMP    ??GetCalibrationVIoffOrGain_1
    577          	//电流通道AC偏移校准命令,读电流通道AC偏移寄存器值
    578          	else if(cali_iacoff  == cali_num){calix_cmd =CAL_IACOFF_CMD; readx_cmd = READ_IACOFF_CMD;}
   \                     ??GetCalibrationVIoffOrGain_3:
   \   00002E   7403         MOV     A,#0x3
   \   000030   65..         XRL     A,?V0 + 0
   \   000032   7006         JNZ     ??GetCalibrationVIoffOrGain_4
   \   000034   7FCD         MOV     R7,#-0x33
   \   000036   7E20         MOV     R6,#0x20
   \   000038   8016         SJMP    ??GetCalibrationVIoffOrGain_1
    579          	//电压通道AC增益校准命令,读电压通道AC增益寄存器值
    580          	else if(cali_vacgain == cali_num){calix_cmd =CAL_VACGN_CMD ; readx_cmd = READ_VGN_CMD   ;}
   \                     ??GetCalibrationVIoffOrGain_4:
   \   00003A   7404         MOV     A,#0x4
   \   00003C   65..         XRL     A,?V0 + 0
   \   00003E   7006         JNZ     ??GetCalibrationVIoffOrGain_5
   \   000040   7FD6         MOV     R7,#-0x2a
   \   000042   7E08         MOV     R6,#0x8
   \   000044   800A         SJMP    ??GetCalibrationVIoffOrGain_1
    581          	//电流通道AC增益校准命令,读电流通道AC增益寄存器值
    582          	else if(cali_iacgain == cali_num){calix_cmd =CAL_IACGN_CMD ; readx_cmd = READ_IGN_CMD   ;}
   \                     ??GetCalibrationVIoffOrGain_5:
   \   000046   7405         MOV     A,#0x5
   \   000048   65..         XRL     A,?V0 + 0
   \   00004A   7004         JNZ     ??GetCalibrationVIoffOrGain_1
   \   00004C   7FCE         MOV     R7,#-0x32
   \   00004E   7E04         MOV     R6,#0x4
    583          	else{;}
    584          	
    585          	Send_Command_To_Cs5463(calix_cmd);
   \                     ??GetCalibrationVIoffOrGain_1:
   \   000050                ; Setup parameters for call to function Send_Command_To_Cs5463
   \   000050   EF           MOV     A,R7
   \   000051   F9           MOV     R1,A
   \   000052   12....       LCALL   ??Send_Command_To_Cs5463?relay
    586          	while(!(ReadMsgFromCC5463(READ_STATUS_CMD) & INT_DRDY))        //读状态寄存器内的DRDY位,等待完成
   \                     ??GetCalibrationVIoffOrGain_6:
   \   000055                ; Setup parameters for call to function ReadMsgFromCC5463
   \   000055   791E         MOV     R1,#0x1e
   \   000057   12....       LCALL   ??ReadMsgFromCC5463?relay
   \   00005A   8A..         MOV     ?V0 + 4,R2
   \   00005C   8B..         MOV     ?V0 + 5,R3
   \   00005E   8C..         MOV     ?V0 + 6,R4
   \   000060   8D..         MOV     ?V0 + 7,R5
   \   000062   90....       MOV     DPTR,#__Constant_800000
   \   000065   78..         MOV     R0,#?V0 + 4
   \   000067   12....       LCALL   ?L_AND_X
   \   00006A   E5..         MOV     A,?V0 + 4
   \   00006C   45..         ORL     A,?V0 + 5
   \   00006E   45..         ORL     A,?V0 + 6
   \   000070   45..         ORL     A,?V0 + 7
   \   000072   60E1         JZ      ??GetCalibrationVIoffOrGain_6
    587          	{
    588          	}
    589          	CfgRegToCC5463(WRITE_STATUS_CMD ,0x800000);//清除状态寄存器
   \   000074                ; Setup parameters for call to function CfgRegToCC5463
   \   000074   90....       MOV     DPTR,#__Constant_800000
   \   000077   12....       LCALL   ?XLOAD_R2345
   \   00007A   795E         MOV     R1,#0x5e
   \   00007C   12....       LCALL   ??CfgRegToCC5463?relay
    590          	
    591          	return ReadMsgFromCC5463(readx_cmd);
   \   00007F                ; Setup parameters for call to function ReadMsgFromCC5463
   \   00007F   EE           MOV     A,R6
   \   000080   F9           MOV     R1,A
   \   000081   12....       LCALL   ??ReadMsgFromCC5463?relay
   \   000084   7F08         MOV     R7,#0x8
   \   000086   02....       LJMP    ?BANKED_LEAVE_XDATA
    592          }

   \                                 In  segment XDATA_ID, align 1, keep-with-next
   \                     `?<Initializer for CS543_CFG_DATA>`:
   \   000000   01000100     DD 65537

   \                                 In  segment XDATA_ROM_C, align 1
   \                     __Constant_0:
   \   000000   00000000     DD 0

   \                                 In  segment XDATA_ROM_C, align 1
   \                     __Constant_800000:
   \   000000   00008000     DD 8388608

   \                                 In  segment XDATA_ROM_C, align 1
   \                     __Constant_1:
   \   000000   01000000     DD 1

   \                                 In  segment XDATA_ROM_C, align 1
   \                     __Constant_7fffff:
   \   000000   FFFF7F00     DD 8388607

   \                                 In  segment XDATA_ROM_C, align 1
   \                     __Constant_fa0:
   \   000000   A00F0000     DD 4000

   \                                 In  segment XDATA_ROM_C, align 1
   \                     __Constant_4afffffe:
   \   000000   FEFFFF4A     DD 4AFFFFFEH

   \                                 In  segment XDATA_ROM_C, align 1
   \                     __Constant_461c4000:
   \   000000   00401C46     DD 461C4000H

   \                                 In  segment XDATA_ROM_C, align 1
   \                     __Constant_4b7fffff:
   \   000000   FFFF7F4B     DD 4B7FFFFFH

   \                                 In  segment XDATA_ROM_C, align 1
   \                     __Constant_3d4ccccd:
   \   000000   CDCC4C3D     DD 3D4CCCCDH

   \                                 In  segment XDATA_ROM_C, align 1
   \                     __Constant_3b03126f:
   \   000000   6F12033B     DD 3B03126FH

   \                                 In  segment XDATA_ROM_C, align 1
   \                     __Constant_3e800000:
   \   000000   0000803E     DD 3E800000H

   \                                 In  segment XDATA_ROM_C, align 1
   \                     __Constant_ffff:
   \   000000   FFFF0000     DD 65535

   \                                 In  segment XDATA_ROM_C, align 1
   \                     __Constant_477fff00:
   \   000000   00FF7F47     DD 477FFF00H

   \                                 In  segment BANK_RELAYS, align 1
   \                     ??Delay_1u?relay:
   \   000000   12....       LCALL   ?BDISPATCH
   \   000003   ......       DC24    Delay_1u

   \                                 In  segment BANK_RELAYS, align 1
   \                     ??SPI_Configration?relay:
   \   000000   12....       LCALL   ?BDISPATCH
   \   000003   ......       DC24    SPI_Configration

   \                                 In  segment BANK_RELAYS, align 1
   \                     ??SPI_Receive_byte?relay:
   \   000000   12....       LCALL   ?BDISPATCH
   \   000003   ......       DC24    SPI_Receive_byte

   \                                 In  segment BANK_RELAYS, align 1
   \                     ??SPI_Transfer_byte?relay:
   \   000000   12....       LCALL   ?BDISPATCH
   \   000003   ......       DC24    SPI_Transfer_byte

   \                                 In  segment BANK_RELAYS, align 1
   \                     ??CfgRegToCC5463?relay:
   \   000000   12....       LCALL   ?BDISPATCH
   \   000003   ......       DC24    CfgRegToCC5463

   \                                 In  segment BANK_RELAYS, align 1
   \                     ??Send_Command_To_Cs5463?relay:
   \   000000   12....       LCALL   ?BDISPATCH
   \   000003   ......       DC24    Send_Command_To_Cs5463

   \                                 In  segment BANK_RELAYS, align 1
   \                     ??ReadMsgFromCC5463?relay:
   \   000000   12....       LCALL   ?BDISPATCH
   \   000003   ......       DC24    ReadMsgFromCC5463

   \                                 In  segment BANK_RELAYS, align 1
   \                     ??Read_Cfg_FromCC5463?relay:
   \   000000   12....       LCALL   ?BDISPATCH
   \   000003   ......       DC24    Read_Cfg_FromCC5463

   \                                 In  segment BANK_RELAYS, align 1
   \                     ??ComplementToOriginalCode?relay:
   \   000000   12....       LCALL   ?BDISPATCH
   \   000003   ......       DC24    ComplementToOriginalCode

   \                                 In  segment BANK_RELAYS, align 1
   \                     ??InitCS5463?relay:
   \   000000   12....       LCALL   ?BDISPATCH
   \   000003   ......       DC24    InitCS5463

   \                                 In  segment BANK_RELAYS, align 1
   \                     ??ConfigCS5463?relay:
   \   000000   12....       LCALL   ?BDISPATCH
   \   000003   ......       DC24    ConfigCS5463

   \                                 In  segment BANK_RELAYS, align 1
   \                     ??GetSamplingPeriod?relay:
   \   000000   12....       LCALL   ?BDISPATCH
   \   000003   ......       DC24    GetSamplingPeriod

   \                                 In  segment BANK_RELAYS, align 1
   \                     ??GetCurrentIrms?relay:
   \   000000   12....       LCALL   ?BDISPATCH
   \   000003   ......       DC24    GetCurrentIrms

   \                                 In  segment BANK_RELAYS, align 1
   \                     ??GetCurrentIvalue?relay:
   \   000000   12....       LCALL   ?BDISPATCH
   \   000003   ......       DC24    GetCurrentIvalue

   \                                 In  segment BANK_RELAYS, align 1
   \                     ??GetVoltageVrms?relay:
   \   000000   12....       LCALL   ?BDISPATCH
   \   000003   ......       DC24    GetVoltageVrms

   \                                 In  segment BANK_RELAYS, align 1
   \                     ??GetPactive?relay:
   \   000000   12....       LCALL   ?BDISPATCH
   \   000003   ......       DC24    GetPactive

   \                                 In  segment BANK_RELAYS, align 1
   \                     ??GetApparenPower?relay:
   \   000000   12....       LCALL   ?BDISPATCH
   \   000003   ......       DC24    GetApparenPower

   \                                 In  segment BANK_RELAYS, align 1
   \                     ??GetPowerFactor?relay:
   \   000000   12....       LCALL   ?BDISPATCH
   \   000003   ......       DC24    GetPowerFactor

   \                                 In  segment BANK_RELAYS, align 1
   \                     ??GetTemperature?relay:
   \   000000   12....       LCALL   ?BDISPATCH
   \   000003   ......       DC24    GetTemperature

   \                                 In  segment BANK_RELAYS, align 1
   \                     ??Read_CFG_Regester?relay:
   \   000000   12....       LCALL   ?BDISPATCH
   \   000003   ......       DC24    Read_CFG_Regester

   \                                 In  segment BANK_RELAYS, align 1
   \                     ??GetCalibrationVIoffOrGain?relay:
   \   000000   12....       LCALL   ?BDISPATCH
   \   000003   ......       DC24    GetCalibrationVIoffOrGain
    593          
    594          
    595          
    596          
    597          
    598          
    599          
    600          
    601          
    602          
    603          
    604          
    605          
    606          
    607          
    608          
    609          
    610          
    611          
    612          

   Maximum stack usage in bytes:

     Function                      ISTACK PSTACK XSTACK
     --------                      ------ ------ ------
     CfgRegToCC5463                    0      0     48
       -> Delay_1u                     0      0     32
       -> SPI_Transfer_byte            0      0     32
       -> SPI_Transfer_byte            0      0     32
       -> SPI_Transfer_byte            0      0     32
       -> SPI_Transfer_byte            0      0     32
       -> Delay_1u                     0      0     32
     ComplementToOriginalCode          0      0     52
     ConfigCS5463                      2      0      0
       -> Send_Command_To_Cs5463       4      0      0
       -> CfgRegToCC5463               4      0      0
       -> CfgRegToCC5463               4      0      0
       -> CfgRegToCC5463               4      0      0
       -> CfgRegToCC5463               4      0      0
       -> CfgRegToCC5463               4      0      0
       -> Send_Command_To_Cs5463       4      0      0
     Delay_1u                          0      0     16
     GetApparenPower                   0      0     40
       -> ReadMsgFromCC5463            0      0     64
       -> ComplementToOriginalCode     0      0     64
     GetCalibrationVIoffOrGain         0      0     16
       -> Send_Command_To_Cs5463       0      0     32
       -> Send_Command_To_Cs5463       0      0     32
       -> ReadMsgFromCC5463            0      0     32
       -> CfgRegToCC5463               0      0     32
       -> ReadMsgFromCC5463            0      0     32
     GetCurrentIrms                    0      0     40
       -> ReadMsgFromCC5463            0      0     64
       -> ComplementToOriginalCode     0      0     64
     GetCurrentIvalue                  0      0     40
       -> ReadMsgFromCC5463            0      0     64
       -> ComplementToOriginalCode     0      0     64
     GetPactive                        0      0     40
       -> ReadMsgFromCC5463            0      0     64
       -> ComplementToOriginalCode     0      0     64
     GetPowerFactor                    0      0     40
       -> Send_Command_To_Cs5463       0      0     64
       -> ReadMsgFromCC5463            0      0     64
       -> ComplementToOriginalCode     0      0     64
       -> Send_Command_To_Cs5463       0      0     64
     GetSamplingPeriod                 0      0     24
       -> Send_Command_To_Cs5463       0      0     48
       -> ReadMsgFromCC5463            0      0     48
       -> ComplementToOriginalCode     0      0     48
       -> Send_Command_To_Cs5463       0      0     48
     GetTemperature                    0      0     32
       -> CfgRegToCC5463               0      0     64
       -> ReadMsgFromCC5463            0      0     64
       -> ComplementToOriginalCode     0      0     64
       -> CfgRegToCC5463               0      0     64
       -> ReadMsgFromCC5463            0      0     64
       -> ComplementToOriginalCode     0      0     64
     GetVoltageVrms                    0      0     40
       -> ReadMsgFromCC5463            0      0     64
       -> ComplementToOriginalCode     0      0     64
     InitCS5463                        0      0      9
       -> SPI_Configration             0      0     18
       -> Delay_1u                     0      0     18
       -> Delay_1u                     0      0     18
       -> Delay_1u                     0      0     18
       -> Delay_1u                     0      0     18
       -> Delay_1u                     0      0     18
       -> Delay_1u                     0      0     18
       -> Delay_1u                     0      0     18
       -> Delay_1u                     0      0     18
       -> Delay_1u                     0      0     18
       -> Delay_1u                     0      0     18
     ReadMsgFromCC5463                 0      0     48
       -> Delay_1u                     0      0     32
       -> SPI_Transfer_byte            0      0     32
       -> SPI_Receive_byte             0      0     32
       -> SPI_Receive_byte             0      0     32
       -> SPI_Receive_byte             0      0     32
       -> Delay_1u                     0      0     32
     Read_CFG_Regester                 0      0     16
       -> Send_Command_To_Cs5463       0      0     32
       -> Read_Cfg_FromCC5463          0      0     32
       -> Send_Command_To_Cs5463       0      0     32
     Read_Cfg_FromCC5463               0      0     32
       -> Delay_1u                     0      0     32
       -> SPI_Transfer_byte            0      0     32
       -> SPI_Receive_byte             0      0     32
       -> SPI_Receive_byte             0      0     32
       -> SPI_Receive_byte             0      0     32
       -> Delay_1u                     0      0     32
     SPI_Configration                  0      0      9
     SPI_Receive_byte                  0      0     25
       -> Delay_1u                     0      0     18
       -> Delay_1u                     0      0     18
       -> Delay_1u                     0      0     18
       -> Delay_1u                     0      0     18
     SPI_Transfer_byte                 0      0     25
       -> Delay_1u                     0      0     18
       -> Delay_1u                     0      0     18
       -> Delay_1u                     0      0     18
       -> Delay_1u                     0      0     18
     Send_Command_To_Cs5463            0      0     41
       -> Delay_1u                     0      0     18
       -> SPI_Transfer_byte            0      0     18
       -> Delay_1u                     0      0     18


   Segment part sizes:

     Function/Label                    Bytes
     --------------                    -----
     _A_P0                                1
     _A_P1                                1
     P0DIR                                1
     P1DIR                                1
     CS543_CFG_DATA                       4
     Delay_1u                            46
     SPI_Configration                     9
     SPI_Receive_byte                    71
     SPI_Transfer_byte                   67
     CfgRegToCC5463                      92
     Send_Command_To_Cs5463              33
     ReadMsgFromCC5463                  123
     Read_Cfg_FromCC5463                121
     ComplementToOriginalCode           121
     InitCS5463                         103
     ConfigCS5463                        76
     GetSamplingPeriod                  128
     GetCurrentIrms                     254
     GetCurrentIvalue                   254
     GetVoltageVrms                     239
     GetPactive                         232
     GetApparenPower                    232
     GetPowerFactor                     242
     GetTemperature                     437
     Read_CFG_Regester                   59
     GetCalibrationVIoffOrGain          137
     ?<Initializer for CS543_CFG_DATA>    4
     __Constant_0                         4
     __Constant_800000                    4
     __Constant_1                         4
     __Constant_7fffff                    4
     __Constant_fa0                       4
     __Constant_4afffffe                  4
     __Constant_461c4000                  4
     __Constant_4b7fffff                  4
     __Constant_3d4ccccd                  4
     __Constant_3b03126f                  4
     __Constant_3e800000                  4
     __Constant_ffff                      4
     __Constant_477fff00                  4
     ??Delay_1u?relay                     6
     ??SPI_Configration?relay             6
     ??SPI_Receive_byte?relay             6
     ??SPI_Transfer_byte?relay            6
     ??CfgRegToCC5463?relay               6
     ??Send_Command_To_Cs5463?relay       6
     ??ReadMsgFromCC5463?relay            6
     ??Read_Cfg_FromCC5463?relay          6
     ??ComplementToOriginalCode?relay     6
     ??InitCS5463?relay                   6
     ??ConfigCS5463?relay                 6
     ??GetSamplingPeriod?relay            6
     ??GetCurrentIrms?relay               6
     ??GetCurrentIvalue?relay             6
     ??GetVoltageVrms?relay               6
     ??GetPactive?relay                   6
     ??GetApparenPower?relay              6
     ??GetPowerFactor?relay               6
     ??GetTemperature?relay               6
     ??Read_CFG_Regester?relay            6
     ??GetCalibrationVIoffOrGain?relay    6

 
 3 076 bytes in segment BANKED_CODE
   126 bytes in segment BANK_RELAYS
     4 bytes in segment SFR_AN
     4 bytes in segment XDATA_I
     4 bytes in segment XDATA_ID
    52 bytes in segment XDATA_ROM_C
 
 3 206 bytes of CODE  memory
     0 bytes of CONST memory (+ 52 bytes shared)
     0 bytes of DATA  memory (+  4 bytes shared)
     4 bytes of XDATA memory

Errors: none
Warnings: none
