///////////////////////////////////////////////////////////////////////////////
//                                                                            /
// IAR C/C++ Compiler V8.10.1.10194/W32 for 8051        08/Feb/2015  17:41:58 /
// Copyright 2004-2011 IAR Systems AB.                                        /
//                                                                            /
//    Core               =  plain                                             /
//    Code model         =  banked                                            /
//    Data model         =  large                                             /
//    Calling convention =  xdata reentrant                                   /
//    Constant location  =  data_rom                                          /
//    Dptr setup         =  1,16                                              /
//    Source file        =  D:\RE_1_2_0_FORMAL_APP(251)-14-12-8\Projects\zsta /
//                          ck\Samples\SampleApp\Source\EN_WALL_SOKET_device\ /
//                          EN_WALL_SOKET_User_app.c                          /
//    Command line       =  -f "D:\RE_1_2_0_FORMAL_APP(251)-14-12-8\Projects\ /
//                          zstack\Samples\SampleApp\CC2530DB\..\..\..\Tools\ /
//                          CC2530DB\f8wRouter.cfg" (-DCPU32MHZ               /
//                          -DROOT=__near_func -DMAC_CFG_APP_PENDING_QUEUE=TR /
//                          UE -DMAC_CFG_TX_DATA_MAX=5 -DMAC_CFG_TX_MAX=8     /
//                          -DMAC_CFG_RX_MAX=5 -DRTR_NWK) -f                  /
//                          "D:\RE_1_2_0_FORMAL_APP(251)-14-12-8\Projects\zst /
//                          ack\Samples\SampleApp\CC2530DB\..\..\..\Tools\CC2 /
//                          530DB\f8wConfig.cfg" (-DZIGBEEPRO -DSECURE=1      /
//                          -DZG_SECURE_DYNAMIC=0 -DREFLECTOR                 /
//                          -DZDAPP_CONFIG_PAN_ID=0xFFFF                      /
//                          -DNWK_START_DELAY=100 -DEXTENDED_JOINING_RANDOM_M /
//                          ASK=0x007F -DBEACON_REQUEST_DELAY=100             /
//                          -DBEACON_REQ_DELAY_MASK=0x00FF                    /
//                          -DLINK_STATUS_JITTER_MASK=0x007F                  /
//                          -DROUTE_EXPIRY_TIME=30 -DAPSC_ACK_WAIT_DURATION_P /
//                          OLLED=3000 -DNWK_INDIRECT_MSG_TIMEOUT=60          /
//                          -DMAX_RREQ_ENTRIES=8 -DAPSC_MAX_FRAME_RETRIES=3   /
//                          -DNWK_MAX_DATA_RETRIES=2                          /
//                          -DMAX_POLL_FAILURE_RETRIES=2 -DMAX_BCAST=9        /
//                          -DAPS_MAX_GROUPS=16 -DMAX_RTG_ENTRIES=30          /
//                          -DNWK_MAX_BINDING_ENTRIES=10                      /
//                          -DMAX_BINDING_CLUSTER_IDS=4 -DASSERT_RESET        /
//                          -DMAC_MAX_FRAME_SIZE=116                          /
//                          -DZDNWKMGR_MIN_TRANSMISSIONS=20 "-DCONST=const    /
//                          __code" -DGENERIC=__generic                       /
//                          -DRFD_RCVC_ALWAYS_ON=FALSE -DPOLL_RATE=8000       /
//                          -DQUEUED_POLL_RATE=100 -DRESPONSE_POLL_RATE=1000) /
//                           -DREJOIN_POLL_RATE=440                           /
//                          "D:\RE_1_2_0_FORMAL_APP(251)-14-12-8\Projects\zst /
//                          ack\Samples\SampleApp\Source\EN_WALL_SOKET_device /
//                          \EN_WALL_SOKET_User_app.c" -D NV_INIT -D          /
//                          NV_RESTORE -D HOLD_AUTO_START -D MT_TASK -D       /
//                          MT_APP_FUNC -D MT_SYS_FUNC -D MT_ZDO_FUNC -D      /
//                          MT_ZDO_MGMT -D ISR_KEYINTERRUPT -D WDT_IN_PM1 -D  /
//                          xOSC32K_CRYSTAL_INSTALLED=0 -D xLARGER_NETWORK    /
//                          -D POWER_PA -D EN_WALL_SOKET -lC                  /
//                          "D:\RE_1_2_0_FORMAL_APP(251)-14-12-8\Projects\zst /
//                          ack\Samples\SampleApp\CC2530DB\EN_WALL_SOKET_ROUT /
//                          ER\List\" -lA "D:\RE_1_2_0_FORMAL_APP(251)-14-12- /
//                          8\Projects\zstack\Samples\SampleApp\CC2530DB\EN_W /
//                          ALL_SOKET_ROUTER\List\" --diag_suppress           /
//                          Pe001,Pa010 -o "D:\RE_1_2_0_FORMAL_APP(251)-14-12 /
//                          -8\Projects\zstack\Samples\SampleApp\CC2530DB\EN_ /
//                          WALL_SOKET_ROUTER\Obj\" -e --no_cse --no_unroll   /
//                          --no_inline --no_code_motion --no_tbaa --debug    /
//                          --core=plain --dptr=16,1 --data_model=large       /
//                          --code_model=banked --calling_convention=xdata_re /
//                          entrant --place_constants=data_rom                /
//                          --nr_virtual_regs 16 -I                           /
//                          "D:\RE_1_2_0_FORMAL_APP(251)-14-12-8\Projects\zst /
//                          ack\Samples\SampleApp\CC2530DB\" -I               /
//                          "D:\RE_1_2_0_FORMAL_APP(251)-14-12-8\Projects\zst /
//                          ack\Samples\SampleApp\CC2530DB\..\Source\" -I     /
//                          "D:\RE_1_2_0_FORMAL_APP(251)-14-12-8\Projects\zst /
//                          ack\Samples\SampleApp\CC2530DB\..\Source\EN_WALL_ /
//                          SOKET_device\" -I "D:\RE_1_2_0_FORMAL_APP(251)-14 /
//                          -12-8\Projects\zstack\Samples\SampleApp\CC2530DB\ /
//                          ..\..\..\ZMain\TI2530DB\" -I                      /
//                          "D:\RE_1_2_0_FORMAL_APP(251)-14-12-8\Projects\zst /
//                          ack\Samples\SampleApp\CC2530DB\..\..\..\..\..\Com /
//                          ponents\hal\include\" -I                          /
//                          "D:\RE_1_2_0_FORMAL_APP(251)-14-12-8\Projects\zst /
//                          ack\Samples\SampleApp\CC2530DB\..\..\..\..\..\Com /
//                          ponents\hal\target\CC2530EB\" -I                  /
//                          "D:\RE_1_2_0_FORMAL_APP(251)-14-12-8\Projects\zst /
//                          ack\Samples\SampleApp\CC2530DB\..\..\..\..\..\Com /
//                          ponents\mac\include\" -I                          /
//                          "D:\RE_1_2_0_FORMAL_APP(251)-14-12-8\Projects\zst /
//                          ack\Samples\SampleApp\CC2530DB\..\..\..\..\..\Com /
//                          ponents\mac\high_level\" -I                       /
//                          "D:\RE_1_2_0_FORMAL_APP(251)-14-12-8\Projects\zst /
//                          ack\Samples\SampleApp\CC2530DB\..\..\..\..\..\Com /
//                          ponents\mac\low_level\srf04\" -I                  /
//                          "D:\RE_1_2_0_FORMAL_APP(251)-14-12-8\Projects\zst /
//                          ack\Samples\SampleApp\CC2530DB\..\..\..\..\..\Com /
//                          ponents\mac\low_level\srf04\single_chip\" -I      /
//                          "D:\RE_1_2_0_FORMAL_APP(251)-14-12-8\Projects\zst /
//                          ack\Samples\SampleApp\CC2530DB\..\..\..\..\..\Com /
//                          ponents\mt\" -I "D:\RE_1_2_0_FORMAL_APP(251)-14-1 /
//                          2-8\Projects\zstack\Samples\SampleApp\CC2530DB\.. /
//                          \..\..\..\..\Components\osal\include\" -I         /
//                          "D:\RE_1_2_0_FORMAL_APP(251)-14-12-8\Projects\zst /
//                          ack\Samples\SampleApp\CC2530DB\..\..\..\..\..\Com /
//                          ponents\services\saddr\" -I                       /
//                          "D:\RE_1_2_0_FORMAL_APP(251)-14-12-8\Projects\zst /
//                          ack\Samples\SampleApp\CC2530DB\..\..\..\..\..\Com /
//                          ponents\services\sdata\" -I                       /
//                          "D:\RE_1_2_0_FORMAL_APP(251)-14-12-8\Projects\zst /
//                          ack\Samples\SampleApp\CC2530DB\..\..\..\..\..\Com /
//                          ponents\stack\af\" -I "D:\RE_1_2_0_FORMAL_APP(251 /
//                          )-14-12-8\Projects\zstack\Samples\SampleApp\CC253 /
//                          0DB\..\..\..\..\..\Components\stack\nwk\" -I      /
//                          "D:\RE_1_2_0_FORMAL_APP(251)-14-12-8\Projects\zst /
//                          ack\Samples\SampleApp\CC2530DB\..\..\..\..\..\Com /
//                          ponents\stack\sapi\" -I                           /
//                          "D:\RE_1_2_0_FORMAL_APP(251)-14-12-8\Projects\zst /
//                          ack\Samples\SampleApp\CC2530DB\..\..\..\..\..\Com /
//                          ponents\stack\sec\" -I "D:\RE_1_2_0_FORMAL_APP(25 /
//                          1)-14-12-8\Projects\zstack\Samples\SampleApp\CC25 /
//                          30DB\..\..\..\..\..\Components\stack\sys\" -I     /
//                          "D:\RE_1_2_0_FORMAL_APP(251)-14-12-8\Projects\zst /
//                          ack\Samples\SampleApp\CC2530DB\..\..\..\..\..\Com /
//                          ponents\stack\zdo\" -I "D:\RE_1_2_0_FORMAL_APP(25 /
//                          1)-14-12-8\Projects\zstack\Samples\SampleApp\CC25 /
//                          30DB\..\..\..\..\..\Components\zmac\" -I          /
//                          "D:\RE_1_2_0_FORMAL_APP(251)-14-12-8\Projects\zst /
//                          ack\Samples\SampleApp\CC2530DB\..\..\..\..\..\Com /
//                          ponents\zmac\f8w\" -On --require_prototypes       /
//    List file          =  D:\RE_1_2_0_FORMAL_APP(251)-14-12-8\Projects\zsta /
//                          ck\Samples\SampleApp\CC2530DB\EN_WALL_SOKET_ROUTE /
//                          R\List\EN_WALL_SOKET_User_app.s51                 /
//                                                                            /
//                                                                            /
///////////////////////////////////////////////////////////////////////////////

        NAME EN_WALL_SOKET_User_app

        RTMODEL "__SystemLibrary", "CLib"
        RTMODEL "__calling_convention", "xdata_reentrant"
        RTMODEL "__code_model", "banked"
        RTMODEL "__core", "plain"
        RTMODEL "__data_model", "large"
        RTMODEL "__dptr_size", "16"
        RTMODEL "__extended_stack", "disabled"
        RTMODEL "__location_for_constants", "data"
        RTMODEL "__number_of_dptrs", "1"
        RTMODEL "__rt_version", "1"

        RSEG DOVERLAY:DATA:NOROOT(0)
        RSEG IOVERLAY:IDATA:NOROOT(0)
        RSEG ISTACK:IDATA:NOROOT(0)
        RSEG PSTACK:XDATA:NOROOT(0)
        RSEG XSTACK:XDATA:NOROOT(0)

        EXTERN ?BANKED_ENTER_XDATA
        EXTERN ?BANKED_LEAVE_XDATA
        EXTERN ?BDISPATCH
        EXTERN ?BRET
        EXTERN ?DEALLOC_XSTACK8
        EXTERN ?FLT_DIV
        EXTERN ?FLT_MUL
        EXTERN ?FLT_TO_L
        EXTERN ?FLT_TO_UL
        EXTERN ?L_ADD_TO_X
        EXTERN ?L_ADD_X
        EXTERN ?L_MOV_TO_X
        EXTERN ?L_MOV_X
        EXTERN ?L_MUL
        EXTERN ?L_SUB_FROM_X
        EXTERN ?PUSH_XSTACK8_X_FOUR
        EXTERN ?PUSH_XSTACK_I_TWO
        EXTERN ?UL_DIV_MOD
        EXTERN ?UL_GE_X
        EXTERN ?UL_GT_X
        EXTERN ?UL_TO_FLT
        EXTERN ?US_DIV_MOD
        EXTERN ?V0
        EXTERN ?XLOAD_R2345
        EXTERN ?XSTORE_R2345
        EXTERN __INIT_XDATA_I
        EXTERN __INIT_XDATA_Z

        PUBLIC ??CS5463_Send_PWER?relay
        FUNCTION ??CS5463_Send_PWER?relay,0203H
        PUBLIC ??LED_CHANGE?relay
        FUNCTION ??LED_CHANGE?relay,0203H
        PUBLIC ??P_JiaoZhun_Process?relay
        FUNCTION ??P_JiaoZhun_Process?relay,0203H
        PUBLIC ??READ_NETKEY?relay
        FUNCTION ??READ_NETKEY?relay,0203H
        PUBLIC ??SampleAPP_ProcessZDOMsgs?relay
        FUNCTION ??SampleAPP_ProcessZDOMsgs?relay,0203H
        PUBLIC ??SampleApp_HandleKeys?relay
        FUNCTION ??SampleApp_HandleKeys?relay,0203H
        PUBLIC ??SampleApp_ProcessBINDINGMessage?relay
        FUNCTION ??SampleApp_ProcessBINDINGMessage?relay,0203H
        PUBLIC ??SampleApp_SendInMessage?relay
        FUNCTION ??SampleApp_SendInMessage?relay,0203H
        PUBLIC ??USER_AFTER_RS_MSG?relay
        FUNCTION ??USER_AFTER_RS_MSG?relay,0203H
        PUBLIC ??USER_APP_COMMAND?relay
        FUNCTION ??USER_APP_COMMAND?relay,0203H
        PUBLIC ??USER_APP_JOIN_MSG?relay
        FUNCTION ??USER_APP_JOIN_MSG?relay,0203H
        PUBLIC ??USER_SET_RS_MSG?relay
        FUNCTION ??USER_SET_RS_MSG?relay,0203H
        PUBLIC ??USER_ZDO_JOINING_MSG?relay
        FUNCTION ??USER_ZDO_JOINING_MSG?relay,0203H
        PUBLIC ??UserApp_Init?relay
        FUNCTION ??UserApp_Init?relay,0203H
        PUBLIC ??UserApp_ProcessEvent?relay
        FUNCTION ??UserApp_ProcessEvent?relay,0203H
        PUBLIC ??User_APP_Drive_init?relay
        FUNCTION ??User_APP_Drive_init?relay,0203H
        PUBLIC CS5463_STR
        PUBLIC CS5463_Send_PWER
        FUNCTION CS5463_Send_PWER,021203H
        ARGFRAME XSTACK, 20, STACK
        ARGFRAME IOVERLAY, 0, STATIC
        ARGFRAME DOVERLAY, 0, STATIC
        LOCFRAME ISTACK, 2, STACK
        LOCFRAME XSTACK, 24, STACK
        PUBLIC DEFINED_CONTROL_CHAR
        PUBLIC DEVICE_ID
        PUBLIC I_Value_Bili
        PUBLIC I_Value_Bili_Temp
        PUBLIC I_Value_Now
        PUBLIC I_Value_jiaozhun_Temp
        PUBLIC JOIN_ROLE
        PUBLIC LED_CHANGE
        FUNCTION LED_CHANGE,0203H
        ARGFRAME XSTACK, 0, STACK
        PUBWEAK P0DIR
        PUBWEAK P1DIR
        PUBLIC P_JiaoZhun_Process
        FUNCTION P_JiaoZhun_Process,021203H
        ARGFRAME XSTACK, 0, STACK
        ARGFRAME IOVERLAY, 0, STATIC
        ARGFRAME DOVERLAY, 0, STATIC
        LOCFRAME XSTACK, 20, STACK
        PUBLIC P_Protect_Value
        PUBLIC P_Value
        PUBLIC P_Value_Bili
        PUBLIC P_Value_Bili_Temp
        PUBLIC P_Value_Distance
        PUBLIC P_Value_Now
        PUBLIC P_Value_Pre
        PUBLIC P_Value_energy
        PUBLIC P_Value_jiaozhun_Temp
        PUBLIC READ_NETKEY
        FUNCTION READ_NETKEY,0203H
        ARGFRAME XSTACK, 0, STACK
        PUBLIC RS_LEN
        PUBLIC RS_STR
        PUBLIC SHORT_ADRESS
        PUBLIC SampleAPP_ProcessZDOMsgs
        FUNCTION SampleAPP_ProcessZDOMsgs,021203H
        ARGFRAME XSTACK, 20, STACK
        ARGFRAME IOVERLAY, 0, STATIC
        ARGFRAME DOVERLAY, 0, STATIC
        LOCFRAME XSTACK, 9, STACK
        PUBLIC SampleApp_HandleKeys
        FUNCTION SampleApp_HandleKeys,021203H
        ARGFRAME XSTACK, 20, STACK
        ARGFRAME IOVERLAY, 0, STATIC
        ARGFRAME DOVERLAY, 0, STATIC
        LOCFRAME XSTACK, 9, STACK
        PUBLIC SampleApp_ProcessBINDINGMessage
        FUNCTION SampleApp_ProcessBINDINGMessage,021203H
        ARGFRAME XSTACK, 0, STACK
        LOCFRAME XSTACK, 9, STACK
        PUBLIC SampleApp_SendInMessage
        FUNCTION SampleApp_SendInMessage,021203H
        ARGFRAME XSTACK, 20, STACK
        ARGFRAME IOVERLAY, 0, STATIC
        ARGFRAME DOVERLAY, 0, STATIC
        LOCFRAME ISTACK, 1, STACK
        LOCFRAME XSTACK, 20, STACK
        PUBLIC SampleApp_SimpleDesc1
        PUBLIC SampleApp_SimpleDesc2
        PUBLIC SampleApp_epDesc1
        PUBLIC SampleApp_epDesc2
        PUBLIC Total_P_Value
        PUBLIC Total_P_Value_Temp
        PUBLIC USER_AFTER_RS_MSG
        FUNCTION USER_AFTER_RS_MSG,0203H
        ARGFRAME XSTACK, 0, STACK
        PUBLIC USER_APP_COMMAND
        FUNCTION USER_APP_COMMAND,021203H
        ARGFRAME XSTACK, 0, STACK
        LOCFRAME ISTACK, 2, STACK
        LOCFRAME XSTACK, 28, STACK
        PUBLIC USER_APP_JOIN_MSG
        FUNCTION USER_APP_JOIN_MSG,021203H
        ARGFRAME XSTACK, 0, STACK
        LOCFRAME XSTACK, 10, STACK
        PUBLIC USER_DATA_LEN
        PUBLIC USER_DATA_STR
        PUBLIC USER_DATA_TYPE
        PUBLIC USER_SET_RS_MSG
        FUNCTION USER_SET_RS_MSG,0203H
        ARGFRAME XSTACK, 0, STACK
        LOCFRAME ISTACK, 2, STACK
        PUBLIC USER_SampleApp_ClusterList
        PUBLIC USER_ZDO_JOINING_MSG
        FUNCTION USER_ZDO_JOINING_MSG,021203H
        ARGFRAME XSTACK, 0, STACK
        LOCFRAME ISTACK, 2, STACK
        PUBLIC USER_bindingINClusters
        PUBLIC UserApp_Init
        FUNCTION UserApp_Init,021203H
        ARGFRAME XSTACK, 0, STACK
        LOCFRAME XSTACK, 9, STACK
        PUBLIC UserApp_ProcessEvent
        FUNCTION UserApp_ProcessEvent,021203H
        ARGFRAME XSTACK, 0, STACK
        LOCFRAME XSTACK, 24, STACK
        PUBLIC UserApp_TaskID
        PUBLIC User_APP_Drive_init
        FUNCTION User_APP_Drive_init,021203H
        ARGFRAME XSTACK, 9, STACK
        ARGFRAME IOVERLAY, 0, STATIC
        ARGFRAME DOVERLAY, 0, STATIC
        LOCFRAME ISTACK, 2, STACK
        PUBWEAK _A_P0
        PUBWEAK _A_P1
        PUBWEAK __Constant_0
        PUBWEAK __Constant_1
        PUBWEAK __Constant_10
        PUBWEAK __Constant_100
        PUBWEAK __Constant_13880
        PUBWEAK __Constant_13881
        PUBWEAK __Constant_17
        PUBWEAK __Constant_1f4
        PUBWEAK __Constant_2
        PUBWEAK __Constant_2710
        PUBWEAK __Constant_3e9
        PUBWEAK __Constant_3f800000
        PUBWEAK __Constant_3f99999a
        PUBWEAK __Constant_447a0000
        PUBWEAK __Constant_44dc0000
        PUBWEAK __Constant_64
        PUBWEAK __Constant_65
        PUBWEAK __Constant_6e1
        PUBWEAK __Constant_a
        PUBWEAK __Constant_e10
        PUBWEAK __Constant_f42400
        PUBWEAK __Constant_fffff1f0
        PUBWEAK __Constant_ffffffff
        
        CFI Names cfiNames0
        CFI StackFrame CFA_SP SP IDATA
        CFI StackFrame CFA_PSP16 PSP16 XDATA
        CFI StackFrame CFA_XSP16 XSP16 XDATA
        CFI StaticOverlayFrame CFA_IOVERLAY IOVERLAY
        CFI StaticOverlayFrame CFA_DOVERLAY DOVERLAY
        CFI Resource `PSW.CY`:1, `B.BR0`:1, `B.BR1`:1, `B.BR2`:1, `B.BR3`:1
        CFI Resource `B.BR4`:1, `B.BR5`:1, `B.BR6`:1, `B.BR7`:1, `VB.BR8`:1
        CFI Resource `VB.BR9`:1, `VB.BR10`:1, `VB.BR11`:1, `VB.BR12`:1
        CFI Resource `VB.BR13`:1, `VB.BR14`:1, `VB.BR15`:1, VB:8, B:8, A:8
        CFI Resource PSW:8, DPL0:8, DPH0:8, R0:8, R1:8, R2:8, R3:8, R4:8, R5:8
        CFI Resource R6:8, R7:8, V0:8, V1:8, V2:8, V3:8, V4:8, V5:8, V6:8, V7:8
        CFI Resource V8:8, V9:8, V10:8, V11:8, V12:8, V13:8, V14:8, V15:8, SP:8
        CFI Resource PSPH:8, PSPL:8, PSP16:16, XSPH:8, XSPL:8, XSP16:16
        CFI VirtualResource ?RET:24
        CFI Resource ?BRET_EXT:8
        CFI VirtualResource ?RET_HIGH:8, ?RET_LOW:8
        CFI ResourceParts PSP16 PSPH, PSPL
        CFI ResourceParts XSP16 XSPH, XSPL
        CFI ResourceParts ?RET ?BRET_EXT, ?RET_HIGH, ?RET_LOW
        CFI EndNames cfiNames0
        
        CFI Common cfiCommon0 Using cfiNames0
        CFI CodeAlign 1
        CFI DataAlign -1
        CFI ReturnAddress ?RET CODE
        CFI CFA_DOVERLAY Used
        CFI CFA_IOVERLAY Used
        CFI CFA_SP SP+-3
        CFI CFA_PSP16 PSP16+0
        CFI CFA_XSP16 XSP16+0
        CFI `PSW.CY` SameValue
        CFI `B.BR0` SameValue
        CFI `B.BR1` SameValue
        CFI `B.BR2` SameValue
        CFI `B.BR3` SameValue
        CFI `B.BR4` SameValue
        CFI `B.BR5` SameValue
        CFI `B.BR6` SameValue
        CFI `B.BR7` SameValue
        CFI `VB.BR8` SameValue
        CFI `VB.BR9` SameValue
        CFI `VB.BR10` SameValue
        CFI `VB.BR11` SameValue
        CFI `VB.BR12` SameValue
        CFI `VB.BR13` SameValue
        CFI `VB.BR14` SameValue
        CFI `VB.BR15` SameValue
        CFI VB SameValue
        CFI B Undefined
        CFI A Undefined
        CFI PSW SameValue
        CFI DPL0 SameValue
        CFI DPH0 SameValue
        CFI R0 Undefined
        CFI R1 Undefined
        CFI R2 Undefined
        CFI R3 Undefined
        CFI R4 Undefined
        CFI R5 Undefined
        CFI R6 SameValue
        CFI R7 SameValue
        CFI V0 SameValue
        CFI V1 SameValue
        CFI V2 SameValue
        CFI V3 SameValue
        CFI V4 SameValue
        CFI V5 SameValue
        CFI V6 SameValue
        CFI V7 SameValue
        CFI V8 SameValue
        CFI V9 SameValue
        CFI V10 SameValue
        CFI V11 SameValue
        CFI V12 SameValue
        CFI V13 SameValue
        CFI V14 SameValue
        CFI V15 SameValue
        CFI PSPH Undefined
        CFI PSPL Undefined
        CFI XSPH Undefined
        CFI XSPL Undefined
        CFI ?RET Concat
        CFI ?BRET_EXT Frame(CFA_SP, 3)
        CFI ?RET_HIGH Frame(CFA_SP, 2)
        CFI ?RET_LOW Frame(CFA_SP, 1)
        CFI EndCommon cfiCommon0
        
RegisterForKeys     SYMBOL "RegisterForKeys"
afRegister          SYMBOL "afRegister"
ZDO_RegisterForZDOMsg SYMBOL "ZDO_RegisterForZDOMsg"
osal_msg_receive    SYMBOL "osal_msg_receive"
osal_msg_deallocate SYMBOL "osal_msg_deallocate"
osal_nv_item_init   SYMBOL "osal_nv_item_init"
osal_nv_read        SYMBOL "osal_nv_read"
osal_start_timerEx  SYMBOL "osal_start_timerEx"
SampleApp_send_in_binding_req SYMBOL "SampleApp_send_in_binding_req"
APPLY_TO_JOIN_OF_KEY SYMBOL "APPLY_TO_JOIN_OF_KEY"
SampleApp_PermitJoin SYMBOL "SampleApp_PermitJoin"
HalLedBlink         SYMBOL "HalLedBlink"
RESTORE_TO_FACTORY  SYMBOL "RESTORE_TO_FACTORY"
SampleApp_GetShortAddr SYMBOL "SampleApp_GetShortAddr"
osal_mem_free       SYMBOL "osal_mem_free"
GetPactive          SYMBOL "GetPactive"
GetCurrentIrms      SYMBOL "GetCurrentIrms"
osal_nv_write       SYMBOL "osal_nv_write"
osal_mem_alloc      SYMBOL "osal_mem_alloc"
USER_SEND_ADD_STR   SYMBOL "USER_SEND_ADD_STR"
USER_APP_SEND_IN    SYMBOL "USER_APP_SEND_IN"
InitCS5463          SYMBOL "InitCS5463"
ConfigCS5463        SYMBOL "ConfigCS5463"
??APPLY_TO_JOIN_OF_KEY?relay SYMBOL "?relay", APPLY_TO_JOIN_OF_KEY
??ConfigCS5463?relay SYMBOL "?relay", ConfigCS5463
??GetCurrentIrms?relay SYMBOL "?relay", GetCurrentIrms
??GetPactive?relay  SYMBOL "?relay", GetPactive
??HalLedBlink?relay SYMBOL "?relay", HalLedBlink
??InitCS5463?relay  SYMBOL "?relay", InitCS5463
??RESTORE_TO_FACTORY?relay SYMBOL "?relay", RESTORE_TO_FACTORY
??RegisterForKeys?relay SYMBOL "?relay", RegisterForKeys
??SampleApp_GetShortAddr?relay SYMBOL "?relay", SampleApp_GetShortAddr
??SampleApp_PermitJoin?relay SYMBOL "?relay", SampleApp_PermitJoin
??SampleApp_send_in_binding_req?relay SYMBOL "?relay", SampleApp_send_in_binding_req
??USER_APP_SEND_IN?relay SYMBOL "?relay", USER_APP_SEND_IN
??USER_SEND_ADD_STR?relay SYMBOL "?relay", USER_SEND_ADD_STR
??ZDO_RegisterForZDOMsg?relay SYMBOL "?relay", ZDO_RegisterForZDOMsg
??afRegister?relay  SYMBOL "?relay", afRegister
??osal_mem_alloc?relay SYMBOL "?relay", osal_mem_alloc
??osal_mem_free?relay SYMBOL "?relay", osal_mem_free
??osal_msg_deallocate?relay SYMBOL "?relay", osal_msg_deallocate
??osal_msg_receive?relay SYMBOL "?relay", osal_msg_receive
??osal_nv_item_init?relay SYMBOL "?relay", osal_nv_item_init
??osal_nv_read?relay SYMBOL "?relay", osal_nv_read
??osal_nv_write?relay SYMBOL "?relay", osal_nv_write
??osal_start_timerEx?relay SYMBOL "?relay", osal_start_timerEx
CS5463_Send_PWER    SYMBOL "CS5463_Send_PWER"
??CS5463_Send_PWER?relay SYMBOL "?relay", CS5463_Send_PWER
LED_CHANGE          SYMBOL "LED_CHANGE"
??LED_CHANGE?relay  SYMBOL "?relay", LED_CHANGE
P_JiaoZhun_Process  SYMBOL "P_JiaoZhun_Process"
??P_JiaoZhun_Process?relay SYMBOL "?relay", P_JiaoZhun_Process
READ_NETKEY         SYMBOL "READ_NETKEY"
??READ_NETKEY?relay SYMBOL "?relay", READ_NETKEY
SampleAPP_ProcessZDOMsgs SYMBOL "SampleAPP_ProcessZDOMsgs"
??SampleAPP_ProcessZDOMsgs?relay SYMBOL "?relay", SampleAPP_ProcessZDOMsgs
SampleApp_HandleKeys SYMBOL "SampleApp_HandleKeys"
??SampleApp_HandleKeys?relay SYMBOL "?relay", SampleApp_HandleKeys
SampleApp_ProcessBINDINGMessage SYMBOL "SampleApp_ProcessBINDINGMessage"
??SampleApp_ProcessBINDINGMessage?relay SYMBOL "?relay", SampleApp_ProcessBINDINGMessage
SampleApp_SendInMessage SYMBOL "SampleApp_SendInMessage"
??SampleApp_SendInMessage?relay SYMBOL "?relay", SampleApp_SendInMessage
USER_AFTER_RS_MSG   SYMBOL "USER_AFTER_RS_MSG"
??USER_AFTER_RS_MSG?relay SYMBOL "?relay", USER_AFTER_RS_MSG
USER_APP_COMMAND    SYMBOL "USER_APP_COMMAND"
??USER_APP_COMMAND?relay SYMBOL "?relay", USER_APP_COMMAND
USER_APP_JOIN_MSG   SYMBOL "USER_APP_JOIN_MSG"
??USER_APP_JOIN_MSG?relay SYMBOL "?relay", USER_APP_JOIN_MSG
USER_SET_RS_MSG     SYMBOL "USER_SET_RS_MSG"
??USER_SET_RS_MSG?relay SYMBOL "?relay", USER_SET_RS_MSG
USER_ZDO_JOINING_MSG SYMBOL "USER_ZDO_JOINING_MSG"
??USER_ZDO_JOINING_MSG?relay SYMBOL "?relay", USER_ZDO_JOINING_MSG
UserApp_Init        SYMBOL "UserApp_Init"
??UserApp_Init?relay SYMBOL "?relay", UserApp_Init
UserApp_ProcessEvent SYMBOL "UserApp_ProcessEvent"
??UserApp_ProcessEvent?relay SYMBOL "?relay", UserApp_ProcessEvent
User_APP_Drive_init SYMBOL "User_APP_Drive_init"
??User_APP_Drive_init?relay SYMBOL "?relay", User_APP_Drive_init

        EXTERN RegisterForKeys
        FUNCTION RegisterForKeys,0202H
        ARGFRAME ISTACK, 0, STACK
        ARGFRAME PSTACK, 0, STACK
        ARGFRAME XSTACK, 9, STACK
        ARGFRAME IOVERLAY, 0, STATIC
        ARGFRAME DOVERLAY, 0, STATIC
        EXTERN afRegister
        FUNCTION afRegister,0202H
        ARGFRAME ISTACK, 0, STACK
        ARGFRAME PSTACK, 0, STACK
        ARGFRAME XSTACK, 9, STACK
        ARGFRAME IOVERLAY, 0, STATIC
        ARGFRAME DOVERLAY, 0, STATIC
        EXTERN ZDO_RegisterForZDOMsg
        FUNCTION ZDO_RegisterForZDOMsg,0202H
        ARGFRAME ISTACK, 0, STACK
        ARGFRAME PSTACK, 0, STACK
        ARGFRAME XSTACK, 9, STACK
        ARGFRAME IOVERLAY, 0, STATIC
        ARGFRAME DOVERLAY, 0, STATIC
        EXTERN osal_msg_receive
        FUNCTION osal_msg_receive,0202H
        ARGFRAME ISTACK, 0, STACK
        ARGFRAME PSTACK, 0, STACK
        ARGFRAME XSTACK, 20, STACK
        ARGFRAME IOVERLAY, 0, STATIC
        ARGFRAME DOVERLAY, 0, STATIC
        EXTERN osal_msg_deallocate
        FUNCTION osal_msg_deallocate,0202H
        ARGFRAME ISTACK, 0, STACK
        ARGFRAME PSTACK, 0, STACK
        ARGFRAME XSTACK, 20, STACK
        ARGFRAME IOVERLAY, 0, STATIC
        ARGFRAME DOVERLAY, 0, STATIC
        EXTERN osal_nv_item_init
        FUNCTION osal_nv_item_init,0202H
        ARGFRAME ISTACK, 0, STACK
        ARGFRAME PSTACK, 0, STACK
        ARGFRAME XSTACK, 22, STACK
        ARGFRAME IOVERLAY, 0, STATIC
        ARGFRAME DOVERLAY, 0, STATIC
        EXTERN osal_nv_read
        FUNCTION osal_nv_read,0202H
        ARGFRAME ISTACK, 0, STACK
        ARGFRAME PSTACK, 0, STACK
        ARGFRAME XSTACK, 24, STACK
        ARGFRAME IOVERLAY, 0, STATIC
        ARGFRAME DOVERLAY, 0, STATIC
        EXTERN osal_start_timerEx
        FUNCTION osal_start_timerEx,0202H
        ARGFRAME ISTACK, 0, STACK
        ARGFRAME PSTACK, 0, STACK
        ARGFRAME XSTACK, 20, STACK
        ARGFRAME IOVERLAY, 0, STATIC
        ARGFRAME DOVERLAY, 0, STATIC
        EXTERN SampleApp_send_in_binding_req
        FUNCTION SampleApp_send_in_binding_req,0202H
        ARGFRAME ISTACK, 0, STACK
        ARGFRAME PSTACK, 0, STACK
        ARGFRAME XSTACK, 9, STACK
        ARGFRAME IOVERLAY, 0, STATIC
        ARGFRAME DOVERLAY, 0, STATIC
        EXTERN APPLY_TO_JOIN_OF_KEY
        FUNCTION APPLY_TO_JOIN_OF_KEY,0202H
        ARGFRAME ISTACK, 0, STACK
        ARGFRAME PSTACK, 0, STACK
        ARGFRAME XSTACK, 9, STACK
        ARGFRAME IOVERLAY, 0, STATIC
        ARGFRAME DOVERLAY, 0, STATIC
        EXTERN SampleApp_PermitJoin
        FUNCTION SampleApp_PermitJoin,0202H
        ARGFRAME ISTACK, 0, STACK
        ARGFRAME PSTACK, 0, STACK
        ARGFRAME XSTACK, 9, STACK
        ARGFRAME IOVERLAY, 0, STATIC
        ARGFRAME DOVERLAY, 0, STATIC
        EXTERN HalLedBlink
        FUNCTION HalLedBlink,0202H
        ARGFRAME ISTACK, 2, STACK
        ARGFRAME PSTACK, 0, STACK
        ARGFRAME XSTACK, 10, STACK
        ARGFRAME IOVERLAY, 0, STATIC
        ARGFRAME DOVERLAY, 0, STATIC
        EXTERN RESTORE_TO_FACTORY
        FUNCTION RESTORE_TO_FACTORY,0202H
        ARGFRAME ISTACK, 0, STACK
        ARGFRAME PSTACK, 0, STACK
        ARGFRAME XSTACK, 9, STACK
        ARGFRAME IOVERLAY, 0, STATIC
        ARGFRAME DOVERLAY, 0, STATIC
        EXTERN SampleApp_GetShortAddr
        FUNCTION SampleApp_GetShortAddr,0202H
        ARGFRAME ISTACK, 0, STACK
        ARGFRAME PSTACK, 0, STACK
        ARGFRAME XSTACK, 10, STACK
        ARGFRAME IOVERLAY, 0, STATIC
        ARGFRAME DOVERLAY, 0, STATIC
        EXTERN osal_mem_free
        FUNCTION osal_mem_free,0202H
        ARGFRAME ISTACK, 0, STACK
        ARGFRAME PSTACK, 0, STACK
        ARGFRAME XSTACK, 20, STACK
        ARGFRAME IOVERLAY, 0, STATIC
        ARGFRAME DOVERLAY, 0, STATIC
        EXTERN GetPactive
        FUNCTION GetPactive,0202H
        ARGFRAME ISTACK, 0, STACK
        ARGFRAME PSTACK, 0, STACK
        ARGFRAME XSTACK, 28, STACK
        ARGFRAME IOVERLAY, 0, STATIC
        ARGFRAME DOVERLAY, 0, STATIC
        EXTERN GetCurrentIrms
        FUNCTION GetCurrentIrms,0202H
        ARGFRAME ISTACK, 0, STACK
        ARGFRAME PSTACK, 0, STACK
        ARGFRAME XSTACK, 28, STACK
        ARGFRAME IOVERLAY, 0, STATIC
        ARGFRAME DOVERLAY, 0, STATIC
        EXTERN osal_nv_write
        FUNCTION osal_nv_write,0202H
        ARGFRAME ISTACK, 0, STACK
        ARGFRAME PSTACK, 0, STACK
        ARGFRAME XSTACK, 24, STACK
        ARGFRAME IOVERLAY, 0, STATIC
        ARGFRAME DOVERLAY, 0, STATIC
        EXTERN osal_mem_alloc
        FUNCTION osal_mem_alloc,0202H
        ARGFRAME ISTACK, 0, STACK
        ARGFRAME PSTACK, 0, STACK
        ARGFRAME XSTACK, 20, STACK
        ARGFRAME IOVERLAY, 0, STATIC
        ARGFRAME DOVERLAY, 0, STATIC
        EXTERN USER_SEND_ADD_STR
        FUNCTION USER_SEND_ADD_STR,0202H
        ARGFRAME ISTACK, 0, STACK
        ARGFRAME PSTACK, 0, STACK
        ARGFRAME XSTACK, 20, STACK
        ARGFRAME IOVERLAY, 0, STATIC
        ARGFRAME DOVERLAY, 0, STATIC
        EXTERN USER_APP_SEND_IN
        FUNCTION USER_APP_SEND_IN,0202H
        ARGFRAME ISTACK, 0, STACK
        ARGFRAME PSTACK, 0, STACK
        ARGFRAME XSTACK, 20, STACK
        ARGFRAME IOVERLAY, 0, STATIC
        ARGFRAME DOVERLAY, 0, STATIC
        EXTERN InitCS5463
        FUNCTION InitCS5463,0202H
        ARGFRAME ISTACK, 2, STACK
        ARGFRAME PSTACK, 0, STACK
        ARGFRAME XSTACK, 0, STACK
        ARGFRAME IOVERLAY, 0, STATIC
        ARGFRAME DOVERLAY, 0, STATIC
        EXTERN ConfigCS5463
        FUNCTION ConfigCS5463,0202H
        ARGFRAME ISTACK, 2, STACK
        ARGFRAME PSTACK, 0, STACK
        ARGFRAME XSTACK, 0, STACK
        ARGFRAME IOVERLAY, 0, STATIC
        ARGFRAME DOVERLAY, 0, STATIC
        EXTERN ??APPLY_TO_JOIN_OF_KEY?relay
        FUNCTION ??APPLY_TO_JOIN_OF_KEY?relay,00H
        EXTERN ??ConfigCS5463?relay
        FUNCTION ??ConfigCS5463?relay,00H
        EXTERN ??GetCurrentIrms?relay
        FUNCTION ??GetCurrentIrms?relay,00H
        EXTERN ??GetPactive?relay
        FUNCTION ??GetPactive?relay,00H
        EXTERN ??HalLedBlink?relay
        FUNCTION ??HalLedBlink?relay,00H
        EXTERN ??InitCS5463?relay
        FUNCTION ??InitCS5463?relay,00H
        EXTERN ??RESTORE_TO_FACTORY?relay
        FUNCTION ??RESTORE_TO_FACTORY?relay,00H
        EXTERN ??RegisterForKeys?relay
        FUNCTION ??RegisterForKeys?relay,00H
        EXTERN ??SampleApp_GetShortAddr?relay
        FUNCTION ??SampleApp_GetShortAddr?relay,00H
        EXTERN ??SampleApp_PermitJoin?relay
        FUNCTION ??SampleApp_PermitJoin?relay,00H
        EXTERN ??SampleApp_send_in_binding_req?relay
        FUNCTION ??SampleApp_send_in_binding_req?relay,00H
        EXTERN ??USER_APP_SEND_IN?relay
        FUNCTION ??USER_APP_SEND_IN?relay,00H
        EXTERN ??USER_SEND_ADD_STR?relay
        FUNCTION ??USER_SEND_ADD_STR?relay,00H
        EXTERN ??ZDO_RegisterForZDOMsg?relay
        FUNCTION ??ZDO_RegisterForZDOMsg?relay,00H
        EXTERN ??afRegister?relay
        FUNCTION ??afRegister?relay,00H
        EXTERN ??osal_mem_alloc?relay
        FUNCTION ??osal_mem_alloc?relay,00H
        EXTERN ??osal_mem_free?relay
        FUNCTION ??osal_mem_free?relay,00H
        EXTERN ??osal_msg_deallocate?relay
        FUNCTION ??osal_msg_deallocate?relay,00H
        EXTERN ??osal_msg_receive?relay
        FUNCTION ??osal_msg_receive?relay,00H
        EXTERN ??osal_nv_item_init?relay
        FUNCTION ??osal_nv_item_init?relay,00H
        EXTERN ??osal_nv_read?relay
        FUNCTION ??osal_nv_read?relay,00H
        EXTERN ??osal_nv_write?relay
        FUNCTION ??osal_nv_write?relay,00H
        EXTERN ??osal_start_timerEx?relay
        FUNCTION ??osal_start_timerEx?relay,00H
        EXTERN KEY_NUMBER_FLAG_A
        EXTERN SampleApp_TaskID
        EXTERN devState
        EXTERN key_double_flag
        EXTERN key_hold_flag
        EXTERN shortddr_mem

// D:\RE_1_2_0_FORMAL_APP(251)-14-12-8\Projects\zstack\Samples\SampleApp\Source\EN_WALL_SOKET_device\EN_WALL_SOKET_User_app.c
//    1 /**************************************************************************************************
//    2 Filename:       SampleApp.c
//    3 Revised:        $Date: 2007-10-27 17:16:54 -0700 (Sat, 27 Oct 2007) $
//    4 Revision:       $Revision: 15793 $
//    5 
//    6 Description:    Sample Application (no Profile).
//    7 
//    8 
//    9 Copyright 2007 Texas Instruments Incorporated. All rights reserved.
//   10 
//   11 IMPORTANT: Your use of this Software is limited to those specific rights
//   12 granted under the terms of a software license agreement between the user
//   13 who downloaded the software, his/her employer (which must be your employer)
//   14 and Texas Instruments Incorporated (the "License").  You may not use this
//   15 Software unless you agree to abide by the terms of the License. The License
//   16 limits your use, and you acknowledge, that the Software may not be modified,
//   17 copied or distributed unless embedded on a Texas Instruments microcontroller
//   18 or used solely and exclusively in conjunction with a Texas Instruments radio
//   19 frequency transceiver, which is integrated into your product.  Other than for
//   20 the foregoing purpose, you may not use, reproduce, copy, prepare derivative
//   21 works of, modify, distribute, perform, display or sell this Software and/or
//   22 its documentation for any purpose.
//   23 
//   24 YOU FURTHER ACKNOWLEDGE AND AGREE THAT THE SOFTWARE AND DOCUMENTATION ARE
//   25 PROVIDED AS IS?WITHOUT WARRANTY OF ANY KIND, EITHER EXPRESS OR IMPLIED,
//   26 INCLUDING WITHOUT LIMITATION, ANY WARRANTY OF MERCHANTABILITY, TITLE,
//   27 NON-INFRINGEMENT AND FITNESS FOR A PARTICULAR PURPOSE. IN NO EVENT SHALL
//   28 TEXAS INSTRUMENTS OR ITS LICENSORS BE LIABLE OR OBLIGATED UNDER CONTRACT,
//   29 NEGLIGENCE, STRICT LIABILITY, CONTRIBUTION, BREACH OF WARRANTY, OR OTHER
//   30 LEGAL EQUITABLE THEORY ANY DIRECT OR INDIRECT DAMAGES OR EXPENSES
//   31 INCLUDING BUT NOT LIMITED TO ANY INCIDENTAL, SPECIAL, INDIRECT, PUNITIVE
//   32 OR CONSEQUENTIAL DAMAGES, LOST PROFITS OR LOST DATA, COST OF PROCUREMENT
//   33 OF SUBSTITUTE GOODS, TECHNOLOGY, SERVICES, OR ANY CLAIMS BY THIRD PARTIES
//   34 (INCLUDING BUT NOT LIMITED TO ANY DEFENSE THEREOF), OR OTHER SIMILAR COSTS.
//   35 
//   36 Should you have any questions regarding your right to use this Software,
//   37 contact Texas Instruments Incorporated at www.TI.com.
//   38 **************************************************************************************************/
//   39 
//   40 /*********************************************************************
//   41 This application isn't intended to do anything useful, it is
//   42 intended to be a simple example of an application's structure.
//   43 
//   44 This application sends it's messages either as broadcast or
//   45 broadcast filtered group messages.  The other (more normal)
//   46 message addressing is unicast.  Most of the other sample
//   47 applications are written to support the unicast message model.
//   48 
//   49 Key control:
//   50 SW1:  Sends a flash command to all devices in Group 1.
//   51 SW2:  Adds/Removes (toggles) this device in and out
//   52 of Group 1.  This will enable and disable the
//   53 reception of the flash command.
//   54 *********************************************************************/
//   55 /*******************************************************************************
//   56 文件名称：SR_SOCKET_User_app.C
//   57 文件功能：用户主文件
//   58 设计人员：
//   59 设计时间：20141014
//   60 修改记录：无
//   61 备注说明：包含用户需要填充的所有回调函数，用户只需填充回调函数即可
//   62 *******************************************************************************/
//   63 /*******************************************************************************
//   64 文件包含
//   65 *******************************************************************************/
//   66 #include "AF.h"
//   67 #include "ZDApp.h"
//   68 #include "device.h"
//   69 #include "OnBoard.h"

        ASEGN SFR_AN:DATA:NOROOT,080H
// union <unnamed> volatile __sfr _A_P0
_A_P0:
        DATA8
        DS 1

        ASEGN SFR_AN:DATA:NOROOT,090H
// union <unnamed> volatile __sfr _A_P1
_A_P1:
        DATA8
        DS 1

        ASEGN SFR_AN:DATA:NOROOT,0fdH
// unsigned char volatile __sfr P0DIR
P0DIR:
        DATA8
        DS 1

        ASEGN SFR_AN:DATA:NOROOT,0feH
// unsigned char volatile __sfr P1DIR
P1DIR:
        DATA8
        DS 1
//   70 #include "MT_UART.h"
//   71 
//   72 /* HAL */
//   73 #include "hal_led.h"
//   74 #include "hal_key.h"
//   75 #include "OSAL_Nv.h"
//   76 
//   77 #include "AddrMgr.h"
//   78 
//   79 #include "ZDObject.h"
//   80 #include "ZDO_LIB.h"
//   81 #include "common_device.h"
//   82 #include "CS5463_spi.h" 
//   83 #include "IO_config.h"
//   84 /*******************************************************************************
//   85 全局变量
//   86 *******************************************************************************/  

        RSEG XDATA_Z:XDATA:NOROOT(0)
        DATA8
//   87 uint8 UserApp_TaskID;//用户注册的任务的编号，系统自动分配
UserApp_TaskID:
        DS 1
        REQUIRE __INIT_XDATA_Z

        RSEG XDATA_Z:XDATA:NOROOT(0)
        DATA8
//   88 uint8 RS_LEN=0;
RS_LEN:
        DS 1
        REQUIRE __INIT_XDATA_Z

        RSEG XDATA_Z:XDATA:NOROOT(0)
        DATA8
//   89 uint8 RS_STR[10];
RS_STR:
        DS 10
        REQUIRE __INIT_XDATA_Z
//   90 

        RSEG XDATA_Z:XDATA:NOROOT(0)
        DATA8
//   91 uint8 DEVICE_ID;
DEVICE_ID:
        DS 1
        REQUIRE __INIT_XDATA_Z

        RSEG XDATA_Z:XDATA:NOROOT(0)
        DATA8
//   92 uint8 DEFINED_CONTROL_CHAR;
DEFINED_CONTROL_CHAR:
        DS 1
        REQUIRE __INIT_XDATA_Z

        RSEG XDATA_Z:XDATA:NOROOT(0)
        DATA8
//   93 uint8 JOIN_ROLE;
JOIN_ROLE:
        DS 1
        REQUIRE __INIT_XDATA_Z
//   94 

        RSEG XDATA_Z:XDATA:NOROOT(0)
        DATA32
//   95 uint8 SHORT_ADRESS[4];
SHORT_ADRESS:
        DS 4
        REQUIRE __INIT_XDATA_Z

        RSEG XDATA_Z:XDATA:NOROOT(0)
        DATA8
//   96 uint8 USER_DATA_LEN=0;
USER_DATA_LEN:
        DS 1
        REQUIRE __INIT_XDATA_Z

        RSEG XDATA_Z:XDATA:NOROOT(0)
        DATA8
//   97 uint8 USER_DATA_TYPE=0;
USER_DATA_TYPE:
        DS 1
        REQUIRE __INIT_XDATA_Z

        RSEG XDATA_Z:XDATA:NOROOT(0)
        DATA16
//   98 uint8 *USER_DATA_STR;
USER_DATA_STR:
        DS 2
        REQUIRE __INIT_XDATA_Z

        RSEG XDATA_Z:XDATA:NOROOT(0)
        DATA32
//   99 uint32 P_Value;
P_Value:
        DS 4
        REQUIRE __INIT_XDATA_Z
//  100 extern uint8 KEY_NUMBER_FLAG_A ;//按键标志
//  101 
//  102 // 节点相关的全局变量-----------------------------------------------------------
//  103 

        RSEG XDATA_I:XDATA:NOROOT(0)
//  104 cId_t  USER_SampleApp_ClusterList[SAMPLEAPP_MAX_CLUSTERS]=
USER_SampleApp_ClusterList:
        DATA8
        DS 26
        REQUIRE `?<Initializer for USER_SampleApp_ClusterList>`
        REQUIRE __INIT_XDATA_I
//  105 {
//  106     SAMPLEAPP_ONOFF_CLUSTERID,
//  107     SAMPLEAPP_FLASH_CLUSTERID,
//  108     SAMPLEAPP_ADDR_CLUSTERID,
//  109     SAMPLEAPP_COMMAND_CLUSTERID,
//  110     SAMPLEAPP_PERIODIC_CLUSTERID,
//  111     SAMPLEAPP_ANNCE_REQ_CLUSTERID,
//  112     SAMPLEAPP_PERIODIC_COORDINATOR_CLUSTERID,
//  113     SAMPLEAPP_ACTIVE_COMMAND_CLUSTERID
//  114 };
//  115 

        RSEG XDATA_Z:XDATA:NOROOT(0)
        DATA8
//  116 endPointDesc_t SampleApp_epDesc1;
SampleApp_epDesc1:
        DS 6
        REQUIRE __INIT_XDATA_Z

        RSEG XDATA_Z:XDATA:NOROOT(0)
        DATA8
//  117 endPointDesc_t SampleApp_epDesc2;
SampleApp_epDesc2:
        DS 6
        REQUIRE __INIT_XDATA_Z
//  118 

        RSEG XDATA_I:XDATA:NOROOT(0)
//  119 SimpleDescriptionFormat_t SampleApp_SimpleDesc1 =
SampleApp_SimpleDesc1:
        DATA8
        DS 12
        REQUIRE `?<Initializer for SampleApp_SimpleDesc1>`
        REQUIRE __INIT_XDATA_I
//  120 {
//  121     SAMPLEAPP_ENDPOINT1,              //  int Endpoint;
//  122     SAMPLEAPP_PROFID,                //  uint16 AppProfId[2];
//  123     SAMPLEAPP_DEVICEID,              //  uint16 AppDeviceId[2];
//  124     SAMPLEAPP_DEVICE_VERSION,        //  int   AppDevVer:4;
//  125     SAMPLEAPP_FLAGS,                 //  int   AppFlags:4;
//  126     SAMPLEAPP_MAX_CLUSTERS,          //  uint8  AppNumInClusters;
//  127     (cId_t *)USER_SampleApp_ClusterList,  //  uint8 *pAppInClusterList;
//  128     SAMPLEAPP_MAX_CLUSTERS,          //  uint8  AppNumInClusters;
//  129     (cId_t *)USER_SampleApp_ClusterList   //  uint8 *pAppInClusterList;
//  130 };
//  131 

        RSEG XDATA_I:XDATA:NOROOT(0)
//  132 SimpleDescriptionFormat_t SampleApp_SimpleDesc2 =
SampleApp_SimpleDesc2:
        DATA8
        DS 12
        REQUIRE `?<Initializer for SampleApp_SimpleDesc2>`
        REQUIRE __INIT_XDATA_I
//  133 {
//  134     SAMPLEAPP_ENDPOINT2,              //  int Endpoint;
//  135     SAMPLEAPP_PROFID,                //  uint16 AppProfId[2];
//  136     SAMPLEAPP_DEVICEID,              //  uint16 AppDeviceId[2];
//  137     SAMPLEAPP_DEVICE_VERSION,        //  int   AppDevVer:4;
//  138     SAMPLEAPP_FLAGS,                 //  int   AppFlags:4;
//  139     SAMPLEAPP_MAX_CLUSTERS,          //  uint8  AppNumInClusters;
//  140     (cId_t *)USER_SampleApp_ClusterList,  //  uint8 *pAppInClusterList;
//  141     SAMPLEAPP_MAX_CLUSTERS,          //  uint8  AppNumInClusters;
//  142     (cId_t *)USER_SampleApp_ClusterList   //  uint8 *pAppInClusterList;
//  143 };
//  144 //绑定命令

        RSEG XDATA_I:XDATA:NOROOT(0)
//  145 cId_t USER_bindingINClusters[1]=
USER_bindingINClusters:
        DATA16
        DS 2
        REQUIRE `?<Initializer for USER_bindingINClusters>`
        REQUIRE __INIT_XDATA_I
//  146 {
//  147     SAMPLEAPP_ONOFF_CLUSTERID
//  148 };
//  149 
//  150 //计量的全局变量--------------------

        RSEG XDATA_Z:XDATA:NOROOT(0)
        DATA32
//  151 uint32 	P_Value_Pre, P_Value_Now, P_Value_energy = 0;//功率的当前值和前一个功率值
P_Value_Pre:
        DS 4
        REQUIRE __INIT_XDATA_Z

        RSEG XDATA_Z:XDATA:NOROOT(0)
        DATA32
P_Value_Now:
        DS 4
        REQUIRE __INIT_XDATA_Z

        RSEG XDATA_Z:XDATA:NOROOT(0)
        DATA32
P_Value_energy:
        DS 4
        REQUIRE __INIT_XDATA_Z

        RSEG XDATA_I:XDATA:NOROOT(0)
//  152 uint32 	P_Protect_Value = 10;//功率保护值
P_Protect_Value:
        DATA32
        DS 4
        REQUIRE `?<Initializer for P_Protect_Value>`
        REQUIRE __INIT_XDATA_I

        RSEG XDATA_I:XDATA:NOROOT(0)
//  153 uint16  P_Value_Distance = 100;//功率上报的差值
P_Value_Distance:
        DATA16
        DS 2
        REQUIRE `?<Initializer for P_Value_Distance>`
        REQUIRE __INIT_XDATA_I
//  154 

        RSEG XDATA_Z:XDATA:NOROOT(0)
        DATA16
//  155 uint16 	P_Value_jiaozhun_Temp = 0, I_Value_jiaozhun_Temp = 0;//功率校准值
P_Value_jiaozhun_Temp:
        DS 2
        REQUIRE __INIT_XDATA_Z

        RSEG XDATA_Z:XDATA:NOROOT(0)
        DATA16
I_Value_jiaozhun_Temp:
        DS 2
        REQUIRE __INIT_XDATA_Z

        RSEG XDATA_I:XDATA:NOROOT(0)
//  156 float  P_Value_Bili_Temp = 1.0, I_Value_Bili_Temp = 1.0;//功率的比例校准
P_Value_Bili_Temp:
        DATA32
        DS 4
        REQUIRE `?<Initializer for P_Value_Bili_Temp>`
        REQUIRE __INIT_XDATA_I

        RSEG XDATA_I:XDATA:NOROOT(0)
I_Value_Bili_Temp:
        DATA32
        DS 4
        REQUIRE `?<Initializer for I_Value_Bili_Temp>`
        REQUIRE __INIT_XDATA_I

        RSEG XDATA_Z:XDATA:NOROOT(0)
        DATA16
//  157 uint16 	P_Value_Bili , I_Value_Bili ;//功率的比例校准,电流比例校准
P_Value_Bili:
        DS 2
        REQUIRE __INIT_XDATA_Z

        RSEG XDATA_Z:XDATA:NOROOT(0)
        DATA16
I_Value_Bili:
        DS 2
        REQUIRE __INIT_XDATA_Z

        RSEG XDATA_Z:XDATA:NOROOT(0)
        DATA32
//  158 uint32 Total_P_Value = 0,Total_P_Value_Temp = 0;//总功率值，使用WH为单位；
Total_P_Value:
        DS 4
        REQUIRE __INIT_XDATA_Z

        RSEG XDATA_Z:XDATA:NOROOT(0)
        DATA32
Total_P_Value_Temp:
        DS 4
        REQUIRE __INIT_XDATA_Z

        RSEG XDATA_Z:XDATA:NOROOT(0)
        DATA32
//  159 uint32 I_Value_Now;//当前电流值
I_Value_Now:
        DS 4
        REQUIRE __INIT_XDATA_Z

        RSEG XDATA_Z:XDATA:NOROOT(0)
        DATA8
//  160 uint8  CS5463_STR[10];//0-已校准的标记 ； 1、2- 功率偏移；  3、4-功率的比例；  5、6-电流的偏移； 7、8-电流的比例
CS5463_STR:
        DS 10
        REQUIRE __INIT_XDATA_Z
//  161 /*******************************************************************************
//  162 函数声明
//  163 *******************************************************************************/
//  164 uint8 USER_APP_COMMAND(uint8 *user_app_data,uint8 *str); 
//  165 void USER_APP_JOIN_MSG(void);
//  166 void SampleApp_ProcessBINDINGMessage(afIncomingMSGPacket_t *pkt);
//  167 
//  168 void User_APP_Drive_init(void);
//  169 void SampleApp_HandleKeys( uint8 shift, uint8 keys );//本用户应用按键函数
//  170 void USER_SET_RS_MSG(void);//设置RS数据
//  171 
//  172 void USER_ZDO_JOINING_MSG(void); //ZDO层入网的时候处理函数 就是闪烁灯
//  173 uint8 READ_NETKEY(void); //读取入网状态按键的状态传递到应用层
//  174 void LED_CHANGE(uint8 Position,uint8 Mode);// 设置LED函数
//  175 void SampleAPP_ProcessZDOMsgs( zdoIncomingMsg_t *inMsg );
//  176 
//  177 uint8 CS5463_Send_PWER(void);
//  178 void P_JiaoZhun_Process(void);
//  179 void USER_AFTER_RS_MSG(void);
//  180 

        RSEG BANKED_CODE:CODE:NOROOT(0)
//  181 void USER_AFTER_RS_MSG(void)
USER_AFTER_RS_MSG:
        CFI Block cfiBlock0 Using cfiCommon0
        CFI Function USER_AFTER_RS_MSG
        CODE
//  182 {
        ; Saved register size: 0
        ; Auto size: 0
//  183 
//  184 }
        LJMP    ?BRET
        CFI EndBlock cfiBlock0
//  185 /*******************************************************************************
//  186 * 函数名称: UserApp_Init
//  187 * 函数功能: 用户的初始化函数
//  188 * 入口参数: task_id：用户的任务的编号，是系统分配的，用户不用操心    
//  189 * 出口参数: 无
//  190 * 备注说明: 无
//  191 ******************************************************************************/

        RSEG BANKED_CODE:CODE:NOROOT(0)
//  192 void UserApp_Init( uint8 task_id )
UserApp_Init:
        CFI Block cfiBlock1 Using cfiCommon0
        CFI Function UserApp_Init
        CODE
//  193 {
        FUNCALL UserApp_Init, RegisterForKeys
        LOCFRAME ISTACK, 0, STACK
        LOCFRAME PSTACK, 0, STACK
        LOCFRAME XSTACK, 9, STACK
        LOCFRAME IOVERLAY, 0, STATIC
        LOCFRAME DOVERLAY, 0, STATIC
        ARGFRAME ISTACK, 0, STACK
        ARGFRAME PSTACK, 0, STACK
        ARGFRAME XSTACK, 9, STACK
        ARGFRAME IOVERLAY, 0, STATIC
        ARGFRAME DOVERLAY, 0, STATIC
        FUNCALL UserApp_Init, afRegister
        LOCFRAME ISTACK, 0, STACK
        LOCFRAME PSTACK, 0, STACK
        LOCFRAME XSTACK, 9, STACK
        LOCFRAME IOVERLAY, 0, STATIC
        LOCFRAME DOVERLAY, 0, STATIC
        ARGFRAME ISTACK, 0, STACK
        ARGFRAME PSTACK, 0, STACK
        ARGFRAME XSTACK, 9, STACK
        ARGFRAME IOVERLAY, 0, STATIC
        ARGFRAME DOVERLAY, 0, STATIC
        FUNCALL UserApp_Init, afRegister
        LOCFRAME ISTACK, 0, STACK
        LOCFRAME PSTACK, 0, STACK
        LOCFRAME XSTACK, 9, STACK
        LOCFRAME IOVERLAY, 0, STATIC
        LOCFRAME DOVERLAY, 0, STATIC
        ARGFRAME ISTACK, 0, STACK
        ARGFRAME PSTACK, 0, STACK
        ARGFRAME XSTACK, 9, STACK
        ARGFRAME IOVERLAY, 0, STATIC
        ARGFRAME DOVERLAY, 0, STATIC
        FUNCALL UserApp_Init, ZDO_RegisterForZDOMsg
        LOCFRAME ISTACK, 0, STACK
        LOCFRAME PSTACK, 0, STACK
        LOCFRAME XSTACK, 9, STACK
        LOCFRAME IOVERLAY, 0, STATIC
        LOCFRAME DOVERLAY, 0, STATIC
        ARGFRAME ISTACK, 0, STACK
        ARGFRAME PSTACK, 0, STACK
        ARGFRAME XSTACK, 9, STACK
        ARGFRAME IOVERLAY, 0, STATIC
        ARGFRAME DOVERLAY, 0, STATIC
        FUNCALL UserApp_Init, User_APP_Drive_init
        LOCFRAME ISTACK, 0, STACK
        LOCFRAME PSTACK, 0, STACK
        LOCFRAME XSTACK, 9, STACK
        LOCFRAME IOVERLAY, 0, STATIC
        LOCFRAME DOVERLAY, 0, STATIC
        ARGFRAME ISTACK, 0, STACK
        ARGFRAME PSTACK, 0, STACK
        ARGFRAME XSTACK, 9, STACK
        ARGFRAME IOVERLAY, 0, STATIC
        ARGFRAME DOVERLAY, 0, STATIC
        MOV     A,#-0x9
        LCALL   ?BANKED_ENTER_XDATA
        CFI DPH0 load(1, XDATA, add(CFA_XSP16, literal(-1)))
        CFI DPL0 load(1, XDATA, add(CFA_XSP16, literal(-2)))
        CFI ?BRET_EXT load(1, XDATA, add(CFA_XSP16, literal(-3)))
        CFI ?RET_HIGH load(1, XDATA, add(CFA_XSP16, literal(-4)))
        CFI ?RET_LOW load(1, XDATA, add(CFA_XSP16, literal(-5)))
        CFI R7 load(1, XDATA, add(CFA_XSP16, literal(-6)))
        CFI V0 load(1, XDATA, add(CFA_XSP16, literal(-7)))
        CFI VB load(1, XDATA, add(CFA_XSP16, literal(-8)))
        CFI R6 load(1, XDATA, add(CFA_XSP16, literal(-9)))
        CFI CFA_SP SP+0
        CFI CFA_XSP16 add(XSP16, 9)
        ; Saved register size: 9
        ; Auto size: 0
        MOV     A,R1
        MOV     R6,A
//  194     
//  195     UserApp_TaskID = task_id;
        MOV     A,R6
        MOV     DPTR,#UserApp_TaskID
        MOVX    @DPTR,A
//  196     
//  197     RegisterForKeys(task_id);
        ; Setup parameters for call to function RegisterForKeys
        MOV     A,R6
        MOV     R1,A
        LCALL   ??RegisterForKeys?relay
        MOV     A,R1
//  198     
//  199     SampleApp_epDesc1.endPoint = SAMPLEAPP_ENDPOINT1;//SampleApp EP描述符的EP号：20
        MOV     DPTR,#SampleApp_epDesc1
        MOV     A,#0x15
        MOVX    @DPTR,A
//  200     SampleApp_epDesc1.task_id = &SampleApp_TaskID;//SampleApp EP描述符的任务ID：0
        MOV     DPTR,#SampleApp_epDesc1 + 1
        MOV     A,#SampleApp_TaskID & 0xff
        MOVX    @DPTR,A
        INC     DPTR
        MOV     A,#(SampleApp_TaskID >> 8) & 0xff
        MOVX    @DPTR,A
//  201     SampleApp_epDesc1.simpleDesc = (SimpleDescriptionFormat_t *)&SampleApp_SimpleDesc1;//SampleApp EP简单描述符
        MOV     DPTR,#SampleApp_epDesc1 + 3
        MOV     A,#SampleApp_SimpleDesc1 & 0xff
        MOVX    @DPTR,A
        INC     DPTR
        MOV     A,#(SampleApp_SimpleDesc1 >> 8) & 0xff
        MOVX    @DPTR,A
//  202     SampleApp_epDesc1.latencyReq = noLatencyReqs;//延时策略
        MOV     DPTR,#SampleApp_epDesc1 + 5
        MOV     A,#0x0
        MOVX    @DPTR,A
//  203     afRegister( &SampleApp_epDesc1 );
        ; Setup parameters for call to function afRegister
        MOV     R2,#SampleApp_epDesc1 & 0xff
        MOV     R3,#(SampleApp_epDesc1 >> 8) & 0xff
        LCALL   ??afRegister?relay
        MOV     A,R1
//  204     
//  205     SampleApp_epDesc2.endPoint = SAMPLEAPP_ENDPOINT2;//SampleApp EP描述符的EP号：20
        MOV     DPTR,#SampleApp_epDesc2
        MOV     A,#0x16
        MOVX    @DPTR,A
//  206     SampleApp_epDesc2.task_id = &SampleApp_TaskID;//SampleApp EP描述符的任务ID：0
        MOV     DPTR,#SampleApp_epDesc2 + 1
        MOV     A,#SampleApp_TaskID & 0xff
        MOVX    @DPTR,A
        INC     DPTR
        MOV     A,#(SampleApp_TaskID >> 8) & 0xff
        MOVX    @DPTR,A
//  207     SampleApp_epDesc2.simpleDesc  = (SimpleDescriptionFormat_t *)&SampleApp_SimpleDesc2;//SampleApp EP简单描述符
        MOV     DPTR,#SampleApp_epDesc2 + 3
        MOV     A,#SampleApp_SimpleDesc2 & 0xff
        MOVX    @DPTR,A
        INC     DPTR
        MOV     A,#(SampleApp_SimpleDesc2 >> 8) & 0xff
        MOVX    @DPTR,A
//  208     SampleApp_epDesc2.latencyReq = noLatencyReqs;//延时策略
        MOV     DPTR,#SampleApp_epDesc2 + 5
        MOV     A,#0x0
        MOVX    @DPTR,A
//  209     afRegister( &SampleApp_epDesc2 );
        ; Setup parameters for call to function afRegister
        MOV     R2,#SampleApp_epDesc2 & 0xff
        MOV     R3,#(SampleApp_epDesc2 >> 8) & 0xff
        LCALL   ??afRegister?relay
        MOV     A,R1
//  210     
//  211     ZDO_RegisterForZDOMsg( UserApp_TaskID, End_Device_Bind_rsp );//注册终端节点绑定消息接收事件，用于截取绑定类的消息  
        ; Setup parameters for call to function ZDO_RegisterForZDOMsg
        MOV     R2,#0x20
        MOV     R3,#-0x80
        MOV     DPTR,#UserApp_TaskID
        MOVX    A,@DPTR
        MOV     R1,A
        LCALL   ??ZDO_RegisterForZDOMsg?relay
        MOV     A,R1
//  212     
//  213     User_APP_Drive_init();
        ; Setup parameters for call to function User_APP_Drive_init
        LCALL   ??User_APP_Drive_init?relay
//  214     
//  215 }
        MOV     R7,#0x1
        LJMP    ?BANKED_LEAVE_XDATA
        CFI EndBlock cfiBlock1
//  216 /*******************************************************************************
//  217 * 函数名称: UserApp_ProcessEvent
//  218 * 函数功能: 事件处理函数，此函数会被系统轮询
//  219 * 入口参数: task_id：用户的任务的编号，是系统分配的，用户不用操心  
//  220 events：事件mark表 
//  221 * 出口参数: 无
//  222 * 备注说明: 此函数的函数头固定不变，用户不必操心
//  223 ******************************************************************************/

        RSEG BANKED_CODE:CODE:NOROOT(0)
//  224 UINT16 UserApp_ProcessEvent( uint8 task_id, uint16 events )
UserApp_ProcessEvent:
        CFI Block cfiBlock2 Using cfiCommon0
        CFI Function UserApp_ProcessEvent
        CODE
//  225 {
        FUNCALL UserApp_ProcessEvent, osal_msg_receive
        LOCFRAME ISTACK, 0, STACK
        LOCFRAME PSTACK, 0, STACK
        LOCFRAME XSTACK, 20, STACK
        LOCFRAME IOVERLAY, 0, STATIC
        LOCFRAME DOVERLAY, 0, STATIC
        ARGFRAME ISTACK, 0, STACK
        ARGFRAME PSTACK, 0, STACK
        ARGFRAME XSTACK, 20, STACK
        ARGFRAME IOVERLAY, 0, STATIC
        ARGFRAME DOVERLAY, 0, STATIC
        FUNCALL UserApp_ProcessEvent, SampleApp_HandleKeys
        LOCFRAME ISTACK, 0, STACK
        LOCFRAME PSTACK, 0, STACK
        LOCFRAME XSTACK, 20, STACK
        LOCFRAME IOVERLAY, 0, STATIC
        LOCFRAME DOVERLAY, 0, STATIC
        ARGFRAME ISTACK, 0, STACK
        ARGFRAME PSTACK, 0, STACK
        ARGFRAME XSTACK, 20, STACK
        ARGFRAME IOVERLAY, 0, STATIC
        ARGFRAME DOVERLAY, 0, STATIC
        FUNCALL UserApp_ProcessEvent, SampleAPP_ProcessZDOMsgs
        LOCFRAME ISTACK, 0, STACK
        LOCFRAME PSTACK, 0, STACK
        LOCFRAME XSTACK, 20, STACK
        LOCFRAME IOVERLAY, 0, STATIC
        LOCFRAME DOVERLAY, 0, STATIC
        ARGFRAME ISTACK, 0, STACK
        ARGFRAME PSTACK, 0, STACK
        ARGFRAME XSTACK, 20, STACK
        ARGFRAME IOVERLAY, 0, STATIC
        ARGFRAME DOVERLAY, 0, STATIC
        FUNCALL UserApp_ProcessEvent, osal_msg_deallocate
        LOCFRAME ISTACK, 0, STACK
        LOCFRAME PSTACK, 0, STACK
        LOCFRAME XSTACK, 20, STACK
        LOCFRAME IOVERLAY, 0, STATIC
        LOCFRAME DOVERLAY, 0, STATIC
        ARGFRAME ISTACK, 0, STACK
        ARGFRAME PSTACK, 0, STACK
        ARGFRAME XSTACK, 20, STACK
        ARGFRAME IOVERLAY, 0, STATIC
        ARGFRAME DOVERLAY, 0, STATIC
        FUNCALL UserApp_ProcessEvent, osal_msg_receive
        LOCFRAME ISTACK, 0, STACK
        LOCFRAME PSTACK, 0, STACK
        LOCFRAME XSTACK, 20, STACK
        LOCFRAME IOVERLAY, 0, STATIC
        LOCFRAME DOVERLAY, 0, STATIC
        ARGFRAME ISTACK, 0, STACK
        ARGFRAME PSTACK, 0, STACK
        ARGFRAME XSTACK, 20, STACK
        ARGFRAME IOVERLAY, 0, STATIC
        ARGFRAME DOVERLAY, 0, STATIC
        FUNCALL UserApp_ProcessEvent, osal_nv_item_init
        LOCFRAME ISTACK, 0, STACK
        LOCFRAME PSTACK, 0, STACK
        LOCFRAME XSTACK, 22, STACK
        LOCFRAME IOVERLAY, 0, STATIC
        LOCFRAME DOVERLAY, 0, STATIC
        ARGFRAME ISTACK, 0, STACK
        ARGFRAME PSTACK, 0, STACK
        ARGFRAME XSTACK, 22, STACK
        ARGFRAME IOVERLAY, 0, STATIC
        ARGFRAME DOVERLAY, 0, STATIC
        FUNCALL UserApp_ProcessEvent, osal_nv_read
        LOCFRAME ISTACK, 0, STACK
        LOCFRAME PSTACK, 0, STACK
        LOCFRAME XSTACK, 24, STACK
        LOCFRAME IOVERLAY, 0, STATIC
        LOCFRAME DOVERLAY, 0, STATIC
        ARGFRAME ISTACK, 0, STACK
        ARGFRAME PSTACK, 0, STACK
        ARGFRAME XSTACK, 24, STACK
        ARGFRAME IOVERLAY, 0, STATIC
        ARGFRAME DOVERLAY, 0, STATIC
        FUNCALL UserApp_ProcessEvent, CS5463_Send_PWER
        LOCFRAME ISTACK, 0, STACK
        LOCFRAME PSTACK, 0, STACK
        LOCFRAME XSTACK, 20, STACK
        LOCFRAME IOVERLAY, 0, STATIC
        LOCFRAME DOVERLAY, 0, STATIC
        ARGFRAME ISTACK, 0, STACK
        ARGFRAME PSTACK, 0, STACK
        ARGFRAME XSTACK, 20, STACK
        ARGFRAME IOVERLAY, 0, STATIC
        ARGFRAME DOVERLAY, 0, STATIC
        FUNCALL UserApp_ProcessEvent, osal_start_timerEx
        LOCFRAME ISTACK, 0, STACK
        LOCFRAME PSTACK, 0, STACK
        LOCFRAME XSTACK, 20, STACK
        LOCFRAME IOVERLAY, 0, STATIC
        LOCFRAME DOVERLAY, 0, STATIC
        ARGFRAME ISTACK, 0, STACK
        ARGFRAME PSTACK, 0, STACK
        ARGFRAME XSTACK, 20, STACK
        ARGFRAME IOVERLAY, 0, STATIC
        ARGFRAME DOVERLAY, 0, STATIC
        FUNCALL UserApp_ProcessEvent, SampleApp_SendInMessage
        LOCFRAME ISTACK, 0, STACK
        LOCFRAME PSTACK, 0, STACK
        LOCFRAME XSTACK, 20, STACK
        LOCFRAME IOVERLAY, 0, STATIC
        LOCFRAME DOVERLAY, 0, STATIC
        ARGFRAME ISTACK, 0, STACK
        ARGFRAME PSTACK, 0, STACK
        ARGFRAME XSTACK, 20, STACK
        ARGFRAME IOVERLAY, 0, STATIC
        ARGFRAME DOVERLAY, 0, STATIC
        FUNCALL UserApp_ProcessEvent, osal_start_timerEx
        LOCFRAME ISTACK, 0, STACK
        LOCFRAME PSTACK, 0, STACK
        LOCFRAME XSTACK, 20, STACK
        LOCFRAME IOVERLAY, 0, STATIC
        LOCFRAME DOVERLAY, 0, STATIC
        ARGFRAME ISTACK, 0, STACK
        ARGFRAME PSTACK, 0, STACK
        ARGFRAME XSTACK, 20, STACK
        ARGFRAME IOVERLAY, 0, STATIC
        ARGFRAME DOVERLAY, 0, STATIC
        FUNCALL UserApp_ProcessEvent, SampleApp_SendInMessage
        LOCFRAME ISTACK, 0, STACK
        LOCFRAME PSTACK, 0, STACK
        LOCFRAME XSTACK, 20, STACK
        LOCFRAME IOVERLAY, 0, STATIC
        LOCFRAME DOVERLAY, 0, STATIC
        ARGFRAME ISTACK, 0, STACK
        ARGFRAME PSTACK, 0, STACK
        ARGFRAME XSTACK, 20, STACK
        ARGFRAME IOVERLAY, 0, STATIC
        ARGFRAME DOVERLAY, 0, STATIC
        FUNCALL UserApp_ProcessEvent, osal_start_timerEx
        LOCFRAME ISTACK, 0, STACK
        LOCFRAME PSTACK, 0, STACK
        LOCFRAME XSTACK, 20, STACK
        LOCFRAME IOVERLAY, 0, STATIC
        LOCFRAME DOVERLAY, 0, STATIC
        ARGFRAME ISTACK, 0, STACK
        ARGFRAME PSTACK, 0, STACK
        ARGFRAME XSTACK, 20, STACK
        ARGFRAME IOVERLAY, 0, STATIC
        ARGFRAME DOVERLAY, 0, STATIC
        MOV     A,#-0x14
        LCALL   ?BANKED_ENTER_XDATA
        CFI DPH0 load(1, XDATA, add(CFA_XSP16, literal(-1)))
        CFI DPL0 load(1, XDATA, add(CFA_XSP16, literal(-2)))
        CFI ?BRET_EXT load(1, XDATA, add(CFA_XSP16, literal(-3)))
        CFI ?RET_HIGH load(1, XDATA, add(CFA_XSP16, literal(-4)))
        CFI ?RET_LOW load(1, XDATA, add(CFA_XSP16, literal(-5)))
        CFI R7 load(1, XDATA, add(CFA_XSP16, literal(-6)))
        CFI V11 load(1, XDATA, add(CFA_XSP16, literal(-7)))
        CFI V10 load(1, XDATA, add(CFA_XSP16, literal(-8)))
        CFI V9 load(1, XDATA, add(CFA_XSP16, literal(-9)))
        CFI V8 load(1, XDATA, add(CFA_XSP16, literal(-10)))
        CFI V7 load(1, XDATA, add(CFA_XSP16, literal(-11)))
        CFI V6 load(1, XDATA, add(CFA_XSP16, literal(-12)))
        CFI V5 load(1, XDATA, add(CFA_XSP16, literal(-13)))
        CFI V4 load(1, XDATA, add(CFA_XSP16, literal(-14)))
        CFI V3 load(1, XDATA, add(CFA_XSP16, literal(-15)))
        CFI V2 load(1, XDATA, add(CFA_XSP16, literal(-16)))
        CFI V1 load(1, XDATA, add(CFA_XSP16, literal(-17)))
        CFI V0 load(1, XDATA, add(CFA_XSP16, literal(-18)))
        CFI VB load(1, XDATA, add(CFA_XSP16, literal(-19)))
        CFI R6 load(1, XDATA, add(CFA_XSP16, literal(-20)))
        CFI CFA_SP SP+0
        CFI CFA_XSP16 add(XSP16, 20)
        ; Saved register size: 20
        ; Auto size: 0
        MOV     ?V0 + 2,R1
        MOV     A,R2
        MOV     R6,A
        MOV     A,R3
        MOV     R7,A
//  226     afIncomingMSGPacket_t *MSGpkt;
//  227     
//  228     //系统事件，在这里主要处理按键----------------------------------------------
//  229     if ( events & SYS_EVENT_MSG )
        MOV     A,R6
        ANL     A,#0x0
        MOV     R0,A
        MOV     A,R7
        ANL     A,#0x80
        MOV     R1,A
        MOV     A,R0
        ORL     A,R1
        JZ      ??UserApp_ProcessEvent_0
//  230     {
//  231         MSGpkt = (afIncomingMSGPacket_t *)osal_msg_receive( UserApp_TaskID );
        ; Setup parameters for call to function osal_msg_receive
        MOV     DPTR,#UserApp_TaskID
        MOVX    A,@DPTR
        MOV     R1,A
        LCALL   ??osal_msg_receive?relay
        MOV     ?V0 + 4,R2
        MOV     ?V0 + 5,R3
        MOV     ?V0 + 0,?V0 + 4
        MOV     ?V0 + 1,?V0 + 5
//  232         while ( MSGpkt )                                           
??UserApp_ProcessEvent_1:
        MOV     A,?V0 + 0
        ORL     A,?V0 + 1
        JZ      ??UserApp_ProcessEvent_2
//  233         {                                                                     
//  234             switch ( MSGpkt->hdr.event )
        MOV     DPL,?V0 + 0
        MOV     DPH,?V0 + 1
        MOVX    A,@DPTR
        ADD     A,#0x40
        JZ      ??UserApp_ProcessEvent_3
        ADD     A,#-0x13
        JZ      ??UserApp_ProcessEvent_4
        SJMP    ??UserApp_ProcessEvent_5
//  235             {
//  236                 case KEY_CHANGE:      
//  237                 SampleApp_HandleKeys( ((keyChange_t *)MSGpkt)->state, ((keyChange_t *)MSGpkt)->keys );
??UserApp_ProcessEvent_3:
        ; Setup parameters for call to function SampleApp_HandleKeys
        MOV     DPL,?V0 + 0
        MOV     DPH,?V0 + 1
        INC     DPTR
        INC     DPTR
        INC     DPTR
        MOVX    A,@DPTR
        MOV     R2,A
        MOV     DPL,?V0 + 0
        MOV     DPH,?V0 + 1
        INC     DPTR
        INC     DPTR
        MOVX    A,@DPTR
        MOV     R1,A
        LCALL   ??SampleApp_HandleKeys?relay
//  238                 break;                                             
        SJMP    ??UserApp_ProcessEvent_5
//  239                 
//  240                 case ZDO_CB_MSG:
//  241                 SampleAPP_ProcessZDOMsgs( (zdoIncomingMsg_t *)MSGpkt );
??UserApp_ProcessEvent_4:
        ; Setup parameters for call to function SampleAPP_ProcessZDOMsgs
        MOV     R2,?V0 + 0
        MOV     R3,?V0 + 1
        LCALL   ??SampleAPP_ProcessZDOMsgs?relay
//  242                 break;
//  243                 
//  244                 default:
//  245                 break;
//  246             }
//  247             
//  248             // Release the memory
//  249             //释放消息占用的内存
//  250             osal_msg_deallocate( (uint8 *)MSGpkt );
??UserApp_ProcessEvent_5:
        ; Setup parameters for call to function osal_msg_deallocate
        MOV     R2,?V0 + 0
        MOV     R3,?V0 + 1
        LCALL   ??osal_msg_deallocate?relay
        MOV     A,R1
//  251             
//  252             // Next - if one is available
//  253             MSGpkt = (afIncomingMSGPacket_t *)osal_msg_receive( UserApp_TaskID );
        ; Setup parameters for call to function osal_msg_receive
        MOV     DPTR,#UserApp_TaskID
        MOVX    A,@DPTR
        MOV     R1,A
        LCALL   ??osal_msg_receive?relay
        MOV     ?V0 + 4,R2
        MOV     ?V0 + 5,R3
        MOV     ?V0 + 0,?V0 + 4
        MOV     ?V0 + 1,?V0 + 5
        SJMP    ??UserApp_ProcessEvent_1
//  254         }//end： while ( MSGpkt )
//  255         
//  256         return (events ^ SYS_EVENT_MSG);
??UserApp_ProcessEvent_2:
        MOV     A,R6
        XRL     A,#0x0
        MOV     R2,A
        MOV     A,R7
        XRL     A,#0x80
        MOV     R3,A
        LJMP    ??UserApp_ProcessEvent_6 & 0xFFFF
//  257     }
//  258     
//  259     
//  260     //用户自行添加的事件处理----------------------------------------------------
//  261     if ( events & USER_SEND_MESSAGE_EVT )//每两秒读取一次CS5463操作
??UserApp_ProcessEvent_0:
        MOV     A,R6
        MOV     C,0xE0 /* A   */.0
        JC      $+5
        LJMP    ??UserApp_ProcessEvent_7 & 0xFFFF
//  262     {
//  263 
//  264         
//  265         
//  266         osal_nv_item_init(CS5463_JIAOZHUN_NV_FLAG, 10, CS5463_STR);  
        ; Setup parameters for call to function osal_nv_item_init
        MOV     ?V0 + 4,#CS5463_STR & 0xff
        MOV     ?V0 + 5,#(CS5463_STR >> 8) & 0xff
        MOV     R0,#?V0 + 4
        LCALL   ?PUSH_XSTACK_I_TWO
        CFI CFA_XSP16 add(XSP16, 22)
        MOV     R4,#0xa
        MOV     R5,#0x0
        MOV     R2,#0x20
        MOV     R3,#0x4
        LCALL   ??osal_nv_item_init?relay
        MOV     A,#0x2
        LCALL   ?DEALLOC_XSTACK8
        CFI CFA_XSP16 add(XSP16, 20)
        MOV     A,R1
//  267         osal_nv_read(CS5463_JIAOZHUN_NV_FLAG, 0, 10,   CS5463_STR);
        ; Setup parameters for call to function osal_nv_read
        MOV     ?V0 + 4,#CS5463_STR & 0xff
        MOV     ?V0 + 5,#(CS5463_STR >> 8) & 0xff
        MOV     R0,#?V0 + 4
        LCALL   ?PUSH_XSTACK_I_TWO
        CFI CFA_XSP16 add(XSP16, 22)
        MOV     ?V0 + 4,#0xa
        MOV     ?V0 + 5,#0x0
        MOV     R0,#?V0 + 4
        LCALL   ?PUSH_XSTACK_I_TWO
        CFI CFA_XSP16 add(XSP16, 24)
        MOV     R4,#0x0
        MOV     R5,#0x0
        MOV     R2,#0x20
        MOV     R3,#0x4
        LCALL   ??osal_nv_read?relay
        MOV     A,#0x4
        LCALL   ?DEALLOC_XSTACK8
        CFI CFA_XSP16 add(XSP16, 20)
        MOV     A,R1
//  268         
//  269         if(CS5463_STR[0] == 11)//如果已经保存了校准值，则直接读取已经保存的校准值
        MOV     DPTR,#CS5463_STR
        MOVX    A,@DPTR
        XRL     A,#0xb
        JZ      $+5
        LJMP    ??UserApp_ProcessEvent_8 & 0xFFFF
//  270         {
//  271             
//  272             P_Value_Bili_Temp = (float)((uint16)CS5463_STR[3] << 8 | (uint16)CS5463_STR[4]) / 1000;//存储的时候*1000
        MOV     DPTR,#CS5463_STR + 3
        MOVX    A,@DPTR
        MOV     R0,A
        MOV     R1,#0x0
        CLR     A
        XCH     A,R0
        MOV     R1,A
        MOV     DPTR,#CS5463_STR + 4
        MOVX    A,@DPTR
        MOV     R2,A
        MOV     R3,#0x0
        MOV     A,R0
        ORL     A,R2
        MOV     ?V0 + 4,A
        MOV     A,R1
        ORL     A,R3
        MOV     ?V0 + 5,A
        CLR     A
        MOV     ?V0 + 6,A
        MOV     ?V0 + 7,A
        MOV     R0,#?V0 + 4
        LCALL   ?UL_TO_FLT
        MOV     DPTR,#__Constant_447a0000
        MOV     R0,#?V0 + 8
        LCALL   ?L_MOV_X
        MOV     R0,#?V0 + 4
        MOV     R1,#?V0 + 8
        LCALL   ?FLT_DIV
        MOV     R2,?V0 + 4
        MOV     R3,?V0 + 5
        MOV     R4,?V0 + 6
        MOV     R5,?V0 + 7
        MOV     DPTR,#P_Value_Bili_Temp
        MOV     A,?V0 + 4
        MOVX    @DPTR,A
        INC     DPTR
        MOV     A,?V0 + 5
        MOVX    @DPTR,A
        INC     DPTR
        MOV     A,?V0 + 6
        MOVX    @DPTR,A
        INC     DPTR
        MOV     A,?V0 + 7
        MOVX    @DPTR,A
//  273             P_Value_jiaozhun_Temp = (uint16)CS5463_STR[1] << 8 | (uint16)CS5463_STR[2];
        MOV     DPTR,#CS5463_STR + 1
        MOVX    A,@DPTR
        MOV     R0,A
        MOV     R1,#0x0
        CLR     A
        XCH     A,R0
        MOV     R1,A
        MOV     DPTR,#CS5463_STR + 2
        MOVX    A,@DPTR
        MOV     R2,A
        MOV     R3,#0x0
        MOV     A,R0
        ORL     A,R2
        MOV     R0,A
        MOV     A,R1
        ORL     A,R3
        MOV     R1,A
        MOV     DPTR,#P_Value_jiaozhun_Temp
        MOV     A,R0
        MOVX    @DPTR,A
        INC     DPTR
        MOV     A,R1
        MOVX    @DPTR,A
//  274             I_Value_Bili_Temp = (float)((uint16)CS5463_STR[7] << 8 | (uint16)CS5463_STR[8]) / 1000;//存储的时候*1000
        MOV     DPTR,#CS5463_STR + 7
        MOVX    A,@DPTR
        MOV     R0,A
        MOV     R1,#0x0
        CLR     A
        XCH     A,R0
        MOV     R1,A
        MOV     DPTR,#CS5463_STR + 8
        MOVX    A,@DPTR
        MOV     R2,A
        MOV     R3,#0x0
        MOV     A,R0
        ORL     A,R2
        MOV     ?V0 + 4,A
        MOV     A,R1
        ORL     A,R3
        MOV     ?V0 + 5,A
        CLR     A
        MOV     ?V0 + 6,A
        MOV     ?V0 + 7,A
        MOV     R0,#?V0 + 4
        LCALL   ?UL_TO_FLT
        MOV     DPTR,#__Constant_447a0000
        MOV     R0,#?V0 + 8
        LCALL   ?L_MOV_X
        MOV     R0,#?V0 + 4
        MOV     R1,#?V0 + 8
        LCALL   ?FLT_DIV
        MOV     R2,?V0 + 4
        MOV     R3,?V0 + 5
        MOV     R4,?V0 + 6
        MOV     R5,?V0 + 7
        MOV     DPTR,#I_Value_Bili_Temp
        MOV     A,?V0 + 4
        MOVX    @DPTR,A
        INC     DPTR
        MOV     A,?V0 + 5
        MOVX    @DPTR,A
        INC     DPTR
        MOV     A,?V0 + 6
        MOVX    @DPTR,A
        INC     DPTR
        MOV     A,?V0 + 7
        MOVX    @DPTR,A
//  275             I_Value_jiaozhun_Temp = (uint16)CS5463_STR[5] << 8 | (uint16)CS5463_STR[6];
        MOV     DPTR,#CS5463_STR + 5
        MOVX    A,@DPTR
        MOV     R0,A
        MOV     R1,#0x0
        CLR     A
        XCH     A,R0
        MOV     R1,A
        MOV     DPTR,#CS5463_STR + 6
        MOVX    A,@DPTR
        MOV     R2,A
        MOV     R3,#0x0
        MOV     A,R0
        ORL     A,R2
        MOV     R0,A
        MOV     A,R1
        ORL     A,R3
        MOV     R1,A
        MOV     DPTR,#I_Value_jiaozhun_Temp
        MOV     A,R0
        MOVX    @DPTR,A
        INC     DPTR
        MOV     A,R1
        MOVX    @DPTR,A
//  276             
//  277         }       
//  278         
//  279         CS5463_Send_PWER();
??UserApp_ProcessEvent_8:
        ; Setup parameters for call to function CS5463_Send_PWER
        LCALL   ??CS5463_Send_PWER?relay
        MOV     A,R1
//  280         osal_start_timerEx( UserApp_TaskID, USER_SEND_MESSAGE_EVT,2000);//事件延时        
        ; Setup parameters for call to function osal_start_timerEx
        MOV     R4,#-0x30
        MOV     R5,#0x7
        MOV     R2,#0x1
        MOV     R3,#0x0
        MOV     DPTR,#UserApp_TaskID
        MOVX    A,@DPTR
        MOV     R1,A
        LCALL   ??osal_start_timerEx?relay
        MOV     A,R1
//  281         return (events ^ USER_SEND_MESSAGE_EVT );
        MOV     A,R6
        XRL     A,#0x1
        MOV     R2,A
        MOV     A,R7
        XRL     A,#0x0
        MOV     R3,A
        SJMP    ??UserApp_ProcessEvent_6
//  282     } 
//  283     else if(events & USER_SEND_DS_MESSAGE_EVT)//这是一个一次性的事件
??UserApp_ProcessEvent_7:
        MOV     A,R6
        ANL     A,#0x2
        JZ      ??UserApp_ProcessEvent_9
//  284     {
//  285         SampleApp_SendInMessage(); 
        ; Setup parameters for call to function SampleApp_SendInMessage
        LCALL   ??SampleApp_SendInMessage?relay
//  286         osal_start_timerEx( UserApp_TaskID, USER_SEND_MESSAGE_EVT,2000);//事件延时 
        ; Setup parameters for call to function osal_start_timerEx
        MOV     R4,#-0x30
        MOV     R5,#0x7
        MOV     R2,#0x1
        MOV     R3,#0x0
        MOV     DPTR,#UserApp_TaskID
        MOVX    A,@DPTR
        MOV     R1,A
        LCALL   ??osal_start_timerEx?relay
        MOV     A,R1
//  287         return (events ^ USER_SEND_DS_MESSAGE_EVT );		
        MOV     A,R6
        XRL     A,#0x2
        MOV     R2,A
        MOV     A,R7
        XRL     A,#0x0
        MOV     R3,A
        SJMP    ??UserApp_ProcessEvent_6
//  288     }
//  289     else if(events & USER_SEND_MESSAGE_5min_EVT)//5分钟发送一次数据
??UserApp_ProcessEvent_9:
        MOV     A,R6
        ANL     A,#0x4
        JZ      ??UserApp_ProcessEvent_10
//  290     {
//  291         SampleApp_SendInMessage(); 
        ; Setup parameters for call to function SampleApp_SendInMessage
        LCALL   ??SampleApp_SendInMessage?relay
//  292         osal_start_timerEx( UserApp_TaskID, USER_SEND_MESSAGE_5min_EVT,60000 * 5);//事件延时        
        ; Setup parameters for call to function osal_start_timerEx
        MOV     R4,#-0x20
        MOV     R5,#-0x6d
        MOV     R2,#0x4
        MOV     R3,#0x0
        MOV     DPTR,#UserApp_TaskID
        MOVX    A,@DPTR
        MOV     R1,A
        LCALL   ??osal_start_timerEx?relay
        MOV     A,R1
//  293         return (events ^ USER_SEND_MESSAGE_5min_EVT );		
        MOV     A,R6
        XRL     A,#0x4
        MOV     R2,A
        MOV     A,R7
        XRL     A,#0x0
        MOV     R3,A
        SJMP    ??UserApp_ProcessEvent_6
//  294     }
//  295     
//  296     return 0;
??UserApp_ProcessEvent_10:
        MOV     R2,#0x0
        MOV     R3,#0x0
??UserApp_ProcessEvent_6:
        MOV     R7,#0xc
        LJMP    ?BANKED_LEAVE_XDATA
        CFI EndBlock cfiBlock2
//  297 }
//  298 
//  299 
//  300 /*******************************************************************************
//  301 * 函数名称: SampleApp_HandleKeys
//  302 * 函数功能: 按键命令传输到USER层，用户自行添加删除，处理按键命令
//  303 * 入口参数: shift：状态码 
//  304 keys：按键的值
//  305 * 出口参数: 无
//  306 * 备注说明: 此函数的函数头固定不变，用户不必操心
//  307 ******************************************************************************/ 

        RSEG BANKED_CODE:CODE:NOROOT(0)
//  308 void SampleApp_HandleKeys( uint8 shift, uint8 keys )
SampleApp_HandleKeys:
        CFI Block cfiBlock3 Using cfiCommon0
        CFI Function SampleApp_HandleKeys
        CODE
//  309 {
        FUNCALL SampleApp_HandleKeys, SampleApp_send_in_binding_req
        LOCFRAME ISTACK, 0, STACK
        LOCFRAME PSTACK, 0, STACK
        LOCFRAME XSTACK, 9, STACK
        LOCFRAME IOVERLAY, 0, STATIC
        LOCFRAME DOVERLAY, 0, STATIC
        ARGFRAME ISTACK, 0, STACK
        ARGFRAME PSTACK, 0, STACK
        ARGFRAME XSTACK, 9, STACK
        ARGFRAME IOVERLAY, 0, STATIC
        ARGFRAME DOVERLAY, 0, STATIC
        FUNCALL SampleApp_HandleKeys, SampleApp_SendInMessage
        LOCFRAME ISTACK, 0, STACK
        LOCFRAME PSTACK, 0, STACK
        LOCFRAME XSTACK, 9, STACK
        LOCFRAME IOVERLAY, 0, STATIC
        LOCFRAME DOVERLAY, 0, STATIC
        ARGFRAME ISTACK, 0, STACK
        ARGFRAME PSTACK, 0, STACK
        ARGFRAME XSTACK, 9, STACK
        ARGFRAME IOVERLAY, 0, STATIC
        ARGFRAME DOVERLAY, 0, STATIC
        FUNCALL SampleApp_HandleKeys, SampleApp_send_in_binding_req
        LOCFRAME ISTACK, 0, STACK
        LOCFRAME PSTACK, 0, STACK
        LOCFRAME XSTACK, 9, STACK
        LOCFRAME IOVERLAY, 0, STATIC
        LOCFRAME DOVERLAY, 0, STATIC
        ARGFRAME ISTACK, 0, STACK
        ARGFRAME PSTACK, 0, STACK
        ARGFRAME XSTACK, 9, STACK
        ARGFRAME IOVERLAY, 0, STATIC
        ARGFRAME DOVERLAY, 0, STATIC
        FUNCALL SampleApp_HandleKeys, SampleApp_SendInMessage
        LOCFRAME ISTACK, 0, STACK
        LOCFRAME PSTACK, 0, STACK
        LOCFRAME XSTACK, 9, STACK
        LOCFRAME IOVERLAY, 0, STATIC
        LOCFRAME DOVERLAY, 0, STATIC
        ARGFRAME ISTACK, 0, STACK
        ARGFRAME PSTACK, 0, STACK
        ARGFRAME XSTACK, 9, STACK
        ARGFRAME IOVERLAY, 0, STATIC
        ARGFRAME DOVERLAY, 0, STATIC
        FUNCALL SampleApp_HandleKeys, APPLY_TO_JOIN_OF_KEY
        LOCFRAME ISTACK, 0, STACK
        LOCFRAME PSTACK, 0, STACK
        LOCFRAME XSTACK, 9, STACK
        LOCFRAME IOVERLAY, 0, STATIC
        LOCFRAME DOVERLAY, 0, STATIC
        ARGFRAME ISTACK, 0, STACK
        ARGFRAME PSTACK, 0, STACK
        ARGFRAME XSTACK, 9, STACK
        ARGFRAME IOVERLAY, 0, STATIC
        ARGFRAME DOVERLAY, 0, STATIC
        FUNCALL SampleApp_HandleKeys, SampleApp_send_in_binding_req
        LOCFRAME ISTACK, 0, STACK
        LOCFRAME PSTACK, 0, STACK
        LOCFRAME XSTACK, 9, STACK
        LOCFRAME IOVERLAY, 0, STATIC
        LOCFRAME DOVERLAY, 0, STATIC
        ARGFRAME ISTACK, 0, STACK
        ARGFRAME PSTACK, 0, STACK
        ARGFRAME XSTACK, 9, STACK
        ARGFRAME IOVERLAY, 0, STATIC
        ARGFRAME DOVERLAY, 0, STATIC
        FUNCALL SampleApp_HandleKeys, SampleApp_PermitJoin
        LOCFRAME ISTACK, 0, STACK
        LOCFRAME PSTACK, 0, STACK
        LOCFRAME XSTACK, 9, STACK
        LOCFRAME IOVERLAY, 0, STATIC
        LOCFRAME DOVERLAY, 0, STATIC
        ARGFRAME ISTACK, 0, STACK
        ARGFRAME PSTACK, 0, STACK
        ARGFRAME XSTACK, 9, STACK
        ARGFRAME IOVERLAY, 0, STATIC
        ARGFRAME DOVERLAY, 0, STATIC
        FUNCALL SampleApp_HandleKeys, SampleApp_PermitJoin
        LOCFRAME ISTACK, 0, STACK
        LOCFRAME PSTACK, 0, STACK
        LOCFRAME XSTACK, 9, STACK
        LOCFRAME IOVERLAY, 0, STATIC
        LOCFRAME DOVERLAY, 0, STATIC
        ARGFRAME ISTACK, 0, STACK
        ARGFRAME PSTACK, 0, STACK
        ARGFRAME XSTACK, 9, STACK
        ARGFRAME IOVERLAY, 0, STATIC
        ARGFRAME DOVERLAY, 0, STATIC
        FUNCALL SampleApp_HandleKeys, HalLedBlink
        LOCFRAME ISTACK, 0, STACK
        LOCFRAME PSTACK, 0, STACK
        LOCFRAME XSTACK, 9, STACK
        LOCFRAME IOVERLAY, 0, STATIC
        LOCFRAME DOVERLAY, 0, STATIC
        ARGFRAME ISTACK, 0, STACK
        ARGFRAME PSTACK, 0, STACK
        ARGFRAME XSTACK, 9, STACK
        ARGFRAME IOVERLAY, 0, STATIC
        ARGFRAME DOVERLAY, 0, STATIC
        FUNCALL SampleApp_HandleKeys, RESTORE_TO_FACTORY
        LOCFRAME ISTACK, 0, STACK
        LOCFRAME PSTACK, 0, STACK
        LOCFRAME XSTACK, 9, STACK
        LOCFRAME IOVERLAY, 0, STATIC
        LOCFRAME DOVERLAY, 0, STATIC
        ARGFRAME ISTACK, 0, STACK
        ARGFRAME PSTACK, 0, STACK
        ARGFRAME XSTACK, 9, STACK
        ARGFRAME IOVERLAY, 0, STATIC
        ARGFRAME DOVERLAY, 0, STATIC
        FUNCALL SampleApp_HandleKeys, osal_start_timerEx
        LOCFRAME ISTACK, 0, STACK
        LOCFRAME PSTACK, 0, STACK
        LOCFRAME XSTACK, 9, STACK
        LOCFRAME IOVERLAY, 0, STATIC
        LOCFRAME DOVERLAY, 0, STATIC
        ARGFRAME ISTACK, 0, STACK
        ARGFRAME PSTACK, 0, STACK
        ARGFRAME XSTACK, 9, STACK
        ARGFRAME IOVERLAY, 0, STATIC
        ARGFRAME DOVERLAY, 0, STATIC
        MOV     A,#-0x9
        LCALL   ?BANKED_ENTER_XDATA
        CFI DPH0 load(1, XDATA, add(CFA_XSP16, literal(-1)))
        CFI DPL0 load(1, XDATA, add(CFA_XSP16, literal(-2)))
        CFI ?BRET_EXT load(1, XDATA, add(CFA_XSP16, literal(-3)))
        CFI ?RET_HIGH load(1, XDATA, add(CFA_XSP16, literal(-4)))
        CFI ?RET_LOW load(1, XDATA, add(CFA_XSP16, literal(-5)))
        CFI R7 load(1, XDATA, add(CFA_XSP16, literal(-6)))
        CFI V0 load(1, XDATA, add(CFA_XSP16, literal(-7)))
        CFI VB load(1, XDATA, add(CFA_XSP16, literal(-8)))
        CFI R6 load(1, XDATA, add(CFA_XSP16, literal(-9)))
        CFI CFA_SP SP+0
        CFI CFA_XSP16 add(XSP16, 9)
        ; Saved register size: 9
        ; Auto size: 0
        MOV     A,R1
        MOV     R6,A
        MOV     A,R2
        MOV     R7,A
//  310     //P1.3  
//  311     if ( KEY_NUMBER_FLAG_A &  HAL_KEY_SW_9 )
        MOV     DPTR,#KEY_NUMBER_FLAG_A
        MOVX    A,@DPTR
        MOV     C,0xE0 /* A   */.6
        JNC     ??SampleApp_HandleKeys_0
//  312     { 
//  313         if(P1_6 == 1)  
        MOV     C,0x90.6
        JNC     ??SampleApp_HandleKeys_1
//  314         {   
//  315             P1_6 =0;//打开继电器
        CLR     0x90.6
//  316             HAL_TURN_ON_LED2();
        CLR     0x80.1
        SJMP    ??SampleApp_HandleKeys_2
//  317         }
//  318         
//  319         else if(P1_6 == 0)  
??SampleApp_HandleKeys_1:
        MOV     C,0x90.6
        JC      ??SampleApp_HandleKeys_2
//  320         {
//  321             P1_6 =1;//关闭继电器
        SETB    0x90.6
//  322             HAL_TURN_OFF_LED2();
        SETB    0x80.1
//  323         }
//  324 	
//  325         if(key_double_flag == 3)
??SampleApp_HandleKeys_2:
        MOV     DPTR,#key_double_flag
        MOVX    A,@DPTR
        XRL     A,#0x3
        JNZ     ??SampleApp_HandleKeys_3
//  326         {
//  327             SampleApp_send_in_binding_req(SAMPLEAPP_ENDPOINT1,USER_bindingINClusters,1);//绑定1号端点
        ; Setup parameters for call to function SampleApp_send_in_binding_req
        MOV     R4,#0x1
        MOV     R2,#USER_bindingINClusters & 0xff
        MOV     R3,#(USER_bindingINClusters >> 8) & 0xff
        MOV     R1,#0x15
        LCALL   ??SampleApp_send_in_binding_req?relay
//  328 	}
//  329         
//  330         if( (devState==DEV_END_DEVICE) || (devState==DEV_ROUTER) )
??SampleApp_HandleKeys_3:
        MOV     DPTR,#devState
        MOVX    A,@DPTR
        XRL     A,#0x6
        JZ      ??SampleApp_HandleKeys_4
        MOV     DPTR,#devState
        MOVX    A,@DPTR
        XRL     A,#0x7
        JZ      $+5
        LJMP    ??SampleApp_HandleKeys_5 & 0xFFFF
//  331         {
//  332             SampleApp_SendInMessage();
??SampleApp_HandleKeys_4:
        ; Setup parameters for call to function SampleApp_SendInMessage
        LCALL   ??SampleApp_SendInMessage?relay
        LJMP    ??SampleApp_HandleKeys_5 & 0xFFFF
//  333         }
//  334         
//  335     }
//  336     
//  337     else if ( KEY_NUMBER_FLAG_A &  HAL_KEY_SW_7 )
??SampleApp_HandleKeys_0:
        MOV     DPTR,#KEY_NUMBER_FLAG_A
        MOVX    A,@DPTR
        MOV     C,0xE0 /* A   */.4
        JNC     ??SampleApp_HandleKeys_6
//  338     {      
//  339         
//  340         
//  341         if(IO_CTLA_SBIT == 1)  
        MOV     C,0x90.5
        JNC     ??SampleApp_HandleKeys_7
//  342         {   
//  343             IO_CTLA_SBIT =0;//打开继电器
        CLR     0x90.5
//  344             P1_7 = 0;//led
        CLR     0x90.7
        SJMP    ??SampleApp_HandleKeys_8
//  345         }
//  346         
//  347         else if(IO_CTLA_SBIT == 0)  
??SampleApp_HandleKeys_7:
        MOV     C,0x90.5
        JC      ??SampleApp_HandleKeys_8
//  348         {
//  349             IO_CTLA_SBIT =1;//关闭继电器
        SETB    0x90.5
//  350             P1_7 = 1;//led
        SETB    0x90.7
//  351         }
//  352         
//  353         
//  354         if(key_double_flag == 3)
??SampleApp_HandleKeys_8:
        MOV     DPTR,#key_double_flag
        MOVX    A,@DPTR
        XRL     A,#0x3
        JNZ     ??SampleApp_HandleKeys_9
//  355         {
//  356             SampleApp_send_in_binding_req(SAMPLEAPP_ENDPOINT2,USER_bindingINClusters,1);//绑定2号端点
        ; Setup parameters for call to function SampleApp_send_in_binding_req
        MOV     R4,#0x1
        MOV     R2,#USER_bindingINClusters & 0xff
        MOV     R3,#(USER_bindingINClusters >> 8) & 0xff
        MOV     R1,#0x16
        LCALL   ??SampleApp_send_in_binding_req?relay
//  357 	}
//  358 	
//  359         if( (devState==DEV_END_DEVICE) || (devState==DEV_ROUTER) )
??SampleApp_HandleKeys_9:
        MOV     DPTR,#devState
        MOVX    A,@DPTR
        XRL     A,#0x6
        JZ      ??SampleApp_HandleKeys_10
        MOV     DPTR,#devState
        MOVX    A,@DPTR
        XRL     A,#0x7
        JNZ     ??SampleApp_HandleKeys_5
//  360         {
//  361             SampleApp_SendInMessage();
??SampleApp_HandleKeys_10:
        ; Setup parameters for call to function SampleApp_SendInMessage
        LCALL   ??SampleApp_SendInMessage?relay
        SJMP    ??SampleApp_HandleKeys_5
//  362         }
//  363     }   
//  364     
//  365     else if ( keys&  HAL_KEY_SW_8  )
??SampleApp_HandleKeys_6:
        MOV     A,R7
        MOV     C,0xE0 /* A   */.7
        JNC     ??SampleApp_HandleKeys_5
//  366     {   
//  367         
//  368         
//  369         if(key_double_flag==4)//快速按了4次按键
        MOV     DPTR,#key_double_flag
        MOVX    A,@DPTR
        XRL     A,#0x4
        JNZ     ??SampleApp_HandleKeys_11
//  370         {
//  371             APPLY_TO_JOIN_OF_KEY();//函数中带有闪灯的代码
        ; Setup parameters for call to function APPLY_TO_JOIN_OF_KEY
        LCALL   ??APPLY_TO_JOIN_OF_KEY?relay
        SJMP    ??SampleApp_HandleKeys_12
//  372         }
//  373         
//  374         else if( (key_double_flag == 3) )
??SampleApp_HandleKeys_11:
        MOV     DPTR,#key_double_flag
        MOVX    A,@DPTR
        XRL     A,#0x3
        JNZ     ??SampleApp_HandleKeys_13
//  375         {
//  376             SampleApp_send_in_binding_req(SAMPLEAPP_ENDPOINT,USER_bindingINClusters,1);
        ; Setup parameters for call to function SampleApp_send_in_binding_req
        MOV     R4,#0x1
        MOV     R2,#USER_bindingINClusters & 0xff
        MOV     R3,#(USER_bindingINClusters >> 8) & 0xff
        MOV     R1,#0x14
        LCALL   ??SampleApp_send_in_binding_req?relay
        SJMP    ??SampleApp_HandleKeys_12
//  377         }
//  378         
//  379         else if(key_double_flag==6)
??SampleApp_HandleKeys_13:
        MOV     DPTR,#key_double_flag
        MOVX    A,@DPTR
        XRL     A,#0x6
        JNZ     ??SampleApp_HandleKeys_14
//  380         {
//  381             SampleApp_PermitJoin(240);
        ; Setup parameters for call to function SampleApp_PermitJoin
        MOV     R1,#-0x10
        LCALL   ??SampleApp_PermitJoin?relay
        SJMP    ??SampleApp_HandleKeys_12
//  382         }
//  383         
//  384         else if(key_double_flag==8)
??SampleApp_HandleKeys_14:
        MOV     DPTR,#key_double_flag
        MOVX    A,@DPTR
        XRL     A,#0x8
        JNZ     ??SampleApp_HandleKeys_12
//  385         {
//  386             SampleApp_PermitJoin(0);
        ; Setup parameters for call to function SampleApp_PermitJoin
        MOV     R1,#0x0
        LCALL   ??SampleApp_PermitJoin?relay
//  387         }
//  388         
//  389         
//  390         
//  391         if(key_hold_flag==1) //一个长按键，则恢复出厂设置
??SampleApp_HandleKeys_12:
        MOV     DPTR,#key_hold_flag
        MOVX    A,@DPTR
        XRL     A,#0x1
        JNZ     ??SampleApp_HandleKeys_5
//  392         {   
//  393             HalLedBlink ( HAL_LED_1, 4, 50, 1000 );
        ; Setup parameters for call to function HalLedBlink
        MOV     R4,#-0x18
        MOV     R5,#0x3
        MOV     R3,#0x32
        MOV     R2,#0x4
        MOV     R1,#0x1
        LCALL   ??HalLedBlink?relay
//  394             RESTORE_TO_FACTORY();
        ; Setup parameters for call to function RESTORE_TO_FACTORY
        LCALL   ??RESTORE_TO_FACTORY?relay
//  395             osal_start_timerEx( SampleApp_TaskID,SAMPLEAPP_RESTORE_EVT,5000 );
        ; Setup parameters for call to function osal_start_timerEx
        MOV     R4,#-0x78
        MOV     R5,#0x13
        MOV     R2,#0x10
        MOV     R3,#0x0
        MOV     DPTR,#SampleApp_TaskID
        MOVX    A,@DPTR
        MOV     R1,A
        LCALL   ??osal_start_timerEx?relay
        MOV     A,R1
//  396         }        
//  397     } 
//  398     
//  399     KEY_NUMBER_FLAG_A = 0;//清除按键标志
??SampleApp_HandleKeys_5:
        MOV     DPTR,#KEY_NUMBER_FLAG_A
        MOV     A,#0x0
        MOVX    @DPTR,A
//  400 }
        MOV     R7,#0x1
        LJMP    ?BANKED_LEAVE_XDATA
        CFI EndBlock cfiBlock3
        REQUIRE _A_P1
        REQUIRE _A_P0
//  401 
//  402 
//  403 /*******************************************************************************
//  404 * 函数名称: SampleApp_ProcessBINDINGMessage
//  405 * 函数功能: 与绑定有关的数据的处理
//  406 * 入口参数: pkt：指向接收到的绑定请求信息的指针
//  407 * 出口参数: 无
//  408 * 备注说明: 此函数的函数头固定不变，用户不必操心
//  409 ******************************************************************************/ 

        RSEG BANKED_CODE:CODE:NOROOT(0)
//  410 void SampleApp_ProcessBINDINGMessage(afIncomingMSGPacket_t *pkt)
SampleApp_ProcessBINDINGMessage:
        CFI Block cfiBlock4 Using cfiCommon0
        CFI Function SampleApp_ProcessBINDINGMessage
        CODE
//  411 {
        FUNCALL SampleApp_ProcessBINDINGMessage, SampleApp_SendInMessage
        LOCFRAME ISTACK, 0, STACK
        LOCFRAME PSTACK, 0, STACK
        LOCFRAME XSTACK, 9, STACK
        LOCFRAME IOVERLAY, 0, STATIC
        LOCFRAME DOVERLAY, 0, STATIC
        ARGFRAME ISTACK, 0, STACK
        ARGFRAME PSTACK, 0, STACK
        ARGFRAME XSTACK, 9, STACK
        ARGFRAME IOVERLAY, 0, STATIC
        ARGFRAME DOVERLAY, 0, STATIC
        MOV     A,#-0x9
        LCALL   ?BANKED_ENTER_XDATA
        CFI DPH0 load(1, XDATA, add(CFA_XSP16, literal(-1)))
        CFI DPL0 load(1, XDATA, add(CFA_XSP16, literal(-2)))
        CFI ?BRET_EXT load(1, XDATA, add(CFA_XSP16, literal(-3)))
        CFI ?RET_HIGH load(1, XDATA, add(CFA_XSP16, literal(-4)))
        CFI ?RET_LOW load(1, XDATA, add(CFA_XSP16, literal(-5)))
        CFI R7 load(1, XDATA, add(CFA_XSP16, literal(-6)))
        CFI V0 load(1, XDATA, add(CFA_XSP16, literal(-7)))
        CFI VB load(1, XDATA, add(CFA_XSP16, literal(-8)))
        CFI R6 load(1, XDATA, add(CFA_XSP16, literal(-9)))
        CFI CFA_SP SP+0
        CFI CFA_XSP16 add(XSP16, 9)
        ; Saved register size: 9
        ; Auto size: 0
        MOV     A,R2
        MOV     R6,A
        MOV     A,R3
        MOV     R7,A
//  412     
//  413     if ((pkt->clusterId == SAMPLEAPP_ONOFF_CLUSTERID )&& (pkt->endPoint == SAMPLEAPP_ENDPOINT1))
        MOV     DPL,R6
        MOV     DPH,R7
        INC     DPTR
        INC     DPTR
        INC     DPTR
        INC     DPTR
        MOVX    A,@DPTR
        XRL     A,#0x1
        JNZ     ??SampleApp_ProcessBINDINGMessage_0
        INC     DPTR
        MOVX    A,@DPTR
        XRL     A,#0x0
??SampleApp_ProcessBINDINGMessage_0:
        JNZ     ??SampleApp_ProcessBINDINGMessage_1
        MOV     A,R6
        ADD     A,#0x14
        MOV     DPL,A
        MOV     A,R7
        ADDC    A,#0x0
        MOV     DPH,A
        MOVX    A,@DPTR
        XRL     A,#0x15
        JNZ     ??SampleApp_ProcessBINDINGMessage_1
//  414     {
//  415         if(pkt->cmd.Data[0]==1)//开命令
        MOV     A,R6
        ADD     A,#0x22
        MOV     DPL,A
        MOV     A,R7
        ADDC    A,#0x0
        MOV     DPH,A
        MOVX    A,@DPTR
        MOV     R0,A
        INC     DPTR
        MOVX    A,@DPTR
        MOV     DPH,A
        MOV     DPL,R0
        MOVX    A,@DPTR
        XRL     A,#0x1
        JNZ     ??SampleApp_ProcessBINDINGMessage_2
//  416         {  
//  417             P1_6 =0;//打开继电器
        CLR     0x90.6
//  418             HAL_TURN_ON_LED2();
        CLR     0x80.1
        LJMP    ??SampleApp_ProcessBINDINGMessage_3 & 0xFFFF
//  419         }
//  420         
//  421         else if(pkt->cmd.Data[0]==0 )//关
??SampleApp_ProcessBINDINGMessage_2:
        MOV     A,R6
        ADD     A,#0x22
        MOV     DPL,A
        MOV     A,R7
        ADDC    A,#0x0
        MOV     DPH,A
        MOVX    A,@DPTR
        MOV     R0,A
        INC     DPTR
        MOVX    A,@DPTR
        MOV     DPH,A
        MOV     DPL,R0
        MOVX    A,@DPTR
        JNZ     ??SampleApp_ProcessBINDINGMessage_4
//  422         {
//  423             P1_6 =1;//关闭继电器
        SETB    0x90.6
//  424             HAL_TURN_OFF_LED2();
        SETB    0x80.1
        LJMP    ??SampleApp_ProcessBINDINGMessage_3 & 0xFFFF
//  425         }
//  426         
//  427         else if(pkt->cmd.Data[0]==2 )//2012 7 24 增加2 查询当前状态
??SampleApp_ProcessBINDINGMessage_4:
        MOV     A,R6
        ADD     A,#0x22
        MOV     DPL,A
        MOV     A,R7
        ADDC    A,#0x0
        MOV     DPH,A
        MOVX    A,@DPTR
        MOV     R0,A
        INC     DPTR
        MOVX    A,@DPTR
        MOV     DPH,A
        MOV     DPL,R0
        MOVX    A,@DPTR
        XRL     A,#0x2
        JZ      $+5
        LJMP    ??SampleApp_ProcessBINDINGMessage_3 & 0xFFFF
//  428         {
//  429             
//  430             P1_6 = !P1_6;
        SETB    B.0
        MOV     C,0x90.6
        JNB     B.0,??SampleApp_ProcessBINDINGMessage_5
        CPL     C
??SampleApp_ProcessBINDINGMessage_5:
        MOV     0x90.6,C
//  431             LED2_SBIT = P1_6;
        MOV     C,0x90.6
        MOV     0x80.1,C
        SJMP    ??SampleApp_ProcessBINDINGMessage_3
//  432         }
//  433     }
//  434     else if(((pkt->clusterId == SAMPLEAPP_ONOFF_CLUSTERID )&& (pkt->endPoint == SAMPLEAPP_ENDPOINT2)))
??SampleApp_ProcessBINDINGMessage_1:
        MOV     DPL,R6
        MOV     DPH,R7
        INC     DPTR
        INC     DPTR
        INC     DPTR
        INC     DPTR
        MOVX    A,@DPTR
        XRL     A,#0x1
        JNZ     ??SampleApp_ProcessBINDINGMessage_6
        INC     DPTR
        MOVX    A,@DPTR
        XRL     A,#0x0
??SampleApp_ProcessBINDINGMessage_6:
        JNZ     ??SampleApp_ProcessBINDINGMessage_3
        MOV     A,R6
        ADD     A,#0x14
        MOV     DPL,A
        MOV     A,R7
        ADDC    A,#0x0
        MOV     DPH,A
        MOVX    A,@DPTR
        XRL     A,#0x16
        JNZ     ??SampleApp_ProcessBINDINGMessage_3
//  435     {
//  436         if(pkt->cmd.Data[0]==1)//开命令
        MOV     A,R6
        ADD     A,#0x22
        MOV     DPL,A
        MOV     A,R7
        ADDC    A,#0x0
        MOV     DPH,A
        MOVX    A,@DPTR
        MOV     R0,A
        INC     DPTR
        MOVX    A,@DPTR
        MOV     DPH,A
        MOV     DPL,R0
        MOVX    A,@DPTR
        XRL     A,#0x1
        JNZ     ??SampleApp_ProcessBINDINGMessage_7
//  437         {  
//  438             IO_CTLA_SBIT =0;//打开继电器
        CLR     0x90.5
//  439             P1_7 = 0;//led             
        CLR     0x90.7
        SJMP    ??SampleApp_ProcessBINDINGMessage_3
//  440         }
//  441         
//  442         else if(pkt->cmd.Data[0]==0)//关
??SampleApp_ProcessBINDINGMessage_7:
        MOV     A,R6
        ADD     A,#0x22
        MOV     DPL,A
        MOV     A,R7
        ADDC    A,#0x0
        MOV     DPH,A
        MOVX    A,@DPTR
        MOV     R0,A
        INC     DPTR
        MOVX    A,@DPTR
        MOV     DPH,A
        MOV     DPL,R0
        MOVX    A,@DPTR
        JNZ     ??SampleApp_ProcessBINDINGMessage_8
//  443         {
//  444             IO_CTLA_SBIT =1;//关闭继电器
        SETB    0x90.5
//  445             P1_7 = 1;//led
        SETB    0x90.7
        SJMP    ??SampleApp_ProcessBINDINGMessage_3
//  446         }
//  447         
//  448         else if(pkt->cmd.Data[0]==2 )//2012 7 24 增加2 查询当前状态
??SampleApp_ProcessBINDINGMessage_8:
        MOV     A,R6
        ADD     A,#0x22
        MOV     DPL,A
        MOV     A,R7
        ADDC    A,#0x0
        MOV     DPH,A
        MOVX    A,@DPTR
        MOV     R0,A
        INC     DPTR
        MOVX    A,@DPTR
        MOV     DPH,A
        MOV     DPL,R0
        MOVX    A,@DPTR
        XRL     A,#0x2
        JNZ     ??SampleApp_ProcessBINDINGMessage_3
//  449         {
//  450             IO_CTLA_SBIT = !IO_CTLA_SBIT;
        SETB    B.0
        MOV     C,0x90.5
        JNB     B.0,??SampleApp_ProcessBINDINGMessage_9
        CPL     C
??SampleApp_ProcessBINDINGMessage_9:
        MOV     0x90.5,C
//  451             P1_7 = IO_CTLA_SBIT;
        MOV     C,0x90.5
        MOV     0x90.7,C
//  452         }
//  453     }    			
//  454     
//  455     SampleApp_SendInMessage( );
??SampleApp_ProcessBINDINGMessage_3:
        ; Setup parameters for call to function SampleApp_SendInMessage
        LCALL   ??SampleApp_SendInMessage?relay
//  456     
//  457     
//  458 }
        MOV     R7,#0x1
        LJMP    ?BANKED_LEAVE_XDATA
        CFI EndBlock cfiBlock4
        REQUIRE _A_P1
        REQUIRE _A_P0
//  459 
//  460 
//  461 /*******************************************************************************
//  462 * 函数名称: USER_APP_JOIN_MSG
//  463 * 函数功能: 入网后的回调函数，用于处理用户的加入网络后需要处理的操作代码
//  464 * 入口参数: 无
//  465 * 出口参数: 无
//  466 * 备注说明: 无
//  467 ******************************************************************************/ 

        RSEG BANKED_CODE:CODE:NOROOT(0)
//  468 void USER_APP_JOIN_MSG(void)
USER_APP_JOIN_MSG:
        CFI Block cfiBlock5 Using cfiCommon0
        CFI Function USER_APP_JOIN_MSG
        CODE
//  469 {
        FUNCALL USER_APP_JOIN_MSG, HalLedBlink
        LOCFRAME ISTACK, 0, STACK
        LOCFRAME PSTACK, 0, STACK
        LOCFRAME XSTACK, 10, STACK
        LOCFRAME IOVERLAY, 0, STATIC
        LOCFRAME DOVERLAY, 0, STATIC
        ARGFRAME ISTACK, 0, STACK
        ARGFRAME PSTACK, 0, STACK
        ARGFRAME XSTACK, 10, STACK
        ARGFRAME IOVERLAY, 0, STATIC
        ARGFRAME DOVERLAY, 0, STATIC
        FUNCALL USER_APP_JOIN_MSG, SampleApp_GetShortAddr
        LOCFRAME ISTACK, 0, STACK
        LOCFRAME PSTACK, 0, STACK
        LOCFRAME XSTACK, 10, STACK
        LOCFRAME IOVERLAY, 0, STATIC
        LOCFRAME DOVERLAY, 0, STATIC
        ARGFRAME ISTACK, 0, STACK
        ARGFRAME PSTACK, 0, STACK
        ARGFRAME XSTACK, 10, STACK
        ARGFRAME IOVERLAY, 0, STATIC
        ARGFRAME DOVERLAY, 0, STATIC
        FUNCALL USER_APP_JOIN_MSG, osal_mem_free
        LOCFRAME ISTACK, 0, STACK
        LOCFRAME PSTACK, 0, STACK
        LOCFRAME XSTACK, 10, STACK
        LOCFRAME IOVERLAY, 0, STATIC
        LOCFRAME DOVERLAY, 0, STATIC
        ARGFRAME ISTACK, 0, STACK
        ARGFRAME PSTACK, 0, STACK
        ARGFRAME XSTACK, 10, STACK
        ARGFRAME IOVERLAY, 0, STATIC
        ARGFRAME DOVERLAY, 0, STATIC
        FUNCALL USER_APP_JOIN_MSG, osal_start_timerEx
        LOCFRAME ISTACK, 0, STACK
        LOCFRAME PSTACK, 0, STACK
        LOCFRAME XSTACK, 10, STACK
        LOCFRAME IOVERLAY, 0, STATIC
        LOCFRAME DOVERLAY, 0, STATIC
        ARGFRAME ISTACK, 0, STACK
        ARGFRAME PSTACK, 0, STACK
        ARGFRAME XSTACK, 10, STACK
        ARGFRAME IOVERLAY, 0, STATIC
        ARGFRAME DOVERLAY, 0, STATIC
        FUNCALL USER_APP_JOIN_MSG, osal_start_timerEx
        LOCFRAME ISTACK, 0, STACK
        LOCFRAME PSTACK, 0, STACK
        LOCFRAME XSTACK, 10, STACK
        LOCFRAME IOVERLAY, 0, STATIC
        LOCFRAME DOVERLAY, 0, STATIC
        ARGFRAME ISTACK, 0, STACK
        ARGFRAME PSTACK, 0, STACK
        ARGFRAME XSTACK, 10, STACK
        ARGFRAME IOVERLAY, 0, STATIC
        ARGFRAME DOVERLAY, 0, STATIC
        MOV     A,#-0xa
        LCALL   ?BANKED_ENTER_XDATA
        CFI DPH0 load(1, XDATA, add(CFA_XSP16, literal(-1)))
        CFI DPL0 load(1, XDATA, add(CFA_XSP16, literal(-2)))
        CFI ?BRET_EXT load(1, XDATA, add(CFA_XSP16, literal(-3)))
        CFI ?RET_HIGH load(1, XDATA, add(CFA_XSP16, literal(-4)))
        CFI ?RET_LOW load(1, XDATA, add(CFA_XSP16, literal(-5)))
        CFI R7 load(1, XDATA, add(CFA_XSP16, literal(-6)))
        CFI V1 load(1, XDATA, add(CFA_XSP16, literal(-7)))
        CFI V0 load(1, XDATA, add(CFA_XSP16, literal(-8)))
        CFI VB load(1, XDATA, add(CFA_XSP16, literal(-9)))
        CFI R6 load(1, XDATA, add(CFA_XSP16, literal(-10)))
        CFI CFA_SP SP+0
        CFI CFA_XSP16 add(XSP16, 10)
        ; Saved register size: 10
        ; Auto size: 0
//  470     uint8 *Sample_Cmd_shorAddr;
//  471     
//  472     HalLedBlink ( HAL_LED_1, 1, 99, 2500 );//用BLINK模拟灯亮两秒后熄灭  
        ; Setup parameters for call to function HalLedBlink
        MOV     R4,#-0x3c
        MOV     R5,#0x9
        MOV     R3,#0x63
        MOV     R2,#0x1
        MOV     R1,#0x1
        LCALL   ??HalLedBlink?relay
//  473     
//  474     Sample_Cmd_shorAddr=SampleApp_GetShortAddr();
        ; Setup parameters for call to function SampleApp_GetShortAddr
        LCALL   ??SampleApp_GetShortAddr?relay
        MOV     ?V0 + 0,R2
        MOV     ?V0 + 1,R3
        MOV     R6,?V0 + 0
        MOV     R7,?V0 + 1
//  475     SHORT_ADRESS[0]=*Sample_Cmd_shorAddr++;
        MOV     DPL,R6
        MOV     DPH,R7
        MOVX    A,@DPTR
        MOV     DPTR,#SHORT_ADRESS
        MOVX    @DPTR,A
        MOV     DPL,R6
        MOV     DPH,R7
        INC     DPTR
        MOV     R6,DPL
        MOV     R7,DPH
//  476     SHORT_ADRESS[1]=*Sample_Cmd_shorAddr++;
        MOV     DPL,R6
        MOV     DPH,R7
        MOVX    A,@DPTR
        MOV     DPTR,#SHORT_ADRESS + 1
        MOVX    @DPTR,A
        MOV     DPL,R6
        MOV     DPH,R7
        INC     DPTR
        MOV     R6,DPL
        MOV     R7,DPH
//  477     SHORT_ADRESS[2]=*Sample_Cmd_shorAddr++;
        MOV     DPL,R6
        MOV     DPH,R7
        MOVX    A,@DPTR
        MOV     DPTR,#SHORT_ADRESS + 2
        MOVX    @DPTR,A
        MOV     DPL,R6
        MOV     DPH,R7
        INC     DPTR
        MOV     R6,DPL
        MOV     R7,DPH
//  478     SHORT_ADRESS[3]=*Sample_Cmd_shorAddr;
        MOV     DPL,R6
        MOV     DPH,R7
        MOVX    A,@DPTR
        MOV     DPTR,#SHORT_ADRESS + 3
        MOVX    @DPTR,A
//  479     osal_mem_free( shortddr_mem );
        ; Setup parameters for call to function osal_mem_free
        MOV     DPTR,#shortddr_mem
        MOVX    A,@DPTR
        MOV     R2,A
        INC     DPTR
        MOVX    A,@DPTR
        MOV     R3,A
        LCALL   ??osal_mem_free?relay
//  480     
//  481     // 保证在发送上线消息RS的后面紧跟一条DS的初始数据，5S时间--------
//  482     osal_start_timerEx( UserApp_TaskID, USER_SEND_DS_MESSAGE_EVT,5000); 
        ; Setup parameters for call to function osal_start_timerEx
        MOV     R4,#-0x78
        MOV     R5,#0x13
        MOV     R2,#0x2
        MOV     R3,#0x0
        MOV     DPTR,#UserApp_TaskID
        MOVX    A,@DPTR
        MOV     R1,A
        LCALL   ??osal_start_timerEx?relay
        MOV     A,R1
//  483     
//  484     //用户自己的事件,每隔五分钟发送一次数据--------------------------
//  485     osal_start_timerEx( UserApp_TaskID, USER_SEND_MESSAGE_5min_EVT,60000 * 5); 
        ; Setup parameters for call to function osal_start_timerEx
        MOV     R4,#-0x20
        MOV     R5,#-0x6d
        MOV     R2,#0x4
        MOV     R3,#0x0
        MOV     DPTR,#UserApp_TaskID
        MOVX    A,@DPTR
        MOV     R1,A
        LCALL   ??osal_start_timerEx?relay
        MOV     A,R1
//  486     
//  487 }
        MOV     R7,#0x2
        LJMP    ?BANKED_LEAVE_XDATA
        CFI EndBlock cfiBlock5
//  488 
//  489 
//  490 
//  491 /*******************************************************************************
//  492 * 函数名称: USER_APP_COMMAND
//  493 * 函数功能: 收到命令后的处理函数
//  494 * 入口参数: user_app_data 上位机发过来的有效数据 字母后面开始
//  495 str：需要填入的返回数据数组
//  496 * 出口参数: 无
//  497 * 备注说明: 无
//  498 ******************************************************************************/ 

        RSEG BANKED_CODE:CODE:NOROOT(0)
//  499 uint8 USER_APP_COMMAND(uint8 *user_app_data,uint8 *str)
USER_APP_COMMAND:
        CFI Block cfiBlock6 Using cfiCommon0
        CFI Function USER_APP_COMMAND
        CODE
//  500 {
        FUNCALL USER_APP_COMMAND, SampleApp_SendInMessage
        LOCFRAME ISTACK, 0, STACK
        LOCFRAME PSTACK, 0, STACK
        LOCFRAME XSTACK, 20, STACK
        LOCFRAME IOVERLAY, 0, STATIC
        LOCFRAME DOVERLAY, 0, STATIC
        ARGFRAME ISTACK, 0, STACK
        ARGFRAME PSTACK, 0, STACK
        ARGFRAME XSTACK, 20, STACK
        ARGFRAME IOVERLAY, 0, STATIC
        ARGFRAME DOVERLAY, 0, STATIC
        FUNCALL USER_APP_COMMAND, GetPactive
        LOCFRAME ISTACK, 0, STACK
        LOCFRAME PSTACK, 0, STACK
        LOCFRAME XSTACK, 28, STACK
        LOCFRAME IOVERLAY, 0, STATIC
        LOCFRAME DOVERLAY, 0, STATIC
        ARGFRAME ISTACK, 0, STACK
        ARGFRAME PSTACK, 0, STACK
        ARGFRAME XSTACK, 28, STACK
        ARGFRAME IOVERLAY, 0, STATIC
        ARGFRAME DOVERLAY, 0, STATIC
        FUNCALL USER_APP_COMMAND, GetCurrentIrms
        LOCFRAME ISTACK, 0, STACK
        LOCFRAME PSTACK, 0, STACK
        LOCFRAME XSTACK, 28, STACK
        LOCFRAME IOVERLAY, 0, STATIC
        LOCFRAME DOVERLAY, 0, STATIC
        ARGFRAME ISTACK, 0, STACK
        ARGFRAME PSTACK, 0, STACK
        ARGFRAME XSTACK, 28, STACK
        ARGFRAME IOVERLAY, 0, STATIC
        ARGFRAME DOVERLAY, 0, STATIC
        FUNCALL USER_APP_COMMAND, osal_nv_item_init
        LOCFRAME ISTACK, 0, STACK
        LOCFRAME PSTACK, 0, STACK
        LOCFRAME XSTACK, 22, STACK
        LOCFRAME IOVERLAY, 0, STATIC
        LOCFRAME DOVERLAY, 0, STATIC
        ARGFRAME ISTACK, 0, STACK
        ARGFRAME PSTACK, 0, STACK
        ARGFRAME XSTACK, 22, STACK
        ARGFRAME IOVERLAY, 0, STATIC
        ARGFRAME DOVERLAY, 0, STATIC
        FUNCALL USER_APP_COMMAND, osal_nv_write
        LOCFRAME ISTACK, 0, STACK
        LOCFRAME PSTACK, 0, STACK
        LOCFRAME XSTACK, 24, STACK
        LOCFRAME IOVERLAY, 0, STATIC
        LOCFRAME DOVERLAY, 0, STATIC
        ARGFRAME ISTACK, 0, STACK
        ARGFRAME PSTACK, 0, STACK
        ARGFRAME XSTACK, 24, STACK
        ARGFRAME IOVERLAY, 0, STATIC
        ARGFRAME DOVERLAY, 0, STATIC
        FUNCALL USER_APP_COMMAND, osal_nv_item_init
        LOCFRAME ISTACK, 0, STACK
        LOCFRAME PSTACK, 0, STACK
        LOCFRAME XSTACK, 22, STACK
        LOCFRAME IOVERLAY, 0, STATIC
        LOCFRAME DOVERLAY, 0, STATIC
        ARGFRAME ISTACK, 0, STACK
        ARGFRAME PSTACK, 0, STACK
        ARGFRAME XSTACK, 22, STACK
        ARGFRAME IOVERLAY, 0, STATIC
        ARGFRAME DOVERLAY, 0, STATIC
        FUNCALL USER_APP_COMMAND, osal_nv_write
        LOCFRAME ISTACK, 0, STACK
        LOCFRAME PSTACK, 0, STACK
        LOCFRAME XSTACK, 24, STACK
        LOCFRAME IOVERLAY, 0, STATIC
        LOCFRAME DOVERLAY, 0, STATIC
        ARGFRAME ISTACK, 0, STACK
        ARGFRAME PSTACK, 0, STACK
        ARGFRAME XSTACK, 24, STACK
        ARGFRAME IOVERLAY, 0, STATIC
        ARGFRAME DOVERLAY, 0, STATIC
        MOV     A,#-0x14
        LCALL   ?BANKED_ENTER_XDATA
        CFI DPH0 load(1, XDATA, add(CFA_XSP16, literal(-1)))
        CFI DPL0 load(1, XDATA, add(CFA_XSP16, literal(-2)))
        CFI ?BRET_EXT load(1, XDATA, add(CFA_XSP16, literal(-3)))
        CFI ?RET_HIGH load(1, XDATA, add(CFA_XSP16, literal(-4)))
        CFI ?RET_LOW load(1, XDATA, add(CFA_XSP16, literal(-5)))
        CFI R7 load(1, XDATA, add(CFA_XSP16, literal(-6)))
        CFI V11 load(1, XDATA, add(CFA_XSP16, literal(-7)))
        CFI V10 load(1, XDATA, add(CFA_XSP16, literal(-8)))
        CFI V9 load(1, XDATA, add(CFA_XSP16, literal(-9)))
        CFI V8 load(1, XDATA, add(CFA_XSP16, literal(-10)))
        CFI V7 load(1, XDATA, add(CFA_XSP16, literal(-11)))
        CFI V6 load(1, XDATA, add(CFA_XSP16, literal(-12)))
        CFI V5 load(1, XDATA, add(CFA_XSP16, literal(-13)))
        CFI V4 load(1, XDATA, add(CFA_XSP16, literal(-14)))
        CFI V3 load(1, XDATA, add(CFA_XSP16, literal(-15)))
        CFI V2 load(1, XDATA, add(CFA_XSP16, literal(-16)))
        CFI V1 load(1, XDATA, add(CFA_XSP16, literal(-17)))
        CFI V0 load(1, XDATA, add(CFA_XSP16, literal(-18)))
        CFI VB load(1, XDATA, add(CFA_XSP16, literal(-19)))
        CFI R6 load(1, XDATA, add(CFA_XSP16, literal(-20)))
        CFI CFA_SP SP+0
        CFI CFA_XSP16 add(XSP16, 20)
        ; Saved register size: 20
        ; Auto size: 0
        MOV     ?V0 + 0,R2
        MOV     ?V0 + 1,R3
        MOV     ?V0 + 2,R4
        MOV     ?V0 + 3,R5
//  501     uint8 active_len=0;
        MOV     R6,#0x0
//  502     
//  503     str[0] = '/';	
        MOV     DPL,?V0 + 2
        MOV     DPH,?V0 + 3
        MOV     A,#0x2f
        MOVX    @DPTR,A
//  504     if(user_app_data[0]=='1')
        MOV     DPL,?V0 + 0
        MOV     DPH,?V0 + 1
        MOVX    A,@DPTR
        XRL     A,#0x31
        JZ      $+5
        LJMP    ??USER_APP_COMMAND_0 & 0xFFFF
//  505     {
//  506         if(user_app_data[1]=='1' )//开命令
        MOV     DPL,?V0 + 0
        MOV     DPH,?V0 + 1
        INC     DPTR
        MOVX    A,@DPTR
        XRL     A,#0x31
        JNZ     ??USER_APP_COMMAND_1
//  507         {  
//  508             P1_6 =0;//打开继电器
        CLR     0x90.6
//  509             HAL_TURN_ON_LED2();
        CLR     0x80.1
//  510             
//  511             str[1]=1;//第1个插座
        MOV     DPL,?V0 + 2
        MOV     DPH,?V0 + 3
        INC     DPTR
        MOV     A,#0x1
        MOVX    @DPTR,A
//  512             str[2]=1;
        MOV     DPL,?V0 + 2
        MOV     DPH,?V0 + 3
        INC     DPTR
        INC     DPTR
        MOV     A,#0x1
        MOVX    @DPTR,A
//  513             active_len=12;
        MOV     R6,#0xc
//  514             return active_len;
        MOV     A,R6
        MOV     R1,A
        LJMP    ??USER_APP_COMMAND_2 & 0xFFFF
//  515         }
//  516         
//  517         else if(user_app_data[1]=='0' )//关
??USER_APP_COMMAND_1:
        MOV     DPL,?V0 + 0
        MOV     DPH,?V0 + 1
        INC     DPTR
        MOVX    A,@DPTR
        XRL     A,#0x30
        JNZ     ??USER_APP_COMMAND_3
//  518         {
//  519             P1_6 =1;//关闭继电器
        SETB    0x90.6
//  520             HAL_TURN_OFF_LED2();
        SETB    0x80.1
//  521             
//  522             str[1]=1;//第1个插座
        MOV     DPL,?V0 + 2
        MOV     DPH,?V0 + 3
        INC     DPTR
        MOV     A,#0x1
        MOVX    @DPTR,A
//  523             str[2]=0;
        MOV     DPL,?V0 + 2
        MOV     DPH,?V0 + 3
        INC     DPTR
        INC     DPTR
        MOV     A,#0x0
        MOVX    @DPTR,A
//  524             active_len=12;
        MOV     R6,#0xc
//  525             return active_len;
        MOV     A,R6
        MOV     R1,A
        LJMP    ??USER_APP_COMMAND_2 & 0xFFFF
//  526         }
//  527         
//  528         else if(user_app_data[1]=='2' )//2012 7 24 增加2 查询当前状态
??USER_APP_COMMAND_3:
        MOV     DPL,?V0 + 0
        MOV     DPH,?V0 + 1
        INC     DPTR
        MOVX    A,@DPTR
        XRL     A,#0x32
        JNZ     ??USER_APP_COMMAND_4
//  529         {
//  530             P1_6 = !P1_6;
        SETB    B.0
        MOV     C,0x90.6
        JNB     B.0,??USER_APP_COMMAND_5
        CPL     C
??USER_APP_COMMAND_5:
        MOV     0x90.6,C
//  531             LED2_SBIT = P1_6;
        MOV     C,0x90.6
        MOV     0x80.1,C
//  532             active_len=12;
        MOV     R6,#0xc
//  533             return active_len;
        MOV     A,R6
        MOV     R1,A
        LJMP    ??USER_APP_COMMAND_2 & 0xFFFF
//  534         }
//  535         else if(user_app_data[1]=='3' )//2012 7 24 增加3 切换当前状态
??USER_APP_COMMAND_4:
        MOV     DPL,?V0 + 0
        MOV     DPH,?V0 + 1
        INC     DPTR
        MOVX    A,@DPTR
        XRL     A,#0x33
        JZ      $+5
        LJMP    ??USER_APP_COMMAND_2 & 0xFFFF
//  536         {
//  537             IO_CTLA_SBIT = !IO_CTLA_SBIT;
        SETB    B.0
        MOV     C,0x90.5
        JNB     B.0,??USER_APP_COMMAND_6
        CPL     C
??USER_APP_COMMAND_6:
        MOV     0x90.5,C
//  538             LED2_SBIT = IO_CTLA_SBIT;
        MOV     C,0x90.5
        MOV     0x80.1,C
//  539             str[1]=1;//第1个插座
        MOV     DPL,?V0 + 2
        MOV     DPH,?V0 + 3
        INC     DPTR
        MOV     A,#0x1
        MOVX    @DPTR,A
//  540             str[2]=!IO_CTLA_SBIT;
        SETB    B.0
        MOV     C,0x90.5
        JNB     B.0,??USER_APP_COMMAND_7
        CPL     C
??USER_APP_COMMAND_7:
        CLR     A
        RLC     A
        MOV     DPL,?V0 + 2
        MOV     DPH,?V0 + 3
        INC     DPTR
        INC     DPTR
        MOVX    @DPTR,A
//  541             active_len=12;
        MOV     R6,#0xc
//  542             return active_len;;
        MOV     A,R6
        MOV     R1,A
        LJMP    ??USER_APP_COMMAND_2 & 0xFFFF
//  543         }
//  544     }
//  545     else if(user_app_data[0]=='2')
??USER_APP_COMMAND_0:
        MOV     DPL,?V0 + 0
        MOV     DPH,?V0 + 1
        MOVX    A,@DPTR
        XRL     A,#0x32
        JZ      $+5
        LJMP    ??USER_APP_COMMAND_8 & 0xFFFF
//  546     {
//  547 	
//  548         if(user_app_data[1]=='1' )//开命令
        MOV     DPL,?V0 + 0
        MOV     DPH,?V0 + 1
        INC     DPTR
        MOVX    A,@DPTR
        XRL     A,#0x31
        JNZ     ??USER_APP_COMMAND_9
//  549         {  
//  550             IO_CTLA_SBIT =0;//打开继电器
        CLR     0x90.5
//  551             P1_7 = 0;//led    
        CLR     0x90.7
//  552             
//  553             str[1]=2;//第2个插座
        MOV     DPL,?V0 + 2
        MOV     DPH,?V0 + 3
        INC     DPTR
        MOV     A,#0x2
        MOVX    @DPTR,A
//  554             str[2]=1;
        MOV     DPL,?V0 + 2
        MOV     DPH,?V0 + 3
        INC     DPTR
        INC     DPTR
        MOV     A,#0x1
        MOVX    @DPTR,A
//  555             active_len=12;
        MOV     R6,#0xc
//  556             return active_len;
        MOV     A,R6
        MOV     R1,A
        LJMP    ??USER_APP_COMMAND_2 & 0xFFFF
//  557         }
//  558         
//  559         else if(user_app_data[1]=='0' )//关
??USER_APP_COMMAND_9:
        MOV     DPL,?V0 + 0
        MOV     DPH,?V0 + 1
        INC     DPTR
        MOVX    A,@DPTR
        XRL     A,#0x30
        JNZ     ??USER_APP_COMMAND_10
//  560         {
//  561             IO_CTLA_SBIT =1;//关闭继电器
        SETB    0x90.5
//  562             P1_7 = 1;//led
        SETB    0x90.7
//  563             
//  564             str[1]=2;//第2个插座
        MOV     DPL,?V0 + 2
        MOV     DPH,?V0 + 3
        INC     DPTR
        MOV     A,#0x2
        MOVX    @DPTR,A
//  565             str[2]=0;
        MOV     DPL,?V0 + 2
        MOV     DPH,?V0 + 3
        INC     DPTR
        INC     DPTR
        MOV     A,#0x0
        MOVX    @DPTR,A
//  566             active_len=12;
        MOV     R6,#0xc
//  567             return active_len;
        MOV     A,R6
        MOV     R1,A
        LJMP    ??USER_APP_COMMAND_2 & 0xFFFF
//  568         }
//  569         
//  570         else if(user_app_data[1]=='2' )//2012 7 24 增加2 查询当前状态
??USER_APP_COMMAND_10:
        MOV     DPL,?V0 + 0
        MOV     DPH,?V0 + 1
        INC     DPTR
        MOVX    A,@DPTR
        XRL     A,#0x32
        JNZ     ??USER_APP_COMMAND_11
//  571         {
//  572             str[1]=2;//第2个插座
        MOV     DPL,?V0 + 2
        MOV     DPH,?V0 + 3
        INC     DPTR
        MOV     A,#0x2
        MOVX    @DPTR,A
//  573             str[2]=!IO_CTLB_SBIT;
        SETB    B.0
        MOV     C,0x90.6
        JNB     B.0,??USER_APP_COMMAND_12
        CPL     C
??USER_APP_COMMAND_12:
        CLR     A
        RLC     A
        MOV     DPL,?V0 + 2
        MOV     DPH,?V0 + 3
        INC     DPTR
        INC     DPTR
        MOVX    @DPTR,A
//  574             active_len=12;
        MOV     R6,#0xc
//  575             return active_len;
        MOV     A,R6
        MOV     R1,A
        LJMP    ??USER_APP_COMMAND_2 & 0xFFFF
//  576         }
//  577         else if(user_app_data[1]=='3' )//2012 7 24 增加3 切换当前状态
??USER_APP_COMMAND_11:
        MOV     DPL,?V0 + 0
        MOV     DPH,?V0 + 1
        INC     DPTR
        MOVX    A,@DPTR
        XRL     A,#0x33
        JZ      $+5
        LJMP    ??USER_APP_COMMAND_2 & 0xFFFF
//  578         {
//  579             str[1]=2;//第2个插座
        MOV     DPL,?V0 + 2
        MOV     DPH,?V0 + 3
        INC     DPTR
        MOV     A,#0x2
        MOVX    @DPTR,A
//  580             str[2]=IO_CTLB_SBIT;
        MOV     C,0x90.6
        CLR     A
        RLC     A
        MOV     DPL,?V0 + 2
        MOV     DPH,?V0 + 3
        INC     DPTR
        INC     DPTR
        MOVX    @DPTR,A
//  581             
//  582             IO_CTLA_SBIT = !IO_CTLA_SBIT;
        SETB    B.0
        MOV     C,0x90.5
        JNB     B.0,??USER_APP_COMMAND_13
        CPL     C
??USER_APP_COMMAND_13:
        MOV     0x90.5,C
//  583             P1_7 = IO_CTLA_SBIT;
        MOV     C,0x90.5
        MOV     0x90.7,C
//  584             
//  585             active_len=12;
        MOV     R6,#0xc
//  586             return active_len;;
        MOV     A,R6
        MOV     R1,A
        LJMP    ??USER_APP_COMMAND_2 & 0xFFFF
//  587         }
//  588     }    
//  589     else if(user_app_data[0]=='5')
??USER_APP_COMMAND_8:
        MOV     DPL,?V0 + 0
        MOV     DPH,?V0 + 1
        MOVX    A,@DPTR
        XRL     A,#0x35
        JNZ     ??USER_APP_COMMAND_14
//  590     {
//  591         SampleApp_SendInMessage( );
        ; Setup parameters for call to function SampleApp_SendInMessage
        LCALL   ??SampleApp_SendInMessage?relay
//  592         active_len=11;
        MOV     R6,#0xb
//  593         return active_len;;
        MOV     A,R6
        MOV     R1,A
        LJMP    ??USER_APP_COMMAND_2 & 0xFFFF
//  594     }
//  595     else if(user_app_data[0]=='6')
??USER_APP_COMMAND_14:
        MOV     DPL,?V0 + 0
        MOV     DPH,?V0 + 1
        MOVX    A,@DPTR
        XRL     A,#0x36
        JZ      $+5
        LJMP    ??USER_APP_COMMAND_15 & 0xFFFF
//  596     {
//  597         P_Value_Distance = (user_app_data[1]-'0')*1000 +(user_app_data[2]-'0')*100 + (user_app_data[3]-'0')*10 + (user_app_data[4]-'0');
        MOV     DPL,?V0 + 0
        MOV     DPH,?V0 + 1
        INC     DPTR
        MOVX    A,@DPTR
        MOV     R0,A
        MOV     R1,#0x0
        MOV     A,R0
        MOV     B,#-0x18
        MUL     AB
        XCH     A,R0
        MOV     R2,B
        MOV     B,#0x3
        MUL     AB
        ADD     A,R2
        MOV     R2,A
        MOV     B,#-0x18
        MOV     A,R1
        MUL     AB
        ADD     A,R2
        MOV     R1,A
        MOV     DPL,?V0 + 0
        MOV     DPH,?V0 + 1
        INC     DPTR
        INC     DPTR
        MOVX    A,@DPTR
        MOV     R2,A
        MOV     R3,#0x0
        MOV     A,R2
        MOV     B,#0x64
        MUL     AB
        XCH     A,R2
        MOV     R4,B
        MOV     B,#0x0
        MUL     AB
        ADD     A,R4
        MOV     R4,A
        MOV     B,#0x64
        MOV     A,R3
        MUL     AB
        ADD     A,R4
        MOV     R3,A
        MOV     A,R0
        ADD     A,R2
        MOV     R0,A
        MOV     A,R1
        ADDC    A,R3
        MOV     R1,A
        MOV     DPL,?V0 + 0
        MOV     DPH,?V0 + 1
        INC     DPTR
        INC     DPTR
        INC     DPTR
        MOVX    A,@DPTR
        MOV     R2,A
        MOV     R3,#0x0
        MOV     A,R2
        MOV     B,#0xa
        MUL     AB
        XCH     A,R2
        MOV     R4,B
        MOV     B,#0x0
        MUL     AB
        ADD     A,R4
        MOV     R4,A
        MOV     B,#0xa
        MOV     A,R3
        MUL     AB
        ADD     A,R4
        MOV     R3,A
        MOV     A,R0
        ADD     A,R2
        MOV     R0,A
        MOV     A,R1
        ADDC    A,R3
        MOV     R1,A
        MOV     DPL,?V0 + 0
        MOV     DPH,?V0 + 1
        INC     DPTR
        INC     DPTR
        INC     DPTR
        INC     DPTR
        MOVX    A,@DPTR
        MOV     R2,A
        MOV     R3,#0x0
        MOV     A,R0
        ADD     A,R2
        MOV     R0,A
        MOV     A,R1
        ADDC    A,R3
        MOV     R1,A
        MOV     A,R0
        ADD     A,#-0x50
        MOV     R0,A
        MOV     A,R1
        ADDC    A,#0x2f
        MOV     R1,A
        MOV     DPTR,#P_Value_Distance
        MOV     A,R0
        MOVX    @DPTR,A
        INC     DPTR
        MOV     A,R1
        MOVX    @DPTR,A
//  598         str[1] = 6;
        MOV     DPL,?V0 + 2
        MOV     DPH,?V0 + 3
        INC     DPTR
        MOV     A,#0x6
        MOVX    @DPTR,A
//  599         str[2] = P_Value_Distance/256;
        MOV     DPTR,#P_Value_Distance
        MOVX    A,@DPTR
        MOV     R0,A
        INC     DPTR
        MOVX    A,@DPTR
        MOV     R1,A
        CLR     A
        MOV     A,R1
        MOV     R0,A
        MOV     DPL,?V0 + 2
        MOV     DPH,?V0 + 3
        INC     DPTR
        INC     DPTR
        MOVX    @DPTR,A
//  600         str[3] = P_Value_Distance%256;			
        MOV     DPTR,#P_Value_Distance
        MOVX    A,@DPTR
        MOV     R0,A
        INC     DPTR
        MOVX    A,@DPTR
        MOV     R1,A
        MOV     R2,#0x0
        MOV     R3,#0x1
        LCALL   ?US_DIV_MOD
        MOV     A,R2
        MOV     DPL,?V0 + 2
        MOV     DPH,?V0 + 3
        INC     DPTR
        INC     DPTR
        INC     DPTR
        MOVX    @DPTR,A
//  601         active_len=13;
        MOV     R6,#0xd
//  602         return active_len;;	
        MOV     A,R6
        MOV     R1,A
        LJMP    ??USER_APP_COMMAND_2 & 0xFFFF
//  603     }
//  604     else if(user_app_data[0]=='7')	
??USER_APP_COMMAND_15:
        MOV     DPL,?V0 + 0
        MOV     DPH,?V0 + 1
        MOVX    A,@DPTR
        XRL     A,#0x37
        JZ      $+5
        LJMP    ??USER_APP_COMMAND_16 & 0xFFFF
//  605     {
//  606         P_Value_jiaozhun_Temp = (user_app_data[1]-'0')*1000 +(user_app_data[2]-'0')*100 + (user_app_data[3]-'0')*10 + (user_app_data[4]-'0');
        MOV     DPL,?V0 + 0
        MOV     DPH,?V0 + 1
        INC     DPTR
        MOVX    A,@DPTR
        MOV     R0,A
        MOV     R1,#0x0
        MOV     A,R0
        MOV     B,#-0x18
        MUL     AB
        XCH     A,R0
        MOV     R2,B
        MOV     B,#0x3
        MUL     AB
        ADD     A,R2
        MOV     R2,A
        MOV     B,#-0x18
        MOV     A,R1
        MUL     AB
        ADD     A,R2
        MOV     R1,A
        MOV     DPL,?V0 + 0
        MOV     DPH,?V0 + 1
        INC     DPTR
        INC     DPTR
        MOVX    A,@DPTR
        MOV     R2,A
        MOV     R3,#0x0
        MOV     A,R2
        MOV     B,#0x64
        MUL     AB
        XCH     A,R2
        MOV     R4,B
        MOV     B,#0x0
        MUL     AB
        ADD     A,R4
        MOV     R4,A
        MOV     B,#0x64
        MOV     A,R3
        MUL     AB
        ADD     A,R4
        MOV     R3,A
        MOV     A,R0
        ADD     A,R2
        MOV     R0,A
        MOV     A,R1
        ADDC    A,R3
        MOV     R1,A
        MOV     DPL,?V0 + 0
        MOV     DPH,?V0 + 1
        INC     DPTR
        INC     DPTR
        INC     DPTR
        MOVX    A,@DPTR
        MOV     R2,A
        MOV     R3,#0x0
        MOV     A,R2
        MOV     B,#0xa
        MUL     AB
        XCH     A,R2
        MOV     R4,B
        MOV     B,#0x0
        MUL     AB
        ADD     A,R4
        MOV     R4,A
        MOV     B,#0xa
        MOV     A,R3
        MUL     AB
        ADD     A,R4
        MOV     R3,A
        MOV     A,R0
        ADD     A,R2
        MOV     R0,A
        MOV     A,R1
        ADDC    A,R3
        MOV     R1,A
        MOV     DPL,?V0 + 0
        MOV     DPH,?V0 + 1
        INC     DPTR
        INC     DPTR
        INC     DPTR
        INC     DPTR
        MOVX    A,@DPTR
        MOV     R2,A
        MOV     R3,#0x0
        MOV     A,R0
        ADD     A,R2
        MOV     R0,A
        MOV     A,R1
        ADDC    A,R3
        MOV     R1,A
        MOV     A,R0
        ADD     A,#-0x50
        MOV     R0,A
        MOV     A,R1
        ADDC    A,#0x2f
        MOV     R1,A
        MOV     DPTR,#P_Value_jiaozhun_Temp
        MOV     A,R0
        MOVX    @DPTR,A
        INC     DPTR
        MOV     A,R1
        MOVX    @DPTR,A
//  607         str[1] = 7;
        MOV     DPL,?V0 + 2
        MOV     DPH,?V0 + 3
        INC     DPTR
        MOV     A,#0x7
        MOVX    @DPTR,A
//  608         str[2] = P_Value_jiaozhun_Temp/256;
        MOV     DPTR,#P_Value_jiaozhun_Temp
        MOVX    A,@DPTR
        MOV     R0,A
        INC     DPTR
        MOVX    A,@DPTR
        MOV     R1,A
        CLR     A
        MOV     A,R1
        MOV     R0,A
        MOV     DPL,?V0 + 2
        MOV     DPH,?V0 + 3
        INC     DPTR
        INC     DPTR
        MOVX    @DPTR,A
//  609         str[3] = P_Value_jiaozhun_Temp%256;			
        MOV     DPTR,#P_Value_jiaozhun_Temp
        MOVX    A,@DPTR
        MOV     R0,A
        INC     DPTR
        MOVX    A,@DPTR
        MOV     R1,A
        MOV     R2,#0x0
        MOV     R3,#0x1
        LCALL   ?US_DIV_MOD
        MOV     A,R2
        MOV     DPL,?V0 + 2
        MOV     DPH,?V0 + 3
        INC     DPTR
        INC     DPTR
        INC     DPTR
        MOVX    @DPTR,A
//  610         active_len=13;
        MOV     R6,#0xd
//  611         return active_len;;	
        MOV     A,R6
        MOV     R1,A
        LJMP    ??USER_APP_COMMAND_2 & 0xFFFF
//  612     }
//  613     else if(user_app_data[0]=='8')	
??USER_APP_COMMAND_16:
        MOV     DPL,?V0 + 0
        MOV     DPH,?V0 + 1
        MOVX    A,@DPTR
        XRL     A,#0x38
        JZ      $+5
        LJMP    ??USER_APP_COMMAND_17 & 0xFFFF
//  614     {
//  615         P_Protect_Value = (user_app_data[1]-'0')*1000 +(user_app_data[2]-'0')*100 + (user_app_data[3]-'0')*10 + (user_app_data[4]-'0');
        MOV     DPL,?V0 + 0
        MOV     DPH,?V0 + 1
        INC     DPTR
        MOVX    A,@DPTR
        MOV     R0,A
        MOV     R1,#0x0
        MOV     A,R0
        MOV     B,#-0x18
        MUL     AB
        XCH     A,R0
        MOV     R2,B
        MOV     B,#0x3
        MUL     AB
        ADD     A,R2
        MOV     R2,A
        MOV     B,#-0x18
        MOV     A,R1
        MUL     AB
        ADD     A,R2
        MOV     R1,A
        MOV     DPL,?V0 + 0
        MOV     DPH,?V0 + 1
        INC     DPTR
        INC     DPTR
        MOVX    A,@DPTR
        MOV     R2,A
        MOV     R3,#0x0
        MOV     A,R2
        MOV     B,#0x64
        MUL     AB
        XCH     A,R2
        MOV     R4,B
        MOV     B,#0x0
        MUL     AB
        ADD     A,R4
        MOV     R4,A
        MOV     B,#0x64
        MOV     A,R3
        MUL     AB
        ADD     A,R4
        MOV     R3,A
        MOV     A,R0
        ADD     A,R2
        MOV     R0,A
        MOV     A,R1
        ADDC    A,R3
        MOV     R1,A
        MOV     DPL,?V0 + 0
        MOV     DPH,?V0 + 1
        INC     DPTR
        INC     DPTR
        INC     DPTR
        MOVX    A,@DPTR
        MOV     R2,A
        MOV     R3,#0x0
        MOV     A,R2
        MOV     B,#0xa
        MUL     AB
        XCH     A,R2
        MOV     R4,B
        MOV     B,#0x0
        MUL     AB
        ADD     A,R4
        MOV     R4,A
        MOV     B,#0xa
        MOV     A,R3
        MUL     AB
        ADD     A,R4
        MOV     R3,A
        MOV     A,R0
        ADD     A,R2
        MOV     R0,A
        MOV     A,R1
        ADDC    A,R3
        MOV     R1,A
        MOV     DPL,?V0 + 0
        MOV     DPH,?V0 + 1
        INC     DPTR
        INC     DPTR
        INC     DPTR
        INC     DPTR
        MOVX    A,@DPTR
        MOV     R2,A
        MOV     R3,#0x0
        MOV     A,R0
        ADD     A,R2
        MOV     R0,A
        MOV     A,R1
        ADDC    A,R3
        MOV     R1,A
        MOV     A,R0
        ADD     A,#-0x50
        MOV     R2,A
        MOV     A,R1
        ADDC    A,#0x2f
        MOV     R3,A
        MOV     A,R3
        RLC     A
        SUBB    A,0xE0 /* A   */
        MOV     R4,A
        MOV     R5,A
        MOV     DPTR,#P_Protect_Value
        MOV     A,R2
        MOVX    @DPTR,A
        INC     DPTR
        MOV     A,R3
        MOVX    @DPTR,A
        INC     DPTR
        MOV     A,R4
        MOVX    @DPTR,A
        INC     DPTR
        MOV     A,R5
        MOVX    @DPTR,A
//  616         str[1] = 8;
        MOV     DPL,?V0 + 2
        MOV     DPH,?V0 + 3
        INC     DPTR
        MOV     A,#0x8
        MOVX    @DPTR,A
//  617         str[2] = P_Protect_Value/256;
        MOV     DPTR,#P_Protect_Value
        MOV     R0,#?V0 + 4
        LCALL   ?L_MOV_X
        CLR     A
        MOV     A,?V0 + 5
        MOV     ?V0 + 4,A
        MOV     A,?V0 + 4
        MOV     DPL,?V0 + 2
        MOV     DPH,?V0 + 3
        INC     DPTR
        INC     DPTR
        MOV     A,?V0 + 4
        MOVX    @DPTR,A
//  618         str[3] = P_Protect_Value%256;			
        MOV     DPTR,#P_Protect_Value
        MOV     R0,#?V0 + 8
        LCALL   ?L_MOV_X
        MOV     DPTR,#__Constant_100
        MOV     R0,#?V0 + 4
        LCALL   ?L_MOV_X
        MOV     R0,#?V0 + 8
        MOV     R1,#?V0 + 4
        LCALL   ?UL_DIV_MOD
        MOV     A,?V0 + 4
        MOV     DPL,?V0 + 2
        MOV     DPH,?V0 + 3
        INC     DPTR
        INC     DPTR
        INC     DPTR
        MOV     A,?V0 + 4
        MOVX    @DPTR,A
//  619         active_len=13;
        MOV     R6,#0xd
//  620         return active_len;;	
        MOV     A,R6
        MOV     R1,A
        LJMP    ??USER_APP_COMMAND_2 & 0xFFFF
//  621     }
//  622     else if(user_app_data[0]=='9')
??USER_APP_COMMAND_17:
        MOV     DPL,?V0 + 0
        MOV     DPH,?V0 + 1
        MOVX    A,@DPTR
        XRL     A,#0x39
        JZ      $+5
        LJMP    ??USER_APP_COMMAND_2 & 0xFFFF
//  623     {
//  624         
//  625         P_Value = GetPactive(1.0, 10000, 0);//获取有功功率
        ; Setup parameters for call to function GetPactive
        MOV     DPTR,#__Constant_0
        LCALL   ?PUSH_XSTACK8_X_FOUR
        CFI CFA_XSP16 add(XSP16, 24)
        MOV     DPTR,#__Constant_2710
        LCALL   ?PUSH_XSTACK8_X_FOUR
        CFI CFA_XSP16 add(XSP16, 28)
        MOV     DPTR,#__Constant_3f800000
        LCALL   ?XLOAD_R2345
        LCALL   ??GetPactive?relay
        MOV     A,#0x8
        LCALL   ?DEALLOC_XSTACK8
        CFI CFA_XSP16 add(XSP16, 20)
        MOV     DPTR,#P_Value
        LCALL   ?XSTORE_R2345
//  626         P_Value_Now = P_Value*1.2;//*12000/10000得到最终的有效的功率值	
        MOV     DPTR,#P_Value
        MOV     R0,#?V0 + 4
        LCALL   ?L_MOV_X
        MOV     R0,#?V0 + 4
        LCALL   ?UL_TO_FLT
        MOV     DPTR,#__Constant_3f99999a
        MOV     R0,#?V0 + 8
        LCALL   ?L_MOV_X
        MOV     R0,#?V0 + 4
        MOV     R1,#?V0 + 8
        LCALL   ?FLT_MUL
        MOV     R0,#?V0 + 4
        LCALL   ?FLT_TO_UL
        MOV     R2,?V0 + 4
        MOV     R3,?V0 + 5
        MOV     R4,?V0 + 6
        MOV     R5,?V0 + 7
        MOV     DPTR,#P_Value_Now
        MOV     A,?V0 + 4
        MOVX    @DPTR,A
        INC     DPTR
        MOV     A,?V0 + 5
        MOVX    @DPTR,A
        INC     DPTR
        MOV     A,?V0 + 6
        MOVX    @DPTR,A
        INC     DPTR
        MOV     A,?V0 + 7
        MOVX    @DPTR,A
//  627         I_Value_Now = GetCurrentIrms(1,10000,0);//读取电流值
        ; Setup parameters for call to function GetCurrentIrms
        MOV     DPTR,#__Constant_0
        LCALL   ?PUSH_XSTACK8_X_FOUR
        CFI CFA_XSP16 add(XSP16, 24)
        MOV     DPTR,#__Constant_2710
        LCALL   ?PUSH_XSTACK8_X_FOUR
        CFI CFA_XSP16 add(XSP16, 28)
        MOV     DPTR,#__Constant_3f800000
        LCALL   ?XLOAD_R2345
        LCALL   ??GetCurrentIrms?relay
        MOV     A,#0x8
        LCALL   ?DEALLOC_XSTACK8
        CFI CFA_XSP16 add(XSP16, 20)
        MOV     DPTR,#I_Value_Now
        LCALL   ?XSTORE_R2345
//  628         
//  629         if(user_app_data[1] == '1')//差值校准,0.1A电流，220V电压
        MOV     DPL,?V0 + 0
        MOV     DPH,?V0 + 1
        INC     DPTR
        MOVX    A,@DPTR
        XRL     A,#0x31
        JZ      $+5
        LJMP    ??USER_APP_COMMAND_18 & 0xFFFF
//  630         {
//  631             if(I_Value_Now > 1000)
        MOV     DPTR,#I_Value_Now
        PUSH    DPL
        CFI CFA_SP SP+-1
        PUSH    DPH
        CFI CFA_SP SP+-2
        MOV     DPTR,#__Constant_3e9
        MOV     R0,#?V0 + 4
        LCALL   ?L_MOV_X
        POP     DPH
        CFI CFA_SP SP+-1
        POP     DPL
        CFI CFA_SP SP+0
        MOV     R0,#?V0 + 4
        LCALL   ?UL_GT_X
        JC      ??USER_APP_COMMAND_19
//  632             {
//  633                 I_Value_jiaozhun_Temp = I_Value_Now - 1000;//电流校准的差值
        MOV     DPTR,#I_Value_Now
        MOV     R0,#?V0 + 4
        LCALL   ?L_MOV_X
        MOV     A,?V0 + 4
        ADD     A,#0x18
        MOV     R0,A
        MOV     A,?V0 + 5
        ADDC    A,#-0x4
        MOV     R1,A
        MOV     DPTR,#I_Value_jiaozhun_Temp
        MOV     A,R0
        MOVX    @DPTR,A
        INC     DPTR
        MOV     A,R1
        MOVX    @DPTR,A
//  634             }
//  635             
//  636             P_Value_Now *= P_Value_Bili_Temp;
??USER_APP_COMMAND_19:
        MOV     DPTR,#P_Value_Now
        MOV     R0,#?V0 + 4
        LCALL   ?L_MOV_X
        MOV     R0,#?V0 + 4
        LCALL   ?UL_TO_FLT
        MOV     DPTR,#P_Value_Bili_Temp
        MOV     R0,#?V0 + 8
        LCALL   ?L_MOV_X
        MOV     R0,#?V0 + 4
        MOV     R1,#?V0 + 8
        LCALL   ?FLT_MUL
        MOV     R0,#?V0 + 4
        LCALL   ?FLT_TO_UL
        MOV     R2,?V0 + 4
        MOV     R3,?V0 + 5
        MOV     R4,?V0 + 6
        MOV     R5,?V0 + 7
        MOV     DPTR,#P_Value_Now
        MOV     A,?V0 + 4
        MOVX    @DPTR,A
        INC     DPTR
        MOV     A,?V0 + 5
        MOVX    @DPTR,A
        INC     DPTR
        MOV     A,?V0 + 6
        MOVX    @DPTR,A
        INC     DPTR
        MOV     A,?V0 + 7
        MOVX    @DPTR,A
//  637             
//  638             if(P_Value_Now > 22)
        MOV     DPTR,#P_Value_Now
        PUSH    DPL
        CFI CFA_SP SP+-1
        PUSH    DPH
        CFI CFA_SP SP+-2
        MOV     DPTR,#__Constant_17
        MOV     R0,#?V0 + 4
        LCALL   ?L_MOV_X
        POP     DPH
        CFI CFA_SP SP+-1
        POP     DPL
        CFI CFA_SP SP+0
        MOV     R0,#?V0 + 4
        LCALL   ?UL_GT_X
        JC      ??USER_APP_COMMAND_20
//  639             {
//  640                 P_Value_jiaozhun_Temp = P_Value_Now - 22;//22W的校准
        MOV     DPTR,#P_Value_Now
        MOV     R0,#?V0 + 4
        LCALL   ?L_MOV_X
        MOV     A,?V0 + 4
        ADD     A,#-0x16
        MOV     R0,A
        MOV     A,?V0 + 5
        ADDC    A,#-0x1
        MOV     R1,A
        MOV     DPTR,#P_Value_jiaozhun_Temp
        MOV     A,R0
        MOVX    @DPTR,A
        INC     DPTR
        MOV     A,R1
        MOVX    @DPTR,A
//  641             }
//  642             
//  643             str[2]=1;
??USER_APP_COMMAND_20:
        MOV     DPL,?V0 + 2
        MOV     DPH,?V0 + 3
        INC     DPTR
        INC     DPTR
        MOV     A,#0x1
        MOVX    @DPTR,A
        LJMP    ??USER_APP_COMMAND_21 & 0xFFFF
//  644         }
//  645         else if(user_app_data[1] == '2')//比例校准，8A电流，220V电压
??USER_APP_COMMAND_18:
        MOV     DPL,?V0 + 0
        MOV     DPH,?V0 + 1
        INC     DPTR
        MOVX    A,@DPTR
        XRL     A,#0x32
        JZ      $+5
        LJMP    ??USER_APP_COMMAND_22 & 0xFFFF
//  646         {
//  647             if(I_Value_Now > 80000)//8A电流
        MOV     DPTR,#I_Value_Now
        PUSH    DPL
        CFI CFA_SP SP+-1
        PUSH    DPH
        CFI CFA_SP SP+-2
        MOV     DPTR,#__Constant_13881
        MOV     R0,#?V0 + 4
        LCALL   ?L_MOV_X
        POP     DPH
        CFI CFA_SP SP+-1
        POP     DPL
        CFI CFA_SP SP+0
        MOV     R0,#?V0 + 4
        LCALL   ?UL_GT_X
        JC      ??USER_APP_COMMAND_23
//  648             {
//  649                 I_Value_Bili_Temp = 80000 / I_Value_Now;//电流校准的比例值
        MOV     ?V0 + 4,#-0x80
        MOV     ?V0 + 5,#0x38
        MOV     ?V0 + 6,#0x1
        MOV     ?V0 + 7,#0x0
        MOV     DPTR,#I_Value_Now
        MOV     R0,#?V0 + 8
        LCALL   ?L_MOV_X
        MOV     R0,#?V0 + 4
        MOV     R1,#?V0 + 8
        LCALL   ?UL_DIV_MOD
        MOV     R0,#?V0 + 4
        LCALL   ?UL_TO_FLT
        MOV     R2,?V0 + 4
        MOV     R3,?V0 + 5
        MOV     R4,?V0 + 6
        MOV     R5,?V0 + 7
        MOV     DPTR,#I_Value_Bili_Temp
        MOV     A,?V0 + 4
        MOVX    @DPTR,A
        INC     DPTR
        MOV     A,?V0 + 5
        MOVX    @DPTR,A
        INC     DPTR
        MOV     A,?V0 + 6
        MOVX    @DPTR,A
        INC     DPTR
        MOV     A,?V0 + 7
        MOVX    @DPTR,A
        SJMP    ??USER_APP_COMMAND_24
//  650             }
//  651             else
//  652             {
//  653                 I_Value_Bili_Temp =  I_Value_Now / 80000;//电流校准的比例值
??USER_APP_COMMAND_23:
        MOV     DPTR,#I_Value_Now
        MOV     R0,#?V0 + 4
        LCALL   ?L_MOV_X
        MOV     DPTR,#__Constant_13880
        MOV     R0,#?V0 + 8
        LCALL   ?L_MOV_X
        MOV     R0,#?V0 + 4
        MOV     R1,#?V0 + 8
        LCALL   ?UL_DIV_MOD
        MOV     R0,#?V0 + 4
        LCALL   ?UL_TO_FLT
        MOV     R2,?V0 + 4
        MOV     R3,?V0 + 5
        MOV     R4,?V0 + 6
        MOV     R5,?V0 + 7
        MOV     DPTR,#I_Value_Bili_Temp
        MOV     A,?V0 + 4
        MOVX    @DPTR,A
        INC     DPTR
        MOV     A,?V0 + 5
        MOVX    @DPTR,A
        INC     DPTR
        MOV     A,?V0 + 6
        MOVX    @DPTR,A
        INC     DPTR
        MOV     A,?V0 + 7
        MOVX    @DPTR,A
//  654             }
//  655             
//  656             P_Value_Now -= P_Value_jiaozhun_Temp;
??USER_APP_COMMAND_24:
        MOV     DPTR,#P_Value_jiaozhun_Temp
        MOVX    A,@DPTR
        MOV     ?V0 + 4,A
        INC     DPTR
        MOVX    A,@DPTR
        MOV     ?V0 + 5,A
        CLR     A
        MOV     ?V0 + 6,A
        MOV     ?V0 + 7,A
        MOV     DPTR,#P_Value_Now
        MOV     R0,#?V0 + 4
        LCALL   ?L_SUB_FROM_X
//  657             
//  658             if(P_Value_Now > 1760)
        MOV     DPTR,#P_Value_Now
        PUSH    DPL
        CFI CFA_SP SP+-1
        PUSH    DPH
        CFI CFA_SP SP+-2
        MOV     DPTR,#__Constant_6e1
        MOV     R0,#?V0 + 4
        LCALL   ?L_MOV_X
        POP     DPH
        CFI CFA_SP SP+-1
        POP     DPL
        CFI CFA_SP SP+0
        MOV     R0,#?V0 + 4
        LCALL   ?UL_GT_X
        JC      ??USER_APP_COMMAND_25
//  659             {
//  660                 P_Value_Bili_Temp = 1760.0 / (float)P_Value_Now;
        MOV     ?V0 + 4,#0x0
        MOV     ?V0 + 5,#0x0
        MOV     ?V0 + 6,#-0x24
        MOV     ?V0 + 7,#0x44
        MOV     DPTR,#P_Value_Now
        MOV     R0,#?V0 + 8
        LCALL   ?L_MOV_X
        MOV     R0,#?V0 + 8
        LCALL   ?UL_TO_FLT
        MOV     R0,#?V0 + 4
        MOV     R1,#?V0 + 8
        LCALL   ?FLT_DIV
        MOV     R2,?V0 + 4
        MOV     R3,?V0 + 5
        MOV     R4,?V0 + 6
        MOV     R5,?V0 + 7
        MOV     DPTR,#P_Value_Bili_Temp
        MOV     A,?V0 + 4
        MOVX    @DPTR,A
        INC     DPTR
        MOV     A,?V0 + 5
        MOVX    @DPTR,A
        INC     DPTR
        MOV     A,?V0 + 6
        MOVX    @DPTR,A
        INC     DPTR
        MOV     A,?V0 + 7
        MOVX    @DPTR,A
        SJMP    ??USER_APP_COMMAND_26
//  661             }
//  662             else 
//  663             {
//  664                 P_Value_Bili_Temp = (float)P_Value_Now / 1760.0 ;
??USER_APP_COMMAND_25:
        MOV     DPTR,#P_Value_Now
        MOV     R0,#?V0 + 4
        LCALL   ?L_MOV_X
        MOV     R0,#?V0 + 4
        LCALL   ?UL_TO_FLT
        MOV     DPTR,#__Constant_44dc0000
        MOV     R0,#?V0 + 8
        LCALL   ?L_MOV_X
        MOV     R0,#?V0 + 4
        MOV     R1,#?V0 + 8
        LCALL   ?FLT_DIV
        MOV     R2,?V0 + 4
        MOV     R3,?V0 + 5
        MOV     R4,?V0 + 6
        MOV     R5,?V0 + 7
        MOV     DPTR,#P_Value_Bili_Temp
        MOV     A,?V0 + 4
        MOVX    @DPTR,A
        INC     DPTR
        MOV     A,?V0 + 5
        MOVX    @DPTR,A
        INC     DPTR
        MOV     A,?V0 + 6
        MOVX    @DPTR,A
        INC     DPTR
        MOV     A,?V0 + 7
        MOVX    @DPTR,A
//  665             }
//  666             
//  667             str[2]=2;
??USER_APP_COMMAND_26:
        MOV     DPL,?V0 + 2
        MOV     DPH,?V0 + 3
        INC     DPTR
        INC     DPTR
        MOV     A,#0x2
        MOVX    @DPTR,A
        LJMP    ??USER_APP_COMMAND_21 & 0xFFFF
//  668         }
//  669         else if(user_app_data[1] == '3')//确认校准值
??USER_APP_COMMAND_22:
        MOV     DPL,?V0 + 0
        MOV     DPH,?V0 + 1
        INC     DPTR
        MOVX    A,@DPTR
        XRL     A,#0x33
        JZ      $+5
        LJMP    ??USER_APP_COMMAND_27 & 0xFFFF
//  670         {
//  671             
//  672             CS5463_STR[0] = 11;//已经校准的标志
        MOV     DPTR,#CS5463_STR
        MOV     A,#0xb
        MOVX    @DPTR,A
//  673             P_Value_Bili = (uint16)(P_Value_Bili_Temp * 1000);//保存校准值
        MOV     DPTR,#P_Value_Bili_Temp
        MOV     R0,#?V0 + 8
        LCALL   ?L_MOV_X
        MOV     DPTR,#__Constant_447a0000
        MOV     R0,#?V0 + 4
        LCALL   ?L_MOV_X
        MOV     R0,#?V0 + 8
        MOV     R1,#?V0 + 4
        LCALL   ?FLT_MUL
        MOV     R0,#?V0 + 8
        LCALL   ?FLT_TO_L
        MOV     DPTR,#P_Value_Bili
        MOV     A,?V0 + 8
        MOVX    @DPTR,A
        INC     DPTR
        MOV     A,?V0 + 9
        MOVX    @DPTR,A
//  674             CS5463_STR[3] = P_Value_Bili >> 8;
        MOV     DPTR,#P_Value_Bili
        MOVX    A,@DPTR
        MOV     R0,A
        INC     DPTR
        MOVX    A,@DPTR
        MOV     R1,A
        CLR     A
        MOV     A,R1
        MOV     R0,A
        MOV     DPTR,#CS5463_STR + 3
        MOVX    @DPTR,A
//  675             CS5463_STR[4] = P_Value_Bili ;
        MOV     DPTR,#P_Value_Bili
        MOVX    A,@DPTR
        MOV     R0,A
        INC     DPTR
        MOVX    A,@DPTR
        MOV     R1,A
        MOV     A,R0
        MOV     DPTR,#CS5463_STR + 4
        MOVX    @DPTR,A
//  676             
//  677             CS5463_STR[1] = P_Value_jiaozhun_Temp>>8;
        MOV     DPTR,#P_Value_jiaozhun_Temp
        MOVX    A,@DPTR
        MOV     R0,A
        INC     DPTR
        MOVX    A,@DPTR
        MOV     R1,A
        CLR     A
        MOV     A,R1
        MOV     R0,A
        MOV     DPTR,#CS5463_STR + 1
        MOVX    @DPTR,A
//  678             CS5463_STR[2] = P_Value_jiaozhun_Temp;
        MOV     DPTR,#P_Value_jiaozhun_Temp
        MOVX    A,@DPTR
        MOV     R0,A
        INC     DPTR
        MOVX    A,@DPTR
        MOV     R1,A
        MOV     A,R0
        MOV     DPTR,#CS5463_STR + 2
        MOVX    @DPTR,A
//  679             
//  680             CS5463_STR[5] = I_Value_jiaozhun_Temp>>8;
        MOV     DPTR,#I_Value_jiaozhun_Temp
        MOVX    A,@DPTR
        MOV     R0,A
        INC     DPTR
        MOVX    A,@DPTR
        MOV     R1,A
        CLR     A
        MOV     A,R1
        MOV     R0,A
        MOV     DPTR,#CS5463_STR + 5
        MOVX    @DPTR,A
//  681             CS5463_STR[6] = I_Value_jiaozhun_Temp;	
        MOV     DPTR,#I_Value_jiaozhun_Temp
        MOVX    A,@DPTR
        MOV     R0,A
        INC     DPTR
        MOVX    A,@DPTR
        MOV     R1,A
        MOV     A,R0
        MOV     DPTR,#CS5463_STR + 6
        MOVX    @DPTR,A
//  682             
//  683             I_Value_Bili = (uint16)(I_Value_Bili_Temp * 1000);
        MOV     DPTR,#I_Value_Bili_Temp
        MOV     R0,#?V0 + 8
        LCALL   ?L_MOV_X
        MOV     DPTR,#__Constant_447a0000
        MOV     R0,#?V0 + 4
        LCALL   ?L_MOV_X
        MOV     R0,#?V0 + 8
        MOV     R1,#?V0 + 4
        LCALL   ?FLT_MUL
        MOV     R0,#?V0 + 8
        LCALL   ?FLT_TO_L
        MOV     DPTR,#I_Value_Bili
        MOV     A,?V0 + 8
        MOVX    @DPTR,A
        INC     DPTR
        MOV     A,?V0 + 9
        MOVX    @DPTR,A
//  684             CS5463_STR[7] = I_Value_Bili >> 8;
        MOV     DPTR,#I_Value_Bili
        MOVX    A,@DPTR
        MOV     R0,A
        INC     DPTR
        MOVX    A,@DPTR
        MOV     R1,A
        CLR     A
        MOV     A,R1
        MOV     R0,A
        MOV     DPTR,#CS5463_STR + 7
        MOVX    @DPTR,A
//  685             CS5463_STR[8] = I_Value_Bili ;	
        MOV     DPTR,#I_Value_Bili
        MOVX    A,@DPTR
        MOV     R0,A
        INC     DPTR
        MOVX    A,@DPTR
        MOV     R1,A
        MOV     A,R0
        MOV     DPTR,#CS5463_STR + 8
        MOVX    @DPTR,A
//  686             
//  687             osal_nv_item_init(CS5463_JIAOZHUN_NV_FLAG, 10, CS5463_STR);  //b保存到FLASH
        ; Setup parameters for call to function osal_nv_item_init
        MOV     ?V0 + 4,#CS5463_STR & 0xff
        MOV     ?V0 + 5,#(CS5463_STR >> 8) & 0xff
        MOV     R0,#?V0 + 4
        LCALL   ?PUSH_XSTACK_I_TWO
        CFI CFA_XSP16 add(XSP16, 22)
        MOV     R4,#0xa
        MOV     R5,#0x0
        MOV     R2,#0x20
        MOV     R3,#0x4
        LCALL   ??osal_nv_item_init?relay
        MOV     A,#0x2
        LCALL   ?DEALLOC_XSTACK8
        CFI CFA_XSP16 add(XSP16, 20)
        MOV     A,R1
//  688             osal_nv_write(CS5463_JIAOZHUN_NV_FLAG, 0, 10, CS5463_STR);					
        ; Setup parameters for call to function osal_nv_write
        MOV     ?V0 + 4,#CS5463_STR & 0xff
        MOV     ?V0 + 5,#(CS5463_STR >> 8) & 0xff
        MOV     R0,#?V0 + 4
        LCALL   ?PUSH_XSTACK_I_TWO
        CFI CFA_XSP16 add(XSP16, 22)
        MOV     ?V0 + 4,#0xa
        MOV     ?V0 + 5,#0x0
        MOV     R0,#?V0 + 4
        LCALL   ?PUSH_XSTACK_I_TWO
        CFI CFA_XSP16 add(XSP16, 24)
        MOV     R4,#0x0
        MOV     R5,#0x0
        MOV     R2,#0x20
        MOV     R3,#0x4
        LCALL   ??osal_nv_write?relay
        MOV     A,#0x4
        LCALL   ?DEALLOC_XSTACK8
        CFI CFA_XSP16 add(XSP16, 20)
        MOV     A,R1
//  689             
//  690             str[2]=3;
        MOV     DPL,?V0 + 2
        MOV     DPH,?V0 + 3
        INC     DPTR
        INC     DPTR
        MOV     A,#0x3
        MOVX    @DPTR,A
        LJMP    ??USER_APP_COMMAND_21 & 0xFFFF
//  691             
//  692             
//  693         }
//  694         else if(user_app_data[1] == '0')
??USER_APP_COMMAND_27:
        MOV     DPL,?V0 + 0
        MOV     DPH,?V0 + 1
        INC     DPTR
        MOVX    A,@DPTR
        XRL     A,#0x30
        JZ      $+5
        LJMP    ??USER_APP_COMMAND_21 & 0xFFFF
//  695         {
//  696             P_Value_Bili_Temp = 1.0;
        MOV     DPTR,#__Constant_3f800000
        LCALL   ?XLOAD_R2345
        MOV     DPTR,#P_Value_Bili_Temp
        LCALL   ?XSTORE_R2345
//  697             P_Value_jiaozhun_Temp = 0;
        MOV     DPTR,#P_Value_jiaozhun_Temp
        MOV     A,#0x0
        MOVX    @DPTR,A
        INC     DPTR
        MOV     A,#0x0
        MOVX    @DPTR,A
//  698             I_Value_jiaozhun_Temp = 0;
        MOV     DPTR,#I_Value_jiaozhun_Temp
        MOV     A,#0x0
        MOVX    @DPTR,A
        INC     DPTR
        MOV     A,#0x0
        MOVX    @DPTR,A
//  699             I_Value_Bili_Temp = 1.0;
        MOV     DPTR,#__Constant_3f800000
        LCALL   ?XLOAD_R2345
        MOV     DPTR,#I_Value_Bili_Temp
        LCALL   ?XSTORE_R2345
//  700             
//  701             CS5463_STR[0] = 0;
        MOV     DPTR,#CS5463_STR
        MOV     A,#0x0
        MOVX    @DPTR,A
//  702             CS5463_STR[1] = 0;	
        MOV     DPTR,#CS5463_STR + 1
        MOV     A,#0x0
        MOVX    @DPTR,A
//  703             CS5463_STR[2] = 0;
        MOV     DPTR,#CS5463_STR + 2
        MOV     A,#0x0
        MOVX    @DPTR,A
//  704             CS5463_STR[3] = 0;	
        MOV     DPTR,#CS5463_STR + 3
        MOV     A,#0x0
        MOVX    @DPTR,A
//  705             CS5463_STR[4] = 0;
        MOV     DPTR,#CS5463_STR + 4
        MOV     A,#0x0
        MOVX    @DPTR,A
//  706             CS5463_STR[5] = 0;	
        MOV     DPTR,#CS5463_STR + 5
        MOV     A,#0x0
        MOVX    @DPTR,A
//  707             CS5463_STR[6] = 0;
        MOV     DPTR,#CS5463_STR + 6
        MOV     A,#0x0
        MOVX    @DPTR,A
//  708             CS5463_STR[7] = 0;
        MOV     DPTR,#CS5463_STR + 7
        MOV     A,#0x0
        MOVX    @DPTR,A
//  709             CS5463_STR[8] = 0;
        MOV     DPTR,#CS5463_STR + 8
        MOV     A,#0x0
        MOVX    @DPTR,A
//  710             CS5463_STR[9] = 0;			
        MOV     DPTR,#CS5463_STR + 9
        MOV     A,#0x0
        MOVX    @DPTR,A
//  711             osal_nv_item_init(CS5463_JIAOZHUN_NV_FLAG, 10, CS5463_STR);  
        ; Setup parameters for call to function osal_nv_item_init
        MOV     ?V0 + 4,#CS5463_STR & 0xff
        MOV     ?V0 + 5,#(CS5463_STR >> 8) & 0xff
        MOV     R0,#?V0 + 4
        LCALL   ?PUSH_XSTACK_I_TWO
        CFI CFA_XSP16 add(XSP16, 22)
        MOV     R4,#0xa
        MOV     R5,#0x0
        MOV     R2,#0x20
        MOV     R3,#0x4
        LCALL   ??osal_nv_item_init?relay
        MOV     A,#0x2
        LCALL   ?DEALLOC_XSTACK8
        CFI CFA_XSP16 add(XSP16, 20)
        MOV     A,R1
//  712             osal_nv_write(CS5463_JIAOZHUN_NV_FLAG, 0, 10, CS5463_STR);				
        ; Setup parameters for call to function osal_nv_write
        MOV     ?V0 + 4,#CS5463_STR & 0xff
        MOV     ?V0 + 5,#(CS5463_STR >> 8) & 0xff
        MOV     R0,#?V0 + 4
        LCALL   ?PUSH_XSTACK_I_TWO
        CFI CFA_XSP16 add(XSP16, 22)
        MOV     ?V0 + 4,#0xa
        MOV     ?V0 + 5,#0x0
        MOV     R0,#?V0 + 4
        LCALL   ?PUSH_XSTACK_I_TWO
        CFI CFA_XSP16 add(XSP16, 24)
        MOV     R4,#0x0
        MOV     R5,#0x0
        MOV     R2,#0x20
        MOV     R3,#0x4
        LCALL   ??osal_nv_write?relay
        MOV     A,#0x4
        LCALL   ?DEALLOC_XSTACK8
        CFI CFA_XSP16 add(XSP16, 20)
        MOV     A,R1
//  713             
//  714             str[2]=4;		
        MOV     DPL,?V0 + 2
        MOV     DPH,?V0 + 3
        INC     DPTR
        INC     DPTR
        MOV     A,#0x4
        MOVX    @DPTR,A
//  715         }
//  716         
//  717 	str[1]=9;
??USER_APP_COMMAND_21:
        MOV     DPL,?V0 + 2
        MOV     DPH,?V0 + 3
        INC     DPTR
        MOV     A,#0x9
        MOVX    @DPTR,A
//  718         active_len=12;
        MOV     R6,#0xc
//  719         return active_len;;
        MOV     A,R6
        MOV     R1,A
//  720     }     
//  721 }
??USER_APP_COMMAND_2:
        MOV     R7,#0xc
        LJMP    ?BANKED_LEAVE_XDATA
        CFI EndBlock cfiBlock6
        REQUIRE _A_P1
        REQUIRE _A_P0
//  722 
//  723 /*******************************************************************************
//  724 * 函数名称: USER_SET_RS_MSG
//  725 * 函数功能: 用户自行设置RS数据
//  726 * 入口参数: 无
//  727 * 出口参数: 无
//  728 * 备注说明: 入网后向协调器发送的自身信息数据，入网后5S会自动发送
//  729 ******************************************************************************/

        RSEG BANKED_CODE:CODE:NOROOT(0)
//  730 void USER_SET_RS_MSG(void)//
USER_SET_RS_MSG:
        CFI Block cfiBlock7 Using cfiCommon0
        CFI Function USER_SET_RS_MSG
        CODE
//  731 {
        PUSH    DPL
        CFI DPL0 Frame(CFA_SP, 4)
        CFI CFA_SP SP+-4
        PUSH    DPH
        CFI DPH0 Frame(CFA_SP, 5)
        CFI CFA_SP SP+-5
        ; Saved register size: 2
        ; Auto size: 0
//  732     
//  733     DEVICE_ID=77;
        MOV     DPTR,#DEVICE_ID
        MOV     A,#0x4d
        MOVX    @DPTR,A
//  734     DEFINED_CONTROL_CHAR='E';
        MOV     DPTR,#DEFINED_CONTROL_CHAR
        MOV     A,#0x45
        MOVX    @DPTR,A
//  735     JOIN_ROLE=Send_Router;
        MOV     DPTR,#JOIN_ROLE
        MOV     A,#0x0
        MOVX    @DPTR,A
//  736     RS_LEN = 1;
        MOV     DPTR,#RS_LEN
        MOV     A,#0x1
        MOVX    @DPTR,A
//  737     RS_STR[0]=IO_CTLA_SBIT;
        MOV     C,0x90.5
        CLR     A
        RLC     A
        MOV     DPTR,#RS_STR
        MOVX    @DPTR,A
//  738 }
        POP     DPH
        CFI DPH0 SameValue
        CFI CFA_SP SP+-4
        POP     DPL
        CFI DPL0 SameValue
        CFI CFA_SP SP+-3
        LJMP    ?BRET
        CFI EndBlock cfiBlock7
        REQUIRE _A_P1
//  739 
//  740 /*******************************************************************************
//  741 * 函数名称: SampleApp_SendInMessage
//  742 * 函数功能: 用户自行规划主动上报数据的格式。
//  743 * 入口参数: 无
//  744 * 出口参数: 无
//  745 * 备注说明: 无
//  746 ******************************************************************************/

        RSEG BANKED_CODE:CODE:NOROOT(0)
//  747 void SampleApp_SendInMessage()
SampleApp_SendInMessage:
        CFI Block cfiBlock8 Using cfiCommon0
        CFI Function SampleApp_SendInMessage
        CODE
//  748 {
        FUNCALL SampleApp_SendInMessage, osal_mem_alloc
        LOCFRAME ISTACK, 0, STACK
        LOCFRAME PSTACK, 0, STACK
        LOCFRAME XSTACK, 20, STACK
        LOCFRAME IOVERLAY, 0, STATIC
        LOCFRAME DOVERLAY, 0, STATIC
        ARGFRAME ISTACK, 0, STACK
        ARGFRAME PSTACK, 0, STACK
        ARGFRAME XSTACK, 20, STACK
        ARGFRAME IOVERLAY, 0, STATIC
        ARGFRAME DOVERLAY, 0, STATIC
        FUNCALL SampleApp_SendInMessage, USER_SEND_ADD_STR
        LOCFRAME ISTACK, 0, STACK
        LOCFRAME PSTACK, 0, STACK
        LOCFRAME XSTACK, 20, STACK
        LOCFRAME IOVERLAY, 0, STATIC
        LOCFRAME DOVERLAY, 0, STATIC
        ARGFRAME ISTACK, 0, STACK
        ARGFRAME PSTACK, 0, STACK
        ARGFRAME XSTACK, 20, STACK
        ARGFRAME IOVERLAY, 0, STATIC
        ARGFRAME DOVERLAY, 0, STATIC
        FUNCALL SampleApp_SendInMessage, USER_APP_SEND_IN
        LOCFRAME ISTACK, 0, STACK
        LOCFRAME PSTACK, 0, STACK
        LOCFRAME XSTACK, 20, STACK
        LOCFRAME IOVERLAY, 0, STATIC
        LOCFRAME DOVERLAY, 0, STATIC
        ARGFRAME ISTACK, 0, STACK
        ARGFRAME PSTACK, 0, STACK
        ARGFRAME XSTACK, 20, STACK
        ARGFRAME IOVERLAY, 0, STATIC
        ARGFRAME DOVERLAY, 0, STATIC
        FUNCALL SampleApp_SendInMessage, osal_mem_free
        LOCFRAME ISTACK, 0, STACK
        LOCFRAME PSTACK, 0, STACK
        LOCFRAME XSTACK, 20, STACK
        LOCFRAME IOVERLAY, 0, STATIC
        LOCFRAME DOVERLAY, 0, STATIC
        ARGFRAME ISTACK, 0, STACK
        ARGFRAME PSTACK, 0, STACK
        ARGFRAME XSTACK, 20, STACK
        ARGFRAME IOVERLAY, 0, STATIC
        ARGFRAME DOVERLAY, 0, STATIC
        MOV     A,#-0x14
        LCALL   ?BANKED_ENTER_XDATA
        CFI DPH0 load(1, XDATA, add(CFA_XSP16, literal(-1)))
        CFI DPL0 load(1, XDATA, add(CFA_XSP16, literal(-2)))
        CFI ?BRET_EXT load(1, XDATA, add(CFA_XSP16, literal(-3)))
        CFI ?RET_HIGH load(1, XDATA, add(CFA_XSP16, literal(-4)))
        CFI ?RET_LOW load(1, XDATA, add(CFA_XSP16, literal(-5)))
        CFI R7 load(1, XDATA, add(CFA_XSP16, literal(-6)))
        CFI V11 load(1, XDATA, add(CFA_XSP16, literal(-7)))
        CFI V10 load(1, XDATA, add(CFA_XSP16, literal(-8)))
        CFI V9 load(1, XDATA, add(CFA_XSP16, literal(-9)))
        CFI V8 load(1, XDATA, add(CFA_XSP16, literal(-10)))
        CFI V7 load(1, XDATA, add(CFA_XSP16, literal(-11)))
        CFI V6 load(1, XDATA, add(CFA_XSP16, literal(-12)))
        CFI V5 load(1, XDATA, add(CFA_XSP16, literal(-13)))
        CFI V4 load(1, XDATA, add(CFA_XSP16, literal(-14)))
        CFI V3 load(1, XDATA, add(CFA_XSP16, literal(-15)))
        CFI V2 load(1, XDATA, add(CFA_XSP16, literal(-16)))
        CFI V1 load(1, XDATA, add(CFA_XSP16, literal(-17)))
        CFI V0 load(1, XDATA, add(CFA_XSP16, literal(-18)))
        CFI VB load(1, XDATA, add(CFA_XSP16, literal(-19)))
        CFI R6 load(1, XDATA, add(CFA_XSP16, literal(-20)))
        CFI CFA_SP SP+0
        CFI CFA_XSP16 add(XSP16, 20)
        ; Saved register size: 20
        ; Auto size: 0
//  749     uint8 *send_str;
//  750     uint8 send_count=0;
        MOV     ?V0 + 4,#0x0
//  751     send_count = 10+8;
        MOV     ?V0 + 4,#0x12
//  752     send_str = osal_mem_alloc(send_count);//申请数据缓存区
        ; Setup parameters for call to function osal_mem_alloc
        MOV     ?V0 + 0,?V0 + 4
        MOV     ?V0 + 1,#0x0
        MOV     R2,?V0 + 0
        MOV     R3,?V0 + 1
        LCALL   ??osal_mem_alloc?relay
        MOV     ?V0 + 0,R2
        MOV     ?V0 + 1,R3
        MOV     R6,?V0 + 0
        MOV     R7,?V0 + 1
//  753     
//  754     USER_SEND_ADD_STR(send_str);  //\添加固定帧头
        ; Setup parameters for call to function USER_SEND_ADD_STR
        MOV     A,R6
        MOV     R2,A
        MOV     A,R7
        MOV     R3,A
        LCALL   ??USER_SEND_ADD_STR?relay
//  755     
//  756     send_str[9]='/';
        MOV     DPL,R6
        MOV     DPH,R7
        INC     DPTR
        INC     DPTR
        INC     DPTR
        INC     DPTR
        INC     DPTR
        INC     DPTR
        INC     DPTR
        INC     DPTR
        INC     DPTR
        MOV     A,#0x2f
        MOVX    @DPTR,A
//  757     send_str[10]=9;
        MOV     DPL,R6
        MOV     DPH,R7
        INC     DPTR
        INC     DPTR
        INC     DPTR
        INC     DPTR
        INC     DPTR
        INC     DPTR
        INC     DPTR
        INC     DPTR
        INC     DPTR
        INC     DPTR
        MOV     A,#0x9
        MOVX    @DPTR,A
//  758     send_str[11]=IO_CTLA_SBIT;//插座1的通断状态
        MOV     C,0x90.5
        CLR     A
        RLC     A
        PUSH    A
        CFI CFA_SP SP+-1
        MOV     A,R6
        ADD     A,#0xb
        MOV     DPL,A
        MOV     A,R7
        ADDC    A,#0x0
        MOV     DPH,A
        POP     A
        CFI CFA_SP SP+0
        MOVX    @DPTR,A
//  759     send_str[12]=IO_CTLB_SBIT;//插座2的通断状态
        MOV     C,0x90.6
        CLR     A
        RLC     A
        PUSH    A
        CFI CFA_SP SP+-1
        MOV     A,R6
        ADD     A,#0xc
        MOV     DPL,A
        MOV     A,R7
        ADDC    A,#0x0
        MOV     DPH,A
        POP     A
        CFI CFA_SP SP+0
        MOVX    @DPTR,A
//  760     send_str[13]=P_Value_Now/256;//当前的功率值
        MOV     DPTR,#P_Value_Now
        MOV     R0,#?V0 + 0
        LCALL   ?L_MOV_X
        CLR     A
        MOV     A,?V0 + 1
        MOV     ?V0 + 0,A
        MOV     A,?V0 + 0
        MOV     A,R6
        ADD     A,#0xd
        MOV     DPL,A
        MOV     A,R7
        ADDC    A,#0x0
        MOV     DPH,A
        MOV     A,?V0 + 0
        MOVX    @DPTR,A
//  761     send_str[14]=P_Value_Now%256;  
        MOV     DPTR,#P_Value_Now
        MOV     R0,#?V0 + 8
        LCALL   ?L_MOV_X
        MOV     DPTR,#__Constant_100
        MOV     R0,#?V0 + 0
        LCALL   ?L_MOV_X
        MOV     R0,#?V0 + 8
        MOV     R1,#?V0 + 0
        LCALL   ?UL_DIV_MOD
        MOV     A,?V0 + 0
        MOV     A,R6
        ADD     A,#0xe
        MOV     DPL,A
        MOV     A,R7
        ADDC    A,#0x0
        MOV     DPH,A
        MOV     A,?V0 + 0
        MOVX    @DPTR,A
//  762     send_str[15]=(uint8)P_Value_energy>>16;
        MOV     A,R6
        ADD     A,#0xf
        MOV     DPL,A
        MOV     A,R7
        ADDC    A,#0x0
        MOV     DPH,A
        MOV     A,#0x0
        MOVX    @DPTR,A
//  763     send_str[16]=(uint8)P_Value_energy>>8;
        MOV     A,R6
        ADD     A,#0x10
        MOV     DPL,A
        MOV     A,R7
        ADDC    A,#0x0
        MOV     DPH,A
        MOV     A,#0x0
        MOVX    @DPTR,A
//  764     send_str[17]=(uint8)P_Value_energy;
        MOV     DPTR,#P_Value_energy
        MOV     R0,#?V0 + 0
        LCALL   ?L_MOV_X
        MOV     A,?V0 + 0
        MOV     A,R6
        ADD     A,#0x11
        MOV     DPL,A
        MOV     A,R7
        ADDC    A,#0x0
        MOV     DPH,A
        MOV     A,?V0 + 0
        MOVX    @DPTR,A
//  765     
//  766     
//  767     USER_APP_SEND_IN(send_count,send_str);//发送出数据
        ; Setup parameters for call to function USER_APP_SEND_IN
        MOV     A,R6
        MOV     R2,A
        MOV     A,R7
        MOV     R3,A
        MOV     R1,?V0 + 4
        LCALL   ??USER_APP_SEND_IN?relay
//  768     
//  769     osal_mem_free( send_str );//释放数据缓存区
        ; Setup parameters for call to function osal_mem_free
        MOV     A,R6
        MOV     R2,A
        MOV     A,R7
        MOV     R3,A
        LCALL   ??osal_mem_free?relay
//  770 }
        MOV     R7,#0xc
        LJMP    ?BANKED_LEAVE_XDATA
        CFI EndBlock cfiBlock8
        REQUIRE _A_P1
//  771 
//  772 /*******************************************************************************
//  773 * 函数名称: User_APP_Drive_init
//  774 * 函数功能: USER自行添加应用初始化的代码，如初始化外设等
//  775 * 入口参数: 无
//  776 * 出口参数: 无
//  777 * 备注说明: 无
//  778 ******************************************************************************/

        RSEG BANKED_CODE:CODE:NOROOT(0)
//  779 void User_APP_Drive_init(void)
User_APP_Drive_init:
        CFI Block cfiBlock9 Using cfiCommon0
        CFI Function User_APP_Drive_init
        CODE
//  780 {   
        FUNCALL User_APP_Drive_init, InitCS5463
        LOCFRAME ISTACK, 2, STACK
        LOCFRAME PSTACK, 0, STACK
        LOCFRAME XSTACK, 0, STACK
        LOCFRAME IOVERLAY, 0, STATIC
        LOCFRAME DOVERLAY, 0, STATIC
        ARGFRAME ISTACK, 2, STACK
        ARGFRAME PSTACK, 0, STACK
        ARGFRAME XSTACK, 0, STACK
        ARGFRAME IOVERLAY, 0, STATIC
        ARGFRAME DOVERLAY, 0, STATIC
        FUNCALL User_APP_Drive_init, ConfigCS5463
        LOCFRAME ISTACK, 2, STACK
        LOCFRAME PSTACK, 0, STACK
        LOCFRAME XSTACK, 0, STACK
        LOCFRAME IOVERLAY, 0, STATIC
        LOCFRAME DOVERLAY, 0, STATIC
        ARGFRAME ISTACK, 2, STACK
        ARGFRAME PSTACK, 0, STACK
        ARGFRAME XSTACK, 0, STACK
        ARGFRAME IOVERLAY, 0, STATIC
        ARGFRAME DOVERLAY, 0, STATIC
        FUNCALL User_APP_Drive_init, P_JiaoZhun_Process
        LOCFRAME ISTACK, 2, STACK
        LOCFRAME PSTACK, 0, STACK
        LOCFRAME XSTACK, 0, STACK
        LOCFRAME IOVERLAY, 0, STATIC
        LOCFRAME DOVERLAY, 0, STATIC
        ARGFRAME ISTACK, 2, STACK
        ARGFRAME PSTACK, 0, STACK
        ARGFRAME XSTACK, 0, STACK
        ARGFRAME IOVERLAY, 0, STATIC
        ARGFRAME DOVERLAY, 0, STATIC
        PUSH    DPL
        CFI DPL0 Frame(CFA_SP, 4)
        CFI CFA_SP SP+-4
        PUSH    DPH
        CFI DPH0 Frame(CFA_SP, 5)
        CFI CFA_SP SP+-5
        ; Saved register size: 2
        ; Auto size: 0
//  781     HAL_IO_CONFIG_INIT();
        ORL     0xfd,#0x10
        SETB    0x80.4
        ORL     0xfd,#0x2
        SETB    0x80.1
        ORL     0xfe,#0x80
        SETB    0x90.7
        ORL     0xfe,#0x20
        CLR     0x90.5
//  782     InitCS5463();//初始化CS5463
        ; Setup parameters for call to function InitCS5463
        LCALL   ??InitCS5463?relay
//  783     ConfigCS5463();//配置CS5463
        ; Setup parameters for call to function ConfigCS5463
        LCALL   ??ConfigCS5463?relay
//  784     P_JiaoZhun_Process();
        ; Setup parameters for call to function P_JiaoZhun_Process
        LCALL   ??P_JiaoZhun_Process?relay
//  785     P1DIR |= 0Xc0;//P1.7 ---led3
        ORL     0xfe,#0xc0
//  786     
//  787     //确保继电器和LED均处于关闭状态；
//  788     P1_6 = 1;
        SETB    0x90.6
//  789     P1_7 = 1;
        SETB    0x90.7
//  790     P1_5 = 1;
        SETB    0x90.5
//  791     P0_1 = 1;
        SETB    0x80.1
//  792 }
        POP     DPH
        CFI DPH0 SameValue
        CFI CFA_SP SP+-4
        POP     DPL
        CFI DPL0 SameValue
        CFI CFA_SP SP+-3
        LJMP    ?BRET
        CFI EndBlock cfiBlock9
        REQUIRE P0DIR
        REQUIRE _A_P0
        REQUIRE P1DIR
        REQUIRE _A_P1
//  793 
//  794 

        RSEG BANKED_CODE:CODE:NOROOT(0)
//  795 uint8 READ_NETKEY() //读取入网状态按键的状态传递到应用层
READ_NETKEY:
        CFI Block cfiBlock10 Using cfiCommon0
        CFI Function READ_NETKEY
        CODE
//  796 {
        ; Saved register size: 0
        ; Auto size: 0
//  797     return HAL_PUSH_BUTTON3();
        MOV     C,0x90.2
        CLR     A
        RLC     A
        MOV     R1,A
        LJMP    ?BRET
        CFI EndBlock cfiBlock10
        REQUIRE _A_P1
//  798 }
//  799 
//  800 
//  801 
//  802 /*
//  803 mode 0 关
//  804 1 开
//  805 2 切换
//  806 */

        RSEG BANKED_CODE:CODE:NOROOT(0)
//  807 void LED_CHANGE(uint8 Position,uint8 Mode)// 设置LED函数
LED_CHANGE:
        CFI Block cfiBlock11 Using cfiCommon0
        CFI Function LED_CHANGE
        CODE
//  808 {
        ; Saved register size: 0
        ; Auto size: 0
//  809     switch (Position )
        MOV     A,R1
        DEC     A
        JZ      ??LED_CHANGE_0
        DEC     A
        JZ      ??LED_CHANGE_1
        ADD     A,#-0x2
        JZ      ??LED_CHANGE_2
        SJMP    ??LED_CHANGE_3
//  810     {
//  811         case HAL_LED_1:      
//  812         {
//  813             if(Mode==0 || Mode==1)
??LED_CHANGE_0:
        MOV     A,R2
        JZ      ??LED_CHANGE_4
        MOV     A,#0x1
        XRL     A,R2
        JNZ     ??LED_CHANGE_5
//  814             {
//  815                 LED1_SBIT = LED1_POLARITY(Mode);
??LED_CHANGE_4:
        MOV     A,R2
        JNZ     ??LED_CHANGE_6
        MOV     R0,#0x1
        SJMP    ??LED_CHANGE_7
??LED_CHANGE_6:
        MOV     R0,#0x0
??LED_CHANGE_7:
        MOV     A,R0
        MOV     C,0xE0 /* A   */.0
        MOV     0x80.4,C
        SJMP    ??LED_CHANGE_3
//  816             }
//  817             else if(Mode==2)
??LED_CHANGE_5:
        MOV     A,#0x2
        XRL     A,R2
        JNZ     ??LED_CHANGE_3
//  818             {
//  819                 if (LED1_SBIT) 
        MOV     C,0x80.4
        JNC     ??LED_CHANGE_8
//  820                 { 
//  821                     LED1_SBIT = 0; 
        CLR     0x80.4
        SJMP    ??LED_CHANGE_3
//  822                 } 
//  823                 else 
//  824                 { 
//  825                     LED1_SBIT = 1;
??LED_CHANGE_8:
        SETB    0x80.4
//  826                 } 
//  827             }
//  828         }   
//  829         break;     
        SJMP    ??LED_CHANGE_3
//  830         
//  831         case HAL_LED_2:      
//  832         {
//  833             if(Mode==0||Mode==1)
??LED_CHANGE_1:
        MOV     A,R2
        JZ      ??LED_CHANGE_9
        MOV     A,#0x1
        XRL     A,R2
        JNZ     ??LED_CHANGE_10
//  834             {
//  835                 LED2_SBIT = LED2_POLARITY(Mode);
??LED_CHANGE_9:
        MOV     A,R2
        JNZ     ??LED_CHANGE_11
        MOV     R0,#0x1
        SJMP    ??LED_CHANGE_12
??LED_CHANGE_11:
        MOV     R0,#0x0
??LED_CHANGE_12:
        MOV     A,R0
        MOV     C,0xE0 /* A   */.0
        MOV     0x80.1,C
        SJMP    ??LED_CHANGE_3
//  836             }
//  837             else if(Mode==2)
??LED_CHANGE_10:
        MOV     A,#0x2
        XRL     A,R2
        JNZ     ??LED_CHANGE_3
//  838             {
//  839                 if (LED1_SBIT) 
        MOV     C,0x80.4
        JNC     ??LED_CHANGE_13
//  840                 { 
//  841                     LED2_SBIT = 0; 
        CLR     0x80.1
        SJMP    ??LED_CHANGE_3
//  842                 } 
//  843                 else 
//  844                 { 
//  845                     LED2_SBIT = 1;
??LED_CHANGE_13:
        SETB    0x80.1
//  846                 } 
//  847             }
//  848         }   
//  849         break;     
        SJMP    ??LED_CHANGE_3
//  850         
//  851         case HAL_LED_3:      
//  852         {
//  853             if(Mode==0 || Mode==1)
??LED_CHANGE_2:
        MOV     A,R2
        JZ      ??LED_CHANGE_14
        MOV     A,#0x1
        XRL     A,R2
        JNZ     ??LED_CHANGE_15
//  854             {
//  855                 LED3_SBIT = LED3_POLARITY(Mode);
??LED_CHANGE_14:
        MOV     A,R2
        JNZ     ??LED_CHANGE_16
        MOV     R0,#0x1
        SJMP    ??LED_CHANGE_17
??LED_CHANGE_16:
        MOV     R0,#0x0
??LED_CHANGE_17:
        MOV     A,R0
        MOV     C,0xE0 /* A   */.0
        MOV     0x90.7,C
        SJMP    ??LED_CHANGE_3
//  856             }
//  857             else if(Mode==2)
??LED_CHANGE_15:
        MOV     A,#0x2
        XRL     A,R2
        JNZ     ??LED_CHANGE_3
//  858             {
//  859                 if (LED3_SBIT) 
        MOV     C,0x90.7
        JNC     ??LED_CHANGE_18
//  860                 { 
//  861                     LED3_SBIT = 0; 
        CLR     0x90.7
        SJMP    ??LED_CHANGE_3
//  862                 } 
//  863                 else 
//  864                 { 
//  865                     LED3_SBIT = 1;
??LED_CHANGE_18:
        SETB    0x90.7
//  866                 } 
//  867             }
//  868         }   
//  869         break;     
//  870         
//  871         default:
//  872         break;
//  873     }
//  874     
//  875 }
??LED_CHANGE_3:
        LJMP    ?BRET
        CFI EndBlock cfiBlock11
        REQUIRE _A_P0
        REQUIRE _A_P1
//  876 
//  877 

        RSEG BANKED_CODE:CODE:NOROOT(0)
//  878 void USER_ZDO_JOINING_MSG(void)
USER_ZDO_JOINING_MSG:
        CFI Block cfiBlock12 Using cfiCommon0
        CFI Function USER_ZDO_JOINING_MSG
        CODE
//  879 {
        FUNCALL USER_ZDO_JOINING_MSG, HalLedBlink
        LOCFRAME ISTACK, 2, STACK
        LOCFRAME PSTACK, 0, STACK
        LOCFRAME XSTACK, 0, STACK
        LOCFRAME IOVERLAY, 0, STATIC
        LOCFRAME DOVERLAY, 0, STATIC
        ARGFRAME ISTACK, 2, STACK
        ARGFRAME PSTACK, 0, STACK
        ARGFRAME XSTACK, 0, STACK
        ARGFRAME IOVERLAY, 0, STATIC
        ARGFRAME DOVERLAY, 0, STATIC
        PUSH    DPL
        CFI DPL0 Frame(CFA_SP, 4)
        CFI CFA_SP SP+-4
        PUSH    DPH
        CFI DPH0 Frame(CFA_SP, 5)
        CFI CFA_SP SP+-5
        ; Saved register size: 2
        ; Auto size: 0
//  880     HalLedBlink ( HAL_LED_1, 1, 30, 500 );
        ; Setup parameters for call to function HalLedBlink
        MOV     R4,#-0xc
        MOV     R5,#0x1
        MOV     R3,#0x1e
        MOV     R2,#0x1
        MOV     R1,#0x1
        LCALL   ??HalLedBlink?relay
//  881 }
        POP     DPH
        CFI DPH0 SameValue
        CFI CFA_SP SP+-4
        POP     DPL
        CFI DPL0 SameValue
        CFI CFA_SP SP+-3
        LJMP    ?BRET
        CFI EndBlock cfiBlock12
//  882 
//  883 

        RSEG BANKED_CODE:CODE:NOROOT(0)
//  884 void SampleAPP_ProcessZDOMsgs( zdoIncomingMsg_t *inMsg )
SampleAPP_ProcessZDOMsgs:
        CFI Block cfiBlock13 Using cfiCommon0
        CFI Function SampleAPP_ProcessZDOMsgs
        CODE
//  885 {
        FUNCALL SampleAPP_ProcessZDOMsgs, HalLedBlink
        LOCFRAME ISTACK, 0, STACK
        LOCFRAME PSTACK, 0, STACK
        LOCFRAME XSTACK, 9, STACK
        LOCFRAME IOVERLAY, 0, STATIC
        LOCFRAME DOVERLAY, 0, STATIC
        ARGFRAME ISTACK, 0, STACK
        ARGFRAME PSTACK, 0, STACK
        ARGFRAME XSTACK, 9, STACK
        ARGFRAME IOVERLAY, 0, STATIC
        ARGFRAME DOVERLAY, 0, STATIC
        FUNCALL SampleAPP_ProcessZDOMsgs, HalLedBlink
        LOCFRAME ISTACK, 0, STACK
        LOCFRAME PSTACK, 0, STACK
        LOCFRAME XSTACK, 9, STACK
        LOCFRAME IOVERLAY, 0, STATIC
        LOCFRAME DOVERLAY, 0, STATIC
        ARGFRAME ISTACK, 0, STACK
        ARGFRAME PSTACK, 0, STACK
        ARGFRAME XSTACK, 9, STACK
        ARGFRAME IOVERLAY, 0, STATIC
        ARGFRAME DOVERLAY, 0, STATIC
        MOV     A,#-0x9
        LCALL   ?BANKED_ENTER_XDATA
        CFI DPH0 load(1, XDATA, add(CFA_XSP16, literal(-1)))
        CFI DPL0 load(1, XDATA, add(CFA_XSP16, literal(-2)))
        CFI ?BRET_EXT load(1, XDATA, add(CFA_XSP16, literal(-3)))
        CFI ?RET_HIGH load(1, XDATA, add(CFA_XSP16, literal(-4)))
        CFI ?RET_LOW load(1, XDATA, add(CFA_XSP16, literal(-5)))
        CFI R7 load(1, XDATA, add(CFA_XSP16, literal(-6)))
        CFI V0 load(1, XDATA, add(CFA_XSP16, literal(-7)))
        CFI VB load(1, XDATA, add(CFA_XSP16, literal(-8)))
        CFI R6 load(1, XDATA, add(CFA_XSP16, literal(-9)))
        CFI CFA_SP SP+0
        CFI CFA_XSP16 add(XSP16, 9)
        ; Saved register size: 9
        ; Auto size: 0
        MOV     A,R2
        MOV     R6,A
        MOV     A,R3
        MOV     R7,A
//  886     
//  887     switch ( inMsg->clusterID )
        MOV     A,R6
        ADD     A,#0xc
        MOV     DPL,A
        MOV     A,R7
        ADDC    A,#0x0
        MOV     DPH,A
        MOVX    A,@DPTR
        XRL     A,#0x20
        JNZ     ??SampleAPP_ProcessZDOMsgs_0
        INC     DPTR
        MOVX    A,@DPTR
        XRL     A,#0x80
??SampleAPP_ProcessZDOMsgs_0:
        JNZ     ??SampleAPP_ProcessZDOMsgs_1
//  888     {
//  889         case End_Device_Bind_rsp:
//  890         if ( ZDO_ParseBindRsp( inMsg ) == ZSuccess )
        MOV     A,R6
        ADD     A,#0x13
        MOV     DPL,A
        MOV     A,R7
        ADDC    A,#0x0
        MOV     DPH,A
        MOVX    A,@DPTR
        MOV     R0,A
        INC     DPTR
        MOVX    A,@DPTR
        MOV     DPH,A
        MOV     DPL,R0
        MOVX    A,@DPTR
        JNZ     ??SampleAPP_ProcessZDOMsgs_2
//  891         {
//  892             // Light LED
//  893             HalLedBlink ( HAL_LED_1, 3, 50, 1000 );
        ; Setup parameters for call to function HalLedBlink
        MOV     R4,#-0x18
        MOV     R5,#0x3
        MOV     R3,#0x32
        MOV     R2,#0x3
        MOV     R1,#0x1
        LCALL   ??HalLedBlink?relay
        SJMP    ??SampleAPP_ProcessZDOMsgs_1
//  894         }
//  895 #if defined(BLINK_LEDS)
//  896         else
//  897         {
//  898             HalLedBlink ( HAL_LED_1, 6, 50, 500 );
??SampleAPP_ProcessZDOMsgs_2:
        ; Setup parameters for call to function HalLedBlink
        MOV     R4,#-0xc
        MOV     R5,#0x1
        MOV     R3,#0x32
        MOV     R2,#0x6
        MOV     R1,#0x1
        LCALL   ??HalLedBlink?relay
//  899         }
//  900 #endif
//  901         break;
//  902     }
//  903     
//  904 }
??SampleAPP_ProcessZDOMsgs_1:
        MOV     R7,#0x1
        LJMP    ?BANKED_LEAVE_XDATA
        CFI EndBlock cfiBlock13
//  905 
//  906 
//  907 
//  908 
//  909 
//  910 
//  911 /*****************************************************************************/
//  912 /*************************************用户函数********************************/
//  913 /*******************************************************************************
//  914 * 函数名称: CS5463_Send_PWER
//  915 * 函数功能: 每两秒钟读一次功率数据，并判断是否需要上传
//  916 * 入口参数: 无
//  917 * 出口参数: 无
//  918 * 备注说明: 无
//  919 ******************************************************************************/

        RSEG BANKED_CODE:CODE:NOROOT(0)
//  920 uint8 CS5463_Send_PWER(void)
CS5463_Send_PWER:
        CFI Block cfiBlock14 Using cfiCommon0
        CFI Function CS5463_Send_PWER
        CODE
//  921 {
        FUNCALL CS5463_Send_PWER, GetCurrentIrms
        LOCFRAME ISTACK, 0, STACK
        LOCFRAME PSTACK, 0, STACK
        LOCFRAME XSTACK, 24, STACK
        LOCFRAME IOVERLAY, 0, STATIC
        LOCFRAME DOVERLAY, 0, STATIC
        ARGFRAME ISTACK, 0, STACK
        ARGFRAME PSTACK, 0, STACK
        ARGFRAME XSTACK, 24, STACK
        ARGFRAME IOVERLAY, 0, STATIC
        ARGFRAME DOVERLAY, 0, STATIC
        FUNCALL CS5463_Send_PWER, GetPactive
        LOCFRAME ISTACK, 0, STACK
        LOCFRAME PSTACK, 0, STACK
        LOCFRAME XSTACK, 24, STACK
        LOCFRAME IOVERLAY, 0, STATIC
        LOCFRAME DOVERLAY, 0, STATIC
        ARGFRAME ISTACK, 0, STACK
        ARGFRAME PSTACK, 0, STACK
        ARGFRAME XSTACK, 24, STACK
        ARGFRAME IOVERLAY, 0, STATIC
        ARGFRAME DOVERLAY, 0, STATIC
        FUNCALL CS5463_Send_PWER, SampleApp_SendInMessage
        LOCFRAME ISTACK, 0, STACK
        LOCFRAME PSTACK, 0, STACK
        LOCFRAME XSTACK, 16, STACK
        LOCFRAME IOVERLAY, 0, STATIC
        LOCFRAME DOVERLAY, 0, STATIC
        ARGFRAME ISTACK, 0, STACK
        ARGFRAME PSTACK, 0, STACK
        ARGFRAME XSTACK, 16, STACK
        ARGFRAME IOVERLAY, 0, STATIC
        ARGFRAME DOVERLAY, 0, STATIC
        FUNCALL CS5463_Send_PWER, SampleApp_SendInMessage
        LOCFRAME ISTACK, 0, STACK
        LOCFRAME PSTACK, 0, STACK
        LOCFRAME XSTACK, 16, STACK
        LOCFRAME IOVERLAY, 0, STATIC
        LOCFRAME DOVERLAY, 0, STATIC
        ARGFRAME ISTACK, 0, STACK
        ARGFRAME PSTACK, 0, STACK
        ARGFRAME XSTACK, 16, STACK
        ARGFRAME IOVERLAY, 0, STATIC
        ARGFRAME DOVERLAY, 0, STATIC
        MOV     A,#-0x10
        LCALL   ?BANKED_ENTER_XDATA
        CFI DPH0 load(1, XDATA, add(CFA_XSP16, literal(-1)))
        CFI DPL0 load(1, XDATA, add(CFA_XSP16, literal(-2)))
        CFI ?BRET_EXT load(1, XDATA, add(CFA_XSP16, literal(-3)))
        CFI ?RET_HIGH load(1, XDATA, add(CFA_XSP16, literal(-4)))
        CFI ?RET_LOW load(1, XDATA, add(CFA_XSP16, literal(-5)))
        CFI R7 load(1, XDATA, add(CFA_XSP16, literal(-6)))
        CFI V7 load(1, XDATA, add(CFA_XSP16, literal(-7)))
        CFI V6 load(1, XDATA, add(CFA_XSP16, literal(-8)))
        CFI V5 load(1, XDATA, add(CFA_XSP16, literal(-9)))
        CFI V4 load(1, XDATA, add(CFA_XSP16, literal(-10)))
        CFI V3 load(1, XDATA, add(CFA_XSP16, literal(-11)))
        CFI V2 load(1, XDATA, add(CFA_XSP16, literal(-12)))
        CFI V1 load(1, XDATA, add(CFA_XSP16, literal(-13)))
        CFI V0 load(1, XDATA, add(CFA_XSP16, literal(-14)))
        CFI VB load(1, XDATA, add(CFA_XSP16, literal(-15)))
        CFI R6 load(1, XDATA, add(CFA_XSP16, literal(-16)))
        CFI CFA_SP SP+0
        CFI CFA_XSP16 add(XSP16, 16)
        ; Saved register size: 16
        ; Auto size: 0
//  922     I_Value_Now = GetCurrentIrms(1,10000,0);//读取电流值
        ; Setup parameters for call to function GetCurrentIrms
        MOV     DPTR,#__Constant_0
        LCALL   ?PUSH_XSTACK8_X_FOUR
        CFI CFA_XSP16 add(XSP16, 20)
        MOV     DPTR,#__Constant_2710
        LCALL   ?PUSH_XSTACK8_X_FOUR
        CFI CFA_XSP16 add(XSP16, 24)
        MOV     DPTR,#__Constant_3f800000
        LCALL   ?XLOAD_R2345
        LCALL   ??GetCurrentIrms?relay
        MOV     A,#0x8
        LCALL   ?DEALLOC_XSTACK8
        CFI CFA_XSP16 add(XSP16, 16)
        MOV     DPTR,#I_Value_Now
        LCALL   ?XSTORE_R2345
//  923     if(I_Value_Now > 100)//0.01A
        MOV     DPTR,#I_Value_Now
        PUSH    DPL
        CFI CFA_SP SP+-1
        PUSH    DPH
        CFI CFA_SP SP+-2
        MOV     DPTR,#__Constant_65
        MOV     R0,#?V0 + 0
        LCALL   ?L_MOV_X
        POP     DPH
        CFI CFA_SP SP+-1
        POP     DPL
        CFI CFA_SP SP+0
        MOV     R0,#?V0 + 0
        LCALL   ?UL_GT_X
        JNC     $+5
        LJMP    ??CS5463_Send_PWER_0 & 0xFFFF
//  924     {
//  925         P_Value = GetPactive(1.0, 10000, 0);//获取有功功率
        ; Setup parameters for call to function GetPactive
        MOV     DPTR,#__Constant_0
        LCALL   ?PUSH_XSTACK8_X_FOUR
        CFI CFA_XSP16 add(XSP16, 20)
        MOV     DPTR,#__Constant_2710
        LCALL   ?PUSH_XSTACK8_X_FOUR
        CFI CFA_XSP16 add(XSP16, 24)
        MOV     DPTR,#__Constant_3f800000
        LCALL   ?XLOAD_R2345
        LCALL   ??GetPactive?relay
        MOV     A,#0x8
        LCALL   ?DEALLOC_XSTACK8
        CFI CFA_XSP16 add(XSP16, 16)
        MOV     DPTR,#P_Value
        LCALL   ?XSTORE_R2345
//  926         P_Value_Now = (uint32)(P_Value*1.2);//*12000/10000得到最终的有效的功率值
        MOV     DPTR,#P_Value
        MOV     R0,#?V0 + 0
        LCALL   ?L_MOV_X
        MOV     R0,#?V0 + 0
        LCALL   ?UL_TO_FLT
        MOV     DPTR,#__Constant_3f99999a
        MOV     R0,#?V0 + 4
        LCALL   ?L_MOV_X
        MOV     R0,#?V0 + 0
        MOV     R1,#?V0 + 4
        LCALL   ?FLT_MUL
        MOV     R0,#?V0 + 0
        LCALL   ?FLT_TO_UL
        MOV     DPTR,#P_Value_Now
        MOV     R0,#?V0 + 0
        LCALL   ?L_MOV_TO_X
//  927         P_Value_Now = (float)P_Value_Now * P_Value_Bili_Temp;	
        MOV     DPTR,#P_Value_Now
        MOV     R0,#?V0 + 0
        LCALL   ?L_MOV_X
        MOV     R0,#?V0 + 0
        LCALL   ?UL_TO_FLT
        MOV     DPTR,#P_Value_Bili_Temp
        MOV     R0,#?V0 + 4
        LCALL   ?L_MOV_X
        MOV     R0,#?V0 + 0
        MOV     R1,#?V0 + 4
        LCALL   ?FLT_MUL
        MOV     R0,#?V0 + 0
        LCALL   ?FLT_TO_UL
        MOV     DPTR,#P_Value_Now
        MOV     R0,#?V0 + 0
        LCALL   ?L_MOV_TO_X
//  928         
//  929         if(P_Value_Now > P_Value_jiaozhun_Temp)
        MOV     DPTR,#P_Value_jiaozhun_Temp
        MOVX    A,@DPTR
        MOV     ?V0 + 0,A
        INC     DPTR
        MOVX    A,@DPTR
        MOV     ?V0 + 1,A
        CLR     A
        MOV     ?V0 + 2,A
        MOV     ?V0 + 3,A
        MOV     DPTR,#P_Value_Now
        MOV     R0,#?V0 + 0
        LCALL   ?UL_GE_X
        JC      ??CS5463_Send_PWER_1
//  930         {
//  931             P_Value_Now -= P_Value_jiaozhun_Temp ;//去除校准值
        MOV     DPTR,#P_Value_jiaozhun_Temp
        MOVX    A,@DPTR
        MOV     ?V0 + 0,A
        INC     DPTR
        MOVX    A,@DPTR
        MOV     ?V0 + 1,A
        CLR     A
        MOV     ?V0 + 2,A
        MOV     ?V0 + 3,A
        MOV     DPTR,#P_Value_Now
        MOV     R0,#?V0 + 0
        LCALL   ?L_SUB_FROM_X
//  932             if((P_Value_Now >0)  &&  (P_Value_Now < 16))
        MOV     DPTR,#P_Value_Now
        MOV     R0,#?V0 + 0
        LCALL   ?L_MOV_X
        MOV     A,?V0 + 0
        ORL     A,?V0 + 1
        ORL     A,?V0 + 2
        ORL     A,?V0 + 3
        JZ      ??CS5463_Send_PWER_2
        MOV     DPTR,#P_Value_Now
        PUSH    DPL
        CFI CFA_SP SP+-1
        PUSH    DPH
        CFI CFA_SP SP+-2
        MOV     DPTR,#__Constant_10
        MOV     R0,#?V0 + 0
        LCALL   ?L_MOV_X
        POP     DPH
        CFI CFA_SP SP+-1
        POP     DPL
        CFI CFA_SP SP+0
        MOV     R0,#?V0 + 0
        LCALL   ?UL_GT_X
        JNC     ??CS5463_Send_PWER_2
//  933             {
//  934                 P_Value_Now -= 1;
        MOV     DPTR,#__Constant_ffffffff
        MOV     R0,#?V0 + 0
        LCALL   ?L_MOV_X
        MOV     DPTR,#P_Value_Now
        MOV     R0,#?V0 + 0
        LCALL   ?L_ADD_TO_X
        SJMP    ??CS5463_Send_PWER_2
//  935             }
//  936         }
//  937         else
//  938         {
//  939             P_Value_Now = 0;//小于校准值，则判断其应为0W
??CS5463_Send_PWER_1:
        MOV     DPTR,#__Constant_0
        LCALL   ?XLOAD_R2345
        MOV     DPTR,#P_Value_Now
        LCALL   ?XSTORE_R2345
        SJMP    ??CS5463_Send_PWER_2
//  940         }
//  941         
//  942     }
//  943     else
//  944     {
//  945         P_Value_Now = 0;
??CS5463_Send_PWER_0:
        MOV     DPTR,#__Constant_0
        LCALL   ?XLOAD_R2345
        MOV     DPTR,#P_Value_Now
        LCALL   ?XSTORE_R2345
//  946     }  
//  947     
//  948     
//  949     if(P_Value_Now<10)
??CS5463_Send_PWER_2:
        MOV     DPTR,#P_Value_Now
        PUSH    DPL
        CFI CFA_SP SP+-1
        PUSH    DPH
        CFI CFA_SP SP+-2
        MOV     DPTR,#__Constant_a
        MOV     R0,#?V0 + 0
        LCALL   ?L_MOV_X
        POP     DPH
        CFI CFA_SP SP+-1
        POP     DPL
        CFI CFA_SP SP+0
        MOV     R0,#?V0 + 0
        LCALL   ?UL_GT_X
        JNC     ??CS5463_Send_PWER_3
//  950     {
//  951         P_Value_Distance = 1;
        MOV     DPTR,#P_Value_Distance
        MOV     A,#0x1
        MOVX    @DPTR,A
        INC     DPTR
        MOV     A,#0x0
        MOVX    @DPTR,A
        SJMP    ??CS5463_Send_PWER_4
//  952     }
//  953     else if(P_Value_Now<100)
??CS5463_Send_PWER_3:
        MOV     DPTR,#P_Value_Now
        PUSH    DPL
        CFI CFA_SP SP+-1
        PUSH    DPH
        CFI CFA_SP SP+-2
        MOV     DPTR,#__Constant_64
        MOV     R0,#?V0 + 0
        LCALL   ?L_MOV_X
        POP     DPH
        CFI CFA_SP SP+-1
        POP     DPL
        CFI CFA_SP SP+0
        MOV     R0,#?V0 + 0
        LCALL   ?UL_GT_X
        JNC     ??CS5463_Send_PWER_5
//  954     {
//  955         P_Value_Distance = 10;
        MOV     DPTR,#P_Value_Distance
        MOV     A,#0xa
        MOVX    @DPTR,A
        INC     DPTR
        MOV     A,#0x0
        MOVX    @DPTR,A
        SJMP    ??CS5463_Send_PWER_4
//  956     }
//  957     else if(P_Value_Now < 500)
??CS5463_Send_PWER_5:
        MOV     DPTR,#P_Value_Now
        PUSH    DPL
        CFI CFA_SP SP+-1
        PUSH    DPH
        CFI CFA_SP SP+-2
        MOV     DPTR,#__Constant_1f4
        MOV     R0,#?V0 + 0
        LCALL   ?L_MOV_X
        POP     DPH
        CFI CFA_SP SP+-1
        POP     DPL
        CFI CFA_SP SP+0
        MOV     R0,#?V0 + 0
        LCALL   ?UL_GT_X
        JNC     ??CS5463_Send_PWER_6
//  958     {
//  959         P_Value_Distance = 50;
        MOV     DPTR,#P_Value_Distance
        MOV     A,#0x32
        MOVX    @DPTR,A
        INC     DPTR
        MOV     A,#0x0
        MOVX    @DPTR,A
        SJMP    ??CS5463_Send_PWER_4
//  960     }
//  961     else
//  962     {
//  963         P_Value_Distance = 100;
??CS5463_Send_PWER_6:
        MOV     DPTR,#P_Value_Distance
        MOV     A,#0x64
        MOVX    @DPTR,A
        INC     DPTR
        MOV     A,#0x0
        MOVX    @DPTR,A
//  964     }
//  965     
//  966     Total_P_Value_Temp += P_Value_Now * 2;//2s的功率w.s  以W.S为单位
??CS5463_Send_PWER_4:
        MOV     DPTR,#P_Value_Now
        MOV     R0,#?V0 + 0
        LCALL   ?L_MOV_X
        MOV     DPTR,#__Constant_2
        MOV     R0,#?V0 + 4
        LCALL   ?L_MOV_X
        MOV     R0,#?V0 + 0
        MOV     R1,#?V0 + 4
        LCALL   ?L_MUL
        MOV     DPTR,#Total_P_Value_Temp
        MOV     R0,#?V0 + 0
        LCALL   ?L_ADD_TO_X
//  967     if(Total_P_Value_Temp >= 3600)//电量累计
        MOV     DPTR,#Total_P_Value_Temp
        PUSH    DPL
        CFI CFA_SP SP+-1
        PUSH    DPH
        CFI CFA_SP SP+-2
        MOV     DPTR,#__Constant_e10
        MOV     R0,#?V0 + 0
        LCALL   ?L_MOV_X
        POP     DPH
        CFI CFA_SP SP+-1
        POP     DPL
        CFI CFA_SP SP+0
        MOV     R0,#?V0 + 0
        LCALL   ?UL_GT_X
        JC      ??CS5463_Send_PWER_7
//  968     {
//  969         Total_P_Value_Temp -= 3600;//3600W.S = 1 W.H
        MOV     DPTR,#__Constant_fffff1f0
        MOV     R0,#?V0 + 0
        LCALL   ?L_MOV_X
        MOV     DPTR,#Total_P_Value_Temp
        MOV     R0,#?V0 + 0
        LCALL   ?L_ADD_TO_X
//  970         P_Value_energy++;
        MOV     DPTR,#__Constant_1
        MOV     R0,#?V0 + 0
        LCALL   ?L_MOV_X
        MOV     DPTR,#P_Value_energy
        MOV     R0,#?V0 + 0
        LCALL   ?L_ADD_TO_X
//  971         if(P_Value_energy >= 16000000)P_Value_energy = 16000000;
        MOV     DPTR,#P_Value_energy
        PUSH    DPL
        CFI CFA_SP SP+-1
        PUSH    DPH
        CFI CFA_SP SP+-2
        MOV     DPTR,#__Constant_f42400
        MOV     R0,#?V0 + 0
        LCALL   ?L_MOV_X
        POP     DPH
        CFI CFA_SP SP+-1
        POP     DPL
        CFI CFA_SP SP+0
        MOV     R0,#?V0 + 0
        LCALL   ?UL_GT_X
        JC      ??CS5463_Send_PWER_7
        MOV     DPTR,#__Constant_f42400
        LCALL   ?XLOAD_R2345
        MOV     DPTR,#P_Value_energy
        LCALL   ?XSTORE_R2345
//  972     }
//  973     
//  974     
//  975     if(P_Value_Now > P_Protect_Value)//超过500W就关闭继电器
??CS5463_Send_PWER_7:
        MOV     DPTR,#P_Protect_Value
        PUSH    DPL
        CFI CFA_SP SP+-1
        PUSH    DPH
        CFI CFA_SP SP+-2
        MOV     DPTR,#P_Value_Now
        MOV     R0,#?V0 + 0
        LCALL   ?L_MOV_X
        POP     DPH
        CFI CFA_SP SP+-1
        POP     DPL
        CFI CFA_SP SP+0
        MOV     R0,#?V0 + 0
        LCALL   ?UL_GT_X
        JNC     ??CS5463_Send_PWER_8
//  976     {       	
//  977         SampleApp_SendInMessage();//上报当前功率值  
        ; Setup parameters for call to function SampleApp_SendInMessage
        LCALL   ??SampleApp_SendInMessage?relay
//  978         return 1;
        MOV     R1,#0x1
        SJMP    ??CS5463_Send_PWER_9
//  979     }
//  980     else if(P_Value_Now > P_Value_Pre + P_Value_Distance)//超过【上次汇报】过的数据一定的数值就上报
??CS5463_Send_PWER_8:
        MOV     DPTR,#P_Value_Pre
        PUSH    DPL
        CFI CFA_SP SP+-1
        PUSH    DPH
        CFI CFA_SP SP+-2
        MOV     DPTR,#P_Value_Distance
        MOVX    A,@DPTR
        MOV     ?V0 + 0,A
        INC     DPTR
        MOVX    A,@DPTR
        MOV     ?V0 + 1,A
        CLR     A
        MOV     ?V0 + 2,A
        MOV     ?V0 + 3,A
        POP     DPH
        CFI CFA_SP SP+-1
        POP     DPL
        CFI CFA_SP SP+0
        MOV     R0,#?V0 + 0
        LCALL   ?L_ADD_X
        MOV     DPTR,#P_Value_Now
        MOV     R0,#?V0 + 0
        LCALL   ?UL_GE_X
        JC      ??CS5463_Send_PWER_10
//  981     {        
//  982         P_Value_Pre = P_Value_Now;//保存这一次发送的数值
        MOV     DPTR,#P_Value_Now
        LCALL   ?XLOAD_R2345
        MOV     DPTR,#P_Value_Pre
        LCALL   ?XSTORE_R2345
//  983         SampleApp_SendInMessage();
        ; Setup parameters for call to function SampleApp_SendInMessage
        LCALL   ??SampleApp_SendInMessage?relay
//  984         return 1;
        MOV     R1,#0x1
        SJMP    ??CS5463_Send_PWER_9
//  985     }
//  986     
//  987     return 0;
??CS5463_Send_PWER_10:
        MOV     R1,#0x0
??CS5463_Send_PWER_9:
        MOV     R7,#0x8
        LJMP    ?BANKED_LEAVE_XDATA
        CFI EndBlock cfiBlock14
//  988 }
//  989 
//  990 /*******************************************************************************
//  991 * 函数名称: P_JiaoZhun_Process
//  992 * 函数功能: 功率校准值初始化
//  993 * 入口参数: 无
//  994 * 出口参数: 无
//  995 * 备注说明: 无
//  996 ******************************************************************************/

        RSEG BANKED_CODE:CODE:NOROOT(0)
//  997 void P_JiaoZhun_Process(void)
P_JiaoZhun_Process:
        CFI Block cfiBlock15 Using cfiCommon0
        CFI Function P_JiaoZhun_Process
        CODE
//  998 {	
        FUNCALL P_JiaoZhun_Process, osal_nv_item_init
        LOCFRAME ISTACK, 0, STACK
        LOCFRAME PSTACK, 0, STACK
        LOCFRAME XSTACK, 18, STACK
        LOCFRAME IOVERLAY, 0, STATIC
        LOCFRAME DOVERLAY, 0, STATIC
        ARGFRAME ISTACK, 0, STACK
        ARGFRAME PSTACK, 0, STACK
        ARGFRAME XSTACK, 18, STACK
        ARGFRAME IOVERLAY, 0, STATIC
        ARGFRAME DOVERLAY, 0, STATIC
        FUNCALL P_JiaoZhun_Process, osal_nv_read
        LOCFRAME ISTACK, 0, STACK
        LOCFRAME PSTACK, 0, STACK
        LOCFRAME XSTACK, 20, STACK
        LOCFRAME IOVERLAY, 0, STATIC
        LOCFRAME DOVERLAY, 0, STATIC
        ARGFRAME ISTACK, 0, STACK
        ARGFRAME PSTACK, 0, STACK
        ARGFRAME XSTACK, 20, STACK
        ARGFRAME IOVERLAY, 0, STATIC
        ARGFRAME DOVERLAY, 0, STATIC
        MOV     A,#-0x10
        LCALL   ?BANKED_ENTER_XDATA
        CFI DPH0 load(1, XDATA, add(CFA_XSP16, literal(-1)))
        CFI DPL0 load(1, XDATA, add(CFA_XSP16, literal(-2)))
        CFI ?BRET_EXT load(1, XDATA, add(CFA_XSP16, literal(-3)))
        CFI ?RET_HIGH load(1, XDATA, add(CFA_XSP16, literal(-4)))
        CFI ?RET_LOW load(1, XDATA, add(CFA_XSP16, literal(-5)))
        CFI R7 load(1, XDATA, add(CFA_XSP16, literal(-6)))
        CFI V7 load(1, XDATA, add(CFA_XSP16, literal(-7)))
        CFI V6 load(1, XDATA, add(CFA_XSP16, literal(-8)))
        CFI V5 load(1, XDATA, add(CFA_XSP16, literal(-9)))
        CFI V4 load(1, XDATA, add(CFA_XSP16, literal(-10)))
        CFI V3 load(1, XDATA, add(CFA_XSP16, literal(-11)))
        CFI V2 load(1, XDATA, add(CFA_XSP16, literal(-12)))
        CFI V1 load(1, XDATA, add(CFA_XSP16, literal(-13)))
        CFI V0 load(1, XDATA, add(CFA_XSP16, literal(-14)))
        CFI VB load(1, XDATA, add(CFA_XSP16, literal(-15)))
        CFI R6 load(1, XDATA, add(CFA_XSP16, literal(-16)))
        CFI CFA_SP SP+0
        CFI CFA_XSP16 add(XSP16, 16)
        ; Saved register size: 16
        ; Auto size: 0
//  999     osal_nv_item_init(CS5463_JIAOZHUN_NV_FLAG, 10, CS5463_STR);  
        ; Setup parameters for call to function osal_nv_item_init
        MOV     ?V0 + 0,#CS5463_STR & 0xff
        MOV     ?V0 + 1,#(CS5463_STR >> 8) & 0xff
        MOV     R0,#?V0 + 0
        LCALL   ?PUSH_XSTACK_I_TWO
        CFI CFA_XSP16 add(XSP16, 18)
        MOV     R4,#0xa
        MOV     R5,#0x0
        MOV     R2,#0x20
        MOV     R3,#0x4
        LCALL   ??osal_nv_item_init?relay
        MOV     A,#0x2
        LCALL   ?DEALLOC_XSTACK8
        CFI CFA_XSP16 add(XSP16, 16)
        MOV     A,R1
// 1000     osal_nv_read(CS5463_JIAOZHUN_NV_FLAG, 0, 10,   CS5463_STR);
        ; Setup parameters for call to function osal_nv_read
        MOV     ?V0 + 0,#CS5463_STR & 0xff
        MOV     ?V0 + 1,#(CS5463_STR >> 8) & 0xff
        MOV     R0,#?V0 + 0
        LCALL   ?PUSH_XSTACK_I_TWO
        CFI CFA_XSP16 add(XSP16, 18)
        MOV     ?V0 + 0,#0xa
        MOV     ?V0 + 1,#0x0
        MOV     R0,#?V0 + 0
        LCALL   ?PUSH_XSTACK_I_TWO
        CFI CFA_XSP16 add(XSP16, 20)
        MOV     R4,#0x0
        MOV     R5,#0x0
        MOV     R2,#0x20
        MOV     R3,#0x4
        LCALL   ??osal_nv_read?relay
        MOV     A,#0x4
        LCALL   ?DEALLOC_XSTACK8
        CFI CFA_XSP16 add(XSP16, 16)
        MOV     A,R1
// 1001     
// 1002     if(CS5463_STR[0] == 11)//如果已经保存了校准值，则直接读取已经保存的校准值
        MOV     DPTR,#CS5463_STR
        MOVX    A,@DPTR
        XRL     A,#0xb
        JZ      $+5
        LJMP    ??P_JiaoZhun_Process_0 & 0xFFFF
// 1003     {
// 1004         
// 1005         P_Value_Bili_Temp = (float)((uint16)CS5463_STR[3] << 8 | (uint16)CS5463_STR[4]) / 1000;//存储的时候*1000
        MOV     DPTR,#CS5463_STR + 3
        MOVX    A,@DPTR
        MOV     R0,A
        MOV     R1,#0x0
        CLR     A
        XCH     A,R0
        MOV     R1,A
        MOV     DPTR,#CS5463_STR + 4
        MOVX    A,@DPTR
        MOV     R2,A
        MOV     R3,#0x0
        MOV     A,R0
        ORL     A,R2
        MOV     ?V0 + 0,A
        MOV     A,R1
        ORL     A,R3
        MOV     ?V0 + 1,A
        CLR     A
        MOV     ?V0 + 2,A
        MOV     ?V0 + 3,A
        MOV     R0,#?V0 + 0
        LCALL   ?UL_TO_FLT
        MOV     DPTR,#__Constant_447a0000
        MOV     R0,#?V0 + 4
        LCALL   ?L_MOV_X
        MOV     R0,#?V0 + 0
        MOV     R1,#?V0 + 4
        LCALL   ?FLT_DIV
        MOV     DPTR,#P_Value_Bili_Temp
        MOV     R0,#?V0 + 0
        LCALL   ?L_MOV_TO_X
// 1006         P_Value_jiaozhun_Temp = (uint16)CS5463_STR[1] << 8 | (uint16)CS5463_STR[2];
        MOV     DPTR,#CS5463_STR + 1
        MOVX    A,@DPTR
        MOV     R0,A
        MOV     R1,#0x0
        CLR     A
        XCH     A,R0
        MOV     R1,A
        MOV     DPTR,#CS5463_STR + 2
        MOVX    A,@DPTR
        MOV     R2,A
        MOV     R3,#0x0
        MOV     A,R0
        ORL     A,R2
        MOV     R0,A
        MOV     A,R1
        ORL     A,R3
        MOV     R1,A
        MOV     DPTR,#P_Value_jiaozhun_Temp
        MOV     A,R0
        MOVX    @DPTR,A
        INC     DPTR
        MOV     A,R1
        MOVX    @DPTR,A
// 1007         I_Value_Bili_Temp = (float)((uint16)CS5463_STR[7] << 8 | (uint16)CS5463_STR[8]) / 1000;//存储的时候*1000
        MOV     DPTR,#CS5463_STR + 7
        MOVX    A,@DPTR
        MOV     R0,A
        MOV     R1,#0x0
        CLR     A
        XCH     A,R0
        MOV     R1,A
        MOV     DPTR,#CS5463_STR + 8
        MOVX    A,@DPTR
        MOV     R2,A
        MOV     R3,#0x0
        MOV     A,R0
        ORL     A,R2
        MOV     ?V0 + 0,A
        MOV     A,R1
        ORL     A,R3
        MOV     ?V0 + 1,A
        CLR     A
        MOV     ?V0 + 2,A
        MOV     ?V0 + 3,A
        MOV     R0,#?V0 + 0
        LCALL   ?UL_TO_FLT
        MOV     DPTR,#__Constant_447a0000
        MOV     R0,#?V0 + 4
        LCALL   ?L_MOV_X
        MOV     R0,#?V0 + 0
        MOV     R1,#?V0 + 4
        LCALL   ?FLT_DIV
        MOV     DPTR,#I_Value_Bili_Temp
        MOV     R0,#?V0 + 0
        LCALL   ?L_MOV_TO_X
// 1008         I_Value_jiaozhun_Temp = (uint16)CS5463_STR[5] << 8 | (uint16)CS5463_STR[6];
        MOV     DPTR,#CS5463_STR + 5
        MOVX    A,@DPTR
        MOV     R0,A
        MOV     R1,#0x0
        CLR     A
        XCH     A,R0
        MOV     R1,A
        MOV     DPTR,#CS5463_STR + 6
        MOVX    A,@DPTR
        MOV     R2,A
        MOV     R3,#0x0
        MOV     A,R0
        ORL     A,R2
        MOV     R0,A
        MOV     A,R1
        ORL     A,R3
        MOV     R1,A
        MOV     DPTR,#I_Value_jiaozhun_Temp
        MOV     A,R0
        MOVX    @DPTR,A
        INC     DPTR
        MOV     A,R1
        MOVX    @DPTR,A
        SJMP    ??P_JiaoZhun_Process_1
// 1009         
// 1010     }
// 1011     else//如果没有保存校准值，则直接使用默认校准值
// 1012     {
// 1013         P_Value_Bili_Temp = 1.0;
??P_JiaoZhun_Process_0:
        MOV     DPTR,#__Constant_3f800000
        LCALL   ?XLOAD_R2345
        MOV     DPTR,#P_Value_Bili_Temp
        LCALL   ?XSTORE_R2345
// 1014         P_Value_jiaozhun_Temp = 0;	
        MOV     DPTR,#P_Value_jiaozhun_Temp
        MOV     A,#0x0
        MOVX    @DPTR,A
        INC     DPTR
        MOV     A,#0x0
        MOVX    @DPTR,A
// 1015         I_Value_Bili_Temp = 0;
        MOV     DPTR,#__Constant_0
        LCALL   ?XLOAD_R2345
        MOV     DPTR,#I_Value_Bili_Temp
        LCALL   ?XSTORE_R2345
// 1016         I_Value_jiaozhun_Temp = 0;
        MOV     DPTR,#I_Value_jiaozhun_Temp
        MOV     A,#0x0
        MOVX    @DPTR,A
        INC     DPTR
        MOV     A,#0x0
        MOVX    @DPTR,A
// 1017     }
// 1018 }
??P_JiaoZhun_Process_1:
        MOV     R7,#0x8
        LJMP    ?BANKED_LEAVE_XDATA
        CFI EndBlock cfiBlock15

        RSEG XDATA_ID:CODE:NOROOT(0)
`?<Initializer for USER_SampleApp_ClusterList>`:
        DATA16
        DW 1
        DW 2
        DW 3
        DW 4
        DW 5
        DW 6
        DW 7
        DW 8
        DW 0
        DW 0
        DW 0
        DW 0
        DW 0

        RSEG XDATA_ID:CODE:NOROOT(0)
`?<Initializer for SampleApp_SimpleDesc1>`:
        DATA8
        DB 21
        DATA16
        DW 3848
        DW 1
        DATA8
        DB 0
        DB 13
        DATA16
        DW USER_SampleApp_ClusterList
        DATA8
        DB 13
        DATA16
        DW USER_SampleApp_ClusterList

        RSEG XDATA_ID:CODE:NOROOT(0)
`?<Initializer for SampleApp_SimpleDesc2>`:
        DATA8
        DB 22
        DATA16
        DW 3848
        DW 1
        DATA8
        DB 0
        DB 13
        DATA16
        DW USER_SampleApp_ClusterList
        DATA8
        DB 13
        DATA16
        DW USER_SampleApp_ClusterList

        RSEG XDATA_ID:CODE:NOROOT(0)
`?<Initializer for USER_bindingINClusters>`:
        DATA16
        DW 1

        RSEG XDATA_ID:CODE:NOROOT(0)
`?<Initializer for P_Protect_Value>`:
        DATA32
        DD 10

        RSEG XDATA_ID:CODE:NOROOT(0)
`?<Initializer for P_Value_Distance>`:
        DATA16
        DW 100

        RSEG XDATA_ID:CODE:NOROOT(0)
`?<Initializer for P_Value_Bili_Temp>`:
        DATA32
        DD 3F800000H

        RSEG XDATA_ID:CODE:NOROOT(0)
`?<Initializer for I_Value_Bili_Temp>`:
        DATA32
        DD 3F800000H

        RSEG XDATA_ROM_C:CONST:REORDER:NOROOT(0)
        DATA32
__Constant_447a0000:
        DD 447A0000H

        RSEG XDATA_ROM_C:CONST:REORDER:NOROOT(0)
        DATA32
__Constant_100:
        DD 256

        RSEG XDATA_ROM_C:CONST:REORDER:NOROOT(0)
        DATA32
__Constant_0:
        DD 0

        RSEG XDATA_ROM_C:CONST:REORDER:NOROOT(0)
        DATA32
__Constant_2710:
        DD 10000

        RSEG XDATA_ROM_C:CONST:REORDER:NOROOT(0)
        DATA32
__Constant_3f800000:
        DD 3F800000H

        RSEG XDATA_ROM_C:CONST:REORDER:NOROOT(0)
        DATA32
__Constant_3f99999a:
        DD 3F99999AH

        RSEG XDATA_ROM_C:CONST:REORDER:NOROOT(0)
        DATA32
__Constant_3e9:
        DD 1001

        RSEG XDATA_ROM_C:CONST:REORDER:NOROOT(0)
        DATA32
__Constant_17:
        DD 23

        RSEG XDATA_ROM_C:CONST:REORDER:NOROOT(0)
        DATA32
__Constant_13881:
        DD 80001

        RSEG XDATA_ROM_C:CONST:REORDER:NOROOT(0)
        DATA32
__Constant_13880:
        DD 80000

        RSEG XDATA_ROM_C:CONST:REORDER:NOROOT(0)
        DATA32
__Constant_6e1:
        DD 1761

        RSEG XDATA_ROM_C:CONST:REORDER:NOROOT(0)
        DATA32
__Constant_44dc0000:
        DD 44DC0000H

        RSEG XDATA_ROM_C:CONST:REORDER:NOROOT(0)
        DATA32
__Constant_65:
        DD 101

        RSEG XDATA_ROM_C:CONST:REORDER:NOROOT(0)
        DATA32
__Constant_10:
        DD 16

        RSEG XDATA_ROM_C:CONST:REORDER:NOROOT(0)
        DATA32
__Constant_ffffffff:
        DD 4294967295

        RSEG XDATA_ROM_C:CONST:REORDER:NOROOT(0)
        DATA32
__Constant_a:
        DD 10

        RSEG XDATA_ROM_C:CONST:REORDER:NOROOT(0)
        DATA32
__Constant_64:
        DD 100

        RSEG XDATA_ROM_C:CONST:REORDER:NOROOT(0)
        DATA32
__Constant_1f4:
        DD 500

        RSEG XDATA_ROM_C:CONST:REORDER:NOROOT(0)
        DATA32
__Constant_2:
        DD 2

        RSEG XDATA_ROM_C:CONST:REORDER:NOROOT(0)
        DATA32
__Constant_e10:
        DD 3600

        RSEG XDATA_ROM_C:CONST:REORDER:NOROOT(0)
        DATA32
__Constant_fffff1f0:
        DD 4294963696

        RSEG XDATA_ROM_C:CONST:REORDER:NOROOT(0)
        DATA32
__Constant_1:
        DD 1

        RSEG XDATA_ROM_C:CONST:REORDER:NOROOT(0)
        DATA32
__Constant_f42400:
        DD 16000000

        RSEG BANK_RELAYS:CODE:REORDER:NOROOT(0)
??USER_AFTER_RS_MSG?relay:
        LCALL   ?BDISPATCH
        DATA
        DC24    USER_AFTER_RS_MSG

        RSEG BANK_RELAYS:CODE:REORDER:NOROOT(0)
??UserApp_Init?relay:
        LCALL   ?BDISPATCH
        DATA
        DC24    UserApp_Init

        RSEG BANK_RELAYS:CODE:REORDER:NOROOT(0)
??UserApp_ProcessEvent?relay:
        LCALL   ?BDISPATCH
        DATA
        DC24    UserApp_ProcessEvent

        RSEG BANK_RELAYS:CODE:REORDER:NOROOT(0)
??SampleApp_HandleKeys?relay:
        LCALL   ?BDISPATCH
        DATA
        DC24    SampleApp_HandleKeys

        RSEG BANK_RELAYS:CODE:REORDER:NOROOT(0)
??SampleApp_ProcessBINDINGMessage?relay:
        LCALL   ?BDISPATCH
        DATA
        DC24    SampleApp_ProcessBINDINGMessage

        RSEG BANK_RELAYS:CODE:REORDER:NOROOT(0)
??USER_APP_JOIN_MSG?relay:
        LCALL   ?BDISPATCH
        DATA
        DC24    USER_APP_JOIN_MSG

        RSEG BANK_RELAYS:CODE:REORDER:NOROOT(0)
??USER_APP_COMMAND?relay:
        LCALL   ?BDISPATCH
        DATA
        DC24    USER_APP_COMMAND

        RSEG BANK_RELAYS:CODE:REORDER:NOROOT(0)
??USER_SET_RS_MSG?relay:
        LCALL   ?BDISPATCH
        DATA
        DC24    USER_SET_RS_MSG

        RSEG BANK_RELAYS:CODE:REORDER:NOROOT(0)
??SampleApp_SendInMessage?relay:
        LCALL   ?BDISPATCH
        DATA
        DC24    SampleApp_SendInMessage

        RSEG BANK_RELAYS:CODE:REORDER:NOROOT(0)
??User_APP_Drive_init?relay:
        LCALL   ?BDISPATCH
        DATA
        DC24    User_APP_Drive_init

        RSEG BANK_RELAYS:CODE:REORDER:NOROOT(0)
??READ_NETKEY?relay:
        LCALL   ?BDISPATCH
        DATA
        DC24    READ_NETKEY

        RSEG BANK_RELAYS:CODE:REORDER:NOROOT(0)
??LED_CHANGE?relay:
        LCALL   ?BDISPATCH
        DATA
        DC24    LED_CHANGE

        RSEG BANK_RELAYS:CODE:REORDER:NOROOT(0)
??USER_ZDO_JOINING_MSG?relay:
        LCALL   ?BDISPATCH
        DATA
        DC24    USER_ZDO_JOINING_MSG

        RSEG BANK_RELAYS:CODE:REORDER:NOROOT(0)
??SampleAPP_ProcessZDOMsgs?relay:
        LCALL   ?BDISPATCH
        DATA
        DC24    SampleAPP_ProcessZDOMsgs

        RSEG BANK_RELAYS:CODE:REORDER:NOROOT(0)
??CS5463_Send_PWER?relay:
        LCALL   ?BDISPATCH
        DATA
        DC24    CS5463_Send_PWER

        RSEG BANK_RELAYS:CODE:REORDER:NOROOT(0)
??P_JiaoZhun_Process?relay:
        LCALL   ?BDISPATCH
        DATA
        DC24    P_JiaoZhun_Process

        END
// 1019 
// 1020 
// 1021 
// 1022 /**********************************END OF FILE********************************/
// 1023 /*****************************************************************************/
// 1024 
// 1025 
// 1026 
// 1027 
// 1028 
// 1029 
// 1030 
// 1031 
// 1032 
// 1033 
// 1034 
// 
// 5 246 bytes in segment BANKED_CODE
//    96 bytes in segment BANK_RELAYS
//     4 bytes in segment SFR_AN
//    66 bytes in segment XDATA_I
//    66 bytes in segment XDATA_ID
//    92 bytes in segment XDATA_ROM_C
//    81 bytes in segment XDATA_Z
// 
// 5 408 bytes of CODE  memory
//     0 bytes of CONST memory (+ 92 bytes shared)
//     0 bytes of DATA  memory (+  4 bytes shared)
//   147 bytes of XDATA memory
//
//Errors: none
//Warnings: 6
