///////////////////////////////////////////////////////////////////////////////
//                                                                            /
// IAR C/C++ Compiler V8.10.1.10194/W32 for 8051        08/Feb/2015  17:42:00 /
// Copyright 2004-2011 IAR Systems AB.                                        /
//                                                                            /
//    Core               =  plain                                             /
//    Code model         =  banked                                            /
//    Data model         =  large                                             /
//    Calling convention =  xdata reentrant                                   /
//    Constant location  =  data_rom                                          /
//    Dptr setup         =  1,16                                              /
//    Source file        =  D:\RE_1_2_0_FORMAL_APP(251)-14-12-8\Projects\zsta /
//                          ck\ZMain\TI2530DB\OnBoard.c                       /
//    Command line       =  -f "D:\RE_1_2_0_FORMAL_APP(251)-14-12-8\Projects\ /
//                          zstack\Samples\SampleApp\CC2530DB\..\..\..\Tools\ /
//                          CC2530DB\f8wRouter.cfg" (-DCPU32MHZ               /
//                          -DROOT=__near_func -DMAC_CFG_APP_PENDING_QUEUE=TR /
//                          UE -DMAC_CFG_TX_DATA_MAX=5 -DMAC_CFG_TX_MAX=8     /
//                          -DMAC_CFG_RX_MAX=5 -DRTR_NWK) -f                  /
//                          "D:\RE_1_2_0_FORMAL_APP(251)-14-12-8\Projects\zst /
//                          ack\Samples\SampleApp\CC2530DB\..\..\..\Tools\CC2 /
//                          530DB\f8wConfig.cfg" (-DZIGBEEPRO -DSECURE=1      /
//                          -DZG_SECURE_DYNAMIC=0 -DREFLECTOR                 /
//                          -DZDAPP_CONFIG_PAN_ID=0xFFFF                      /
//                          -DNWK_START_DELAY=100 -DEXTENDED_JOINING_RANDOM_M /
//                          ASK=0x007F -DBEACON_REQUEST_DELAY=100             /
//                          -DBEACON_REQ_DELAY_MASK=0x00FF                    /
//                          -DLINK_STATUS_JITTER_MASK=0x007F                  /
//                          -DROUTE_EXPIRY_TIME=30 -DAPSC_ACK_WAIT_DURATION_P /
//                          OLLED=3000 -DNWK_INDIRECT_MSG_TIMEOUT=60          /
//                          -DMAX_RREQ_ENTRIES=8 -DAPSC_MAX_FRAME_RETRIES=3   /
//                          -DNWK_MAX_DATA_RETRIES=2                          /
//                          -DMAX_POLL_FAILURE_RETRIES=2 -DMAX_BCAST=9        /
//                          -DAPS_MAX_GROUPS=16 -DMAX_RTG_ENTRIES=30          /
//                          -DNWK_MAX_BINDING_ENTRIES=10                      /
//                          -DMAX_BINDING_CLUSTER_IDS=4 -DASSERT_RESET        /
//                          -DMAC_MAX_FRAME_SIZE=116                          /
//                          -DZDNWKMGR_MIN_TRANSMISSIONS=20 "-DCONST=const    /
//                          __code" -DGENERIC=__generic                       /
//                          -DRFD_RCVC_ALWAYS_ON=FALSE -DPOLL_RATE=8000       /
//                          -DQUEUED_POLL_RATE=100 -DRESPONSE_POLL_RATE=1000) /
//                           -DREJOIN_POLL_RATE=440                           /
//                          "D:\RE_1_2_0_FORMAL_APP(251)-14-12-8\Projects\zst /
//                          ack\ZMain\TI2530DB\OnBoard.c" -D NV_INIT -D       /
//                          NV_RESTORE -D HOLD_AUTO_START -D MT_TASK -D       /
//                          MT_APP_FUNC -D MT_SYS_FUNC -D MT_ZDO_FUNC -D      /
//                          MT_ZDO_MGMT -D ISR_KEYINTERRUPT -D WDT_IN_PM1 -D  /
//                          xOSC32K_CRYSTAL_INSTALLED=0 -D xLARGER_NETWORK    /
//                          -D POWER_PA -D EN_WALL_SOKET -lC                  /
//                          "D:\RE_1_2_0_FORMAL_APP(251)-14-12-8\Projects\zst /
//                          ack\Samples\SampleApp\CC2530DB\EN_WALL_SOKET_ROUT /
//                          ER\List\" -lA "D:\RE_1_2_0_FORMAL_APP(251)-14-12- /
//                          8\Projects\zstack\Samples\SampleApp\CC2530DB\EN_W /
//                          ALL_SOKET_ROUTER\List\" --diag_suppress           /
//                          Pe001,Pa010 -o "D:\RE_1_2_0_FORMAL_APP(251)-14-12 /
//                          -8\Projects\zstack\Samples\SampleApp\CC2530DB\EN_ /
//                          WALL_SOKET_ROUTER\Obj\" -e --no_cse --no_unroll   /
//                          --no_inline --no_code_motion --no_tbaa --debug    /
//                          --core=plain --dptr=16,1 --data_model=large       /
//                          --code_model=banked --calling_convention=xdata_re /
//                          entrant --place_constants=data_rom                /
//                          --nr_virtual_regs 16 -I                           /
//                          "D:\RE_1_2_0_FORMAL_APP(251)-14-12-8\Projects\zst /
//                          ack\Samples\SampleApp\CC2530DB\" -I               /
//                          "D:\RE_1_2_0_FORMAL_APP(251)-14-12-8\Projects\zst /
//                          ack\Samples\SampleApp\CC2530DB\..\Source\" -I     /
//                          "D:\RE_1_2_0_FORMAL_APP(251)-14-12-8\Projects\zst /
//                          ack\Samples\SampleApp\CC2530DB\..\Source\EN_WALL_ /
//                          SOKET_device\" -I "D:\RE_1_2_0_FORMAL_APP(251)-14 /
//                          -12-8\Projects\zstack\Samples\SampleApp\CC2530DB\ /
//                          ..\..\..\ZMain\TI2530DB\" -I                      /
//                          "D:\RE_1_2_0_FORMAL_APP(251)-14-12-8\Projects\zst /
//                          ack\Samples\SampleApp\CC2530DB\..\..\..\..\..\Com /
//                          ponents\hal\include\" -I                          /
//                          "D:\RE_1_2_0_FORMAL_APP(251)-14-12-8\Projects\zst /
//                          ack\Samples\SampleApp\CC2530DB\..\..\..\..\..\Com /
//                          ponents\hal\target\CC2530EB\" -I                  /
//                          "D:\RE_1_2_0_FORMAL_APP(251)-14-12-8\Projects\zst /
//                          ack\Samples\SampleApp\CC2530DB\..\..\..\..\..\Com /
//                          ponents\mac\include\" -I                          /
//                          "D:\RE_1_2_0_FORMAL_APP(251)-14-12-8\Projects\zst /
//                          ack\Samples\SampleApp\CC2530DB\..\..\..\..\..\Com /
//                          ponents\mac\high_level\" -I                       /
//                          "D:\RE_1_2_0_FORMAL_APP(251)-14-12-8\Projects\zst /
//                          ack\Samples\SampleApp\CC2530DB\..\..\..\..\..\Com /
//                          ponents\mac\low_level\srf04\" -I                  /
//                          "D:\RE_1_2_0_FORMAL_APP(251)-14-12-8\Projects\zst /
//                          ack\Samples\SampleApp\CC2530DB\..\..\..\..\..\Com /
//                          ponents\mac\low_level\srf04\single_chip\" -I      /
//                          "D:\RE_1_2_0_FORMAL_APP(251)-14-12-8\Projects\zst /
//                          ack\Samples\SampleApp\CC2530DB\..\..\..\..\..\Com /
//                          ponents\mt\" -I "D:\RE_1_2_0_FORMAL_APP(251)-14-1 /
//                          2-8\Projects\zstack\Samples\SampleApp\CC2530DB\.. /
//                          \..\..\..\..\Components\osal\include\" -I         /
//                          "D:\RE_1_2_0_FORMAL_APP(251)-14-12-8\Projects\zst /
//                          ack\Samples\SampleApp\CC2530DB\..\..\..\..\..\Com /
//                          ponents\services\saddr\" -I                       /
//                          "D:\RE_1_2_0_FORMAL_APP(251)-14-12-8\Projects\zst /
//                          ack\Samples\SampleApp\CC2530DB\..\..\..\..\..\Com /
//                          ponents\services\sdata\" -I                       /
//                          "D:\RE_1_2_0_FORMAL_APP(251)-14-12-8\Projects\zst /
//                          ack\Samples\SampleApp\CC2530DB\..\..\..\..\..\Com /
//                          ponents\stack\af\" -I "D:\RE_1_2_0_FORMAL_APP(251 /
//                          )-14-12-8\Projects\zstack\Samples\SampleApp\CC253 /
//                          0DB\..\..\..\..\..\Components\stack\nwk\" -I      /
//                          "D:\RE_1_2_0_FORMAL_APP(251)-14-12-8\Projects\zst /
//                          ack\Samples\SampleApp\CC2530DB\..\..\..\..\..\Com /
//                          ponents\stack\sapi\" -I                           /
//                          "D:\RE_1_2_0_FORMAL_APP(251)-14-12-8\Projects\zst /
//                          ack\Samples\SampleApp\CC2530DB\..\..\..\..\..\Com /
//                          ponents\stack\sec\" -I "D:\RE_1_2_0_FORMAL_APP(25 /
//                          1)-14-12-8\Projects\zstack\Samples\SampleApp\CC25 /
//                          30DB\..\..\..\..\..\Components\stack\sys\" -I     /
//                          "D:\RE_1_2_0_FORMAL_APP(251)-14-12-8\Projects\zst /
//                          ack\Samples\SampleApp\CC2530DB\..\..\..\..\..\Com /
//                          ponents\stack\zdo\" -I "D:\RE_1_2_0_FORMAL_APP(25 /
//                          1)-14-12-8\Projects\zstack\Samples\SampleApp\CC25 /
//                          30DB\..\..\..\..\..\Components\zmac\" -I          /
//                          "D:\RE_1_2_0_FORMAL_APP(251)-14-12-8\Projects\zst /
//                          ack\Samples\SampleApp\CC2530DB\..\..\..\..\..\Com /
//                          ponents\zmac\f8w\" -On --require_prototypes       /
//    List file          =  D:\RE_1_2_0_FORMAL_APP(251)-14-12-8\Projects\zsta /
//                          ck\Samples\SampleApp\CC2530DB\EN_WALL_SOKET_ROUTE /
//                          R\List\OnBoard.s51                                /
//                                                                            /
//                                                                            /
///////////////////////////////////////////////////////////////////////////////

        NAME OnBoard

        RTMODEL "__SystemLibrary", "CLib"
        RTMODEL "__calling_convention", "xdata_reentrant"
        RTMODEL "__code_model", "banked"
        RTMODEL "__core", "plain"
        RTMODEL "__data_model", "large"
        RTMODEL "__dptr_size", "16"
        RTMODEL "__extended_stack", "disabled"
        RTMODEL "__location_for_constants", "data"
        RTMODEL "__number_of_dptrs", "1"
        RTMODEL "__rt_version", "1"

        RSEG DOVERLAY:DATA:NOROOT(0)
        RSEG IOVERLAY:IDATA:NOROOT(0)
        RSEG ISTACK:IDATA:NOROOT(0)
        RSEG PSTACK:XDATA:NOROOT(0)
        RSEG XSTACK:DATA:REORDER:NOROOT(0)

        EXTERN ?ALLOC_XSTACK8
        EXTERN ?BANKED_ENTER_XDATA
        EXTERN ?BANKED_LEAVE_XDATA
        EXTERN ?BDISPATCH
        EXTERN ?BRET
        EXTERN ?DEALLOC_XSTACK8
        EXTERN ?US_DIV_MOD
        EXTERN ?V0
        EXTERN ?XSP
        EXTERN __INIT_XDATA_I
        EXTERN __INIT_XDATA_Z

        PUBLIC ??BigLight_Off?relay
        FUNCTION ??BigLight_Off?relay,0203H
        PUBLIC ??BigLight_On?relay
        FUNCTION ??BigLight_On?relay,0203H
        PUBLIC ??BuzzerControl?relay
        FUNCTION ??BuzzerControl?relay,0203H
        FUNCTION ??ChkReset?relay,0203H
        PUBLIC ??Dimmer?relay
        FUNCTION ??Dimmer?relay,0203H
        PUBLIC ??GetUserDipSw?relay
        FUNCTION ??GetUserDipSw?relay,0203H
        PUBLIC ??InitBoard?relay
        FUNCTION ??InitBoard?relay,0203H
        PUBLIC ??OnBoard_KeyCallback?relay
        FUNCTION ??OnBoard_KeyCallback?relay,0203H
        PUBLIC ??OnBoard_SendKeys?relay
        FUNCTION ??OnBoard_SendKeys?relay,0203H
        PUBLIC ??OnBoard_stack_used?relay
        FUNCTION ??OnBoard_stack_used?relay,0203H
        PUBLIC ??Onboard_rand?relay
        FUNCTION ??Onboard_rand?relay,0203H
        PUBLIC ??Onboard_wait?relay
        FUNCTION ??Onboard_wait?relay,0203H
        PUBLIC ??RegisterForKeys?relay
        FUNCTION ??RegisterForKeys?relay,0203H
        PUBLIC ??_itoa?relay
        FUNCTION ??_itoa?relay,0203H
        PUBLIC BigLight_Off
        FUNCTION BigLight_Off,0203H
        ARGFRAME XSTACK, 0, STACK
        PUBLIC BigLight_On
        FUNCTION BigLight_On,0203H
        ARGFRAME XSTACK, 0, STACK
        PUBLIC BuzzerControl
        FUNCTION BuzzerControl,0203H
        ARGFRAME XSTACK, 0, STACK
        FUNCTION ChkReset,021203H
        ARGFRAME XSTACK, 9, STACK
        ARGFRAME IOVERLAY, 0, STATIC
        ARGFRAME DOVERLAY, 0, STATIC
        LOCFRAME XSTACK, 9, STACK
        PUBWEAK DMAARM
        PUBLIC Dimmer
        FUNCTION Dimmer,0203H
        ARGFRAME XSTACK, 0, STACK
        PUBLIC GetUserDipSw
        FUNCTION GetUserDipSw,0203H
        ARGFRAME XSTACK, 0, STACK
        PUBLIC InitBoard
        FUNCTION InitBoard,021203H
        ARGFRAME XSTACK, 0, STACK
        LOCFRAME XSTACK, 9, STACK
        PUBLIC OnBoard_KeyCallback
        FUNCTION OnBoard_KeyCallback,021603H
        ARGFRAME XSTACK, 0, STACK
        LOCFRAME XSTACK, 9, STACK
        PUBLIC OnBoard_SendKeys
        FUNCTION OnBoard_SendKeys,021203H
        ARGFRAME XSTACK, 9, STACK
        ARGFRAME IOVERLAY, 0, STATIC
        ARGFRAME DOVERLAY, 0, STATIC
        LOCFRAME ISTACK, 1, STACK
        LOCFRAME XSTACK, 12, STACK
        PUBLIC OnBoard_stack_used
        FUNCTION OnBoard_stack_used,0203H
        ARGFRAME XSTACK, 0, STACK
        LOCFRAME ISTACK, 2, STACK
        PUBLIC Onboard_rand
        FUNCTION Onboard_rand,021203H
        ARGFRAME XSTACK, 0, STACK
        LOCFRAME ISTACK, 2, STACK
        PUBLIC Onboard_soft_reset
        FUNCTION Onboard_soft_reset,080203H
        ARGFRAME XSTACK, 0, STACK
        PUBLIC Onboard_wait
        FUNCTION Onboard_wait,080203H
        ARGFRAME XSTACK, 0, STACK
        PUBLIC RegisterForKeys
        FUNCTION RegisterForKeys,0203H
        ARGFRAME XSTACK, 0, STACK
        LOCFRAME ISTACK, 2, STACK
        PUBWEAK SLEEPSTA
        PUBWEAK _A_IEN0
        PUBLIC _itoa
        FUNCTION _itoa,0203H
        ARGFRAME XSTACK, 0, STACK
        LOCFRAME ISTACK, 1, STACK
        LOCFRAME XSTACK, 20, STACK
        PUBLIC _lockBits
        PUBLIC _nvIEEE
        PUBLIC _reserved
        PUBLIC aExtendedAddress
        
        CFI Names cfiNames0
        CFI StackFrame CFA_SP SP IDATA
        CFI StackFrame CFA_PSP16 PSP16 XDATA
        CFI StackFrame CFA_XSP16 XSP16 XDATA
        CFI StaticOverlayFrame CFA_IOVERLAY IOVERLAY
        CFI StaticOverlayFrame CFA_DOVERLAY DOVERLAY
        CFI Resource `PSW.CY`:1, `B.BR0`:1, `B.BR1`:1, `B.BR2`:1, `B.BR3`:1
        CFI Resource `B.BR4`:1, `B.BR5`:1, `B.BR6`:1, `B.BR7`:1, `VB.BR8`:1
        CFI Resource `VB.BR9`:1, `VB.BR10`:1, `VB.BR11`:1, `VB.BR12`:1
        CFI Resource `VB.BR13`:1, `VB.BR14`:1, `VB.BR15`:1, VB:8, B:8, A:8
        CFI Resource PSW:8, DPL0:8, DPH0:8, R0:8, R1:8, R2:8, R3:8, R4:8, R5:8
        CFI Resource R6:8, R7:8, V0:8, V1:8, V2:8, V3:8, V4:8, V5:8, V6:8, V7:8
        CFI Resource V8:8, V9:8, V10:8, V11:8, V12:8, V13:8, V14:8, V15:8, SP:8
        CFI Resource PSPH:8, PSPL:8, PSP16:16, XSPH:8, XSPL:8, XSP16:16
        CFI VirtualResource ?RET:24
        CFI Resource ?BRET_EXT:8
        CFI VirtualResource ?RET_HIGH:8, ?RET_LOW:8
        CFI ResourceParts PSP16 PSPH, PSPL
        CFI ResourceParts XSP16 XSPH, XSPL
        CFI ResourceParts ?RET ?BRET_EXT, ?RET_HIGH, ?RET_LOW
        CFI EndNames cfiNames0
        
        CFI Common cfiCommon0 Using cfiNames0
        CFI CodeAlign 1
        CFI DataAlign -1
        CFI ReturnAddress ?RET CODE
        CFI CFA_DOVERLAY Used
        CFI CFA_IOVERLAY Used
        CFI CFA_SP SP+-3
        CFI CFA_PSP16 PSP16+0
        CFI CFA_XSP16 XSP16+0
        CFI `PSW.CY` SameValue
        CFI `B.BR0` SameValue
        CFI `B.BR1` SameValue
        CFI `B.BR2` SameValue
        CFI `B.BR3` SameValue
        CFI `B.BR4` SameValue
        CFI `B.BR5` SameValue
        CFI `B.BR6` SameValue
        CFI `B.BR7` SameValue
        CFI `VB.BR8` SameValue
        CFI `VB.BR9` SameValue
        CFI `VB.BR10` SameValue
        CFI `VB.BR11` SameValue
        CFI `VB.BR12` SameValue
        CFI `VB.BR13` SameValue
        CFI `VB.BR14` SameValue
        CFI `VB.BR15` SameValue
        CFI VB SameValue
        CFI B Undefined
        CFI A Undefined
        CFI PSW SameValue
        CFI DPL0 SameValue
        CFI DPH0 SameValue
        CFI R0 Undefined
        CFI R1 Undefined
        CFI R2 Undefined
        CFI R3 Undefined
        CFI R4 Undefined
        CFI R5 Undefined
        CFI R6 SameValue
        CFI R7 SameValue
        CFI V0 SameValue
        CFI V1 SameValue
        CFI V2 SameValue
        CFI V3 SameValue
        CFI V4 SameValue
        CFI V5 SameValue
        CFI V6 SameValue
        CFI V7 SameValue
        CFI V8 SameValue
        CFI V9 SameValue
        CFI V10 SameValue
        CFI V11 SameValue
        CFI V12 SameValue
        CFI V13 SameValue
        CFI V14 SameValue
        CFI V15 SameValue
        CFI PSPH Undefined
        CFI PSPL Undefined
        CFI XSPH Undefined
        CFI XSPL Undefined
        CFI ?RET Concat
        CFI ?BRET_EXT Frame(CFA_SP, 3)
        CFI ?RET_HIGH Frame(CFA_SP, 2)
        CFI ?RET_LOW Frame(CFA_SP, 1)
        CFI EndCommon cfiCommon0
        
        
        CFI Common cfiCommon1 Using cfiNames0
        CFI CodeAlign 1
        CFI DataAlign -1
        CFI ReturnAddress ?RET CODE
        CFI CFA_DOVERLAY Used
        CFI CFA_IOVERLAY Used
        CFI CFA_SP SP+-2
        CFI CFA_PSP16 PSP16+0
        CFI CFA_XSP16 XSP16+0
        CFI `PSW.CY` SameValue
        CFI `B.BR0` SameValue
        CFI `B.BR1` SameValue
        CFI `B.BR2` SameValue
        CFI `B.BR3` SameValue
        CFI `B.BR4` SameValue
        CFI `B.BR5` SameValue
        CFI `B.BR6` SameValue
        CFI `B.BR7` SameValue
        CFI `VB.BR8` SameValue
        CFI `VB.BR9` SameValue
        CFI `VB.BR10` SameValue
        CFI `VB.BR11` SameValue
        CFI `VB.BR12` SameValue
        CFI `VB.BR13` SameValue
        CFI `VB.BR14` SameValue
        CFI `VB.BR15` SameValue
        CFI VB SameValue
        CFI B Undefined
        CFI A Undefined
        CFI PSW SameValue
        CFI DPL0 SameValue
        CFI DPH0 SameValue
        CFI R0 Undefined
        CFI R1 Undefined
        CFI R2 Undefined
        CFI R3 Undefined
        CFI R4 Undefined
        CFI R5 Undefined
        CFI R6 SameValue
        CFI R7 SameValue
        CFI V0 SameValue
        CFI V1 SameValue
        CFI V2 SameValue
        CFI V3 SameValue
        CFI V4 SameValue
        CFI V5 SameValue
        CFI V6 SameValue
        CFI V7 SameValue
        CFI V8 SameValue
        CFI V9 SameValue
        CFI V10 SameValue
        CFI V11 SameValue
        CFI V12 SameValue
        CFI V13 SameValue
        CFI V14 SameValue
        CFI V15 SameValue
        CFI PSPH Undefined
        CFI PSPL Undefined
        CFI XSPH Undefined
        CFI XSPL Undefined
        CFI ?RET Concat
        CFI ?BRET_EXT SameValue
        CFI ?RET_HIGH Frame(CFA_SP, 2)
        CFI ?RET_LOW Frame(CFA_SP, 1)
        CFI EndCommon cfiCommon1
        
osal_int_disable    SYMBOL "osal_int_disable"
HalKeyConfig        SYMBOL "HalKeyConfig"
halAssertHandler    SYMBOL "halAssertHandler"
osal_msg_allocate   SYMBOL "osal_msg_allocate"
osal_msg_send       SYMBOL "osal_msg_send"
macMcuRandomWord    SYMBOL "macMcuRandomWord"
??HalKeyConfig?relay SYMBOL "?relay", HalKeyConfig
??halAssertHandler?relay SYMBOL "?relay", halAssertHandler
??macMcuRandomWord?relay SYMBOL "?relay", macMcuRandomWord
??osal_int_disable?relay SYMBOL "?relay", osal_int_disable
??osal_msg_allocate?relay SYMBOL "?relay", osal_msg_allocate
??osal_msg_send?relay SYMBOL "?relay", osal_msg_send
BigLight_Off        SYMBOL "BigLight_Off"
??BigLight_Off?relay SYMBOL "?relay", BigLight_Off
BigLight_On         SYMBOL "BigLight_On"
??BigLight_On?relay SYMBOL "?relay", BigLight_On
BuzzerControl       SYMBOL "BuzzerControl"
??BuzzerControl?relay SYMBOL "?relay", BuzzerControl
Dimmer              SYMBOL "Dimmer"
??Dimmer?relay      SYMBOL "?relay", Dimmer
GetUserDipSw        SYMBOL "GetUserDipSw"
??GetUserDipSw?relay SYMBOL "?relay", GetUserDipSw
InitBoard           SYMBOL "InitBoard"
??InitBoard?relay   SYMBOL "?relay", InitBoard
OnBoard_KeyCallback SYMBOL "OnBoard_KeyCallback"
??OnBoard_KeyCallback?relay SYMBOL "?relay", OnBoard_KeyCallback
OnBoard_SendKeys    SYMBOL "OnBoard_SendKeys"
??OnBoard_SendKeys?relay SYMBOL "?relay", OnBoard_SendKeys
OnBoard_stack_used  SYMBOL "OnBoard_stack_used"
??OnBoard_stack_used?relay SYMBOL "?relay", OnBoard_stack_used
Onboard_rand        SYMBOL "Onboard_rand"
??Onboard_rand?relay SYMBOL "?relay", Onboard_rand
Onboard_wait        SYMBOL "Onboard_wait"
??Onboard_wait?relay SYMBOL "?relay", Onboard_wait
RegisterForKeys     SYMBOL "RegisterForKeys"
??RegisterForKeys?relay SYMBOL "?relay", RegisterForKeys
_itoa               SYMBOL "_itoa"
??_itoa?relay       SYMBOL "?relay", _itoa

        EXTERN osal_int_disable
        FUNCTION osal_int_disable,0202H
        ARGFRAME ISTACK, 0, STACK
        ARGFRAME PSTACK, 0, STACK
        ARGFRAME XSTACK, 9, STACK
        ARGFRAME IOVERLAY, 0, STATIC
        ARGFRAME DOVERLAY, 0, STATIC
        EXTERN HalKeyConfig
        FUNCTION HalKeyConfig,0202H
        ARGFRAME ISTACK, 0, STACK
        ARGFRAME PSTACK, 0, STACK
        ARGFRAME XSTACK, 9, STACK
        ARGFRAME IOVERLAY, 0, STATIC
        ARGFRAME DOVERLAY, 0, STATIC
        EXTERN halAssertHandler
        FUNCTION halAssertHandler,0202H
        ARGFRAME ISTACK, 0, STACK
        ARGFRAME PSTACK, 0, STACK
        ARGFRAME XSTACK, 9, STACK
        ARGFRAME IOVERLAY, 0, STATIC
        ARGFRAME DOVERLAY, 0, STATIC
        EXTERN osal_msg_allocate
        FUNCTION osal_msg_allocate,0202H
        ARGFRAME ISTACK, 0, STACK
        ARGFRAME PSTACK, 0, STACK
        ARGFRAME XSTACK, 12, STACK
        ARGFRAME IOVERLAY, 0, STATIC
        ARGFRAME DOVERLAY, 0, STATIC
        EXTERN osal_msg_send
        FUNCTION osal_msg_send,0202H
        ARGFRAME ISTACK, 0, STACK
        ARGFRAME PSTACK, 0, STACK
        ARGFRAME XSTACK, 12, STACK
        ARGFRAME IOVERLAY, 0, STATIC
        ARGFRAME DOVERLAY, 0, STATIC
        EXTERN macMcuRandomWord
        FUNCTION macMcuRandomWord,0202H
        ARGFRAME ISTACK, 2, STACK
        ARGFRAME PSTACK, 0, STACK
        ARGFRAME XSTACK, 0, STACK
        ARGFRAME IOVERLAY, 0, STATIC
        ARGFRAME DOVERLAY, 0, STATIC
        EXTERN ??HalKeyConfig?relay
        FUNCTION ??HalKeyConfig?relay,00H
        EXTERN ??halAssertHandler?relay
        FUNCTION ??halAssertHandler?relay,00H
        EXTERN ??macMcuRandomWord?relay
        FUNCTION ??macMcuRandomWord?relay,00H
        EXTERN ??osal_int_disable?relay
        FUNCTION ??osal_int_disable?relay,00H
        EXTERN ??osal_msg_allocate?relay
        FUNCTION ??osal_msg_allocate?relay,00H
        EXTERN ??osal_msg_send?relay
        FUNCTION ??osal_msg_send?relay,00H

// D:\RE_1_2_0_FORMAL_APP(251)-14-12-8\Projects\zstack\ZMain\TI2530DB\OnBoard.c
//    1 /**************************************************************************************************
//    2   Filename:       OnBoard.c
//    3   Revised:        $Date: 2012-03-29 12:09:02 -0700 (Thu, 29 Mar 2012) $
//    4   Revision:       $Revision: 29943 $
//    5 
//    6   Description:    This file contains the UI and control for the
//    7                   peripherals on the EVAL development board
//    8   Notes:          This file targets the Chipcon CC2530/31
//    9 
//   10 
//   11   Copyright 2005-2010 Texas Instruments Incorporated. All rights reserved.
//   12 
//   13   IMPORTANT: Your use of this Software is limited to those specific rights
//   14   granted under the terms of a software license agreement between the user
//   15   who downloaded the software, his/her employer (which must be your employer)
//   16   and Texas Instruments Incorporated (the "License").  You may not use this
//   17   Software unless you agree to abide by the terms of the License. The License
//   18   limits your use, and you acknowledge, that the Software may not be modified,
//   19   copied or distributed unless embedded on a Texas Instruments microcontroller
//   20   or used solely and exclusively in conjunction with a Texas Instruments radio
//   21   frequency transceiver, which is integrated into your product.  Other than for
//   22   the foregoing purpose, you may not use, reproduce, copy, prepare derivative
//   23   works of, modify, distribute, perform, display or sell this Software and/or
//   24   its documentation for any purpose.
//   25 
//   26   YOU FURTHER ACKNOWLEDGE AND AGREE THAT THE SOFTWARE AND DOCUMENTATION ARE
//   27   PROVIDED “AS IS?WITHOUT WARRANTY OF ANY KIND, EITHER EXPRESS OR IMPLIED,
//   28   INCLUDING WITHOUT LIMITATION, ANY WARRANTY OF MERCHANTABILITY, TITLE,
//   29   NON-INFRINGEMENT AND FITNESS FOR A PARTICULAR PURPOSE. IN NO EVENT SHALL
//   30   TEXAS INSTRUMENTS OR ITS LICENSORS BE LIABLE OR OBLIGATED UNDER CONTRACT,
//   31   NEGLIGENCE, STRICT LIABILITY, CONTRIBUTION, BREACH OF WARRANTY, OR OTHER
//   32   LEGAL EQUITABLE THEORY ANY DIRECT OR INDIRECT DAMAGES OR EXPENSES
//   33   INCLUDING BUT NOT LIMITED TO ANY INCIDENTAL, SPECIAL, INDIRECT, PUNITIVE
//   34   OR CONSEQUENTIAL DAMAGES, LOST PROFITS OR LOST DATA, COST OF PROCUREMENT
//   35   OF SUBSTITUTE GOODS, TECHNOLOGY, SERVICES, OR ANY CLAIMS BY THIRD PARTIES
//   36   (INCLUDING BUT NOT LIMITED TO ANY DEFENSE THEREOF), OR OTHER SIMILAR COSTS.
//   37 
//   38   Should you have any questions regarding your right to use this Software,
//   39   contact Texas Instruments Incorporated at www.TI.com.
//   40 **************************************************************************************************/
//   41 
//   42 /*********************************************************************
//   43  * INCLUDES
//   44  */
//   45 
//   46 #include "ZComDef.h"
//   47 #include "ZGlobals.h"
//   48 #include "OnBoard.h"

        ASEGN SFR_AN:DATA:NOROOT,09dH
// unsigned char volatile __sfr SLEEPSTA
SLEEPSTA:
        DATA8
        DS 1

        ASEGN SFR_AN:DATA:NOROOT,0a8H
// union <unnamed> volatile __sfr _A_IEN0
_A_IEN0:
        DATA8
        DS 1

        ASEGN SFR_AN:DATA:NOROOT,0d6H
// unsigned char volatile __sfr DMAARM
DMAARM:
        DATA8
        DS 1
//   49 #include "OSAL.h"
//   50 #include "MT.h"
//   51 #include "MT_SYS.h"
//   52 #include "DebugTrace.h"
//   53 
//   54 /* Hal */
//   55 #include "hal_lcd.h"
//   56 #include "hal_mcu.h"
//   57 #include "hal_timer.h"
//   58 #include "hal_key.h"
//   59 #include "hal_led.h"
//   60 
//   61 /* Allow access macRandomByte() */
//   62 #include "mac_radio_defs.h"
//   63 
//   64 /*********************************************************************
//   65  * CONSTANTS
//   66  */
//   67 
//   68 // Task ID not initialized
//   69 #define NO_TASK_ID 0xFF
//   70 
//   71 // Minimum length RAM "pattern" for Stack check
//   72 #define MIN_RAM_INIT 12
//   73 
//   74 /*********************************************************************
//   75  * GLOBAL VARIABLES
//   76  */
//   77 
//   78 #if defined MAKE_CRC_SHDW
//   79 #pragma location="CRC_SHDW"
//   80 const CODE uint16 _crcShdw = 0xFFFF;
//   81 #pragma required=_crcShdw
//   82 
//   83 #else  // if !defined MAKE_CRC_SHDW
//   84 
//   85 #pragma location="LOCK_BITS_ADDRESS_SPACE"

        RSEG LOCK_BITS_ADDRESS_SPACE:XDATA:REORDER:NOROOT(0)
        DATA8
//   86 __no_init uint8 _lockBits[16];
_lockBits:
        DS 16
//   87 #pragma required=_lockBits
//   88 
//   89 #if defined ZCL_KEY_ESTABLISH
//   90 #include "zcl_cert_data.c"
//   91 #else
//   92 #pragma location="IEEE_ADDRESS_SPACE"

        RSEG IEEE_ADDRESS_SPACE:XDATA:REORDER:NOROOT(0)
        DATA8
//   93 __no_init uint8 _nvIEEE[Z_EXTADDR_LEN];
_nvIEEE:
        DS 8
        REQUIRE _lockBits
//   94 #pragma required=_nvIEEE
//   95 #endif
//   96 
//   97 #pragma location="RESERVED_ADDRESS_SPACE"

        RSEG RESERVED_ADDRESS_SPACE:XDATA:REORDER:NOROOT(0)
        DATA8
//   98 __no_init uint8 _reserved[1932];
_reserved:
        DS 1932
        REQUIRE _nvIEEE
//   99 #pragma required=_reserved
//  100 #endif
//  101 
//  102 // 64-bit Extended Address of this device

        RSEG XDATA_Z:XDATA:NOROOT(0)
        DATA8
//  103 uint8 aExtendedAddress[8];
aExtendedAddress:
        DS 8
        REQUIRE __INIT_XDATA_Z
        REQUIRE _reserved
//  104 
//  105 /*********************************************************************
//  106  * LOCAL VARIABLES
//  107  */
//  108 
//  109 // Registered keys task ID, initialized to NOT USED.

        RSEG XDATA_I:XDATA:NOROOT(0)
//  110 static uint8 registeredKeysTaskID = NO_TASK_ID;
registeredKeysTaskID:
        DATA8
        DS 1
        REQUIRE `?<Initializer for registeredKeysTaskID>`
        REQUIRE __INIT_XDATA_I
//  111 
//  112 /*********************************************************************
//  113  * LOCAL FUNCTIONS
//  114  */
//  115 
//  116 static void ChkReset( void );
//  117 
//  118 /*********************************************************************
//  119  * @fn      InitBoard()
//  120  * @brief   Initialize the CC2420DB Board Peripherals
//  121  * @param   level: COLD,WARM,READY
//  122  * @return  None
//  123  */

        RSEG BANKED_CODE:CODE:NOROOT(0)
//  124 void InitBoard( uint8 level )
InitBoard:
        CFI Block cfiBlock0 Using cfiCommon0
        CFI Function InitBoard
        CODE
//  125 {
        FUNCALL InitBoard, osal_int_disable
        LOCFRAME ISTACK, 0, STACK
        LOCFRAME PSTACK, 0, STACK
        LOCFRAME XSTACK, 9, STACK
        LOCFRAME IOVERLAY, 0, STATIC
        LOCFRAME DOVERLAY, 0, STATIC
        ARGFRAME ISTACK, 0, STACK
        ARGFRAME PSTACK, 0, STACK
        ARGFRAME XSTACK, 9, STACK
        ARGFRAME IOVERLAY, 0, STATIC
        ARGFRAME DOVERLAY, 0, STATIC
        FUNCALL InitBoard, ChkReset
        LOCFRAME ISTACK, 0, STACK
        LOCFRAME PSTACK, 0, STACK
        LOCFRAME XSTACK, 9, STACK
        LOCFRAME IOVERLAY, 0, STATIC
        LOCFRAME DOVERLAY, 0, STATIC
        ARGFRAME ISTACK, 0, STACK
        ARGFRAME PSTACK, 0, STACK
        ARGFRAME XSTACK, 9, STACK
        ARGFRAME IOVERLAY, 0, STATIC
        ARGFRAME DOVERLAY, 0, STATIC
        FUNCALL InitBoard, HalKeyConfig
        LOCFRAME ISTACK, 0, STACK
        LOCFRAME PSTACK, 0, STACK
        LOCFRAME XSTACK, 9, STACK
        LOCFRAME IOVERLAY, 0, STATIC
        LOCFRAME DOVERLAY, 0, STATIC
        ARGFRAME ISTACK, 0, STACK
        ARGFRAME PSTACK, 0, STACK
        ARGFRAME XSTACK, 9, STACK
        ARGFRAME IOVERLAY, 0, STATIC
        ARGFRAME DOVERLAY, 0, STATIC
        MOV     A,#-0x9
        LCALL   ?BANKED_ENTER_XDATA
        CFI DPH0 load(1, XDATA, add(CFA_XSP16, literal(-1)))
        CFI DPL0 load(1, XDATA, add(CFA_XSP16, literal(-2)))
        CFI ?BRET_EXT load(1, XDATA, add(CFA_XSP16, literal(-3)))
        CFI ?RET_HIGH load(1, XDATA, add(CFA_XSP16, literal(-4)))
        CFI ?RET_LOW load(1, XDATA, add(CFA_XSP16, literal(-5)))
        CFI R7 load(1, XDATA, add(CFA_XSP16, literal(-6)))
        CFI V0 load(1, XDATA, add(CFA_XSP16, literal(-7)))
        CFI VB load(1, XDATA, add(CFA_XSP16, literal(-8)))
        CFI R6 load(1, XDATA, add(CFA_XSP16, literal(-9)))
        CFI CFA_SP SP+0
        CFI CFA_XSP16 add(XSP16, 9)
        ; Saved register size: 9
        ; Auto size: 0
        MOV     A,R1
        MOV     R6,A
//  126   if ( level == OB_COLD )
        JNZ     ??InitBoard_0
//  127   {
//  128     // IAR does not zero-out this byte below the XSTACK.
//  129     *(uint8 *)0x0 = 0;
        MOV     DPTR,#0x0
        MOV     A,#0x0
        MOVX    @DPTR,A
//  130     // Interrupts off
//  131     osal_int_disable( INTS_ALL );
        ; Setup parameters for call to function osal_int_disable
        MOV     R1,#-0x1
        LCALL   ??osal_int_disable?relay
        MOV     A,R1
//  132     // Check for Brown-Out reset
//  133     ChkReset();
        ; Setup parameters for call to function ChkReset
        LCALL   ??ChkReset?relay
        SJMP    ??InitBoard_1
//  134   }
//  135   else  // !OB_COLD
//  136   {
//  137     /* Initialize Key stuff */
//  138     HalKeyConfig(HAL_KEY_INTERRUPT_ENABLE, OnBoard_KeyCallback);
??InitBoard_0:
        ; Setup parameters for call to function HalKeyConfig
        MOV     R2,#??OnBoard_KeyCallback?relay & 0xff
        MOV     R3,#(??OnBoard_KeyCallback?relay >> 8) & 0xff
        MOV     R1,#0x1
        LCALL   ??HalKeyConfig?relay
//  139   }
//  140 }
??InitBoard_1:
        MOV     R7,#0x1
        LJMP    ?BANKED_LEAVE_XDATA
        CFI EndBlock cfiBlock0
//  141 
//  142 /*********************************************************************
//  143  * @fn      ChkReset()
//  144  * @brief   Check reset bits - if reset cause is unknown, assume a
//  145  *          brown-out (low power), assume batteries are not reliable,
//  146  *          hang in a loop and sequence through the LEDs.
//  147  * @param   None
//  148  * @return  None
//  149  *********************************************************************/

        RSEG BANKED_CODE:CODE:NOROOT(0)
//  150 void ChkReset( void )
ChkReset:
        CFI Block cfiBlock1 Using cfiCommon0
        CFI Function ChkReset
        CODE
//  151 {
        FUNCALL ChkReset, halAssertHandler
        LOCFRAME ISTACK, 0, STACK
        LOCFRAME PSTACK, 0, STACK
        LOCFRAME XSTACK, 9, STACK
        LOCFRAME IOVERLAY, 0, STATIC
        LOCFRAME DOVERLAY, 0, STATIC
        ARGFRAME ISTACK, 0, STACK
        ARGFRAME PSTACK, 0, STACK
        ARGFRAME XSTACK, 9, STACK
        ARGFRAME IOVERLAY, 0, STATIC
        ARGFRAME DOVERLAY, 0, STATIC
        MOV     A,#-0x9
        LCALL   ?BANKED_ENTER_XDATA
        CFI DPH0 load(1, XDATA, add(CFA_XSP16, literal(-1)))
        CFI DPL0 load(1, XDATA, add(CFA_XSP16, literal(-2)))
        CFI ?BRET_EXT load(1, XDATA, add(CFA_XSP16, literal(-3)))
        CFI ?RET_HIGH load(1, XDATA, add(CFA_XSP16, literal(-4)))
        CFI ?RET_LOW load(1, XDATA, add(CFA_XSP16, literal(-5)))
        CFI R7 load(1, XDATA, add(CFA_XSP16, literal(-6)))
        CFI V0 load(1, XDATA, add(CFA_XSP16, literal(-7)))
        CFI VB load(1, XDATA, add(CFA_XSP16, literal(-8)))
        CFI R6 load(1, XDATA, add(CFA_XSP16, literal(-9)))
        CFI CFA_SP SP+0
        CFI CFA_XSP16 add(XSP16, 9)
        ; Saved register size: 9
        ; Auto size: 0
//  152   uint8 rib;
//  153 
//  154   // Isolate reset indicator bits
//  155   rib = SLEEPSTA & LRESET;
        MOV     A,0x9d
        ANL     A,#0x18
        MOV     R6,A
//  156 
//  157   if ( rib == RESETPO )
        MOV     A,R6
        JZ      ??ChkReset_0
//  158   {
//  159     // Put code here to handle Power-On reset
//  160   }
//  161   else if ( rib == RESETEX )
        MOV     A,#0x8
        XRL     A,R6
        JZ      ??ChkReset_0
//  162   {
//  163     // Put code here to handle External reset
//  164   }
//  165   else if ( rib == RESETWD )
        MOV     A,#0x10
        XRL     A,R6
        JZ      ??ChkReset_0
//  166   {
//  167     // Put code here to handle WatchDog reset
//  168   }
//  169   else  // Unknown reason - not expected.
//  170   {
//  171     HAL_ASSERT(0);
        ; Setup parameters for call to function halAssertHandler
        LCALL   ??halAssertHandler?relay
//  172   }
//  173 }
??ChkReset_0:
        MOV     R7,#0x1
        LJMP    ?BANKED_LEAVE_XDATA
        CFI EndBlock cfiBlock1
        REQUIRE SLEEPSTA
//  174 
//  175 /*********************************************************************
//  176  *                        "Keyboard" Support
//  177  *********************************************************************/
//  178 
//  179 /*********************************************************************
//  180  * Keyboard Register function
//  181  *
//  182  * The keyboard handler is setup to send all keyboard changes to
//  183  * one task (if a task is registered).
//  184  *
//  185  * If a task registers, it will get all the keys. You can change this
//  186  * to register for individual keys.
//  187  *********************************************************************/

        RSEG BANKED_CODE:CODE:NOROOT(0)
//  188 uint8 RegisterForKeys( uint8 task_id )
RegisterForKeys:
        CFI Block cfiBlock2 Using cfiCommon0
        CFI Function RegisterForKeys
        CODE
//  189 {
        PUSH    DPL
        CFI DPL0 Frame(CFA_SP, 4)
        CFI CFA_SP SP+-4
        PUSH    DPH
        CFI DPH0 Frame(CFA_SP, 5)
        CFI CFA_SP SP+-5
        ; Saved register size: 2
        ; Auto size: 0
        MOV     A,R1
        MOV     R0,A
//  190   // Allow only the first task
//  191   if ( registeredKeysTaskID == NO_TASK_ID )
        MOV     DPTR,#registeredKeysTaskID
        MOVX    A,@DPTR
        XRL     A,#0xff
        JNZ     ??RegisterForKeys_0
//  192   {
//  193     registeredKeysTaskID = task_id;
        MOV     A,R0
        MOV     DPTR,#registeredKeysTaskID
        MOVX    @DPTR,A
//  194     return ( true );
        MOV     R1,#0x1
        SJMP    ??RegisterForKeys_1
//  195   }
//  196   else
//  197     return ( false );
??RegisterForKeys_0:
        MOV     R1,#0x0
??RegisterForKeys_1:
        POP     DPH
        CFI DPH0 SameValue
        CFI CFA_SP SP+-4
        POP     DPL
        CFI DPL0 SameValue
        CFI CFA_SP SP+-3
        LJMP    ?BRET
        CFI EndBlock cfiBlock2
//  198 }
//  199 
//  200 /*********************************************************************
//  201  * @fn      OnBoard_SendKeys
//  202  *
//  203  * @brief   Send "Key Pressed" message to application.
//  204  *
//  205  * @param   keys  - keys that were pressed
//  206  *          state - shifted
//  207  *
//  208  * @return  status
//  209  *********************************************************************/

        RSEG BANKED_CODE:CODE:NOROOT(0)
//  210 uint8 OnBoard_SendKeys( uint8 keys, uint8 state )
OnBoard_SendKeys:
        CFI Block cfiBlock3 Using cfiCommon0
        CFI Function OnBoard_SendKeys
        CODE
//  211 {
        FUNCALL OnBoard_SendKeys, osal_msg_allocate
        LOCFRAME ISTACK, 0, STACK
        LOCFRAME PSTACK, 0, STACK
        LOCFRAME XSTACK, 12, STACK
        LOCFRAME IOVERLAY, 0, STATIC
        LOCFRAME DOVERLAY, 0, STATIC
        ARGFRAME ISTACK, 0, STACK
        ARGFRAME PSTACK, 0, STACK
        ARGFRAME XSTACK, 12, STACK
        ARGFRAME IOVERLAY, 0, STATIC
        ARGFRAME DOVERLAY, 0, STATIC
        FUNCALL OnBoard_SendKeys, osal_msg_send
        LOCFRAME ISTACK, 0, STACK
        LOCFRAME PSTACK, 0, STACK
        LOCFRAME XSTACK, 12, STACK
        LOCFRAME IOVERLAY, 0, STATIC
        LOCFRAME DOVERLAY, 0, STATIC
        ARGFRAME ISTACK, 0, STACK
        ARGFRAME PSTACK, 0, STACK
        ARGFRAME XSTACK, 12, STACK
        ARGFRAME IOVERLAY, 0, STATIC
        ARGFRAME DOVERLAY, 0, STATIC
        MOV     A,#-0xc
        LCALL   ?BANKED_ENTER_XDATA
        CFI DPH0 load(1, XDATA, add(CFA_XSP16, literal(-1)))
        CFI DPL0 load(1, XDATA, add(CFA_XSP16, literal(-2)))
        CFI ?BRET_EXT load(1, XDATA, add(CFA_XSP16, literal(-3)))
        CFI ?RET_HIGH load(1, XDATA, add(CFA_XSP16, literal(-4)))
        CFI ?RET_LOW load(1, XDATA, add(CFA_XSP16, literal(-5)))
        CFI R7 load(1, XDATA, add(CFA_XSP16, literal(-6)))
        CFI V3 load(1, XDATA, add(CFA_XSP16, literal(-7)))
        CFI V2 load(1, XDATA, add(CFA_XSP16, literal(-8)))
        CFI V1 load(1, XDATA, add(CFA_XSP16, literal(-9)))
        CFI V0 load(1, XDATA, add(CFA_XSP16, literal(-10)))
        CFI VB load(1, XDATA, add(CFA_XSP16, literal(-11)))
        CFI R6 load(1, XDATA, add(CFA_XSP16, literal(-12)))
        CFI CFA_SP SP+0
        CFI CFA_XSP16 add(XSP16, 12)
        ; Saved register size: 12
        ; Auto size: 0
        MOV     ?V0 + 0,R1
        MOV     ?V0 + 1,R2
//  212   keyChange_t *msgPtr;
//  213 
//  214   if ( registeredKeysTaskID != NO_TASK_ID )
        MOV     DPTR,#registeredKeysTaskID
        MOVX    A,@DPTR
        XRL     A,#0xff
        JZ      ??OnBoard_SendKeys_0
//  215   {
//  216     // Send the address to the task
//  217     msgPtr = (keyChange_t *)osal_msg_allocate( sizeof(keyChange_t) );
        ; Setup parameters for call to function osal_msg_allocate
        MOV     R2,#0x4
        MOV     R3,#0x0
        LCALL   ??osal_msg_allocate?relay
        MOV     ?V0 + 2,R2
        MOV     ?V0 + 3,R3
        MOV     R6,?V0 + 2
        MOV     R7,?V0 + 3
//  218     if ( msgPtr )
        MOV     A,R6
        ORL     A,R7
        JZ      ??OnBoard_SendKeys_1
//  219     {
//  220       msgPtr->hdr.event = KEY_CHANGE;
        MOV     DPL,R6
        MOV     DPH,R7
        MOV     A,#-0x40
        MOVX    @DPTR,A
//  221       msgPtr->state = state;
        MOV     A,?V0 + 1
        MOV     DPL,R6
        MOV     DPH,R7
        INC     DPTR
        INC     DPTR
        MOV     A,?V0 + 1
        MOVX    @DPTR,A
//  222       msgPtr->keys = keys;
        MOV     A,?V0 + 0
        MOV     DPL,R6
        MOV     DPH,R7
        INC     DPTR
        INC     DPTR
        INC     DPTR
        MOV     A,?V0 + 0
        MOVX    @DPTR,A
//  223 
//  224       osal_msg_send( registeredKeysTaskID, (uint8 *)msgPtr );
        ; Setup parameters for call to function osal_msg_send
        MOV     A,R6
        MOV     R2,A
        MOV     A,R7
        MOV     R3,A
        MOV     DPTR,#registeredKeysTaskID
        MOVX    A,@DPTR
        MOV     R1,A
        LCALL   ??osal_msg_send?relay
        MOV     A,R1
//  225     }
//  226     return ( ZSuccess );
??OnBoard_SendKeys_1:
        MOV     R1,#0x0
        SJMP    ??OnBoard_SendKeys_2
//  227   }
//  228   else
//  229     return ( ZFailure );
??OnBoard_SendKeys_0:
        MOV     R1,#0x1
??OnBoard_SendKeys_2:
        MOV     R7,#0x4
        LJMP    ?BANKED_LEAVE_XDATA
        CFI EndBlock cfiBlock3
//  230 }
//  231 
//  232 /*********************************************************************
//  233  * @fn      OnBoard_KeyCallback
//  234  *
//  235  * @brief   Callback service for keys
//  236  *
//  237  * @param   keys  - keys that were pressed
//  238  *          state - shifted
//  239  *
//  240  * @return  void
//  241  *********************************************************************/

        RSEG BANKED_CODE:CODE:NOROOT(0)
//  242 void OnBoard_KeyCallback ( uint8 keys, uint8 state )
OnBoard_KeyCallback:
        CFI Block cfiBlock4 Using cfiCommon0
        CFI Function OnBoard_KeyCallback
        CODE
//  243 {
        FUNCALL OnBoard_KeyCallback, OnBoard_SendKeys
        LOCFRAME ISTACK, 0, STACK
        LOCFRAME PSTACK, 0, STACK
        LOCFRAME XSTACK, 9, STACK
        LOCFRAME IOVERLAY, 0, STATIC
        LOCFRAME DOVERLAY, 0, STATIC
        ARGFRAME ISTACK, 0, STACK
        ARGFRAME PSTACK, 0, STACK
        ARGFRAME XSTACK, 9, STACK
        ARGFRAME IOVERLAY, 0, STATIC
        ARGFRAME DOVERLAY, 0, STATIC
        MOV     A,#-0x9
        LCALL   ?BANKED_ENTER_XDATA
        CFI DPH0 load(1, XDATA, add(CFA_XSP16, literal(-1)))
        CFI DPL0 load(1, XDATA, add(CFA_XSP16, literal(-2)))
        CFI ?BRET_EXT load(1, XDATA, add(CFA_XSP16, literal(-3)))
        CFI ?RET_HIGH load(1, XDATA, add(CFA_XSP16, literal(-4)))
        CFI ?RET_LOW load(1, XDATA, add(CFA_XSP16, literal(-5)))
        CFI R7 load(1, XDATA, add(CFA_XSP16, literal(-6)))
        CFI V0 load(1, XDATA, add(CFA_XSP16, literal(-7)))
        CFI VB load(1, XDATA, add(CFA_XSP16, literal(-8)))
        CFI R6 load(1, XDATA, add(CFA_XSP16, literal(-9)))
        CFI CFA_SP SP+0
        CFI CFA_XSP16 add(XSP16, 9)
        ; Saved register size: 9
        ; Auto size: 0
        MOV     A,R1
        MOV     R7,A
        MOV     ?V0 + 0,R2
//  244   uint8 shift;
//  245   (void)state;
//  246 
//  247   shift = (keys & HAL_KEY_SW_6) ? true : false;
        MOV     A,R7
        MOV     C,0xE0 /* A   */.5
        JNC     ??OnBoard_KeyCallback_0
        SETB    B.0
        SJMP    ??OnBoard_KeyCallback_1
??OnBoard_KeyCallback_0:
        CLR     B.0
??OnBoard_KeyCallback_1:
        MOV     C,B.0
        CLR     A
        RLC     A
        MOV     R6,A
//  248 
//  249   if ( OnBoard_SendKeys( keys, shift ) != ZSuccess )
        ; Setup parameters for call to function OnBoard_SendKeys
        MOV     R2,A
        MOV     A,R7
        MOV     R1,A
        LCALL   ??OnBoard_SendKeys?relay
        MOV     A,R1
//  250   {
//  251     
//  252   }
//  253 }
        MOV     R7,#0x1
        LJMP    ?BANKED_LEAVE_XDATA
        CFI EndBlock cfiBlock4
//  254 
//  255 /*********************************************************************
//  256  * @fn      OnBoard_stack_used
//  257  *
//  258  * @brief   Runs through the stack looking for touched memory.
//  259  *
//  260  * @param   none
//  261  *
//  262  * @return  Maximum number of bytes used by the stack.
//  263  *********************************************************************/

        RSEG BANKED_CODE:CODE:NOROOT(0)
//  264 uint16 OnBoard_stack_used(void)
OnBoard_stack_used:
        CFI Block cfiBlock5 Using cfiCommon0
        CFI Function OnBoard_stack_used
        CODE
//  265 {
        PUSH    DPL
        CFI DPL0 Frame(CFA_SP, 4)
        CFI CFA_SP SP+-4
        PUSH    DPH
        CFI DPH0 Frame(CFA_SP, 5)
        CFI CFA_SP SP+-5
        ; Saved register size: 2
        ; Auto size: 0
//  266   uint8 const *ptr;
//  267   uint8 cnt = 0;
        MOV     R4,#0x0
//  268 
//  269   for (ptr = CSTACK_END; ptr > CSTACK_BEG; ptr--)
        MOV     DPL,#(SFE(XSTACK) + 255) & 0xff
        MOV     DPH,#((SFE(XSTACK) - 1) >> 8) & 0xff
??OnBoard_stack_used_0:
        CLR     C
        MOV     A,#SFB(XSTACK) & 0xff
        SUBB    A,DPL
        MOV     A,#(SFB(XSTACK) >> 8) & 0xff
        SUBB    A,DPH
        JNC     ??OnBoard_stack_used_1
//  270   {
//  271     if (STACK_INIT_VALUE == *ptr)
        MOVX    A,@DPTR
        XRL     A,#0xcd
        JNZ     ??OnBoard_stack_used_2
//  272     {
//  273       if (++cnt >= MIN_RAM_INIT)
        MOV     A,#0x1
        ADD     A,R4
        MOV     R0,A
        MOV     A,R0
        MOV     R4,A
        MOV     A,R0
        CLR     C
        SUBB    A,#0xc
        JC      ??OnBoard_stack_used_3
//  274       {
//  275         ptr += MIN_RAM_INIT;
        MOV     A,DPL
        ADD     A,#0xc
        MOV     DPL,A
        MOV     A,DPH
        ADDC    A,#0x0
        MOV     DPH,A
//  276         break;
        SJMP    ??OnBoard_stack_used_1
//  277       }
//  278     }
//  279     else
//  280     {
//  281       cnt = 0;
??OnBoard_stack_used_2:
        MOV     R4,#0x0
//  282     }
//  283   }
??OnBoard_stack_used_3:
        MOV     A,DPL
        ADD     A,#-0x1
        MOV     DPL,A
        MOV     A,DPH
        ADDC    A,#-0x1
        MOV     DPH,A
        SJMP    ??OnBoard_stack_used_0
//  284 
//  285   return (uint16)(CSTACK_END - ptr + 1);
??OnBoard_stack_used_1:
        MOV     A,#(SFE(XSTACK) + 255) & 0xff
        CLR     C
        SUBB    A,DPL
        MOV     R0,A
        MOV     A,#((SFE(XSTACK) - 1) >> 8) & 0xff
        SUBB    A,DPH
        MOV     R1,A
        MOV     A,R0
        ADD     A,#0x1
        MOV     R2,A
        MOV     A,R1
        ADDC    A,#0x0
        MOV     R3,A
        POP     DPH
        CFI DPH0 SameValue
        CFI CFA_SP SP+-4
        POP     DPL
        CFI DPL0 SameValue
        CFI CFA_SP SP+-3
        LJMP    ?BRET
        CFI EndBlock cfiBlock5
//  286 }
//  287 
//  288 /*********************************************************************
//  289  * @fn      _itoa
//  290  *
//  291  * @brief   convert a 16bit number to ASCII
//  292  *
//  293  * @param   num -
//  294  *          buf -
//  295  *          radix -
//  296  *
//  297  * @return  void
//  298  *
//  299  *********************************************************************/

        RSEG BANKED_CODE:CODE:NOROOT(0)
//  300 void _itoa(uint16 num, uint8 *buf, uint8 radix)
_itoa:
        CFI Block cfiBlock6 Using cfiCommon0
        CFI Function _itoa
        CODE
//  301 {
        MOV     A,#-0xf
        LCALL   ?BANKED_ENTER_XDATA
        CFI DPH0 load(1, XDATA, add(CFA_XSP16, literal(-1)))
        CFI DPL0 load(1, XDATA, add(CFA_XSP16, literal(-2)))
        CFI ?BRET_EXT load(1, XDATA, add(CFA_XSP16, literal(-3)))
        CFI ?RET_HIGH load(1, XDATA, add(CFA_XSP16, literal(-4)))
        CFI ?RET_LOW load(1, XDATA, add(CFA_XSP16, literal(-5)))
        CFI R7 load(1, XDATA, add(CFA_XSP16, literal(-6)))
        CFI V6 load(1, XDATA, add(CFA_XSP16, literal(-7)))
        CFI V5 load(1, XDATA, add(CFA_XSP16, literal(-8)))
        CFI V4 load(1, XDATA, add(CFA_XSP16, literal(-9)))
        CFI V3 load(1, XDATA, add(CFA_XSP16, literal(-10)))
        CFI V2 load(1, XDATA, add(CFA_XSP16, literal(-11)))
        CFI V1 load(1, XDATA, add(CFA_XSP16, literal(-12)))
        CFI V0 load(1, XDATA, add(CFA_XSP16, literal(-13)))
        CFI VB load(1, XDATA, add(CFA_XSP16, literal(-14)))
        CFI R6 load(1, XDATA, add(CFA_XSP16, literal(-15)))
        CFI CFA_SP SP+0
        CFI CFA_XSP16 add(XSP16, 15)
        ; Saved register size: 15
        ; Auto size: 5
        MOV     A,#-0x5
        LCALL   ?ALLOC_XSTACK8
        CFI CFA_XSP16 add(XSP16, 20)
        MOV     A,R2
        MOV     R6,A
        MOV     A,R3
        MOV     R7,A
        MOV     ?V0 + 4,R1
//  302   char c,i;
//  303   uint8 *p, rst[5];
//  304 
//  305   p = rst;
        MOV     DPL,?XSP + 0
        MOV     DPH,?XSP + 1
        MOV     ?V0 + 0,DPL
        MOV     ?V0 + 1,DPH
//  306   for ( i=0; i<5; i++,p++ )
        MOV     ?V0 + 6,#0x0
??_itoa_0:
        MOV     A,?V0 + 6
        CLR     C
        SUBB    A,#0x5
        JNC     ??_itoa_1
//  307   {
//  308     c = num % radix;  // Isolate a digit
        MOV     A,R6
        MOV     R0,A
        MOV     A,R7
        MOV     R1,A
        MOV     ?V0 + 2,?V0 + 4
        MOV     ?V0 + 3,#0x0
        MOV     R2,?V0 + 2
        MOV     R3,?V0 + 3
        LCALL   ?US_DIV_MOD
        MOV     A,R2
        MOV     ?V0 + 5,A
//  309     *p = c + (( c < 10 ) ? '0' : '7');  // Convert to Ascii
        MOV     A,?V0 + 5
        CLR     C
        SUBB    A,#0xa
        JNC     ??_itoa_2
        MOV     R0,#0x30
        MOV     R1,#0x0
        SJMP    ??_itoa_3
??_itoa_2:
        MOV     R0,#0x37
        MOV     R1,#0x0
??_itoa_3:
        MOV     A,R0
        ADD     A,?V0 + 5
        MOV     DPL,?V0 + 0
        MOV     DPH,?V0 + 1
        MOVX    @DPTR,A
//  310     num /= radix;
        MOV     A,R6
        MOV     R0,A
        MOV     A,R7
        MOV     R1,A
        MOV     ?V0 + 2,?V0 + 4
        MOV     ?V0 + 3,#0x0
        MOV     R2,?V0 + 2
        MOV     R3,?V0 + 3
        LCALL   ?US_DIV_MOD
        MOV     ?V0 + 2,R0
        MOV     ?V0 + 3,R1
        MOV     R6,?V0 + 2
        MOV     R7,?V0 + 3
//  311     if ( !num )
        MOV     A,R6
        ORL     A,R7
        JZ      ??_itoa_1
//  312       break;
//  313   }
        INC     ?V0 + 6
        MOV     DPL,?V0 + 0
        MOV     DPH,?V0 + 1
        INC     DPTR
        MOV     ?V0 + 0,DPL
        MOV     ?V0 + 1,DPH
        SJMP    ??_itoa_0
//  314 
//  315   for ( c=0 ; c<=i; c++ )
??_itoa_1:
        MOV     ?V0 + 5,#0x0
??_itoa_4:
        MOV     A,?V0 + 6
        CLR     C
        SUBB    A,?V0 + 5
        JC      ??_itoa_5
//  316     *buf++ = *p--;  // Reverse character order
        MOV     DPL,?V0 + 0
        MOV     DPH,?V0 + 1
        MOVX    A,@DPTR
        MOV     DPL,R4
        MOV     DPH,R5
        MOVX    @DPTR,A
        MOV     A,?V0 + 0
        ADD     A,#-0x1
        MOV     ?V0 + 0,A
        MOV     A,?V0 + 1
        ADDC    A,#-0x1
        MOV     ?V0 + 1,A
        MOV     DPL,R4
        MOV     DPH,R5
        INC     DPTR
        MOV     R4,DPL
        MOV     R5,DPH
        INC     ?V0 + 5
        SJMP    ??_itoa_4
//  317 
//  318   *buf = '\0';
??_itoa_5:
        MOV     DPL,R4
        MOV     DPH,R5
        MOV     A,#0x0
        MOVX    @DPTR,A
//  319 }
        MOV     A,#0x5
        LCALL   ?DEALLOC_XSTACK8
        CFI CFA_XSP16 add(XSP16, 15)
        MOV     R7,#0x7
        LJMP    ?BANKED_LEAVE_XDATA
        CFI EndBlock cfiBlock6
//  320 
//  321 /*********************************************************************
//  322  * @fn        Onboard_rand
//  323  *
//  324  * @brief    Random number generator
//  325  *
//  326  * @param   none
//  327  *
//  328  * @return  uint16 - new random number
//  329  *
//  330  *********************************************************************/

        RSEG BANKED_CODE:CODE:NOROOT(0)
//  331 uint16 Onboard_rand( void )
Onboard_rand:
        CFI Block cfiBlock7 Using cfiCommon0
        CFI Function Onboard_rand
        CODE
//  332 {
        FUNCALL Onboard_rand, macMcuRandomWord
        LOCFRAME ISTACK, 2, STACK
        LOCFRAME PSTACK, 0, STACK
        LOCFRAME XSTACK, 0, STACK
        LOCFRAME IOVERLAY, 0, STATIC
        LOCFRAME DOVERLAY, 0, STATIC
        ARGFRAME ISTACK, 2, STACK
        ARGFRAME PSTACK, 0, STACK
        ARGFRAME XSTACK, 0, STACK
        ARGFRAME IOVERLAY, 0, STATIC
        ARGFRAME DOVERLAY, 0, STATIC
        PUSH    DPL
        CFI DPL0 Frame(CFA_SP, 4)
        CFI CFA_SP SP+-4
        PUSH    DPH
        CFI DPH0 Frame(CFA_SP, 5)
        CFI CFA_SP SP+-5
        ; Saved register size: 2
        ; Auto size: 0
//  333   return ( MAC_RADIO_RANDOM_WORD() );
        ; Setup parameters for call to function macMcuRandomWord
        LCALL   ??macMcuRandomWord?relay
        POP     DPH
        CFI DPH0 SameValue
        CFI CFA_SP SP+-4
        POP     DPL
        CFI DPL0 SameValue
        CFI CFA_SP SP+-3
        LJMP    ?BRET
        CFI EndBlock cfiBlock7
//  334 }
//  335 
//  336 /*********************************************************************
//  337  * @fn        Onboard_wait
//  338  *
//  339  * @brief    Delay wait
//  340  *
//  341  * @param   uint16 - time to wait
//  342  *
//  343  * @return  none
//  344  *
//  345  *********************************************************************/

        RSEG BANKED_CODE:CODE:NOROOT(0)
//  346 void Onboard_wait( uint16 timeout )
Onboard_wait:
        CFI Block cfiBlock8 Using cfiCommon0
        CFI Function Onboard_wait
        CODE
//  347 {
        ; Saved register size: 0
        ; Auto size: 0
//  348   while (timeout--)
??Onboard_wait_0:
        MOV     A,R2
        MOV     R0,A
        MOV     A,R3
        MOV     R1,A
        MOV     A,R0
        ADD     A,#-0x1
        MOV     R2,A
        MOV     A,R1
        ADDC    A,#-0x1
        MOV     R3,A
        MOV     A,R0
        ORL     A,R1
        JZ      ??Onboard_wait_1
//  349   {
//  350     asm("NOP");
        NOP
//  351     asm("NOP");
        NOP
//  352     asm("NOP");
        NOP
        SJMP    ??Onboard_wait_0
//  353   }
//  354 }
??Onboard_wait_1:
        LJMP    ?BRET
        CFI EndBlock cfiBlock8
//  355 
//  356 /*********************************************************************
//  357  * @fn      Onboard_soft_reset
//  358  *
//  359  * @brief   Effect a soft reset.
//  360  *
//  361  * @param   none
//  362  *
//  363  * @return  none
//  364  *
//  365  *********************************************************************/

        RSEG NEAR_CODE:CODE:NOROOT(0)
//  366 __near_func void Onboard_soft_reset( void )
Onboard_soft_reset:
        CFI Block cfiBlock9 Using cfiCommon1
        CFI Function Onboard_soft_reset
        CODE
//  367 {
        ; Saved register size: 0
        ; Auto size: 0
//  368   HAL_DISABLE_INTERRUPTS();
        CLR     0xa8.7
//  369   // Abort all DMA channels to insure that ongoing operations do not
//  370   // interfere with re-configuration.
//  371   DMAARM = 0x80 | 0x1F;
        MOV     0xd6,#-0x61
//  372   asm("LJMP 0x0");
        LJMP 0x0
//  373 }
        RET
        CFI EndBlock cfiBlock9
        REQUIRE _A_IEN0
        REQUIRE DMAARM
//  374 
//  375 /*********************************************************************
//  376  *                    EXTERNAL I/O FUNCTIONS
//  377  *
//  378  * User defined functions to control external devices. Add your code
//  379  * to the following functions to control devices wired to DB outputs.
//  380  *
//  381  *********************************************************************/
//  382 

        RSEG BANKED_CODE:CODE:NOROOT(0)
//  383 void BigLight_On( void )
BigLight_On:
        CFI Block cfiBlock10 Using cfiCommon0
        CFI Function BigLight_On
        CODE
//  384 {
        ; Saved register size: 0
        ; Auto size: 0
//  385   // Put code here to turn on an external light
//  386 }
        LJMP    ?BRET
        CFI EndBlock cfiBlock10
//  387 

        RSEG BANKED_CODE:CODE:NOROOT(0)
//  388 void BigLight_Off( void )
BigLight_Off:
        CFI Block cfiBlock11 Using cfiCommon0
        CFI Function BigLight_Off
        CODE
//  389 {
        ; Saved register size: 0
        ; Auto size: 0
//  390   // Put code here to turn off an external light
//  391 }
        LJMP    ?BRET
        CFI EndBlock cfiBlock11
//  392 

        RSEG BANKED_CODE:CODE:NOROOT(0)
//  393 void BuzzerControl( uint8 on )
BuzzerControl:
        CFI Block cfiBlock12 Using cfiCommon0
        CFI Function BuzzerControl
        CODE
//  394 {
        ; Saved register size: 0
        ; Auto size: 0
//  395   // Put code here to turn a buzzer on/off
//  396   (void)on;
//  397 }
        LJMP    ?BRET
        CFI EndBlock cfiBlock12
//  398 

        RSEG BANKED_CODE:CODE:NOROOT(0)
//  399 void Dimmer( uint8 lvl )
Dimmer:
        CFI Block cfiBlock13 Using cfiCommon0
        CFI Function Dimmer
        CODE
//  400 {
        ; Saved register size: 0
        ; Auto size: 0
//  401   // Put code here to control a dimmer
//  402   (void)lvl;
//  403 }
        LJMP    ?BRET
        CFI EndBlock cfiBlock13
//  404 
//  405 // No dip switches on this board

        RSEG BANKED_CODE:CODE:NOROOT(0)
//  406 uint8 GetUserDipSw( void )
GetUserDipSw:
        CFI Block cfiBlock14 Using cfiCommon0
        CFI Function GetUserDipSw
        CODE
//  407 {
        ; Saved register size: 0
        ; Auto size: 0
//  408   return 0;
        MOV     R1,#0x0
        LJMP    ?BRET
        CFI EndBlock cfiBlock14
//  409 }

        RSEG XDATA_ID:CODE:NOROOT(0)
`?<Initializer for registeredKeysTaskID>`:
        DATA8
        DB 255

        RSEG BANK_RELAYS:CODE:REORDER:NOROOT(0)
??InitBoard?relay:
        LCALL   ?BDISPATCH
        DATA
        DC24    InitBoard

        RSEG BANK_RELAYS:CODE:REORDER:NOROOT(0)
??ChkReset?relay:
        LCALL   ?BDISPATCH
        DATA
        DC24    ChkReset

        RSEG BANK_RELAYS:CODE:REORDER:NOROOT(0)
??RegisterForKeys?relay:
        LCALL   ?BDISPATCH
        DATA
        DC24    RegisterForKeys

        RSEG BANK_RELAYS:CODE:REORDER:NOROOT(0)
??OnBoard_SendKeys?relay:
        LCALL   ?BDISPATCH
        DATA
        DC24    OnBoard_SendKeys

        RSEG BANK_RELAYS:CODE:REORDER:NOROOT(0)
??OnBoard_KeyCallback?relay:
        LCALL   ?BDISPATCH
        DATA
        DC24    OnBoard_KeyCallback

        RSEG BANK_RELAYS:CODE:REORDER:NOROOT(0)
??OnBoard_stack_used?relay:
        LCALL   ?BDISPATCH
        DATA
        DC24    OnBoard_stack_used

        RSEG BANK_RELAYS:CODE:REORDER:NOROOT(0)
??_itoa?relay:
        LCALL   ?BDISPATCH
        DATA
        DC24    _itoa

        RSEG BANK_RELAYS:CODE:REORDER:NOROOT(0)
??Onboard_rand?relay:
        LCALL   ?BDISPATCH
        DATA
        DC24    Onboard_rand

        RSEG BANK_RELAYS:CODE:REORDER:NOROOT(0)
??Onboard_wait?relay:
        LCALL   ?BDISPATCH
        DATA
        DC24    Onboard_wait

        RSEG BANK_RELAYS:CODE:REORDER:NOROOT(0)
??BigLight_On?relay:
        LCALL   ?BDISPATCH
        DATA
        DC24    BigLight_On

        RSEG BANK_RELAYS:CODE:REORDER:NOROOT(0)
??BigLight_Off?relay:
        LCALL   ?BDISPATCH
        DATA
        DC24    BigLight_Off

        RSEG BANK_RELAYS:CODE:REORDER:NOROOT(0)
??BuzzerControl?relay:
        LCALL   ?BDISPATCH
        DATA
        DC24    BuzzerControl

        RSEG BANK_RELAYS:CODE:REORDER:NOROOT(0)
??Dimmer?relay:
        LCALL   ?BDISPATCH
        DATA
        DC24    Dimmer

        RSEG BANK_RELAYS:CODE:REORDER:NOROOT(0)
??GetUserDipSw?relay:
        LCALL   ?BDISPATCH
        DATA
        DC24    GetUserDipSw

        RSEG XSTACK:DATA:REORDER:NOROOT(0)

        END
//  410 
//  411 /*********************************************************************
//  412 *********************************************************************/
// 
//   576 bytes in segment BANKED_CODE
//    84 bytes in segment BANK_RELAYS
//     8 bytes in segment IEEE_ADDRESS_SPACE
//    16 bytes in segment LOCK_BITS_ADDRESS_SPACE
//     9 bytes in segment NEAR_CODE
// 1 932 bytes in segment RESERVED_ADDRESS_SPACE
//     3 bytes in segment SFR_AN
//     1 byte  in segment XDATA_I
//     1 byte  in segment XDATA_ID
//     8 bytes in segment XDATA_Z
// 
//   670 bytes of CODE  memory
//     0 bytes of DATA  memory (+ 3 bytes shared)
// 1 965 bytes of XDATA memory
//
//Errors: none
//Warnings: none
