///////////////////////////////////////////////////////////////////////////////
//                                                                            /
// IAR C/C++ Compiler V8.10.1.10194/W32 for 8051        12/Feb/2015  21:25:58 /
// Copyright 2004-2011 IAR Systems AB.                                        /
//                                                                            /
//    Core               =  plain                                             /
//    Code model         =  banked                                            /
//    Data model         =  large                                             /
//    Calling convention =  xdata reentrant                                   /
//    Constant location  =  data_rom                                          /
//    Dptr setup         =  1,16                                              /
//    Source file        =  D:\RE_1_2_0_FORMAL_APP(251)-14-12-8\Projects\zsta /
//                          ck\Samples\SampleApp\Source\LN_2_SCEEN_KEYPAD_dev /
//                          ice\LN_2_SCEEN_KEYPAD_User_app.c                  /
//    Command line       =  -f "D:\RE_1_2_0_FORMAL_APP(251)-14-12-8\Projects\ /
//                          zstack\Samples\SampleApp\CC2530DB\..\..\..\Tools\ /
//                          CC2530DB\f8wRouter.cfg" (-DCPU32MHZ               /
//                          -DROOT=__near_func -DMAC_CFG_APP_PENDING_QUEUE=TR /
//                          UE -DMAC_CFG_TX_DATA_MAX=5 -DMAC_CFG_TX_MAX=8     /
//                          -DMAC_CFG_RX_MAX=5 -DRTR_NWK) -f                  /
//                          "D:\RE_1_2_0_FORMAL_APP(251)-14-12-8\Projects\zst /
//                          ack\Samples\SampleApp\CC2530DB\..\..\..\Tools\CC2 /
//                          530DB\f8wConfig.cfg" (-DZIGBEEPRO -DSECURE=1      /
//                          -DZG_SECURE_DYNAMIC=0 -DREFLECTOR                 /
//                          -DZDAPP_CONFIG_PAN_ID=0xFFFF                      /
//                          -DNWK_START_DELAY=100 -DEXTENDED_JOINING_RANDOM_M /
//                          ASK=0x007F -DBEACON_REQUEST_DELAY=100             /
//                          -DBEACON_REQ_DELAY_MASK=0x00FF                    /
//                          -DLINK_STATUS_JITTER_MASK=0x007F                  /
//                          -DROUTE_EXPIRY_TIME=30 -DAPSC_ACK_WAIT_DURATION_P /
//                          OLLED=3000 -DNWK_INDIRECT_MSG_TIMEOUT=60          /
//                          -DMAX_RREQ_ENTRIES=8 -DAPSC_MAX_FRAME_RETRIES=3   /
//                          -DNWK_MAX_DATA_RETRIES=2                          /
//                          -DMAX_POLL_FAILURE_RETRIES=2 -DMAX_BCAST=9        /
//                          -DAPS_MAX_GROUPS=16 -DMAX_RTG_ENTRIES=30          /
//                          -DNWK_MAX_BINDING_ENTRIES=10                      /
//                          -DMAX_BINDING_CLUSTER_IDS=4 -DASSERT_RESET        /
//                          -DMAC_MAX_FRAME_SIZE=116                          /
//                          -DZDNWKMGR_MIN_TRANSMISSIONS=20 "-DCONST=const    /
//                          __code" -DGENERIC=__generic                       /
//                          -DRFD_RCVC_ALWAYS_ON=FALSE -DPOLL_RATE=8000       /
//                          -DQUEUED_POLL_RATE=100 -DRESPONSE_POLL_RATE=1000) /
//                           -DREJOIN_POLL_RATE=440                           /
//                          "D:\RE_1_2_0_FORMAL_APP(251)-14-12-8\Projects\zst /
//                          ack\Samples\SampleApp\Source\LN_2_SCEEN_KEYPAD_de /
//                          vice\LN_2_SCEEN_KEYPAD_User_app.c" -D NV_INIT -D  /
//                          NV_RESTORE -D HOLD_AUTO_START -D MT_TASK -D       /
//                          MT_APP_FUNC -D MT_SYS_FUNC -D MT_ZDO_FUNC -D      /
//                          MT_ZDO_MGMT -D ISR_KEYINTERRUPT -D WDT_IN_PM1 -D  /
//                          OSC32K_CRYSTAL_INSTALLED=0 -D xLARGER_NETWORK -D  /
//                          xNO_32768_XOSC -D POWER_PA -D xEN_WALL_SOKET -D   /
//                          LN_2_SCEEN_KEYPAD -lC "D:\RE_1_2_0_FORMAL_APP(251 /
//                          )-14-12-8\Projects\zstack\Samples\SampleApp\CC253 /
//                          0DB\LN_2_SCEEN_KEYPAD\List\" -lA                  /
//                          "D:\RE_1_2_0_FORMAL_APP(251)-14-12-8\Projects\zst /
//                          ack\Samples\SampleApp\CC2530DB\LN_2_SCEEN_KEYPAD\ /
//                          List\" --diag_suppress Pe001,Pa010 -o             /
//                          "D:\RE_1_2_0_FORMAL_APP(251)-14-12-8\Projects\zst /
//                          ack\Samples\SampleApp\CC2530DB\LN_2_SCEEN_KEYPAD\ /
//                          Obj\" -e --no_cse --no_unroll --no_inline         /
//                          --no_code_motion --no_tbaa --debug --core=plain   /
//                          --dptr=16,1 --data_model=large                    /
//                          --code_model=banked --calling_convention=xdata_re /
//                          entrant --place_constants=data_rom                /
//                          --nr_virtual_regs 16 -I                           /
//                          "D:\RE_1_2_0_FORMAL_APP(251)-14-12-8\Projects\zst /
//                          ack\Samples\SampleApp\CC2530DB\" -I               /
//                          "D:\RE_1_2_0_FORMAL_APP(251)-14-12-8\Projects\zst /
//                          ack\Samples\SampleApp\CC2530DB\..\Source\" -I     /
//                          "D:\RE_1_2_0_FORMAL_APP(251)-14-12-8\Projects\zst /
//                          ack\Samples\SampleApp\CC2530DB\..\Source\LN_2_SCE /
//                          EN_KEYPAD_device\" -I "D:\RE_1_2_0_FORMAL_APP(251 /
//                          )-14-12-8\Projects\zstack\Samples\SampleApp\CC253 /
//                          0DB\..\..\..\ZMain\TI2530DB\" -I                  /
//                          "D:\RE_1_2_0_FORMAL_APP(251)-14-12-8\Projects\zst /
//                          ack\Samples\SampleApp\CC2530DB\..\..\..\..\..\Com /
//                          ponents\hal\include\" -I                          /
//                          "D:\RE_1_2_0_FORMAL_APP(251)-14-12-8\Projects\zst /
//                          ack\Samples\SampleApp\CC2530DB\..\..\..\..\..\Com /
//                          ponents\hal\target\CC2530EB\" -I                  /
//                          "D:\RE_1_2_0_FORMAL_APP(251)-14-12-8\Projects\zst /
//                          ack\Samples\SampleApp\CC2530DB\..\..\..\..\..\Com /
//                          ponents\mac\include\" -I                          /
//                          "D:\RE_1_2_0_FORMAL_APP(251)-14-12-8\Projects\zst /
//                          ack\Samples\SampleApp\CC2530DB\..\..\..\..\..\Com /
//                          ponents\mac\high_level\" -I                       /
//                          "D:\RE_1_2_0_FORMAL_APP(251)-14-12-8\Projects\zst /
//                          ack\Samples\SampleApp\CC2530DB\..\..\..\..\..\Com /
//                          ponents\mac\low_level\srf04\" -I                  /
//                          "D:\RE_1_2_0_FORMAL_APP(251)-14-12-8\Projects\zst /
//                          ack\Samples\SampleApp\CC2530DB\..\..\..\..\..\Com /
//                          ponents\mac\low_level\srf04\single_chip\" -I      /
//                          "D:\RE_1_2_0_FORMAL_APP(251)-14-12-8\Projects\zst /
//                          ack\Samples\SampleApp\CC2530DB\..\..\..\..\..\Com /
//                          ponents\mt\" -I "D:\RE_1_2_0_FORMAL_APP(251)-14-1 /
//                          2-8\Projects\zstack\Samples\SampleApp\CC2530DB\.. /
//                          \..\..\..\..\Components\osal\include\" -I         /
//                          "D:\RE_1_2_0_FORMAL_APP(251)-14-12-8\Projects\zst /
//                          ack\Samples\SampleApp\CC2530DB\..\..\..\..\..\Com /
//                          ponents\services\saddr\" -I                       /
//                          "D:\RE_1_2_0_FORMAL_APP(251)-14-12-8\Projects\zst /
//                          ack\Samples\SampleApp\CC2530DB\..\..\..\..\..\Com /
//                          ponents\services\sdata\" -I                       /
//                          "D:\RE_1_2_0_FORMAL_APP(251)-14-12-8\Projects\zst /
//                          ack\Samples\SampleApp\CC2530DB\..\..\..\..\..\Com /
//                          ponents\stack\af\" -I "D:\RE_1_2_0_FORMAL_APP(251 /
//                          )-14-12-8\Projects\zstack\Samples\SampleApp\CC253 /
//                          0DB\..\..\..\..\..\Components\stack\nwk\" -I      /
//                          "D:\RE_1_2_0_FORMAL_APP(251)-14-12-8\Projects\zst /
//                          ack\Samples\SampleApp\CC2530DB\..\..\..\..\..\Com /
//                          ponents\stack\sapi\" -I                           /
//                          "D:\RE_1_2_0_FORMAL_APP(251)-14-12-8\Projects\zst /
//                          ack\Samples\SampleApp\CC2530DB\..\..\..\..\..\Com /
//                          ponents\stack\sec\" -I "D:\RE_1_2_0_FORMAL_APP(25 /
//                          1)-14-12-8\Projects\zstack\Samples\SampleApp\CC25 /
//                          30DB\..\..\..\..\..\Components\stack\sys\" -I     /
//                          "D:\RE_1_2_0_FORMAL_APP(251)-14-12-8\Projects\zst /
//                          ack\Samples\SampleApp\CC2530DB\..\..\..\..\..\Com /
//                          ponents\stack\zdo\" -I "D:\RE_1_2_0_FORMAL_APP(25 /
//                          1)-14-12-8\Projects\zstack\Samples\SampleApp\CC25 /
//                          30DB\..\..\..\..\..\Components\zmac\" -I          /
//                          "D:\RE_1_2_0_FORMAL_APP(251)-14-12-8\Projects\zst /
//                          ack\Samples\SampleApp\CC2530DB\..\..\..\..\..\Com /
//                          ponents\zmac\f8w\" -On --require_prototypes       /
//    List file          =  D:\RE_1_2_0_FORMAL_APP(251)-14-12-8\Projects\zsta /
//                          ck\Samples\SampleApp\CC2530DB\LN_2_SCEEN_KEYPAD\L /
//                          ist\LN_2_SCEEN_KEYPAD_User_app.s51                /
//                                                                            /
//                                                                            /
///////////////////////////////////////////////////////////////////////////////

        NAME LN_2_SCEEN_KEYPAD_User_app

        RTMODEL "__SystemLibrary", "CLib"
        RTMODEL "__calling_convention", "xdata_reentrant"
        RTMODEL "__code_model", "banked"
        RTMODEL "__core", "plain"
        RTMODEL "__data_model", "large"
        RTMODEL "__dptr_size", "16"
        RTMODEL "__extended_stack", "disabled"
        RTMODEL "__location_for_constants", "data"
        RTMODEL "__number_of_dptrs", "1"
        RTMODEL "__rt_version", "1"

        RSEG DOVERLAY:DATA:NOROOT(0)
        RSEG IOVERLAY:IDATA:NOROOT(0)
        RSEG ISTACK:IDATA:NOROOT(0)
        RSEG PSTACK:XDATA:NOROOT(0)
        RSEG XSTACK:XDATA:NOROOT(0)

        EXTERN ?ALLOC_XSTACK8
        EXTERN ?BANKED_ENTER_XDATA
        EXTERN ?BANKED_LEAVE_XDATA
        EXTERN ?BDISPATCH
        EXTERN ?BRET
        EXTERN ?DEALLOC_XSTACK8
        EXTERN ?PUSH_XSTACK_I_ONE
        EXTERN ?PUSH_XSTACK_I_TWO
        EXTERN ?V0
        EXTERN ?XSP
        EXTERN ?XSTACK_DISP0_8
        EXTERN __INIT_XDATA_I
        EXTERN __INIT_XDATA_Z

        PUBLIC ??LED_CHANGE?relay
        FUNCTION ??LED_CHANGE?relay,0203H
        PUBLIC ??READ_NETKEY?relay
        FUNCTION ??READ_NETKEY?relay,0203H
        PUBLIC ??SampleAPP_ProcessZDOMsgs?relay
        FUNCTION ??SampleAPP_ProcessZDOMsgs?relay,0203H
        PUBLIC ??SampleAPP_send_delay_message?relay
        FUNCTION ??SampleAPP_send_delay_message?relay,0203H
        PUBLIC ??SampleApp_HandleKeys?relay
        FUNCTION ??SampleApp_HandleKeys?relay,0203H
        PUBLIC ??SampleApp_ProcessBINDINGMessage?relay
        FUNCTION ??SampleApp_ProcessBINDINGMessage?relay,0203H
        PUBLIC ??SampleApp_SendInMessage?relay
        FUNCTION ??SampleApp_SendInMessage?relay,0203H
        PUBLIC ??USER_AFTER_RS_MSG?relay
        FUNCTION ??USER_AFTER_RS_MSG?relay,0203H
        PUBLIC ??USER_APP_COMMAND?relay
        FUNCTION ??USER_APP_COMMAND?relay,0203H
        PUBLIC ??USER_APP_JOIN_MSG?relay
        FUNCTION ??USER_APP_JOIN_MSG?relay,0203H
        PUBLIC ??USER_SET_RS_MSG?relay
        FUNCTION ??USER_SET_RS_MSG?relay,0203H
        PUBLIC ??USER_ZDO_JOINING_MSG?relay
        FUNCTION ??USER_ZDO_JOINING_MSG?relay,0203H
        PUBLIC ??UserApp_Init?relay
        FUNCTION ??UserApp_Init?relay,0203H
        PUBLIC ??UserApp_ProcessEvent?relay
        FUNCTION ??UserApp_ProcessEvent?relay,0203H
        PUBLIC ??User_APP_Drive_init?relay
        FUNCTION ??User_APP_Drive_init?relay,0203H
        PUBLIC ??close_load_1?relay
        FUNCTION ??close_load_1?relay,0203H
        PUBLIC ??close_load_2?relay
        FUNCTION ??close_load_2?relay,0203H
        PUBLIC ??hold_load_1?relay
        FUNCTION ??hold_load_1?relay,0203H
        PUBLIC ??hold_load_2?relay
        FUNCTION ??hold_load_2?relay,0203H
        PUBLIC ??open_load_1?relay
        FUNCTION ??open_load_1?relay,0203H
        PUBLIC ??open_load_2?relay
        FUNCTION ??open_load_2?relay,0203H
        PUBLIC DEFINED_CONTROL_CHAR
        PUBLIC DEVICE_ID
        PUBLIC JOIN_ROLE
        PUBLIC LED_CHANGE
        FUNCTION LED_CHANGE,0203H
        ARGFRAME XSTACK, 0, STACK
        PUBLIC ONOROFF1
        PUBLIC ONOROFF2
        PUBLIC ONOROFF3
        PUBLIC ONOROFF4
        PUBWEAK P0DIR
        PUBWEAK P2DIR
        PUBLIC P_Value
        PUBLIC READ_NETKEY
        FUNCTION READ_NETKEY,0203H
        ARGFRAME XSTACK, 0, STACK
        PUBLIC RS_LEN
        PUBLIC RS_STR
        PUBLIC SHORT_ADRESS
        PUBLIC SampleAPP_ProcessZDOMsgs
        FUNCTION SampleAPP_ProcessZDOMsgs,021203H
        ARGFRAME XSTACK, 14, STACK
        ARGFRAME IOVERLAY, 0, STATIC
        ARGFRAME DOVERLAY, 0, STATIC
        LOCFRAME XSTACK, 9, STACK
        PUBLIC SampleAPP_send_delay_message
        FUNCTION SampleAPP_send_delay_message,021203H
        ARGFRAME XSTACK, 0, STACK
        LOCFRAME XSTACK, 19, STACK
        PUBLIC SampleApp_BIND_DstAddr
        PUBLIC SampleApp_HandleKeys
        FUNCTION SampleApp_HandleKeys,021203H
        ARGFRAME XSTACK, 14, STACK
        ARGFRAME IOVERLAY, 0, STATIC
        ARGFRAME DOVERLAY, 0, STATIC
        LOCFRAME XSTACK, 30, STACK
        PUBLIC SampleApp_ProcessBINDINGMessage
        FUNCTION SampleApp_ProcessBINDINGMessage,021203H
        ARGFRAME XSTACK, 0, STACK
        LOCFRAME XSTACK, 9, STACK
        PUBLIC SampleApp_SendInMessage
        FUNCTION SampleApp_SendInMessage,021203H
        ARGFRAME XSTACK, 10, STACK
        ARGFRAME IOVERLAY, 0, STATIC
        ARGFRAME DOVERLAY, 0, STATIC
        LOCFRAME XSTACK, 11, STACK
        PUBLIC SampleApp_SimpleDesc1
        PUBLIC SampleApp_SimpleDesc2
        PUBLIC SampleApp_epDesc1
        PUBLIC SampleApp_epDesc2
        PUBLIC USER_AFTER_RS_MSG
        FUNCTION USER_AFTER_RS_MSG,0203H
        ARGFRAME XSTACK, 0, STACK
        PUBLIC USER_APP_COMMAND
        FUNCTION USER_APP_COMMAND,0203H
        ARGFRAME XSTACK, 0, STACK
        PUBLIC USER_APP_JOIN_MSG
        FUNCTION USER_APP_JOIN_MSG,021203H
        ARGFRAME XSTACK, 0, STACK
        LOCFRAME XSTACK, 10, STACK
        PUBLIC USER_DATA_LEN
        PUBLIC USER_DATA_STR
        PUBLIC USER_DATA_TYPE
        PUBLIC USER_SET_RS_MSG
        FUNCTION USER_SET_RS_MSG,0203H
        ARGFRAME XSTACK, 0, STACK
        LOCFRAME ISTACK, 2, STACK
        PUBLIC USER_SampleApp_ClusterList
        PUBLIC USER_ZDO_JOINING_MSG
        FUNCTION USER_ZDO_JOINING_MSG,021203H
        ARGFRAME XSTACK, 0, STACK
        LOCFRAME ISTACK, 2, STACK
        PUBLIC USER_bindingINClusters
        PUBLIC UserApp_Init
        FUNCTION UserApp_Init,021203H
        ARGFRAME XSTACK, 0, STACK
        LOCFRAME XSTACK, 9, STACK
        PUBLIC UserApp_ProcessEvent
        FUNCTION UserApp_ProcessEvent,021203H
        ARGFRAME XSTACK, 0, STACK
        LOCFRAME XSTACK, 14, STACK
        PUBLIC UserApp_TaskID
        PUBLIC User_APP_Drive_init
        FUNCTION User_APP_Drive_init,0203H
        ARGFRAME XSTACK, 9, STACK
        ARGFRAME IOVERLAY, 0, STATIC
        ARGFRAME DOVERLAY, 0, STATIC
        PUBWEAK _A_P0
        PUBWEAK _A_P1
        PUBWEAK _A_P2
        PUBLIC close_load_1
        FUNCTION close_load_1,0203H
        ARGFRAME XSTACK, 0, STACK
        LOCFRAME ISTACK, 2, STACK
        PUBLIC close_load_2
        FUNCTION close_load_2,0203H
        ARGFRAME XSTACK, 0, STACK
        LOCFRAME ISTACK, 2, STACK
        PUBLIC hold_load_1
        FUNCTION hold_load_1,0203H
        ARGFRAME XSTACK, 0, STACK
        PUBLIC hold_load_2
        FUNCTION hold_load_2,0203H
        ARGFRAME XSTACK, 0, STACK
        PUBLIC huePara
        PUBLIC load_1_flag
        PUBLIC load_2_flag
        PUBLIC load_3_flag
        PUBLIC open_load_1
        FUNCTION open_load_1,0203H
        ARGFRAME XSTACK, 0, STACK
        LOCFRAME ISTACK, 2, STACK
        PUBLIC open_load_2
        FUNCTION open_load_2,0203H
        ARGFRAME XSTACK, 0, STACK
        LOCFRAME ISTACK, 2, STACK
        PUBLIC screen_current_flag
        PUBLIC screen_flag
        
        CFI Names cfiNames0
        CFI StackFrame CFA_SP SP IDATA
        CFI StackFrame CFA_PSP16 PSP16 XDATA
        CFI StackFrame CFA_XSP16 XSP16 XDATA
        CFI StaticOverlayFrame CFA_IOVERLAY IOVERLAY
        CFI StaticOverlayFrame CFA_DOVERLAY DOVERLAY
        CFI Resource `PSW.CY`:1, `B.BR0`:1, `B.BR1`:1, `B.BR2`:1, `B.BR3`:1
        CFI Resource `B.BR4`:1, `B.BR5`:1, `B.BR6`:1, `B.BR7`:1, `VB.BR8`:1
        CFI Resource `VB.BR9`:1, `VB.BR10`:1, `VB.BR11`:1, `VB.BR12`:1
        CFI Resource `VB.BR13`:1, `VB.BR14`:1, `VB.BR15`:1, VB:8, B:8, A:8
        CFI Resource PSW:8, DPL0:8, DPH0:8, R0:8, R1:8, R2:8, R3:8, R4:8, R5:8
        CFI Resource R6:8, R7:8, V0:8, V1:8, V2:8, V3:8, V4:8, V5:8, V6:8, V7:8
        CFI Resource V8:8, V9:8, V10:8, V11:8, V12:8, V13:8, V14:8, V15:8, SP:8
        CFI Resource PSPH:8, PSPL:8, PSP16:16, XSPH:8, XSPL:8, XSP16:16
        CFI VirtualResource ?RET:24
        CFI Resource ?BRET_EXT:8
        CFI VirtualResource ?RET_HIGH:8, ?RET_LOW:8
        CFI ResourceParts PSP16 PSPH, PSPL
        CFI ResourceParts XSP16 XSPH, XSPL
        CFI ResourceParts ?RET ?BRET_EXT, ?RET_HIGH, ?RET_LOW
        CFI EndNames cfiNames0
        
        CFI Common cfiCommon0 Using cfiNames0
        CFI CodeAlign 1
        CFI DataAlign -1
        CFI ReturnAddress ?RET CODE
        CFI CFA_DOVERLAY Used
        CFI CFA_IOVERLAY Used
        CFI CFA_SP SP+-3
        CFI CFA_PSP16 PSP16+0
        CFI CFA_XSP16 XSP16+0
        CFI `PSW.CY` SameValue
        CFI `B.BR0` SameValue
        CFI `B.BR1` SameValue
        CFI `B.BR2` SameValue
        CFI `B.BR3` SameValue
        CFI `B.BR4` SameValue
        CFI `B.BR5` SameValue
        CFI `B.BR6` SameValue
        CFI `B.BR7` SameValue
        CFI `VB.BR8` SameValue
        CFI `VB.BR9` SameValue
        CFI `VB.BR10` SameValue
        CFI `VB.BR11` SameValue
        CFI `VB.BR12` SameValue
        CFI `VB.BR13` SameValue
        CFI `VB.BR14` SameValue
        CFI `VB.BR15` SameValue
        CFI VB SameValue
        CFI B Undefined
        CFI A Undefined
        CFI PSW SameValue
        CFI DPL0 SameValue
        CFI DPH0 SameValue
        CFI R0 Undefined
        CFI R1 Undefined
        CFI R2 Undefined
        CFI R3 Undefined
        CFI R4 Undefined
        CFI R5 Undefined
        CFI R6 SameValue
        CFI R7 SameValue
        CFI V0 SameValue
        CFI V1 SameValue
        CFI V2 SameValue
        CFI V3 SameValue
        CFI V4 SameValue
        CFI V5 SameValue
        CFI V6 SameValue
        CFI V7 SameValue
        CFI V8 SameValue
        CFI V9 SameValue
        CFI V10 SameValue
        CFI V11 SameValue
        CFI V12 SameValue
        CFI V13 SameValue
        CFI V14 SameValue
        CFI V15 SameValue
        CFI PSPH Undefined
        CFI PSPL Undefined
        CFI XSPH Undefined
        CFI XSPL Undefined
        CFI ?RET Concat
        CFI ?BRET_EXT Frame(CFA_SP, 3)
        CFI ?RET_HIGH Frame(CFA_SP, 2)
        CFI ?RET_LOW Frame(CFA_SP, 1)
        CFI EndCommon cfiCommon0
        
RegisterForKeys     SYMBOL "RegisterForKeys"
afRegister          SYMBOL "afRegister"
ZDO_RegisterForZDOMsg SYMBOL "ZDO_RegisterForZDOMsg"
osal_msg_receive    SYMBOL "osal_msg_receive"
osal_msg_deallocate SYMBOL "osal_msg_deallocate"
HalLedBlink         SYMBOL "HalLedBlink"
NLME_GetShortAddr   SYMBOL "NLME_GetShortAddr"
ZDP_EndDeviceBindReq SYMBOL "ZDP_EndDeviceBindReq"
APPLY_TO_JOIN_OF_KEY SYMBOL "APPLY_TO_JOIN_OF_KEY"
SampleApp_send_in_binding_req SYMBOL "SampleApp_send_in_binding_req"
SampleApp_PermitJoin SYMBOL "SampleApp_PermitJoin"
RESTORE_TO_FACTORY  SYMBOL "RESTORE_TO_FACTORY"
osal_start_timerEx  SYMBOL "osal_start_timerEx"
SampleApp_GetShortAddr SYMBOL "SampleApp_GetShortAddr"
osal_mem_free       SYMBOL "osal_mem_free"
osal_mem_alloc      SYMBOL "osal_mem_alloc"
USER_SEND_ADD_STR   SYMBOL "USER_SEND_ADD_STR"
USER_APP_SEND_IN    SYMBOL "USER_APP_SEND_IN"
bindNumReflections  SYMBOL "bindNumReflections"
AF_DataRequest      SYMBOL "AF_DataRequest"
??AF_DataRequest?relay SYMBOL "?relay", AF_DataRequest
??APPLY_TO_JOIN_OF_KEY?relay SYMBOL "?relay", APPLY_TO_JOIN_OF_KEY
??HalLedBlink?relay SYMBOL "?relay", HalLedBlink
??NLME_GetShortAddr?relay SYMBOL "?relay", NLME_GetShortAddr
??RESTORE_TO_FACTORY?relay SYMBOL "?relay", RESTORE_TO_FACTORY
??RegisterForKeys?relay SYMBOL "?relay", RegisterForKeys
??SampleApp_GetShortAddr?relay SYMBOL "?relay", SampleApp_GetShortAddr
??SampleApp_PermitJoin?relay SYMBOL "?relay", SampleApp_PermitJoin
??SampleApp_send_in_binding_req?relay SYMBOL "?relay", SampleApp_send_in_binding_req
??USER_APP_SEND_IN?relay SYMBOL "?relay", USER_APP_SEND_IN
??USER_SEND_ADD_STR?relay SYMBOL "?relay", USER_SEND_ADD_STR
??ZDO_RegisterForZDOMsg?relay SYMBOL "?relay", ZDO_RegisterForZDOMsg
??ZDP_EndDeviceBindReq?relay SYMBOL "?relay", ZDP_EndDeviceBindReq
??afRegister?relay  SYMBOL "?relay", afRegister
??bindNumReflections?relay SYMBOL "?relay", bindNumReflections
??osal_mem_alloc?relay SYMBOL "?relay", osal_mem_alloc
??osal_mem_free?relay SYMBOL "?relay", osal_mem_free
??osal_msg_deallocate?relay SYMBOL "?relay", osal_msg_deallocate
??osal_msg_receive?relay SYMBOL "?relay", osal_msg_receive
??osal_start_timerEx?relay SYMBOL "?relay", osal_start_timerEx
LED_CHANGE          SYMBOL "LED_CHANGE"
??LED_CHANGE?relay  SYMBOL "?relay", LED_CHANGE
READ_NETKEY         SYMBOL "READ_NETKEY"
??READ_NETKEY?relay SYMBOL "?relay", READ_NETKEY
SampleAPP_ProcessZDOMsgs SYMBOL "SampleAPP_ProcessZDOMsgs"
??SampleAPP_ProcessZDOMsgs?relay SYMBOL "?relay", SampleAPP_ProcessZDOMsgs
SampleAPP_send_delay_message SYMBOL "SampleAPP_send_delay_message"
??SampleAPP_send_delay_message?relay SYMBOL "?relay", SampleAPP_send_delay_message
SampleApp_HandleKeys SYMBOL "SampleApp_HandleKeys"
??SampleApp_HandleKeys?relay SYMBOL "?relay", SampleApp_HandleKeys
SampleApp_ProcessBINDINGMessage SYMBOL "SampleApp_ProcessBINDINGMessage"
??SampleApp_ProcessBINDINGMessage?relay SYMBOL "?relay", SampleApp_ProcessBINDINGMessage
SampleApp_SendInMessage SYMBOL "SampleApp_SendInMessage"
??SampleApp_SendInMessage?relay SYMBOL "?relay", SampleApp_SendInMessage
USER_AFTER_RS_MSG   SYMBOL "USER_AFTER_RS_MSG"
??USER_AFTER_RS_MSG?relay SYMBOL "?relay", USER_AFTER_RS_MSG
USER_APP_COMMAND    SYMBOL "USER_APP_COMMAND"
??USER_APP_COMMAND?relay SYMBOL "?relay", USER_APP_COMMAND
USER_APP_JOIN_MSG   SYMBOL "USER_APP_JOIN_MSG"
??USER_APP_JOIN_MSG?relay SYMBOL "?relay", USER_APP_JOIN_MSG
USER_SET_RS_MSG     SYMBOL "USER_SET_RS_MSG"
??USER_SET_RS_MSG?relay SYMBOL "?relay", USER_SET_RS_MSG
USER_ZDO_JOINING_MSG SYMBOL "USER_ZDO_JOINING_MSG"
??USER_ZDO_JOINING_MSG?relay SYMBOL "?relay", USER_ZDO_JOINING_MSG
UserApp_Init        SYMBOL "UserApp_Init"
??UserApp_Init?relay SYMBOL "?relay", UserApp_Init
UserApp_ProcessEvent SYMBOL "UserApp_ProcessEvent"
??UserApp_ProcessEvent?relay SYMBOL "?relay", UserApp_ProcessEvent
User_APP_Drive_init SYMBOL "User_APP_Drive_init"
??User_APP_Drive_init?relay SYMBOL "?relay", User_APP_Drive_init
close_load_1        SYMBOL "close_load_1"
??close_load_1?relay SYMBOL "?relay", close_load_1
close_load_2        SYMBOL "close_load_2"
??close_load_2?relay SYMBOL "?relay", close_load_2
hold_load_1         SYMBOL "hold_load_1"
??hold_load_1?relay SYMBOL "?relay", hold_load_1
hold_load_2         SYMBOL "hold_load_2"
??hold_load_2?relay SYMBOL "?relay", hold_load_2
open_load_1         SYMBOL "open_load_1"
??open_load_1?relay SYMBOL "?relay", open_load_1
open_load_2         SYMBOL "open_load_2"
??open_load_2?relay SYMBOL "?relay", open_load_2

        EXTERN RegisterForKeys
        FUNCTION RegisterForKeys,0202H
        ARGFRAME ISTACK, 0, STACK
        ARGFRAME PSTACK, 0, STACK
        ARGFRAME XSTACK, 9, STACK
        ARGFRAME IOVERLAY, 0, STATIC
        ARGFRAME DOVERLAY, 0, STATIC
        EXTERN afRegister
        FUNCTION afRegister,0202H
        ARGFRAME ISTACK, 0, STACK
        ARGFRAME PSTACK, 0, STACK
        ARGFRAME XSTACK, 9, STACK
        ARGFRAME IOVERLAY, 0, STATIC
        ARGFRAME DOVERLAY, 0, STATIC
        EXTERN ZDO_RegisterForZDOMsg
        FUNCTION ZDO_RegisterForZDOMsg,0202H
        ARGFRAME ISTACK, 0, STACK
        ARGFRAME PSTACK, 0, STACK
        ARGFRAME XSTACK, 9, STACK
        ARGFRAME IOVERLAY, 0, STATIC
        ARGFRAME DOVERLAY, 0, STATIC
        EXTERN osal_msg_receive
        FUNCTION osal_msg_receive,0202H
        ARGFRAME ISTACK, 0, STACK
        ARGFRAME PSTACK, 0, STACK
        ARGFRAME XSTACK, 14, STACK
        ARGFRAME IOVERLAY, 0, STATIC
        ARGFRAME DOVERLAY, 0, STATIC
        EXTERN osal_msg_deallocate
        FUNCTION osal_msg_deallocate,0202H
        ARGFRAME ISTACK, 0, STACK
        ARGFRAME PSTACK, 0, STACK
        ARGFRAME XSTACK, 14, STACK
        ARGFRAME IOVERLAY, 0, STATIC
        ARGFRAME DOVERLAY, 0, STATIC
        EXTERN HalLedBlink
        FUNCTION HalLedBlink,0202H
        ARGFRAME ISTACK, 2, STACK
        ARGFRAME PSTACK, 0, STACK
        ARGFRAME XSTACK, 21, STACK
        ARGFRAME IOVERLAY, 0, STATIC
        ARGFRAME DOVERLAY, 0, STATIC
        EXTERN NLME_GetShortAddr
        FUNCTION NLME_GetShortAddr,0202H
        ARGFRAME ISTACK, 0, STACK
        ARGFRAME PSTACK, 0, STACK
        ARGFRAME XSTACK, 30, STACK
        ARGFRAME IOVERLAY, 0, STATIC
        ARGFRAME DOVERLAY, 0, STATIC
        EXTERN ZDP_EndDeviceBindReq
        FUNCTION ZDP_EndDeviceBindReq,0202H
        ARGFRAME ISTACK, 0, STACK
        ARGFRAME PSTACK, 0, STACK
        ARGFRAME XSTACK, 30, STACK
        ARGFRAME IOVERLAY, 0, STATIC
        ARGFRAME DOVERLAY, 0, STATIC
        EXTERN APPLY_TO_JOIN_OF_KEY
        FUNCTION APPLY_TO_JOIN_OF_KEY,0202H
        ARGFRAME ISTACK, 0, STACK
        ARGFRAME PSTACK, 0, STACK
        ARGFRAME XSTACK, 21, STACK
        ARGFRAME IOVERLAY, 0, STATIC
        ARGFRAME DOVERLAY, 0, STATIC
        EXTERN SampleApp_send_in_binding_req
        FUNCTION SampleApp_send_in_binding_req,0202H
        ARGFRAME ISTACK, 0, STACK
        ARGFRAME PSTACK, 0, STACK
        ARGFRAME XSTACK, 21, STACK
        ARGFRAME IOVERLAY, 0, STATIC
        ARGFRAME DOVERLAY, 0, STATIC
        EXTERN SampleApp_PermitJoin
        FUNCTION SampleApp_PermitJoin,0202H
        ARGFRAME ISTACK, 0, STACK
        ARGFRAME PSTACK, 0, STACK
        ARGFRAME XSTACK, 21, STACK
        ARGFRAME IOVERLAY, 0, STATIC
        ARGFRAME DOVERLAY, 0, STATIC
        EXTERN RESTORE_TO_FACTORY
        FUNCTION RESTORE_TO_FACTORY,0202H
        ARGFRAME ISTACK, 0, STACK
        ARGFRAME PSTACK, 0, STACK
        ARGFRAME XSTACK, 21, STACK
        ARGFRAME IOVERLAY, 0, STATIC
        ARGFRAME DOVERLAY, 0, STATIC
        EXTERN osal_start_timerEx
        FUNCTION osal_start_timerEx,0202H
        ARGFRAME ISTACK, 0, STACK
        ARGFRAME PSTACK, 0, STACK
        ARGFRAME XSTACK, 21, STACK
        ARGFRAME IOVERLAY, 0, STATIC
        ARGFRAME DOVERLAY, 0, STATIC
        EXTERN SampleApp_GetShortAddr
        FUNCTION SampleApp_GetShortAddr,0202H
        ARGFRAME ISTACK, 0, STACK
        ARGFRAME PSTACK, 0, STACK
        ARGFRAME XSTACK, 10, STACK
        ARGFRAME IOVERLAY, 0, STATIC
        ARGFRAME DOVERLAY, 0, STATIC
        EXTERN osal_mem_free
        FUNCTION osal_mem_free,0202H
        ARGFRAME ISTACK, 0, STACK
        ARGFRAME PSTACK, 0, STACK
        ARGFRAME XSTACK, 11, STACK
        ARGFRAME IOVERLAY, 0, STATIC
        ARGFRAME DOVERLAY, 0, STATIC
        EXTERN osal_mem_alloc
        FUNCTION osal_mem_alloc,0202H
        ARGFRAME ISTACK, 0, STACK
        ARGFRAME PSTACK, 0, STACK
        ARGFRAME XSTACK, 11, STACK
        ARGFRAME IOVERLAY, 0, STATIC
        ARGFRAME DOVERLAY, 0, STATIC
        EXTERN USER_SEND_ADD_STR
        FUNCTION USER_SEND_ADD_STR,0202H
        ARGFRAME ISTACK, 0, STACK
        ARGFRAME PSTACK, 0, STACK
        ARGFRAME XSTACK, 11, STACK
        ARGFRAME IOVERLAY, 0, STATIC
        ARGFRAME DOVERLAY, 0, STATIC
        EXTERN USER_APP_SEND_IN
        FUNCTION USER_APP_SEND_IN,0202H
        ARGFRAME ISTACK, 0, STACK
        ARGFRAME PSTACK, 0, STACK
        ARGFRAME XSTACK, 11, STACK
        ARGFRAME IOVERLAY, 0, STATIC
        ARGFRAME DOVERLAY, 0, STATIC
        EXTERN bindNumReflections
        FUNCTION bindNumReflections,0202H
        ARGFRAME ISTACK, 0, STACK
        ARGFRAME PSTACK, 0, STACK
        ARGFRAME XSTACK, 10, STACK
        ARGFRAME IOVERLAY, 0, STATIC
        ARGFRAME DOVERLAY, 0, STATIC
        EXTERN AF_DataRequest
        FUNCTION AF_DataRequest,0202H
        ARGFRAME ISTACK, 0, STACK
        ARGFRAME PSTACK, 0, STACK
        ARGFRAME XSTACK, 19, STACK
        ARGFRAME IOVERLAY, 0, STATIC
        ARGFRAME DOVERLAY, 0, STATIC
        EXTERN ??AF_DataRequest?relay
        FUNCTION ??AF_DataRequest?relay,00H
        EXTERN ??APPLY_TO_JOIN_OF_KEY?relay
        FUNCTION ??APPLY_TO_JOIN_OF_KEY?relay,00H
        EXTERN ??HalLedBlink?relay
        FUNCTION ??HalLedBlink?relay,00H
        EXTERN ??NLME_GetShortAddr?relay
        FUNCTION ??NLME_GetShortAddr?relay,00H
        EXTERN ??RESTORE_TO_FACTORY?relay
        FUNCTION ??RESTORE_TO_FACTORY?relay,00H
        EXTERN ??RegisterForKeys?relay
        FUNCTION ??RegisterForKeys?relay,00H
        EXTERN ??SampleApp_GetShortAddr?relay
        FUNCTION ??SampleApp_GetShortAddr?relay,00H
        EXTERN ??SampleApp_PermitJoin?relay
        FUNCTION ??SampleApp_PermitJoin?relay,00H
        EXTERN ??SampleApp_send_in_binding_req?relay
        FUNCTION ??SampleApp_send_in_binding_req?relay,00H
        EXTERN ??USER_APP_SEND_IN?relay
        FUNCTION ??USER_APP_SEND_IN?relay,00H
        EXTERN ??USER_SEND_ADD_STR?relay
        FUNCTION ??USER_SEND_ADD_STR?relay,00H
        EXTERN ??ZDO_RegisterForZDOMsg?relay
        FUNCTION ??ZDO_RegisterForZDOMsg?relay,00H
        EXTERN ??ZDP_EndDeviceBindReq?relay
        FUNCTION ??ZDP_EndDeviceBindReq?relay,00H
        EXTERN ??afRegister?relay
        FUNCTION ??afRegister?relay,00H
        EXTERN ??bindNumReflections?relay
        FUNCTION ??bindNumReflections?relay,00H
        EXTERN ??osal_mem_alloc?relay
        FUNCTION ??osal_mem_alloc?relay,00H
        EXTERN ??osal_mem_free?relay
        FUNCTION ??osal_mem_free?relay,00H
        EXTERN ??osal_msg_deallocate?relay
        FUNCTION ??osal_msg_deallocate?relay,00H
        EXTERN ??osal_msg_receive?relay
        FUNCTION ??osal_msg_receive?relay,00H
        EXTERN ??osal_start_timerEx?relay
        FUNCTION ??osal_start_timerEx?relay,00H
        EXTERN KEY_NUMBER_FLAG_A
        EXTERN SampleApp_TaskID
        EXTERN SampleApp_TransID
        EXTERN devState
        EXTERN key_double_flag
        EXTERN key_hold_flag
        EXTERN shortddr_mem

// D:\RE_1_2_0_FORMAL_APP(251)-14-12-8\Projects\zstack\Samples\SampleApp\Source\LN_2_SCEEN_KEYPAD_device\LN_2_SCEEN_KEYPAD_User_app.c
//    1 /**************************************************************************************************
//    2 Filename:       SampleApp.c
//    3 Revised:        $Date: 2007-10-27 17:16:54 -0700 (Sat, 27 Oct 2007) $
//    4 Revision:       $Revision: 15793 $
//    5 
//    6 Description:    Sample Application (no Profile).
//    7 
//    8 
//    9 Copyright 2007 Texas Instruments Incorporated. All rights reserved.
//   10 
//   11 IMPORTANT: Your use of this Software is limited to those specific rights
//   12 granted under the terms of a software license agreement between the user
//   13 who downloaded the software, his/her employer (which must be your employer)
//   14 and Texas Instruments Incorporated (the "License").  You may not use this
//   15 Software unless you agree to abide by the terms of the License. The License
//   16 limits your use, and you acknowledge, that the Software may not be modified,
//   17 copied or distributed unless embedded on a Texas Instruments microcontroller
//   18 or used solely and exclusively in conjunction with a Texas Instruments radio
//   19 frequency transceiver, which is integrated into your product.  Other than for
//   20 the foregoing purpose, you may not use, reproduce, copy, prepare derivative
//   21 works of, modify, distribute, perform, display or sell this Software and/or
//   22 its documentation for any purpose.
//   23 
//   24 YOU FURTHER ACKNOWLEDGE AND AGREE THAT THE SOFTWARE AND DOCUMENTATION ARE
//   25 PROVIDED AS IS?WITHOUT WARRANTY OF ANY KIND, EITHER EXPRESS OR IMPLIED,
//   26 INCLUDING WITHOUT LIMITATION, ANY WARRANTY OF MERCHANTABILITY, TITLE,
//   27 NON-INFRINGEMENT AND FITNESS FOR A PARTICULAR PURPOSE. IN NO EVENT SHALL
//   28 TEXAS INSTRUMENTS OR ITS LICENSORS BE LIABLE OR OBLIGATED UNDER CONTRACT,
//   29 NEGLIGENCE, STRICT LIABILITY, CONTRIBUTION, BREACH OF WARRANTY, OR OTHER
//   30 LEGAL EQUITABLE THEORY ANY DIRECT OR INDIRECT DAMAGES OR EXPENSES
//   31 INCLUDING BUT NOT LIMITED TO ANY INCIDENTAL, SPECIAL, INDIRECT, PUNITIVE
//   32 OR CONSEQUENTIAL DAMAGES, LOST PROFITS OR LOST DATA, COST OF PROCUREMENT
//   33 OF SUBSTITUTE GOODS, TECHNOLOGY, SERVICES, OR ANY CLAIMS BY THIRD PARTIES
//   34 (INCLUDING BUT NOT LIMITED TO ANY DEFENSE THEREOF), OR OTHER SIMILAR COSTS.
//   35 
//   36 Should you have any questions regarding your right to use this Software,
//   37 contact Texas Instruments Incorporated at www.TI.com.
//   38 **************************************************************************************************/
//   39 
//   40 /*********************************************************************
//   41 This application isn't intended to do anything useful, it is
//   42 intended to be a simple example of an application's structure.
//   43 
//   44 This application sends it's messages either as broadcast or
//   45 broadcast filtered group messages.  The other (more normal)
//   46 message addressing is unicast.  Most of the other sample
//   47 applications are written to support the unicast message model.
//   48 
//   49 Key control:
//   50 SW1:  Sends a flash command to all devices in Group 1.
//   51 SW2:  Adds/Removes (toggles) this device in and out
//   52 of Group 1.  This will enable and disable the
//   53 reception of the flash command.
//   54 *********************************************************************/
//   55 /*******************************************************************************
//   56 文件名称：SR_SOCKET_User_app.C
//   57 文件功能：用户主文件
//   58 设计人员：
//   59 设计时间：20141014
//   60 修改记录：无
//   61 备注说明：包含用户需要填充的所有回调函数，用户只需填充回调函数即可
//   62 *******************************************************************************/
//   63 /*******************************************************************************
//   64 文件包含
//   65 *******************************************************************************/
//   66 #include "AF.h"
//   67 #include "ZDApp.h"
//   68 #include "device.h"
//   69 #include "OnBoard.h"

        ASEGN SFR_AN:DATA:NOROOT,080H
// union <unnamed> volatile __sfr _A_P0
_A_P0:
        DATA8
        DS 1

        ASEGN SFR_AN:DATA:NOROOT,090H
// union <unnamed> volatile __sfr _A_P1
_A_P1:
        DATA8
        DS 1

        ASEGN SFR_AN:DATA:NOROOT,0a0H
// union <unnamed> volatile __sfr _A_P2
_A_P2:
        DATA8
        DS 1

        ASEGN SFR_AN:DATA:NOROOT,0fdH
// unsigned char volatile __sfr P0DIR
P0DIR:
        DATA8
        DS 1

        ASEGN SFR_AN:DATA:NOROOT,0ffH
// unsigned char volatile __sfr P2DIR
P2DIR:
        DATA8
        DS 1
//   70 #include "MT_UART.h"
//   71 
//   72 /* HAL */
//   73 #include "hal_led.h"
//   74 #include "hal_key.h"
//   75 #include "OSAL_Nv.h"
//   76 
//   77 #include "AddrMgr.h"
//   78 
//   79 #include "ZDObject.h"
//   80 #include "ZDO_LIB.h"
//   81 #include "common_device.h"
//   82 //#include "CS5463_spi.h" 
//   83 #include "IO_config.h"
//   84 /*******************************************************************************
//   85 全局变量
//   86 *******************************************************************************/  

        RSEG XDATA_Z:XDATA:NOROOT(0)
        DATA8
//   87 uint8 UserApp_TaskID;//用户注册的任务的编号，系统自动分配
UserApp_TaskID:
        DS 1
        REQUIRE __INIT_XDATA_Z

        RSEG XDATA_Z:XDATA:NOROOT(0)
        DATA8
//   88 uint8 RS_LEN=0;
RS_LEN:
        DS 1
        REQUIRE __INIT_XDATA_Z

        RSEG XDATA_Z:XDATA:NOROOT(0)
        DATA8
//   89 uint8 RS_STR[10];
RS_STR:
        DS 10
        REQUIRE __INIT_XDATA_Z
//   90 

        RSEG XDATA_Z:XDATA:NOROOT(0)
        DATA8
//   91 uint8 DEVICE_ID;
DEVICE_ID:
        DS 1
        REQUIRE __INIT_XDATA_Z

        RSEG XDATA_Z:XDATA:NOROOT(0)
        DATA8
//   92 uint8 DEFINED_CONTROL_CHAR;
DEFINED_CONTROL_CHAR:
        DS 1
        REQUIRE __INIT_XDATA_Z

        RSEG XDATA_Z:XDATA:NOROOT(0)
        DATA8
//   93 uint8 JOIN_ROLE;
JOIN_ROLE:
        DS 1
        REQUIRE __INIT_XDATA_Z
//   94 

        RSEG XDATA_Z:XDATA:NOROOT(0)
        DATA32
//   95 uint8 SHORT_ADRESS[4];
SHORT_ADRESS:
        DS 4
        REQUIRE __INIT_XDATA_Z

        RSEG XDATA_Z:XDATA:NOROOT(0)
        DATA8
//   96 uint8 USER_DATA_LEN=0;
USER_DATA_LEN:
        DS 1
        REQUIRE __INIT_XDATA_Z

        RSEG XDATA_Z:XDATA:NOROOT(0)
        DATA8
//   97 uint8 USER_DATA_TYPE=0;
USER_DATA_TYPE:
        DS 1
        REQUIRE __INIT_XDATA_Z

        RSEG XDATA_Z:XDATA:NOROOT(0)
        DATA16
//   98 uint8 *USER_DATA_STR;
USER_DATA_STR:
        DS 2
        REQUIRE __INIT_XDATA_Z

        RSEG XDATA_Z:XDATA:NOROOT(0)
        DATA32
//   99 uint32 P_Value;
P_Value:
        DS 4
        REQUIRE __INIT_XDATA_Z
//  100 extern uint8 KEY_NUMBER_FLAG_A ;//按键标志
//  101 
//  102 

        RSEG XDATA_Z:XDATA:NOROOT(0)
        DATA8
//  103 afAddrType_t SampleApp_BIND_DstAddr;
SampleApp_BIND_DstAddr:
        DS 12
        REQUIRE __INIT_XDATA_Z
//  104 

        RSEG XDATA_Z:XDATA:NOROOT(0)
        DATA8
//  105   uint8 load_1_flag = 0;
load_1_flag:
        DS 1
        REQUIRE __INIT_XDATA_Z

        RSEG XDATA_Z:XDATA:NOROOT(0)
        DATA8
//  106   uint8 load_2_flag = 0;
load_2_flag:
        DS 1
        REQUIRE __INIT_XDATA_Z

        RSEG XDATA_Z:XDATA:NOROOT(0)
        DATA8
//  107   uint8 load_3_flag = 0;
load_3_flag:
        DS 1
        REQUIRE __INIT_XDATA_Z
//  108 
//  109 
//  110 void open_load_1(void);
//  111 void close_load_1(void);
//  112 void hold_load_1(void);
//  113 
//  114 void open_load_2(void);
//  115 void close_load_2(void);
//  116 void hold_load_2(void);
//  117 
//  118 void SampleAPP_send_delay_message(void);
//  119 
//  120 #define WALL_ONOFF_BINDOUTGLIST       3

        RSEG XDATA_I:XDATA:NOROOT(0)
//  121 static cId_t bindingOUTClusters[WALL_ONOFF_BINDOUTGLIST] =
bindingOUTClusters:
        DATA8
        DS 6
        REQUIRE `?<Initializer for bindingOUTClusters>`
        REQUIRE __INIT_XDATA_I
//  122 {
//  123   SAMPLEAPP_ONOFF_CLUSTERID,
//  124   SAMPLEAPP_DIMMER_CLUSTERID,
//  125   SAMPLEAPP_HUE_CLUSTERID,
//  126 };
//  127 
//  128 #define WALL_ONOFF_BINDOUTGLIST2       3
//  129 static cId_t bindingOUTClusters2[WALL_ONOFF_BINDOUTGLIST2] =
//  130 {
//  131   SAMPLEAPP_ONOFF_CLUSTERID,
//  132   SAMPLEAPP_DIMMER_CLUSTERID,
//  133   SAMPLEAPP_ELOCK_CLUSTERID,
//  134 }; 
//  135 
//  136 #define WALL_ONOFF_BINDOUTGLIST3       5
//  137 static cId_t bindingOUTClusters3[WALL_ONOFF_BINDOUTGLIST3] =
//  138 {
//  139   SAMPLEAPP_ONOFF_CLUSTERID,
//  140   SAMPLEAPP_DIMMER_CLUSTERID,
//  141   SAMPLEAPP_CERTAIN_CONTROL_CLUSTERID,
//  142   SAMPLEAPP_ELOCK_CLUSTERID,
//  143   SAMPLEAPP_HUE_CLUSTERID,
//  144 };
//  145 
//  146 
//  147 
//  148 
//  149 
//  150 // 节点相关的全局变量-----------------------------------------------------------
//  151 

        RSEG XDATA_I:XDATA:NOROOT(0)
//  152 cId_t  USER_SampleApp_ClusterList[SAMPLEAPP_MAX_CLUSTERS]=
USER_SampleApp_ClusterList:
        DATA8
        DS 26
        REQUIRE `?<Initializer for USER_SampleApp_ClusterList>`
        REQUIRE __INIT_XDATA_I
//  153 {
//  154     SAMPLEAPP_ONOFF_CLUSTERID,
//  155     SAMPLEAPP_FLASH_CLUSTERID,
//  156     SAMPLEAPP_ADDR_CLUSTERID,
//  157     SAMPLEAPP_COMMAND_CLUSTERID,
//  158     SAMPLEAPP_PERIODIC_CLUSTERID,
//  159     SAMPLEAPP_ANNCE_REQ_CLUSTERID,
//  160     SAMPLEAPP_PERIODIC_COORDINATOR_CLUSTERID,
//  161     SAMPLEAPP_ACTIVE_COMMAND_CLUSTERID
//  162 };
//  163 

        RSEG XDATA_Z:XDATA:NOROOT(0)
        DATA8
//  164 endPointDesc_t SampleApp_epDesc1;
SampleApp_epDesc1:
        DS 6
        REQUIRE __INIT_XDATA_Z

        RSEG XDATA_Z:XDATA:NOROOT(0)
        DATA8
//  165 endPointDesc_t SampleApp_epDesc2;
SampleApp_epDesc2:
        DS 6
        REQUIRE __INIT_XDATA_Z
//  166 

        RSEG XDATA_I:XDATA:NOROOT(0)
//  167 SimpleDescriptionFormat_t SampleApp_SimpleDesc1 =
SampleApp_SimpleDesc1:
        DATA8
        DS 12
        REQUIRE `?<Initializer for SampleApp_SimpleDesc1>`
        REQUIRE __INIT_XDATA_I
//  168 {
//  169     SAMPLEAPP_ENDPOINT1,              //  int Endpoint;
//  170     SAMPLEAPP_PROFID,                //  uint16 AppProfId[2];
//  171     SAMPLEAPP_DEVICEID,              //  uint16 AppDeviceId[2];
//  172     SAMPLEAPP_DEVICE_VERSION,        //  int   AppDevVer:4;
//  173     SAMPLEAPP_FLAGS,                 //  int   AppFlags:4;
//  174     SAMPLEAPP_MAX_CLUSTERS,          //  uint8  AppNumInClusters;
//  175     (cId_t *)USER_SampleApp_ClusterList,  //  uint8 *pAppInClusterList;
//  176     SAMPLEAPP_MAX_CLUSTERS,          //  uint8  AppNumInClusters;
//  177     (cId_t *)USER_SampleApp_ClusterList   //  uint8 *pAppInClusterList;
//  178 };
//  179 

        RSEG XDATA_I:XDATA:NOROOT(0)
//  180 SimpleDescriptionFormat_t SampleApp_SimpleDesc2 =
SampleApp_SimpleDesc2:
        DATA8
        DS 12
        REQUIRE `?<Initializer for SampleApp_SimpleDesc2>`
        REQUIRE __INIT_XDATA_I
//  181 {
//  182     SAMPLEAPP_ENDPOINT2,              //  int Endpoint;
//  183     SAMPLEAPP_PROFID,                //  uint16 AppProfId[2];
//  184     SAMPLEAPP_DEVICEID,              //  uint16 AppDeviceId[2];
//  185     SAMPLEAPP_DEVICE_VERSION,        //  int   AppDevVer:4;
//  186     SAMPLEAPP_FLAGS,                 //  int   AppFlags:4;
//  187     SAMPLEAPP_MAX_CLUSTERS,          //  uint8  AppNumInClusters;
//  188     (cId_t *)USER_SampleApp_ClusterList,  //  uint8 *pAppInClusterList;
//  189     SAMPLEAPP_MAX_CLUSTERS,          //  uint8  AppNumInClusters;
//  190     (cId_t *)USER_SampleApp_ClusterList   //  uint8 *pAppInClusterList;
//  191 };
//  192 
//  193 //绑定命令

        RSEG XDATA_I:XDATA:NOROOT(0)
//  194 cId_t USER_bindingINClusters[1]=
USER_bindingINClusters:
        DATA16
        DS 2
        REQUIRE `?<Initializer for USER_bindingINClusters>`
        REQUIRE __INIT_XDATA_I
//  195 {
//  196     SAMPLEAPP_ONOFF_CLUSTERID
//  197 };
//  198 
//  199 

        RSEG XDATA_Z:XDATA:NOROOT(0)
        DATA16
//  200 uint8 huePara[2];
huePara:
        DS 2
        REQUIRE __INIT_XDATA_Z

        RSEG XDATA_Z:XDATA:NOROOT(0)
        DATA8
//  201 uint8 ONOROFF1=0,ONOROFF2=0,ONOROFF3=0,ONOROFF4=0;
ONOROFF1:
        DS 1
        REQUIRE __INIT_XDATA_Z

        RSEG XDATA_Z:XDATA:NOROOT(0)
        DATA8
ONOROFF2:
        DS 1
        REQUIRE __INIT_XDATA_Z

        RSEG XDATA_Z:XDATA:NOROOT(0)
        DATA8
ONOROFF3:
        DS 1
        REQUIRE __INIT_XDATA_Z

        RSEG XDATA_Z:XDATA:NOROOT(0)
        DATA8
ONOROFF4:
        DS 1
        REQUIRE __INIT_XDATA_Z
//  202 

        RSEG XDATA_Z:XDATA:NOROOT(0)
        DATA8
//  203 uint8 screen_current_flag =0 ;
screen_current_flag:
        DS 1
        REQUIRE __INIT_XDATA_Z

        RSEG XDATA_Z:XDATA:NOROOT(0)
        DATA8
//  204 uint8 screen_flag = 0;
screen_flag:
        DS 1
        REQUIRE __INIT_XDATA_Z
//  205 
//  206 /*******************************************************************************
//  207 函数声明
//  208 *******************************************************************************/
//  209 uint8 USER_APP_COMMAND(uint8 *user_app_data,uint8 *str); 
//  210 void USER_APP_JOIN_MSG(void);
//  211 void SampleApp_ProcessBINDINGMessage(afIncomingMSGPacket_t *pkt);
//  212 
//  213 void User_APP_Drive_init(void);
//  214 void SampleApp_HandleKeys( uint8 shift, uint8 keys );//本用户应用按键函数
//  215 void USER_SET_RS_MSG(void);//设置RS数据
//  216 
//  217 void USER_ZDO_JOINING_MSG(void); //ZDO层入网的时候处理函数 就是闪烁灯
//  218 uint8 READ_NETKEY(void); //读取入网状态按键的状态传递到应用层
//  219 void LED_CHANGE(uint8 Position,uint8 Mode);// 设置LED函数
//  220 void SampleAPP_ProcessZDOMsgs( zdoIncomingMsg_t *inMsg );
//  221 
//  222 uint8 CS5463_Send_PWER(void);
//  223 void P_JiaoZhun_Process(void);
//  224 void USER_AFTER_RS_MSG(void);
//  225 

        RSEG BANKED_CODE:CODE:NOROOT(0)
//  226 void USER_AFTER_RS_MSG(void)
USER_AFTER_RS_MSG:
        CFI Block cfiBlock0 Using cfiCommon0
        CFI Function USER_AFTER_RS_MSG
        CODE
//  227 {
        ; Saved register size: 0
        ; Auto size: 0
//  228 
//  229 }
        LJMP    ?BRET
        CFI EndBlock cfiBlock0
//  230 /*******************************************************************************
//  231 * 函数名称: UserApp_Init
//  232 * 函数功能: 用户的初始化函数
//  233 * 入口参数: task_id：用户的任务的编号，是系统分配的，用户不用操心    
//  234 * 出口参数: 无
//  235 * 备注说明: 无
//  236 ******************************************************************************/

        RSEG BANKED_CODE:CODE:NOROOT(0)
//  237 void UserApp_Init( uint8 task_id )
UserApp_Init:
        CFI Block cfiBlock1 Using cfiCommon0
        CFI Function UserApp_Init
        CODE
//  238 {
        FUNCALL UserApp_Init, RegisterForKeys
        LOCFRAME ISTACK, 0, STACK
        LOCFRAME PSTACK, 0, STACK
        LOCFRAME XSTACK, 9, STACK
        LOCFRAME IOVERLAY, 0, STATIC
        LOCFRAME DOVERLAY, 0, STATIC
        ARGFRAME ISTACK, 0, STACK
        ARGFRAME PSTACK, 0, STACK
        ARGFRAME XSTACK, 9, STACK
        ARGFRAME IOVERLAY, 0, STATIC
        ARGFRAME DOVERLAY, 0, STATIC
        FUNCALL UserApp_Init, afRegister
        LOCFRAME ISTACK, 0, STACK
        LOCFRAME PSTACK, 0, STACK
        LOCFRAME XSTACK, 9, STACK
        LOCFRAME IOVERLAY, 0, STATIC
        LOCFRAME DOVERLAY, 0, STATIC
        ARGFRAME ISTACK, 0, STACK
        ARGFRAME PSTACK, 0, STACK
        ARGFRAME XSTACK, 9, STACK
        ARGFRAME IOVERLAY, 0, STATIC
        ARGFRAME DOVERLAY, 0, STATIC
        FUNCALL UserApp_Init, afRegister
        LOCFRAME ISTACK, 0, STACK
        LOCFRAME PSTACK, 0, STACK
        LOCFRAME XSTACK, 9, STACK
        LOCFRAME IOVERLAY, 0, STATIC
        LOCFRAME DOVERLAY, 0, STATIC
        ARGFRAME ISTACK, 0, STACK
        ARGFRAME PSTACK, 0, STACK
        ARGFRAME XSTACK, 9, STACK
        ARGFRAME IOVERLAY, 0, STATIC
        ARGFRAME DOVERLAY, 0, STATIC
        FUNCALL UserApp_Init, RegisterForKeys
        LOCFRAME ISTACK, 0, STACK
        LOCFRAME PSTACK, 0, STACK
        LOCFRAME XSTACK, 9, STACK
        LOCFRAME IOVERLAY, 0, STATIC
        LOCFRAME DOVERLAY, 0, STATIC
        ARGFRAME ISTACK, 0, STACK
        ARGFRAME PSTACK, 0, STACK
        ARGFRAME XSTACK, 9, STACK
        ARGFRAME IOVERLAY, 0, STATIC
        ARGFRAME DOVERLAY, 0, STATIC
        FUNCALL UserApp_Init, ZDO_RegisterForZDOMsg
        LOCFRAME ISTACK, 0, STACK
        LOCFRAME PSTACK, 0, STACK
        LOCFRAME XSTACK, 9, STACK
        LOCFRAME IOVERLAY, 0, STATIC
        LOCFRAME DOVERLAY, 0, STATIC
        ARGFRAME ISTACK, 0, STACK
        ARGFRAME PSTACK, 0, STACK
        ARGFRAME XSTACK, 9, STACK
        ARGFRAME IOVERLAY, 0, STATIC
        ARGFRAME DOVERLAY, 0, STATIC
        FUNCALL UserApp_Init, User_APP_Drive_init
        LOCFRAME ISTACK, 0, STACK
        LOCFRAME PSTACK, 0, STACK
        LOCFRAME XSTACK, 9, STACK
        LOCFRAME IOVERLAY, 0, STATIC
        LOCFRAME DOVERLAY, 0, STATIC
        ARGFRAME ISTACK, 0, STACK
        ARGFRAME PSTACK, 0, STACK
        ARGFRAME XSTACK, 9, STACK
        ARGFRAME IOVERLAY, 0, STATIC
        ARGFRAME DOVERLAY, 0, STATIC
        MOV     A,#-0x9
        LCALL   ?BANKED_ENTER_XDATA
        CFI DPH0 load(1, XDATA, add(CFA_XSP16, literal(-1)))
        CFI DPL0 load(1, XDATA, add(CFA_XSP16, literal(-2)))
        CFI ?BRET_EXT load(1, XDATA, add(CFA_XSP16, literal(-3)))
        CFI ?RET_HIGH load(1, XDATA, add(CFA_XSP16, literal(-4)))
        CFI ?RET_LOW load(1, XDATA, add(CFA_XSP16, literal(-5)))
        CFI R7 load(1, XDATA, add(CFA_XSP16, literal(-6)))
        CFI V0 load(1, XDATA, add(CFA_XSP16, literal(-7)))
        CFI VB load(1, XDATA, add(CFA_XSP16, literal(-8)))
        CFI R6 load(1, XDATA, add(CFA_XSP16, literal(-9)))
        CFI CFA_SP SP+0
        CFI CFA_XSP16 add(XSP16, 9)
        ; Saved register size: 9
        ; Auto size: 0
        MOV     A,R1
        MOV     R6,A
//  239     
//  240     UserApp_TaskID = task_id;
        MOV     A,R6
        MOV     DPTR,#UserApp_TaskID
        MOVX    @DPTR,A
//  241     
//  242     RegisterForKeys(task_id);
        ; Setup parameters for call to function RegisterForKeys
        MOV     A,R6
        MOV     R1,A
        LCALL   ??RegisterForKeys?relay
        MOV     A,R1
//  243     
//  244     SampleApp_epDesc1.endPoint = SAMPLEAPP_ENDPOINT1;//SampleApp EP描述符的EP号：20
        MOV     DPTR,#SampleApp_epDesc1
        MOV     A,#0x15
        MOVX    @DPTR,A
//  245     SampleApp_epDesc1.task_id = &SampleApp_TaskID;//SampleApp EP描述符的任务ID：0
        MOV     DPTR,#SampleApp_epDesc1 + 1
        MOV     A,#SampleApp_TaskID & 0xff
        MOVX    @DPTR,A
        INC     DPTR
        MOV     A,#(SampleApp_TaskID >> 8) & 0xff
        MOVX    @DPTR,A
//  246     SampleApp_epDesc1.simpleDesc = (SimpleDescriptionFormat_t *)&SampleApp_SimpleDesc1;//SampleApp EP简单描述符
        MOV     DPTR,#SampleApp_epDesc1 + 3
        MOV     A,#SampleApp_SimpleDesc1 & 0xff
        MOVX    @DPTR,A
        INC     DPTR
        MOV     A,#(SampleApp_SimpleDesc1 >> 8) & 0xff
        MOVX    @DPTR,A
//  247     SampleApp_epDesc1.latencyReq = noLatencyReqs;//延时策略
        MOV     DPTR,#SampleApp_epDesc1 + 5
        MOV     A,#0x0
        MOVX    @DPTR,A
//  248     afRegister( &SampleApp_epDesc1 );
        ; Setup parameters for call to function afRegister
        MOV     R2,#SampleApp_epDesc1 & 0xff
        MOV     R3,#(SampleApp_epDesc1 >> 8) & 0xff
        LCALL   ??afRegister?relay
        MOV     A,R1
//  249     
//  250     SampleApp_epDesc2.endPoint = SAMPLEAPP_ENDPOINT2;//SampleApp EP描述符的EP号：20
        MOV     DPTR,#SampleApp_epDesc2
        MOV     A,#0x16
        MOVX    @DPTR,A
//  251     SampleApp_epDesc2.task_id = &SampleApp_TaskID;//SampleApp EP描述符的任务ID：0
        MOV     DPTR,#SampleApp_epDesc2 + 1
        MOV     A,#SampleApp_TaskID & 0xff
        MOVX    @DPTR,A
        INC     DPTR
        MOV     A,#(SampleApp_TaskID >> 8) & 0xff
        MOVX    @DPTR,A
//  252     SampleApp_epDesc2.simpleDesc  = (SimpleDescriptionFormat_t *)&SampleApp_SimpleDesc2;//SampleApp EP简单描述符
        MOV     DPTR,#SampleApp_epDesc2 + 3
        MOV     A,#SampleApp_SimpleDesc2 & 0xff
        MOVX    @DPTR,A
        INC     DPTR
        MOV     A,#(SampleApp_SimpleDesc2 >> 8) & 0xff
        MOVX    @DPTR,A
//  253     SampleApp_epDesc2.latencyReq = noLatencyReqs;//延时策略
        MOV     DPTR,#SampleApp_epDesc2 + 5
        MOV     A,#0x0
        MOVX    @DPTR,A
//  254     afRegister( &SampleApp_epDesc2 );
        ; Setup parameters for call to function afRegister
        MOV     R2,#SampleApp_epDesc2 & 0xff
        MOV     R3,#(SampleApp_epDesc2 >> 8) & 0xff
        LCALL   ??afRegister?relay
        MOV     A,R1
//  255 
//  256   RegisterForKeys( UserApp_TaskID );     
        ; Setup parameters for call to function RegisterForKeys
        MOV     DPTR,#UserApp_TaskID
        MOVX    A,@DPTR
        MOV     R1,A
        LCALL   ??RegisterForKeys?relay
        MOV     A,R1
//  257     ZDO_RegisterForZDOMsg( UserApp_TaskID, End_Device_Bind_rsp );//注册终端节点绑定消息接收事件，用于截取绑定类的消息  
        ; Setup parameters for call to function ZDO_RegisterForZDOMsg
        MOV     R2,#0x20
        MOV     R3,#-0x80
        MOV     DPTR,#UserApp_TaskID
        MOVX    A,@DPTR
        MOV     R1,A
        LCALL   ??ZDO_RegisterForZDOMsg?relay
        MOV     A,R1
//  258     
//  259     User_APP_Drive_init();
        ; Setup parameters for call to function User_APP_Drive_init
        LCALL   ??User_APP_Drive_init?relay
//  260     
//  261 }
        MOV     R7,#0x1
        LJMP    ?BANKED_LEAVE_XDATA
        CFI EndBlock cfiBlock1
//  262 /*******************************************************************************
//  263 * 函数名称: UserApp_ProcessEvent
//  264 * 函数功能: 事件处理函数，此函数会被系统轮询
//  265 * 入口参数: task_id：用户的任务的编号，是系统分配的，用户不用操心  
//  266 events：事件mark表 
//  267 * 出口参数: 无
//  268 * 备注说明: 此函数的函数头固定不变，用户不必操心
//  269 ******************************************************************************/

        RSEG BANKED_CODE:CODE:NOROOT(0)
//  270 UINT16 UserApp_ProcessEvent( uint8 task_id, uint16 events )
UserApp_ProcessEvent:
        CFI Block cfiBlock2 Using cfiCommon0
        CFI Function UserApp_ProcessEvent
        CODE
//  271 {
        FUNCALL UserApp_ProcessEvent, osal_msg_receive
        LOCFRAME ISTACK, 0, STACK
        LOCFRAME PSTACK, 0, STACK
        LOCFRAME XSTACK, 14, STACK
        LOCFRAME IOVERLAY, 0, STATIC
        LOCFRAME DOVERLAY, 0, STATIC
        ARGFRAME ISTACK, 0, STACK
        ARGFRAME PSTACK, 0, STACK
        ARGFRAME XSTACK, 14, STACK
        ARGFRAME IOVERLAY, 0, STATIC
        ARGFRAME DOVERLAY, 0, STATIC
        FUNCALL UserApp_ProcessEvent, SampleApp_HandleKeys
        LOCFRAME ISTACK, 0, STACK
        LOCFRAME PSTACK, 0, STACK
        LOCFRAME XSTACK, 14, STACK
        LOCFRAME IOVERLAY, 0, STATIC
        LOCFRAME DOVERLAY, 0, STATIC
        ARGFRAME ISTACK, 0, STACK
        ARGFRAME PSTACK, 0, STACK
        ARGFRAME XSTACK, 14, STACK
        ARGFRAME IOVERLAY, 0, STATIC
        ARGFRAME DOVERLAY, 0, STATIC
        FUNCALL UserApp_ProcessEvent, SampleAPP_ProcessZDOMsgs
        LOCFRAME ISTACK, 0, STACK
        LOCFRAME PSTACK, 0, STACK
        LOCFRAME XSTACK, 14, STACK
        LOCFRAME IOVERLAY, 0, STATIC
        LOCFRAME DOVERLAY, 0, STATIC
        ARGFRAME ISTACK, 0, STACK
        ARGFRAME PSTACK, 0, STACK
        ARGFRAME XSTACK, 14, STACK
        ARGFRAME IOVERLAY, 0, STATIC
        ARGFRAME DOVERLAY, 0, STATIC
        FUNCALL UserApp_ProcessEvent, osal_msg_deallocate
        LOCFRAME ISTACK, 0, STACK
        LOCFRAME PSTACK, 0, STACK
        LOCFRAME XSTACK, 14, STACK
        LOCFRAME IOVERLAY, 0, STATIC
        LOCFRAME DOVERLAY, 0, STATIC
        ARGFRAME ISTACK, 0, STACK
        ARGFRAME PSTACK, 0, STACK
        ARGFRAME XSTACK, 14, STACK
        ARGFRAME IOVERLAY, 0, STATIC
        ARGFRAME DOVERLAY, 0, STATIC
        FUNCALL UserApp_ProcessEvent, osal_msg_receive
        LOCFRAME ISTACK, 0, STACK
        LOCFRAME PSTACK, 0, STACK
        LOCFRAME XSTACK, 14, STACK
        LOCFRAME IOVERLAY, 0, STATIC
        LOCFRAME DOVERLAY, 0, STATIC
        ARGFRAME ISTACK, 0, STACK
        ARGFRAME PSTACK, 0, STACK
        ARGFRAME XSTACK, 14, STACK
        ARGFRAME IOVERLAY, 0, STATIC
        ARGFRAME DOVERLAY, 0, STATIC
        MOV     A,#-0xe
        LCALL   ?BANKED_ENTER_XDATA
        CFI DPH0 load(1, XDATA, add(CFA_XSP16, literal(-1)))
        CFI DPL0 load(1, XDATA, add(CFA_XSP16, literal(-2)))
        CFI ?BRET_EXT load(1, XDATA, add(CFA_XSP16, literal(-3)))
        CFI ?RET_HIGH load(1, XDATA, add(CFA_XSP16, literal(-4)))
        CFI ?RET_LOW load(1, XDATA, add(CFA_XSP16, literal(-5)))
        CFI R7 load(1, XDATA, add(CFA_XSP16, literal(-6)))
        CFI V5 load(1, XDATA, add(CFA_XSP16, literal(-7)))
        CFI V4 load(1, XDATA, add(CFA_XSP16, literal(-8)))
        CFI V3 load(1, XDATA, add(CFA_XSP16, literal(-9)))
        CFI V2 load(1, XDATA, add(CFA_XSP16, literal(-10)))
        CFI V1 load(1, XDATA, add(CFA_XSP16, literal(-11)))
        CFI V0 load(1, XDATA, add(CFA_XSP16, literal(-12)))
        CFI VB load(1, XDATA, add(CFA_XSP16, literal(-13)))
        CFI R6 load(1, XDATA, add(CFA_XSP16, literal(-14)))
        CFI CFA_SP SP+0
        CFI CFA_XSP16 add(XSP16, 14)
        ; Saved register size: 14
        ; Auto size: 0
        MOV     ?V0 + 2,R1
        MOV     ?V0 + 0,R2
        MOV     ?V0 + 1,R3
//  272   afIncomingMSGPacket_t *MSGpkt;
//  273   
//  274   //系统事件，在这里主要处理按键----------------------------------------------
//  275   if ( events & SYS_EVENT_MSG )
        MOV     A,?V0 + 0
        ANL     A,#0x0
        MOV     R0,A
        MOV     A,?V0 + 1
        ANL     A,#0x80
        MOV     R1,A
        MOV     A,R0
        ORL     A,R1
        JZ      ??UserApp_ProcessEvent_0
//  276   {
//  277     MSGpkt = (afIncomingMSGPacket_t *)osal_msg_receive( UserApp_TaskID );
        ; Setup parameters for call to function osal_msg_receive
        MOV     DPTR,#UserApp_TaskID
        MOVX    A,@DPTR
        MOV     R1,A
        LCALL   ??osal_msg_receive?relay
        MOV     ?V0 + 4,R2
        MOV     ?V0 + 5,R3
        MOV     R6,?V0 + 4
        MOV     R7,?V0 + 5
//  278     while ( MSGpkt )                                           
??UserApp_ProcessEvent_1:
        MOV     A,R6
        ORL     A,R7
        JZ      ??UserApp_ProcessEvent_2
//  279     {                                                                     
//  280       switch ( MSGpkt->hdr.event )
        MOV     DPL,R6
        MOV     DPH,R7
        MOVX    A,@DPTR
        ADD     A,#0x40
        JZ      ??UserApp_ProcessEvent_3
        ADD     A,#-0x13
        JZ      ??UserApp_ProcessEvent_4
        SJMP    ??UserApp_ProcessEvent_5
//  281       {
//  282       case KEY_CHANGE:      
//  283         SampleApp_HandleKeys( ((keyChange_t *)MSGpkt)->state, ((keyChange_t *)MSGpkt)->keys );
??UserApp_ProcessEvent_3:
        ; Setup parameters for call to function SampleApp_HandleKeys
        MOV     DPL,R6
        MOV     DPH,R7
        INC     DPTR
        INC     DPTR
        INC     DPTR
        MOVX    A,@DPTR
        MOV     R2,A
        MOV     DPL,R6
        MOV     DPH,R7
        INC     DPTR
        INC     DPTR
        MOVX    A,@DPTR
        MOV     R1,A
        LCALL   ??SampleApp_HandleKeys?relay
//  284         break;                                             
        SJMP    ??UserApp_ProcessEvent_5
//  285         
//  286       case ZDO_CB_MSG:
//  287         SampleAPP_ProcessZDOMsgs( (zdoIncomingMsg_t *)MSGpkt );
??UserApp_ProcessEvent_4:
        ; Setup parameters for call to function SampleAPP_ProcessZDOMsgs
        MOV     A,R6
        MOV     R2,A
        MOV     A,R7
        MOV     R3,A
        LCALL   ??SampleAPP_ProcessZDOMsgs?relay
//  288         break;
//  289         
//  290       default:
//  291         break;
//  292       }
//  293       
//  294       // Release the memory
//  295       //释放消息占用的内存
//  296       osal_msg_deallocate( (uint8 *)MSGpkt );
??UserApp_ProcessEvent_5:
        ; Setup parameters for call to function osal_msg_deallocate
        MOV     A,R6
        MOV     R2,A
        MOV     A,R7
        MOV     R3,A
        LCALL   ??osal_msg_deallocate?relay
        MOV     A,R1
//  297       
//  298       // Next - if one is available
//  299       MSGpkt = (afIncomingMSGPacket_t *)osal_msg_receive( UserApp_TaskID );
        ; Setup parameters for call to function osal_msg_receive
        MOV     DPTR,#UserApp_TaskID
        MOVX    A,@DPTR
        MOV     R1,A
        LCALL   ??osal_msg_receive?relay
        MOV     ?V0 + 4,R2
        MOV     ?V0 + 5,R3
        MOV     R6,?V0 + 4
        MOV     R7,?V0 + 5
        SJMP    ??UserApp_ProcessEvent_1
//  300     }//end： while ( MSGpkt )
//  301     
//  302     return (events ^ SYS_EVENT_MSG);
??UserApp_ProcessEvent_2:
        MOV     A,?V0 + 0
        XRL     A,#0x0
        MOV     R2,A
        MOV     A,?V0 + 1
        XRL     A,#0x80
        MOV     R3,A
        SJMP    ??UserApp_ProcessEvent_6
//  303   }
//  304   
//  305   if ( events & SCREEN_CURRENT_FLAG_EVT )
??UserApp_ProcessEvent_0:
        MOV     A,?V0 + 0
        ANL     A,#0x4
        JZ      ??UserApp_ProcessEvent_7
//  306   {
//  307     screen_current_flag = 0;
        MOV     DPTR,#screen_current_flag
        MOV     A,#0x0
        MOVX    @DPTR,A
//  308     
//  309     return ( events ^ SCREEN_CURRENT_FLAG_EVT);
        MOV     A,?V0 + 0
        XRL     A,#0x4
        MOV     R2,A
        MOV     A,?V0 + 1
        XRL     A,#0x0
        MOV     R3,A
        SJMP    ??UserApp_ProcessEvent_6
//  310   }
//  311   
//  312   return 0;
??UserApp_ProcessEvent_7:
        MOV     R2,#0x0
        MOV     R3,#0x0
??UserApp_ProcessEvent_6:
        MOV     R7,#0x6
        LJMP    ?BANKED_LEAVE_XDATA
        CFI EndBlock cfiBlock2
//  313 }
//  314 
//  315 
//  316 /*******************************************************************************
//  317 * 函数名称: SampleApp_HandleKeys
//  318 * 函数功能: 按键命令传输到USER层，用户自行添加删除，处理按键命令
//  319 * 入口参数: shift：状态码 
//  320 keys：按键的值
//  321 * 出口参数: 无
//  322 * 备注说明: 此函数的函数头固定不变，用户不必操心
//  323 ******************************************************************************/ 

        RSEG BANKED_CODE:CODE:NOROOT(0)
//  324 void SampleApp_HandleKeys( uint8 shift, uint8 keys )
SampleApp_HandleKeys:
        CFI Block cfiBlock3 Using cfiCommon0
        CFI Function SampleApp_HandleKeys
        CODE
//  325 {
        FUNCALL SampleApp_HandleKeys, HalLedBlink
        LOCFRAME ISTACK, 0, STACK
        LOCFRAME PSTACK, 0, STACK
        LOCFRAME XSTACK, 21, STACK
        LOCFRAME IOVERLAY, 0, STATIC
        LOCFRAME DOVERLAY, 0, STATIC
        ARGFRAME ISTACK, 0, STACK
        ARGFRAME PSTACK, 0, STACK
        ARGFRAME XSTACK, 21, STACK
        ARGFRAME IOVERLAY, 0, STATIC
        ARGFRAME DOVERLAY, 0, STATIC
        FUNCALL SampleApp_HandleKeys, NLME_GetShortAddr
        LOCFRAME ISTACK, 0, STACK
        LOCFRAME PSTACK, 0, STACK
        LOCFRAME XSTACK, 30, STACK
        LOCFRAME IOVERLAY, 0, STATIC
        LOCFRAME DOVERLAY, 0, STATIC
        ARGFRAME ISTACK, 0, STACK
        ARGFRAME PSTACK, 0, STACK
        ARGFRAME XSTACK, 30, STACK
        ARGFRAME IOVERLAY, 0, STATIC
        ARGFRAME DOVERLAY, 0, STATIC
        FUNCALL SampleApp_HandleKeys, ZDP_EndDeviceBindReq
        LOCFRAME ISTACK, 0, STACK
        LOCFRAME PSTACK, 0, STACK
        LOCFRAME XSTACK, 30, STACK
        LOCFRAME IOVERLAY, 0, STATIC
        LOCFRAME DOVERLAY, 0, STATIC
        ARGFRAME ISTACK, 0, STACK
        ARGFRAME PSTACK, 0, STACK
        ARGFRAME XSTACK, 30, STACK
        ARGFRAME IOVERLAY, 0, STATIC
        ARGFRAME DOVERLAY, 0, STATIC
        FUNCALL SampleApp_HandleKeys, HalLedBlink
        LOCFRAME ISTACK, 0, STACK
        LOCFRAME PSTACK, 0, STACK
        LOCFRAME XSTACK, 21, STACK
        LOCFRAME IOVERLAY, 0, STATIC
        LOCFRAME DOVERLAY, 0, STATIC
        ARGFRAME ISTACK, 0, STACK
        ARGFRAME PSTACK, 0, STACK
        ARGFRAME XSTACK, 21, STACK
        ARGFRAME IOVERLAY, 0, STATIC
        ARGFRAME DOVERLAY, 0, STATIC
        FUNCALL SampleApp_HandleKeys, NLME_GetShortAddr
        LOCFRAME ISTACK, 0, STACK
        LOCFRAME PSTACK, 0, STACK
        LOCFRAME XSTACK, 30, STACK
        LOCFRAME IOVERLAY, 0, STATIC
        LOCFRAME DOVERLAY, 0, STATIC
        ARGFRAME ISTACK, 0, STACK
        ARGFRAME PSTACK, 0, STACK
        ARGFRAME XSTACK, 30, STACK
        ARGFRAME IOVERLAY, 0, STATIC
        ARGFRAME DOVERLAY, 0, STATIC
        FUNCALL SampleApp_HandleKeys, ZDP_EndDeviceBindReq
        LOCFRAME ISTACK, 0, STACK
        LOCFRAME PSTACK, 0, STACK
        LOCFRAME XSTACK, 30, STACK
        LOCFRAME IOVERLAY, 0, STATIC
        LOCFRAME DOVERLAY, 0, STATIC
        ARGFRAME ISTACK, 0, STACK
        ARGFRAME PSTACK, 0, STACK
        ARGFRAME XSTACK, 30, STACK
        ARGFRAME IOVERLAY, 0, STATIC
        ARGFRAME DOVERLAY, 0, STATIC
        FUNCALL SampleApp_HandleKeys, APPLY_TO_JOIN_OF_KEY
        LOCFRAME ISTACK, 0, STACK
        LOCFRAME PSTACK, 0, STACK
        LOCFRAME XSTACK, 21, STACK
        LOCFRAME IOVERLAY, 0, STATIC
        LOCFRAME DOVERLAY, 0, STATIC
        ARGFRAME ISTACK, 0, STACK
        ARGFRAME PSTACK, 0, STACK
        ARGFRAME XSTACK, 21, STACK
        ARGFRAME IOVERLAY, 0, STATIC
        ARGFRAME DOVERLAY, 0, STATIC
        FUNCALL SampleApp_HandleKeys, SampleApp_send_in_binding_req
        LOCFRAME ISTACK, 0, STACK
        LOCFRAME PSTACK, 0, STACK
        LOCFRAME XSTACK, 21, STACK
        LOCFRAME IOVERLAY, 0, STATIC
        LOCFRAME DOVERLAY, 0, STATIC
        ARGFRAME ISTACK, 0, STACK
        ARGFRAME PSTACK, 0, STACK
        ARGFRAME XSTACK, 21, STACK
        ARGFRAME IOVERLAY, 0, STATIC
        ARGFRAME DOVERLAY, 0, STATIC
        FUNCALL SampleApp_HandleKeys, SampleApp_PermitJoin
        LOCFRAME ISTACK, 0, STACK
        LOCFRAME PSTACK, 0, STACK
        LOCFRAME XSTACK, 21, STACK
        LOCFRAME IOVERLAY, 0, STATIC
        LOCFRAME DOVERLAY, 0, STATIC
        ARGFRAME ISTACK, 0, STACK
        ARGFRAME PSTACK, 0, STACK
        ARGFRAME XSTACK, 21, STACK
        ARGFRAME IOVERLAY, 0, STATIC
        ARGFRAME DOVERLAY, 0, STATIC
        FUNCALL SampleApp_HandleKeys, SampleApp_PermitJoin
        LOCFRAME ISTACK, 0, STACK
        LOCFRAME PSTACK, 0, STACK
        LOCFRAME XSTACK, 21, STACK
        LOCFRAME IOVERLAY, 0, STATIC
        LOCFRAME DOVERLAY, 0, STATIC
        ARGFRAME ISTACK, 0, STACK
        ARGFRAME PSTACK, 0, STACK
        ARGFRAME XSTACK, 21, STACK
        ARGFRAME IOVERLAY, 0, STATIC
        ARGFRAME DOVERLAY, 0, STATIC
        FUNCALL SampleApp_HandleKeys, HalLedBlink
        LOCFRAME ISTACK, 0, STACK
        LOCFRAME PSTACK, 0, STACK
        LOCFRAME XSTACK, 21, STACK
        LOCFRAME IOVERLAY, 0, STATIC
        LOCFRAME DOVERLAY, 0, STATIC
        ARGFRAME ISTACK, 0, STACK
        ARGFRAME PSTACK, 0, STACK
        ARGFRAME XSTACK, 21, STACK
        ARGFRAME IOVERLAY, 0, STATIC
        ARGFRAME DOVERLAY, 0, STATIC
        FUNCALL SampleApp_HandleKeys, RESTORE_TO_FACTORY
        LOCFRAME ISTACK, 0, STACK
        LOCFRAME PSTACK, 0, STACK
        LOCFRAME XSTACK, 21, STACK
        LOCFRAME IOVERLAY, 0, STATIC
        LOCFRAME DOVERLAY, 0, STATIC
        ARGFRAME ISTACK, 0, STACK
        ARGFRAME PSTACK, 0, STACK
        ARGFRAME XSTACK, 21, STACK
        ARGFRAME IOVERLAY, 0, STATIC
        ARGFRAME DOVERLAY, 0, STATIC
        FUNCALL SampleApp_HandleKeys, osal_start_timerEx
        LOCFRAME ISTACK, 0, STACK
        LOCFRAME PSTACK, 0, STACK
        LOCFRAME XSTACK, 21, STACK
        LOCFRAME IOVERLAY, 0, STATIC
        LOCFRAME DOVERLAY, 0, STATIC
        ARGFRAME ISTACK, 0, STACK
        ARGFRAME PSTACK, 0, STACK
        ARGFRAME XSTACK, 21, STACK
        ARGFRAME IOVERLAY, 0, STATIC
        ARGFRAME DOVERLAY, 0, STATIC
        MOV     A,#-0xc
        LCALL   ?BANKED_ENTER_XDATA
        CFI DPH0 load(1, XDATA, add(CFA_XSP16, literal(-1)))
        CFI DPL0 load(1, XDATA, add(CFA_XSP16, literal(-2)))
        CFI ?BRET_EXT load(1, XDATA, add(CFA_XSP16, literal(-3)))
        CFI ?RET_HIGH load(1, XDATA, add(CFA_XSP16, literal(-4)))
        CFI ?RET_LOW load(1, XDATA, add(CFA_XSP16, literal(-5)))
        CFI R7 load(1, XDATA, add(CFA_XSP16, literal(-6)))
        CFI V3 load(1, XDATA, add(CFA_XSP16, literal(-7)))
        CFI V2 load(1, XDATA, add(CFA_XSP16, literal(-8)))
        CFI V1 load(1, XDATA, add(CFA_XSP16, literal(-9)))
        CFI V0 load(1, XDATA, add(CFA_XSP16, literal(-10)))
        CFI VB load(1, XDATA, add(CFA_XSP16, literal(-11)))
        CFI R6 load(1, XDATA, add(CFA_XSP16, literal(-12)))
        CFI CFA_SP SP+0
        CFI CFA_XSP16 add(XSP16, 12)
        ; Saved register size: 12
        ; Auto size: 9
        MOV     A,#-0x9
        LCALL   ?ALLOC_XSTACK8
        CFI CFA_XSP16 add(XSP16, 21)
        MOV     A,R1
        MOV     R7,A
        MOV     ?V0 + 0,R2
//  326     zAddrType_t dstAddr;
//  327     //P1.3  
//  328     if ( keys &  HAL_KEY_SW_9 )
        MOV     A,?V0 + 0
        MOV     C,0xE0 /* A   */.6
        JC      $+5
        LJMP    ??SampleApp_HandleKeys_0 & 0xFFFF
//  329     { 
//  330       if(P1_7==0 )
        MOV     C,0x90.7
        JNC     $+5
        LJMP    ??SampleApp_HandleKeys_1 & 0xFFFF
//  331       {
//  332           HalLedBlink ( HAL_LED_2, 1, 50, 500 );
        ; Setup parameters for call to function HalLedBlink
        MOV     R4,#-0xc
        MOV     R5,#0x1
        MOV     R3,#0x32
        MOV     R2,#0x1
        MOV     R1,#0x2
        LCALL   ??HalLedBlink?relay
//  333           
//  334           dstAddr.addrMode = afAddr16Bit;
        MOV     A,#0x8
        LCALL   ?XSTACK_DISP0_8
        MOV     A,#0x2
        MOVX    @DPTR,A
//  335           dstAddr.addr.shortAddr = 0;   // Coordinator makes the match     
        MOV     DPL,?XSP + 0
        MOV     DPH,?XSP + 1
        MOV     A,#0x0
        MOVX    @DPTR,A
        INC     DPTR
        MOV     A,#0x0
        MOVX    @DPTR,A
//  336           ZDP_EndDeviceBindReq( &dstAddr, NLME_GetShortAddr(),
//  337                              SAMPLEAPP_ENDPOINT1,
//  338                              0x0F08,
//  339                              0, NULL,   // No incoming clusters to bind   0, NULL
//  340                              WALL_ONOFF_BINDOUTGLIST, bindingOUTClusters,
//  341                              FALSE );
        ; Setup parameters for call to function ZDP_EndDeviceBindReq
        MOV     ?V0 + 1,#0x0
        MOV     R0,#?V0 + 1
        LCALL   ?PUSH_XSTACK_I_ONE
        CFI CFA_XSP16 add(XSP16, 22)
        MOV     ?V0 + 2,#bindingOUTClusters & 0xff
        MOV     ?V0 + 3,#(bindingOUTClusters >> 8) & 0xff
        MOV     R0,#?V0 + 2
        LCALL   ?PUSH_XSTACK_I_TWO
        CFI CFA_XSP16 add(XSP16, 24)
        MOV     ?V0 + 1,#0x3
        MOV     R0,#?V0 + 1
        LCALL   ?PUSH_XSTACK_I_ONE
        CFI CFA_XSP16 add(XSP16, 25)
        CLR     A
        MOV     ?V0 + 2,A
        MOV     ?V0 + 3,A
        MOV     R0,#?V0 + 2
        LCALL   ?PUSH_XSTACK_I_TWO
        CFI CFA_XSP16 add(XSP16, 27)
        MOV     ?V0 + 1,#0x0
        MOV     R0,#?V0 + 1
        LCALL   ?PUSH_XSTACK_I_ONE
        CFI CFA_XSP16 add(XSP16, 28)
        MOV     ?V0 + 2,#0x8
        MOV     ?V0 + 3,#0xf
        MOV     R0,#?V0 + 2
        LCALL   ?PUSH_XSTACK_I_TWO
        CFI CFA_XSP16 add(XSP16, 30)
        MOV     R1,#0x15
        MOV     A,R1
        MOV     R6,A
        MOV     R1,A
        ; Setup parameters for call to function NLME_GetShortAddr
        LCALL   ??NLME_GetShortAddr?relay
        MOV     A,R2
        MOV     R4,A
        MOV     A,R3
        MOV     R5,A
        MOV     A,R6
        MOV     R1,A
        MOV     R6,A
        MOV     A,#0x9
        LCALL   ?XSTACK_DISP0_8
        MOV     R2,DPL
        MOV     R3,DPH
        LCALL   ??ZDP_EndDeviceBindReq?relay
        MOV     A,#0x9
        LCALL   ?DEALLOC_XSTACK8
        CFI CFA_XSP16 add(XSP16, 21)
        MOV     A,R1
        LJMP    ??SampleApp_HandleKeys_1 & 0xFFFF
//  342       
//  343       }
//  344 
//  345     }
//  346     
//  347     else if ( keys &  HAL_KEY_SW_7 )
??SampleApp_HandleKeys_0:
        MOV     A,?V0 + 0
        MOV     C,0xE0 /* A   */.4
        JC      $+5
        LJMP    ??SampleApp_HandleKeys_2 & 0xFFFF
//  348     {      
//  349       if(P1_7==0 )
        MOV     C,0x90.7
        JNC     $+5
        LJMP    ??SampleApp_HandleKeys_1 & 0xFFFF
//  350       {
//  351           HalLedBlink ( HAL_LED_3, 1, 50, 500 );
        ; Setup parameters for call to function HalLedBlink
        MOV     R4,#-0xc
        MOV     R5,#0x1
        MOV     R3,#0x32
        MOV     R2,#0x1
        MOV     R1,#0x4
        LCALL   ??HalLedBlink?relay
//  352           
//  353           dstAddr.addrMode = afAddr16Bit;
        MOV     A,#0x8
        LCALL   ?XSTACK_DISP0_8
        MOV     A,#0x2
        MOVX    @DPTR,A
//  354           dstAddr.addr.shortAddr = 0;   // Coordinator makes the match     
        MOV     DPL,?XSP + 0
        MOV     DPH,?XSP + 1
        MOV     A,#0x0
        MOVX    @DPTR,A
        INC     DPTR
        MOV     A,#0x0
        MOVX    @DPTR,A
//  355           ZDP_EndDeviceBindReq( &dstAddr, NLME_GetShortAddr(),
//  356                              SAMPLEAPP_ENDPOINT2,
//  357                              0x0F08,
//  358                              0, NULL,   // No incoming clusters to bind   0, NULL
//  359                              WALL_ONOFF_BINDOUTGLIST, bindingOUTClusters,
//  360                              FALSE );
        ; Setup parameters for call to function ZDP_EndDeviceBindReq
        MOV     ?V0 + 1,#0x0
        MOV     R0,#?V0 + 1
        LCALL   ?PUSH_XSTACK_I_ONE
        CFI CFA_XSP16 add(XSP16, 22)
        MOV     ?V0 + 2,#bindingOUTClusters & 0xff
        MOV     ?V0 + 3,#(bindingOUTClusters >> 8) & 0xff
        MOV     R0,#?V0 + 2
        LCALL   ?PUSH_XSTACK_I_TWO
        CFI CFA_XSP16 add(XSP16, 24)
        MOV     ?V0 + 1,#0x3
        MOV     R0,#?V0 + 1
        LCALL   ?PUSH_XSTACK_I_ONE
        CFI CFA_XSP16 add(XSP16, 25)
        CLR     A
        MOV     ?V0 + 2,A
        MOV     ?V0 + 3,A
        MOV     R0,#?V0 + 2
        LCALL   ?PUSH_XSTACK_I_TWO
        CFI CFA_XSP16 add(XSP16, 27)
        MOV     ?V0 + 1,#0x0
        MOV     R0,#?V0 + 1
        LCALL   ?PUSH_XSTACK_I_ONE
        CFI CFA_XSP16 add(XSP16, 28)
        MOV     ?V0 + 2,#0x8
        MOV     ?V0 + 3,#0xf
        MOV     R0,#?V0 + 2
        LCALL   ?PUSH_XSTACK_I_TWO
        CFI CFA_XSP16 add(XSP16, 30)
        MOV     R1,#0x16
        MOV     A,R1
        MOV     R6,A
        MOV     R1,A
        ; Setup parameters for call to function NLME_GetShortAddr
        LCALL   ??NLME_GetShortAddr?relay
        MOV     A,R2
        MOV     R4,A
        MOV     A,R3
        MOV     R5,A
        MOV     A,R6
        MOV     R1,A
        MOV     R6,A
        MOV     A,#0x9
        LCALL   ?XSTACK_DISP0_8
        MOV     R2,DPL
        MOV     R3,DPH
        LCALL   ??ZDP_EndDeviceBindReq?relay
        MOV     A,#0x9
        LCALL   ?DEALLOC_XSTACK8
        CFI CFA_XSP16 add(XSP16, 21)
        MOV     A,R1
        SJMP    ??SampleApp_HandleKeys_1
//  361       
//  362       }
//  363     }   
//  364     
//  365     else if ( keys&  HAL_KEY_SW_8  )
??SampleApp_HandleKeys_2:
        MOV     A,?V0 + 0
        MOV     C,0xE0 /* A   */.7
        JNC     ??SampleApp_HandleKeys_1
//  366     {   
//  367         
//  368         
//  369         if(key_double_flag==4)//快速按了4次按键
        MOV     DPTR,#key_double_flag
        MOVX    A,@DPTR
        XRL     A,#0x4
        JNZ     ??SampleApp_HandleKeys_3
//  370         {
//  371             APPLY_TO_JOIN_OF_KEY();//函数中带有闪灯的代码
        ; Setup parameters for call to function APPLY_TO_JOIN_OF_KEY
        LCALL   ??APPLY_TO_JOIN_OF_KEY?relay
        SJMP    ??SampleApp_HandleKeys_4
//  372         }
//  373         
//  374         else if( (key_double_flag == 3) )
??SampleApp_HandleKeys_3:
        MOV     DPTR,#key_double_flag
        MOVX    A,@DPTR
        XRL     A,#0x3
        JNZ     ??SampleApp_HandleKeys_5
//  375         {
//  376             SampleApp_send_in_binding_req(SAMPLEAPP_ENDPOINT,USER_bindingINClusters,1);
        ; Setup parameters for call to function SampleApp_send_in_binding_req
        MOV     R4,#0x1
        MOV     R2,#USER_bindingINClusters & 0xff
        MOV     R3,#(USER_bindingINClusters >> 8) & 0xff
        MOV     R1,#0x14
        LCALL   ??SampleApp_send_in_binding_req?relay
        SJMP    ??SampleApp_HandleKeys_4
//  377         }
//  378         
//  379         else if(key_double_flag==6)
??SampleApp_HandleKeys_5:
        MOV     DPTR,#key_double_flag
        MOVX    A,@DPTR
        XRL     A,#0x6
        JNZ     ??SampleApp_HandleKeys_6
//  380         {
//  381             SampleApp_PermitJoin(240);
        ; Setup parameters for call to function SampleApp_PermitJoin
        MOV     R1,#-0x10
        LCALL   ??SampleApp_PermitJoin?relay
        SJMP    ??SampleApp_HandleKeys_4
//  382         }
//  383         
//  384         else if(key_double_flag==8)
??SampleApp_HandleKeys_6:
        MOV     DPTR,#key_double_flag
        MOVX    A,@DPTR
        XRL     A,#0x8
        JNZ     ??SampleApp_HandleKeys_4
//  385         {
//  386             SampleApp_PermitJoin(0);
        ; Setup parameters for call to function SampleApp_PermitJoin
        MOV     R1,#0x0
        LCALL   ??SampleApp_PermitJoin?relay
//  387         }
//  388         
//  389         
//  390         if(key_hold_flag==1) //一个长按键，则恢复出厂设置
??SampleApp_HandleKeys_4:
        MOV     DPTR,#key_hold_flag
        MOVX    A,@DPTR
        XRL     A,#0x1
        JNZ     ??SampleApp_HandleKeys_1
//  391         {   
//  392             HalLedBlink ( HAL_LED_1, 4, 50, 1000 );
        ; Setup parameters for call to function HalLedBlink
        MOV     R4,#-0x18
        MOV     R5,#0x3
        MOV     R3,#0x32
        MOV     R2,#0x4
        MOV     R1,#0x1
        LCALL   ??HalLedBlink?relay
//  393             RESTORE_TO_FACTORY();
        ; Setup parameters for call to function RESTORE_TO_FACTORY
        LCALL   ??RESTORE_TO_FACTORY?relay
//  394             osal_start_timerEx( SampleApp_TaskID,SAMPLEAPP_RESTORE_EVT,5000 );
        ; Setup parameters for call to function osal_start_timerEx
        MOV     R4,#-0x78
        MOV     R5,#0x13
        MOV     R2,#0x10
        MOV     R3,#0x0
        MOV     DPTR,#SampleApp_TaskID
        MOVX    A,@DPTR
        MOV     R1,A
        LCALL   ??osal_start_timerEx?relay
        MOV     A,R1
//  395         }        
//  396     } 
//  397     
//  398     KEY_NUMBER_FLAG_A = 0;//清除按键标志
??SampleApp_HandleKeys_1:
        MOV     DPTR,#KEY_NUMBER_FLAG_A
        MOV     A,#0x0
        MOVX    @DPTR,A
//  399 }
        MOV     A,#0x9
        LCALL   ?DEALLOC_XSTACK8
        CFI CFA_XSP16 add(XSP16, 12)
        MOV     R7,#0x4
        LJMP    ?BANKED_LEAVE_XDATA
        CFI EndBlock cfiBlock3
        REQUIRE _A_P1
//  400 
//  401 
//  402 /*******************************************************************************
//  403 * 函数名称: SampleApp_ProcessBINDINGMessage
//  404 * 函数功能: 与绑定有关的数据的处理
//  405 * 入口参数: pkt：指向接收到的绑定请求信息的指针
//  406 * 出口参数: 无
//  407 * 备注说明: 此函数的函数头固定不变，用户不必操心
//  408 ******************************************************************************/ 

        RSEG BANKED_CODE:CODE:NOROOT(0)
//  409 void SampleApp_ProcessBINDINGMessage(afIncomingMSGPacket_t *pkt)
SampleApp_ProcessBINDINGMessage:
        CFI Block cfiBlock4 Using cfiCommon0
        CFI Function SampleApp_ProcessBINDINGMessage
        CODE
//  410 {
        FUNCALL SampleApp_ProcessBINDINGMessage, SampleApp_SendInMessage
        LOCFRAME ISTACK, 0, STACK
        LOCFRAME PSTACK, 0, STACK
        LOCFRAME XSTACK, 9, STACK
        LOCFRAME IOVERLAY, 0, STATIC
        LOCFRAME DOVERLAY, 0, STATIC
        ARGFRAME ISTACK, 0, STACK
        ARGFRAME PSTACK, 0, STACK
        ARGFRAME XSTACK, 9, STACK
        ARGFRAME IOVERLAY, 0, STATIC
        ARGFRAME DOVERLAY, 0, STATIC
        MOV     A,#-0x9
        LCALL   ?BANKED_ENTER_XDATA
        CFI DPH0 load(1, XDATA, add(CFA_XSP16, literal(-1)))
        CFI DPL0 load(1, XDATA, add(CFA_XSP16, literal(-2)))
        CFI ?BRET_EXT load(1, XDATA, add(CFA_XSP16, literal(-3)))
        CFI ?RET_HIGH load(1, XDATA, add(CFA_XSP16, literal(-4)))
        CFI ?RET_LOW load(1, XDATA, add(CFA_XSP16, literal(-5)))
        CFI R7 load(1, XDATA, add(CFA_XSP16, literal(-6)))
        CFI V0 load(1, XDATA, add(CFA_XSP16, literal(-7)))
        CFI VB load(1, XDATA, add(CFA_XSP16, literal(-8)))
        CFI R6 load(1, XDATA, add(CFA_XSP16, literal(-9)))
        CFI CFA_SP SP+0
        CFI CFA_XSP16 add(XSP16, 9)
        ; Saved register size: 9
        ; Auto size: 0
        MOV     A,R2
        MOV     R6,A
        MOV     A,R3
        MOV     R7,A
//  411 if(pkt->endPoint == SAMPLEAPP_ENDPOINT1)
//  412   {
//  413 
//  414   }  
//  415   
//  416   
//  417     if( (devState==DEV_END_DEVICE) || (devState==DEV_ROUTER) )
        MOV     DPTR,#devState
        MOVX    A,@DPTR
        XRL     A,#0x6
        JZ      ??SampleApp_ProcessBINDINGMessage_0
        MOV     DPTR,#devState
        MOVX    A,@DPTR
        XRL     A,#0x7
        JNZ     ??SampleApp_ProcessBINDINGMessage_1
//  418          SampleApp_SendInMessage();
??SampleApp_ProcessBINDINGMessage_0:
        ; Setup parameters for call to function SampleApp_SendInMessage
        LCALL   ??SampleApp_SendInMessage?relay
//  419     
//  420 }
??SampleApp_ProcessBINDINGMessage_1:
        MOV     R7,#0x1
        LJMP    ?BANKED_LEAVE_XDATA
        CFI EndBlock cfiBlock4
//  421 
//  422 
//  423 /*******************************************************************************
//  424 * 函数名称: USER_APP_JOIN_MSG
//  425 * 函数功能: 入网后的回调函数，用于处理用户的加入网络后需要处理的操作代码
//  426 * 入口参数: 无
//  427 * 出口参数: 无
//  428 * 备注说明: 无
//  429 ******************************************************************************/ 

        RSEG BANKED_CODE:CODE:NOROOT(0)
//  430 void USER_APP_JOIN_MSG(void)
USER_APP_JOIN_MSG:
        CFI Block cfiBlock5 Using cfiCommon0
        CFI Function USER_APP_JOIN_MSG
        CODE
//  431 {
        FUNCALL USER_APP_JOIN_MSG, HalLedBlink
        LOCFRAME ISTACK, 0, STACK
        LOCFRAME PSTACK, 0, STACK
        LOCFRAME XSTACK, 10, STACK
        LOCFRAME IOVERLAY, 0, STATIC
        LOCFRAME DOVERLAY, 0, STATIC
        ARGFRAME ISTACK, 0, STACK
        ARGFRAME PSTACK, 0, STACK
        ARGFRAME XSTACK, 10, STACK
        ARGFRAME IOVERLAY, 0, STATIC
        ARGFRAME DOVERLAY, 0, STATIC
        FUNCALL USER_APP_JOIN_MSG, SampleApp_GetShortAddr
        LOCFRAME ISTACK, 0, STACK
        LOCFRAME PSTACK, 0, STACK
        LOCFRAME XSTACK, 10, STACK
        LOCFRAME IOVERLAY, 0, STATIC
        LOCFRAME DOVERLAY, 0, STATIC
        ARGFRAME ISTACK, 0, STACK
        ARGFRAME PSTACK, 0, STACK
        ARGFRAME XSTACK, 10, STACK
        ARGFRAME IOVERLAY, 0, STATIC
        ARGFRAME DOVERLAY, 0, STATIC
        FUNCALL USER_APP_JOIN_MSG, osal_mem_free
        LOCFRAME ISTACK, 0, STACK
        LOCFRAME PSTACK, 0, STACK
        LOCFRAME XSTACK, 10, STACK
        LOCFRAME IOVERLAY, 0, STATIC
        LOCFRAME DOVERLAY, 0, STATIC
        ARGFRAME ISTACK, 0, STACK
        ARGFRAME PSTACK, 0, STACK
        ARGFRAME XSTACK, 10, STACK
        ARGFRAME IOVERLAY, 0, STATIC
        ARGFRAME DOVERLAY, 0, STATIC
        MOV     A,#-0xa
        LCALL   ?BANKED_ENTER_XDATA
        CFI DPH0 load(1, XDATA, add(CFA_XSP16, literal(-1)))
        CFI DPL0 load(1, XDATA, add(CFA_XSP16, literal(-2)))
        CFI ?BRET_EXT load(1, XDATA, add(CFA_XSP16, literal(-3)))
        CFI ?RET_HIGH load(1, XDATA, add(CFA_XSP16, literal(-4)))
        CFI ?RET_LOW load(1, XDATA, add(CFA_XSP16, literal(-5)))
        CFI R7 load(1, XDATA, add(CFA_XSP16, literal(-6)))
        CFI V1 load(1, XDATA, add(CFA_XSP16, literal(-7)))
        CFI V0 load(1, XDATA, add(CFA_XSP16, literal(-8)))
        CFI VB load(1, XDATA, add(CFA_XSP16, literal(-9)))
        CFI R6 load(1, XDATA, add(CFA_XSP16, literal(-10)))
        CFI CFA_SP SP+0
        CFI CFA_XSP16 add(XSP16, 10)
        ; Saved register size: 10
        ; Auto size: 0
//  432     uint8 *Sample_Cmd_shorAddr;
//  433     
//  434     HalLedBlink ( HAL_LED_1, 1, 99, 2500 );//用BLINK模拟灯亮两秒后熄灭  
        ; Setup parameters for call to function HalLedBlink
        MOV     R4,#-0x3c
        MOV     R5,#0x9
        MOV     R3,#0x63
        MOV     R2,#0x1
        MOV     R1,#0x1
        LCALL   ??HalLedBlink?relay
//  435     
//  436     Sample_Cmd_shorAddr=SampleApp_GetShortAddr();
        ; Setup parameters for call to function SampleApp_GetShortAddr
        LCALL   ??SampleApp_GetShortAddr?relay
        MOV     ?V0 + 0,R2
        MOV     ?V0 + 1,R3
        MOV     R6,?V0 + 0
        MOV     R7,?V0 + 1
//  437     SHORT_ADRESS[0]=*Sample_Cmd_shorAddr++;
        MOV     DPL,R6
        MOV     DPH,R7
        MOVX    A,@DPTR
        MOV     DPTR,#SHORT_ADRESS
        MOVX    @DPTR,A
        MOV     DPL,R6
        MOV     DPH,R7
        INC     DPTR
        MOV     R6,DPL
        MOV     R7,DPH
//  438     SHORT_ADRESS[1]=*Sample_Cmd_shorAddr++;
        MOV     DPL,R6
        MOV     DPH,R7
        MOVX    A,@DPTR
        MOV     DPTR,#SHORT_ADRESS + 1
        MOVX    @DPTR,A
        MOV     DPL,R6
        MOV     DPH,R7
        INC     DPTR
        MOV     R6,DPL
        MOV     R7,DPH
//  439     SHORT_ADRESS[2]=*Sample_Cmd_shorAddr++;
        MOV     DPL,R6
        MOV     DPH,R7
        MOVX    A,@DPTR
        MOV     DPTR,#SHORT_ADRESS + 2
        MOVX    @DPTR,A
        MOV     DPL,R6
        MOV     DPH,R7
        INC     DPTR
        MOV     R6,DPL
        MOV     R7,DPH
//  440     SHORT_ADRESS[3]=*Sample_Cmd_shorAddr;
        MOV     DPL,R6
        MOV     DPH,R7
        MOVX    A,@DPTR
        MOV     DPTR,#SHORT_ADRESS + 3
        MOVX    @DPTR,A
//  441     osal_mem_free( shortddr_mem );
        ; Setup parameters for call to function osal_mem_free
        MOV     DPTR,#shortddr_mem
        MOVX    A,@DPTR
        MOV     R2,A
        INC     DPTR
        MOVX    A,@DPTR
        MOV     R3,A
        LCALL   ??osal_mem_free?relay
//  442     
//  443     // 保证在发送上线消息RS的后面紧跟一条DS的初始数据，5S时间--------
//  444     
//  445     
//  446 }
        MOV     R7,#0x2
        LJMP    ?BANKED_LEAVE_XDATA
        CFI EndBlock cfiBlock5
//  447 
//  448 
//  449 
//  450 /*******************************************************************************
//  451 * 函数名称: USER_APP_COMMAND
//  452 * 函数功能: 收到命令后的处理函数
//  453 * 入口参数: user_app_data 上位机发过来的有效数据 字母后面开始
//  454 str：需要填入的返回数据数组
//  455 * 出口参数: 无
//  456 * 备注说明: 无
//  457 ******************************************************************************/ 

        RSEG BANKED_CODE:CODE:NOROOT(0)
//  458 uint8 USER_APP_COMMAND(uint8 *user_app_data,uint8 *str)
USER_APP_COMMAND:
        CFI Block cfiBlock6 Using cfiCommon0
        CFI Function USER_APP_COMMAND
        CODE
//  459 {
        ; Saved register size: 0
        ; Auto size: 0
//  460   uint8 active_len=0;
        MOV     R1,#0x0
//  461 
//  462       return active_len; 
        LJMP    ?BRET
        CFI EndBlock cfiBlock6
//  463   
//  464 }
//  465 
//  466 /*******************************************************************************
//  467 * 函数名称: USER_SET_RS_MSG
//  468 * 函数功能: 用户自行设置RS数据
//  469 * 入口参数: 无
//  470 * 出口参数: 无
//  471 * 备注说明: 入网后向协调器发送的自身信息数据，入网后5S会自动发送
//  472 ******************************************************************************/

        RSEG BANKED_CODE:CODE:NOROOT(0)
//  473 void USER_SET_RS_MSG(void)//
USER_SET_RS_MSG:
        CFI Block cfiBlock7 Using cfiCommon0
        CFI Function USER_SET_RS_MSG
        CODE
//  474 {
        PUSH    DPL
        CFI DPL0 Frame(CFA_SP, 4)
        CFI CFA_SP SP+-4
        PUSH    DPH
        CFI DPH0 Frame(CFA_SP, 5)
        CFI CFA_SP SP+-5
        ; Saved register size: 2
        ; Auto size: 0
//  475     
//  476     DEVICE_ID=32;
        MOV     DPTR,#DEVICE_ID
        MOV     A,#0x20
        MOVX    @DPTR,A
//  477     DEFINED_CONTROL_CHAR='E';
        MOV     DPTR,#DEFINED_CONTROL_CHAR
        MOV     A,#0x45
        MOVX    @DPTR,A
//  478     JOIN_ROLE=Send_Router;
        MOV     DPTR,#JOIN_ROLE
        MOV     A,#0x0
        MOVX    @DPTR,A
//  479     RS_LEN = 2;
        MOV     DPTR,#RS_LEN
        MOV     A,#0x2
        MOVX    @DPTR,A
//  480     RS_STR[0]=0;
        MOV     DPTR,#RS_STR
        MOV     A,#0x0
        MOVX    @DPTR,A
//  481     RS_STR[1]=0;
        MOV     DPTR,#RS_STR + 1
        MOV     A,#0x0
        MOVX    @DPTR,A
//  482 }
        POP     DPH
        CFI DPH0 SameValue
        CFI CFA_SP SP+-4
        POP     DPL
        CFI DPL0 SameValue
        CFI CFA_SP SP+-3
        LJMP    ?BRET
        CFI EndBlock cfiBlock7
//  483 
//  484 /*******************************************************************************
//  485 * 函数名称: SampleApp_SendInMessage
//  486 * 函数功能: 用户自行规划主动上报数据的格式。
//  487 * 入口参数: 无
//  488 * 出口参数: 无
//  489 * 备注说明: 无
//  490 ******************************************************************************/

        RSEG BANKED_CODE:CODE:NOROOT(0)
//  491 void SampleApp_SendInMessage()
SampleApp_SendInMessage:
        CFI Block cfiBlock8 Using cfiCommon0
        CFI Function SampleApp_SendInMessage
        CODE
//  492 {
        FUNCALL SampleApp_SendInMessage, osal_mem_alloc
        LOCFRAME ISTACK, 0, STACK
        LOCFRAME PSTACK, 0, STACK
        LOCFRAME XSTACK, 11, STACK
        LOCFRAME IOVERLAY, 0, STATIC
        LOCFRAME DOVERLAY, 0, STATIC
        ARGFRAME ISTACK, 0, STACK
        ARGFRAME PSTACK, 0, STACK
        ARGFRAME XSTACK, 11, STACK
        ARGFRAME IOVERLAY, 0, STATIC
        ARGFRAME DOVERLAY, 0, STATIC
        FUNCALL SampleApp_SendInMessage, USER_SEND_ADD_STR
        LOCFRAME ISTACK, 0, STACK
        LOCFRAME PSTACK, 0, STACK
        LOCFRAME XSTACK, 11, STACK
        LOCFRAME IOVERLAY, 0, STATIC
        LOCFRAME DOVERLAY, 0, STATIC
        ARGFRAME ISTACK, 0, STACK
        ARGFRAME PSTACK, 0, STACK
        ARGFRAME XSTACK, 11, STACK
        ARGFRAME IOVERLAY, 0, STATIC
        ARGFRAME DOVERLAY, 0, STATIC
        FUNCALL SampleApp_SendInMessage, USER_APP_SEND_IN
        LOCFRAME ISTACK, 0, STACK
        LOCFRAME PSTACK, 0, STACK
        LOCFRAME XSTACK, 11, STACK
        LOCFRAME IOVERLAY, 0, STATIC
        LOCFRAME DOVERLAY, 0, STATIC
        ARGFRAME ISTACK, 0, STACK
        ARGFRAME PSTACK, 0, STACK
        ARGFRAME XSTACK, 11, STACK
        ARGFRAME IOVERLAY, 0, STATIC
        ARGFRAME DOVERLAY, 0, STATIC
        FUNCALL SampleApp_SendInMessage, osal_mem_free
        LOCFRAME ISTACK, 0, STACK
        LOCFRAME PSTACK, 0, STACK
        LOCFRAME XSTACK, 11, STACK
        LOCFRAME IOVERLAY, 0, STATIC
        LOCFRAME DOVERLAY, 0, STATIC
        ARGFRAME ISTACK, 0, STACK
        ARGFRAME PSTACK, 0, STACK
        ARGFRAME XSTACK, 11, STACK
        ARGFRAME IOVERLAY, 0, STATIC
        ARGFRAME DOVERLAY, 0, STATIC
        MOV     A,#-0xb
        LCALL   ?BANKED_ENTER_XDATA
        CFI DPH0 load(1, XDATA, add(CFA_XSP16, literal(-1)))
        CFI DPL0 load(1, XDATA, add(CFA_XSP16, literal(-2)))
        CFI ?BRET_EXT load(1, XDATA, add(CFA_XSP16, literal(-3)))
        CFI ?RET_HIGH load(1, XDATA, add(CFA_XSP16, literal(-4)))
        CFI ?RET_LOW load(1, XDATA, add(CFA_XSP16, literal(-5)))
        CFI R7 load(1, XDATA, add(CFA_XSP16, literal(-6)))
        CFI V2 load(1, XDATA, add(CFA_XSP16, literal(-7)))
        CFI V1 load(1, XDATA, add(CFA_XSP16, literal(-8)))
        CFI V0 load(1, XDATA, add(CFA_XSP16, literal(-9)))
        CFI VB load(1, XDATA, add(CFA_XSP16, literal(-10)))
        CFI R6 load(1, XDATA, add(CFA_XSP16, literal(-11)))
        CFI CFA_SP SP+0
        CFI CFA_XSP16 add(XSP16, 11)
        ; Saved register size: 11
        ; Auto size: 0
//  493 
//  494   uint8 *send_str;
//  495   uint8 send_count=0;
        MOV     ?V0 + 2,#0x0
//  496   send_count = 10+3;
        MOV     ?V0 + 2,#0xd
//  497   send_str = osal_mem_alloc(send_count);
        ; Setup parameters for call to function osal_mem_alloc
        MOV     ?V0 + 0,?V0 + 2
        MOV     ?V0 + 1,#0x0
        MOV     R2,?V0 + 0
        MOV     R3,?V0 + 1
        LCALL   ??osal_mem_alloc?relay
        MOV     ?V0 + 0,R2
        MOV     ?V0 + 1,R3
        MOV     R6,?V0 + 0
        MOV     R7,?V0 + 1
//  498   
//  499   USER_SEND_ADD_STR(send_str);  //\添加固定帧头
        ; Setup parameters for call to function USER_SEND_ADD_STR
        MOV     A,R6
        MOV     R2,A
        MOV     A,R7
        MOV     R3,A
        LCALL   ??USER_SEND_ADD_STR?relay
//  500 
//  501 
//  502      send_str[9]='/';
        MOV     DPL,R6
        MOV     DPH,R7
        INC     DPTR
        INC     DPTR
        INC     DPTR
        INC     DPTR
        INC     DPTR
        INC     DPTR
        INC     DPTR
        INC     DPTR
        INC     DPTR
        MOV     A,#0x2f
        MOVX    @DPTR,A
//  503      if(screen_flag == 1)
        MOV     DPTR,#screen_flag
        MOVX    A,@DPTR
        XRL     A,#0x1
        JNZ     ??SampleApp_SendInMessage_0
//  504      {
//  505        send_str[10]= 1;
        MOV     DPL,R6
        MOV     DPH,R7
        INC     DPTR
        INC     DPTR
        INC     DPTR
        INC     DPTR
        INC     DPTR
        INC     DPTR
        INC     DPTR
        INC     DPTR
        INC     DPTR
        INC     DPTR
        MOV     A,#0x1
        MOVX    @DPTR,A
//  506        send_str[11]= 0;
        MOV     A,R6
        ADD     A,#0xb
        MOV     DPL,A
        MOV     A,R7
        ADDC    A,#0x0
        MOV     DPH,A
        MOV     A,#0x0
        MOVX    @DPTR,A
        SJMP    ??SampleApp_SendInMessage_1
//  507        
//  508      }
//  509      else if(screen_flag == 2)
??SampleApp_SendInMessage_0:
        MOV     DPTR,#screen_flag
        MOVX    A,@DPTR
        XRL     A,#0x2
        JNZ     ??SampleApp_SendInMessage_1
//  510      {
//  511        send_str[10]= 0;
        MOV     DPL,R6
        MOV     DPH,R7
        INC     DPTR
        INC     DPTR
        INC     DPTR
        INC     DPTR
        INC     DPTR
        INC     DPTR
        INC     DPTR
        INC     DPTR
        INC     DPTR
        INC     DPTR
        MOV     A,#0x0
        MOVX    @DPTR,A
//  512        send_str[11]= 1;
        MOV     A,R6
        ADD     A,#0xb
        MOV     DPL,A
        MOV     A,R7
        ADDC    A,#0x0
        MOV     DPH,A
        MOV     A,#0x1
        MOVX    @DPTR,A
//  513      }
//  514      USER_APP_SEND_IN(12,send_str);//发送出数据
??SampleApp_SendInMessage_1:
        ; Setup parameters for call to function USER_APP_SEND_IN
        MOV     A,R6
        MOV     R2,A
        MOV     A,R7
        MOV     R3,A
        MOV     R1,#0xc
        LCALL   ??USER_APP_SEND_IN?relay
//  515   
//  516   osal_mem_free( send_str );
        ; Setup parameters for call to function osal_mem_free
        MOV     A,R6
        MOV     R2,A
        MOV     A,R7
        MOV     R3,A
        LCALL   ??osal_mem_free?relay
//  517 }
        MOV     R7,#0x3
        LJMP    ?BANKED_LEAVE_XDATA
        CFI EndBlock cfiBlock8
//  518 
//  519 
//  520 /*******************************************************************************
//  521 * 函数名称: User_APP_Drive_init
//  522 * 函数功能: USER自行添加应用初始化的代码，如初始化外设等
//  523 * 入口参数: 无
//  524 * 出口参数: 无
//  525 * 备注说明: 无
//  526 ******************************************************************************/

        RSEG BANKED_CODE:CODE:NOROOT(0)
//  527 void User_APP_Drive_init(void)
User_APP_Drive_init:
        CFI Block cfiBlock9 Using cfiCommon0
        CFI Function User_APP_Drive_init
        CODE
//  528 {   
        ; Saved register size: 0
        ; Auto size: 0
//  529     HAL_IO_CONFIG_INIT();
        ORL     0xff,#0x1
        ORL     0xfd,#0x40
        ORL     0xfd,#0x4
        SETB    0xa0.0
        SETB    0x80.6
        SETB    0x80.2
//  530   
//  531     //确保继电器和LED均处于关闭状态；
//  532    
//  533 }
        LJMP    ?BRET
        CFI EndBlock cfiBlock9
        REQUIRE P2DIR
        REQUIRE P0DIR
        REQUIRE _A_P2
        REQUIRE _A_P0
//  534 
//  535 

        RSEG BANKED_CODE:CODE:NOROOT(0)
//  536 uint8 READ_NETKEY() //读取入网状态按键的状态传递到应用层
READ_NETKEY:
        CFI Block cfiBlock10 Using cfiCommon0
        CFI Function READ_NETKEY
        CODE
//  537 {
        ; Saved register size: 0
        ; Auto size: 0
//  538     return HAL_PUSH_BUTTON3();
        MOV     C,0x90.7
        CLR     A
        RLC     A
        MOV     R1,A
        LJMP    ?BRET
        CFI EndBlock cfiBlock10
        REQUIRE _A_P1
//  539 }
//  540 
//  541 
//  542 
//  543 /*
//  544 mode 0 关
//  545 1 开
//  546 2 切换
//  547 */

        RSEG BANKED_CODE:CODE:NOROOT(0)
//  548 void LED_CHANGE(uint8 Position,uint8 Mode)// 设置LED函数
LED_CHANGE:
        CFI Block cfiBlock11 Using cfiCommon0
        CFI Function LED_CHANGE
        CODE
//  549 {
        ; Saved register size: 0
        ; Auto size: 0
//  550     switch (Position )
        MOV     A,R1
        DEC     A
        JZ      ??LED_CHANGE_0
        DEC     A
        JZ      ??LED_CHANGE_1
        ADD     A,#-0x2
        JZ      ??LED_CHANGE_2
        SJMP    ??LED_CHANGE_3
//  551     {
//  552         case HAL_LED_1:      
//  553         {
//  554             if(Mode==0 || Mode==1)
??LED_CHANGE_0:
        MOV     A,R2
        JZ      ??LED_CHANGE_4
        MOV     A,#0x1
        XRL     A,R2
        JNZ     ??LED_CHANGE_5
//  555             {
//  556                 LED1_SBIT = LED1_POLARITY(Mode);
??LED_CHANGE_4:
        MOV     A,R2
        JNZ     ??LED_CHANGE_6
        MOV     R0,#0x1
        SJMP    ??LED_CHANGE_7
??LED_CHANGE_6:
        MOV     R0,#0x0
??LED_CHANGE_7:
        MOV     A,R0
        MOV     C,0xE0 /* A   */.0
        MOV     0xa0.0,C
        SJMP    ??LED_CHANGE_3
//  557             }
//  558             else if(Mode==2)
??LED_CHANGE_5:
        MOV     A,#0x2
        XRL     A,R2
        JNZ     ??LED_CHANGE_3
//  559             {
//  560                 if (LED1_SBIT) 
        MOV     C,0xa0.0
        JNC     ??LED_CHANGE_8
//  561                 { 
//  562                     LED1_SBIT = 0; 
        CLR     0xa0.0
        SJMP    ??LED_CHANGE_3
//  563                 } 
//  564                 else 
//  565                 { 
//  566                     LED1_SBIT = 1;
??LED_CHANGE_8:
        SETB    0xa0.0
//  567                 } 
//  568             }
//  569         }   
//  570         break;     
        SJMP    ??LED_CHANGE_3
//  571         
//  572         case HAL_LED_2:      
//  573         {
//  574             if(Mode==0||Mode==1)
??LED_CHANGE_1:
        MOV     A,R2
        JZ      ??LED_CHANGE_9
        MOV     A,#0x1
        XRL     A,R2
        JNZ     ??LED_CHANGE_10
//  575             {
//  576                 LED2_SBIT = LED2_POLARITY(Mode);
??LED_CHANGE_9:
        MOV     A,R2
        JNZ     ??LED_CHANGE_11
        MOV     R0,#0x1
        SJMP    ??LED_CHANGE_12
??LED_CHANGE_11:
        MOV     R0,#0x0
??LED_CHANGE_12:
        MOV     A,R0
        MOV     C,0xE0 /* A   */.0
        MOV     0x80.6,C
        SJMP    ??LED_CHANGE_3
//  577             }
//  578             else if(Mode==2)
??LED_CHANGE_10:
        MOV     A,#0x2
        XRL     A,R2
        JNZ     ??LED_CHANGE_3
//  579             {
//  580                 if (LED1_SBIT) 
        MOV     C,0xa0.0
        JNC     ??LED_CHANGE_13
//  581                 { 
//  582                     LED2_SBIT = 0; 
        CLR     0x80.6
        SJMP    ??LED_CHANGE_3
//  583                 } 
//  584                 else 
//  585                 { 
//  586                     LED2_SBIT = 1;
??LED_CHANGE_13:
        SETB    0x80.6
//  587                 } 
//  588             }
//  589         }   
//  590         break;     
        SJMP    ??LED_CHANGE_3
//  591         
//  592         case HAL_LED_3:      
//  593         {
//  594             if(Mode==0 || Mode==1)
??LED_CHANGE_2:
        MOV     A,R2
        JZ      ??LED_CHANGE_14
        MOV     A,#0x1
        XRL     A,R2
        JNZ     ??LED_CHANGE_15
//  595             {
//  596                 LED3_SBIT = LED3_POLARITY(Mode);
??LED_CHANGE_14:
        MOV     A,R2
        JNZ     ??LED_CHANGE_16
        MOV     R0,#0x1
        SJMP    ??LED_CHANGE_17
??LED_CHANGE_16:
        MOV     R0,#0x0
??LED_CHANGE_17:
        MOV     A,R0
        MOV     C,0xE0 /* A   */.0
        MOV     0x80.2,C
        SJMP    ??LED_CHANGE_3
//  597             }
//  598             else if(Mode==2)
??LED_CHANGE_15:
        MOV     A,#0x2
        XRL     A,R2
        JNZ     ??LED_CHANGE_3
//  599             {
//  600                 if (LED3_SBIT) 
        MOV     C,0x80.2
        JNC     ??LED_CHANGE_18
//  601                 { 
//  602                     LED3_SBIT = 0; 
        CLR     0x80.2
        SJMP    ??LED_CHANGE_3
//  603                 } 
//  604                 else 
//  605                 { 
//  606                     LED3_SBIT = 1;
??LED_CHANGE_18:
        SETB    0x80.2
//  607                 } 
//  608             }
//  609         }   
//  610         break;     
//  611         
//  612         default:
//  613         break;
//  614     }
//  615     
//  616 }
??LED_CHANGE_3:
        LJMP    ?BRET
        CFI EndBlock cfiBlock11
        REQUIRE _A_P2
        REQUIRE _A_P0
//  617 
//  618 

        RSEG BANKED_CODE:CODE:NOROOT(0)
//  619 void USER_ZDO_JOINING_MSG(void)
USER_ZDO_JOINING_MSG:
        CFI Block cfiBlock12 Using cfiCommon0
        CFI Function USER_ZDO_JOINING_MSG
        CODE
//  620 {
        FUNCALL USER_ZDO_JOINING_MSG, HalLedBlink
        LOCFRAME ISTACK, 2, STACK
        LOCFRAME PSTACK, 0, STACK
        LOCFRAME XSTACK, 0, STACK
        LOCFRAME IOVERLAY, 0, STATIC
        LOCFRAME DOVERLAY, 0, STATIC
        ARGFRAME ISTACK, 2, STACK
        ARGFRAME PSTACK, 0, STACK
        ARGFRAME XSTACK, 0, STACK
        ARGFRAME IOVERLAY, 0, STATIC
        ARGFRAME DOVERLAY, 0, STATIC
        PUSH    DPL
        CFI DPL0 Frame(CFA_SP, 4)
        CFI CFA_SP SP+-4
        PUSH    DPH
        CFI DPH0 Frame(CFA_SP, 5)
        CFI CFA_SP SP+-5
        ; Saved register size: 2
        ; Auto size: 0
//  621     HalLedBlink ( HAL_LED_1, 1, 30, 500 );
        ; Setup parameters for call to function HalLedBlink
        MOV     R4,#-0xc
        MOV     R5,#0x1
        MOV     R3,#0x1e
        MOV     R2,#0x1
        MOV     R1,#0x1
        LCALL   ??HalLedBlink?relay
//  622 }
        POP     DPH
        CFI DPH0 SameValue
        CFI CFA_SP SP+-4
        POP     DPL
        CFI DPL0 SameValue
        CFI CFA_SP SP+-3
        LJMP    ?BRET
        CFI EndBlock cfiBlock12
//  623 
//  624 

        RSEG BANKED_CODE:CODE:NOROOT(0)
//  625 void SampleAPP_ProcessZDOMsgs( zdoIncomingMsg_t *inMsg )
SampleAPP_ProcessZDOMsgs:
        CFI Block cfiBlock13 Using cfiCommon0
        CFI Function SampleAPP_ProcessZDOMsgs
        CODE
//  626 {
        FUNCALL SampleAPP_ProcessZDOMsgs, HalLedBlink
        LOCFRAME ISTACK, 0, STACK
        LOCFRAME PSTACK, 0, STACK
        LOCFRAME XSTACK, 9, STACK
        LOCFRAME IOVERLAY, 0, STATIC
        LOCFRAME DOVERLAY, 0, STATIC
        ARGFRAME ISTACK, 0, STACK
        ARGFRAME PSTACK, 0, STACK
        ARGFRAME XSTACK, 9, STACK
        ARGFRAME IOVERLAY, 0, STATIC
        ARGFRAME DOVERLAY, 0, STATIC
        FUNCALL SampleAPP_ProcessZDOMsgs, HalLedBlink
        LOCFRAME ISTACK, 0, STACK
        LOCFRAME PSTACK, 0, STACK
        LOCFRAME XSTACK, 9, STACK
        LOCFRAME IOVERLAY, 0, STATIC
        LOCFRAME DOVERLAY, 0, STATIC
        ARGFRAME ISTACK, 0, STACK
        ARGFRAME PSTACK, 0, STACK
        ARGFRAME XSTACK, 9, STACK
        ARGFRAME IOVERLAY, 0, STATIC
        ARGFRAME DOVERLAY, 0, STATIC
        MOV     A,#-0x9
        LCALL   ?BANKED_ENTER_XDATA
        CFI DPH0 load(1, XDATA, add(CFA_XSP16, literal(-1)))
        CFI DPL0 load(1, XDATA, add(CFA_XSP16, literal(-2)))
        CFI ?BRET_EXT load(1, XDATA, add(CFA_XSP16, literal(-3)))
        CFI ?RET_HIGH load(1, XDATA, add(CFA_XSP16, literal(-4)))
        CFI ?RET_LOW load(1, XDATA, add(CFA_XSP16, literal(-5)))
        CFI R7 load(1, XDATA, add(CFA_XSP16, literal(-6)))
        CFI V0 load(1, XDATA, add(CFA_XSP16, literal(-7)))
        CFI VB load(1, XDATA, add(CFA_XSP16, literal(-8)))
        CFI R6 load(1, XDATA, add(CFA_XSP16, literal(-9)))
        CFI CFA_SP SP+0
        CFI CFA_XSP16 add(XSP16, 9)
        ; Saved register size: 9
        ; Auto size: 0
        MOV     A,R2
        MOV     R6,A
        MOV     A,R3
        MOV     R7,A
//  627     
//  628     switch ( inMsg->clusterID )
        MOV     A,R6
        ADD     A,#0xc
        MOV     DPL,A
        MOV     A,R7
        ADDC    A,#0x0
        MOV     DPH,A
        MOVX    A,@DPTR
        XRL     A,#0x20
        JNZ     ??SampleAPP_ProcessZDOMsgs_0
        INC     DPTR
        MOVX    A,@DPTR
        XRL     A,#0x80
??SampleAPP_ProcessZDOMsgs_0:
        JNZ     ??SampleAPP_ProcessZDOMsgs_1
//  629     {
//  630         case End_Device_Bind_rsp:
//  631         if ( ZDO_ParseBindRsp( inMsg ) == ZSuccess )
        MOV     A,R6
        ADD     A,#0x13
        MOV     DPL,A
        MOV     A,R7
        ADDC    A,#0x0
        MOV     DPH,A
        MOVX    A,@DPTR
        MOV     R0,A
        INC     DPTR
        MOVX    A,@DPTR
        MOV     DPH,A
        MOV     DPL,R0
        MOVX    A,@DPTR
        JNZ     ??SampleAPP_ProcessZDOMsgs_2
//  632         {
//  633             // Light LED
//  634             HalLedBlink ( HAL_LED_1, 3, 50, 1000 );
        ; Setup parameters for call to function HalLedBlink
        MOV     R4,#-0x18
        MOV     R5,#0x3
        MOV     R3,#0x32
        MOV     R2,#0x3
        MOV     R1,#0x1
        LCALL   ??HalLedBlink?relay
        SJMP    ??SampleAPP_ProcessZDOMsgs_1
//  635         }
//  636 #if defined(BLINK_LEDS)
//  637         else
//  638         {
//  639             HalLedBlink ( HAL_LED_1, 6, 50, 500 );
??SampleAPP_ProcessZDOMsgs_2:
        ; Setup parameters for call to function HalLedBlink
        MOV     R4,#-0xc
        MOV     R5,#0x1
        MOV     R3,#0x32
        MOV     R2,#0x6
        MOV     R1,#0x1
        LCALL   ??HalLedBlink?relay
//  640         }
//  641 #endif
//  642         break;
//  643     }
//  644     
//  645 }
??SampleAPP_ProcessZDOMsgs_1:
        MOV     R7,#0x1
        LJMP    ?BANKED_LEAVE_XDATA
        CFI EndBlock cfiBlock13
//  646 
//  647 
//  648 
//  649 
//  650 
//  651 
//  652 /*****************************************************************************/
//  653 /*************************************用户函数********************************/
//  654 /*******************************************************************************
//  655 */
//  656 
//  657 
//  658 //开1路负载

        RSEG BANKED_CODE:CODE:NOROOT(0)
//  659 void open_load_1()
open_load_1:
        CFI Block cfiBlock14 Using cfiCommon0
        CFI Function open_load_1
        CODE
//  660 {
        PUSH    DPL
        CFI DPL0 Frame(CFA_SP, 4)
        CFI CFA_SP SP+-4
        PUSH    DPH
        CFI DPH0 Frame(CFA_SP, 5)
        CFI CFA_SP SP+-5
        ; Saved register size: 2
        ; Auto size: 0
//  661                                                                       
//  662   OUT1_SBIT = 0;
        CLR     0x80.1
//  663   OUT2_SBIT = 1;
        SETB    0x80.0
//  664   LED2_SBIT = 1; //关灯
        SETB    0x80.6
//  665   load_1_flag = 1;
        MOV     DPTR,#load_1_flag
        MOV     A,#0x1
        MOVX    @DPTR,A
//  666 }
        POP     DPH
        CFI DPH0 SameValue
        CFI CFA_SP SP+-4
        POP     DPL
        CFI DPL0 SameValue
        CFI CFA_SP SP+-3
        LJMP    ?BRET
        CFI EndBlock cfiBlock14
        REQUIRE _A_P0
//  667 
//  668 //关1路负载

        RSEG BANKED_CODE:CODE:NOROOT(0)
//  669 void close_load_1()
close_load_1:
        CFI Block cfiBlock15 Using cfiCommon0
        CFI Function close_load_1
        CODE
//  670 {
        PUSH    DPL
        CFI DPL0 Frame(CFA_SP, 4)
        CFI CFA_SP SP+-4
        PUSH    DPH
        CFI DPH0 Frame(CFA_SP, 5)
        CFI CFA_SP SP+-5
        ; Saved register size: 2
        ; Auto size: 0
//  671 
//  672   OUT1_SBIT = 1;
        SETB    0x80.1
//  673   OUT2_SBIT = 0;
        CLR     0x80.0
//  674   LED2_SBIT = 0; //开灯
        CLR     0x80.6
//  675     load_1_flag = 0;
        MOV     DPTR,#load_1_flag
        MOV     A,#0x0
        MOVX    @DPTR,A
//  676 }
        POP     DPH
        CFI DPH0 SameValue
        CFI CFA_SP SP+-4
        POP     DPL
        CFI DPL0 SameValue
        CFI CFA_SP SP+-3
        LJMP    ?BRET
        CFI EndBlock cfiBlock15
        REQUIRE _A_P0
//  677 

        RSEG BANKED_CODE:CODE:NOROOT(0)
//  678 void hold_load_1()
hold_load_1:
        CFI Block cfiBlock16 Using cfiCommon0
        CFI Function hold_load_1
        CODE
//  679 {
        ; Saved register size: 0
        ; Auto size: 0
//  680 #if defined(L9110)
//  681   OUT1_SBIT = 0;
//  682   OUT2_SBIT = 0;
//  683 #else
//  684   OUT1_SBIT = 1;
        SETB    0x80.1
//  685   OUT2_SBIT = 1;
        SETB    0x80.0
//  686 #endif
//  687 }
        LJMP    ?BRET
        CFI EndBlock cfiBlock16
        REQUIRE _A_P0
//  688 
//  689 //开2路负载

        RSEG BANKED_CODE:CODE:NOROOT(0)
//  690 void open_load_2()
open_load_2:
        CFI Block cfiBlock17 Using cfiCommon0
        CFI Function open_load_2
        CODE
//  691 {
        PUSH    DPL
        CFI DPL0 Frame(CFA_SP, 4)
        CFI CFA_SP SP+-4
        PUSH    DPH
        CFI DPH0 Frame(CFA_SP, 5)
        CFI CFA_SP SP+-5
        ; Saved register size: 2
        ; Auto size: 0
//  692                                                                      
//  693   OUT3_SBIT = 0;
        CLR     0x80.6
//  694   OUT4_SBIT = 1;
        SETB    0x80.2
//  695   LED3_SBIT = 1; //关灯
        SETB    0x80.2
//  696    load_2_flag = 1;
        MOV     DPTR,#load_2_flag
        MOV     A,#0x1
        MOVX    @DPTR,A
//  697 }
        POP     DPH
        CFI DPH0 SameValue
        CFI CFA_SP SP+-4
        POP     DPL
        CFI DPL0 SameValue
        CFI CFA_SP SP+-3
        LJMP    ?BRET
        CFI EndBlock cfiBlock17
        REQUIRE _A_P0
//  698 
//  699 //关1路负载

        RSEG BANKED_CODE:CODE:NOROOT(0)
//  700 void close_load_2()
close_load_2:
        CFI Block cfiBlock18 Using cfiCommon0
        CFI Function close_load_2
        CODE
//  701 {
        PUSH    DPL
        CFI DPL0 Frame(CFA_SP, 4)
        CFI CFA_SP SP+-4
        PUSH    DPH
        CFI DPH0 Frame(CFA_SP, 5)
        CFI CFA_SP SP+-5
        ; Saved register size: 2
        ; Auto size: 0
//  702 
//  703   OUT3_SBIT = 1;
        SETB    0x80.6
//  704   OUT4_SBIT = 0;
        CLR     0x80.2
//  705   LED3_SBIT = 0; //关灯
        CLR     0x80.2
//  706   load_2_flag = 0;
        MOV     DPTR,#load_2_flag
        MOV     A,#0x0
        MOVX    @DPTR,A
//  707 }
        POP     DPH
        CFI DPH0 SameValue
        CFI CFA_SP SP+-4
        POP     DPL
        CFI DPL0 SameValue
        CFI CFA_SP SP+-3
        LJMP    ?BRET
        CFI EndBlock cfiBlock18
        REQUIRE _A_P0
//  708 

        RSEG BANKED_CODE:CODE:NOROOT(0)
//  709 void hold_load_2()
hold_load_2:
        CFI Block cfiBlock19 Using cfiCommon0
        CFI Function hold_load_2
        CODE
//  710 {
        ; Saved register size: 0
        ; Auto size: 0
//  711 
//  712 #if defined(L9110)
//  713   OUT3_SBIT = 0;
//  714   OUT4_SBIT = 0;
//  715 #else
//  716   OUT3_SBIT = 1;
        SETB    0x80.6
//  717   OUT4_SBIT = 1;
        SETB    0x80.2
//  718 #endif
//  719 
//  720 }
        LJMP    ?BRET
        CFI EndBlock cfiBlock19
        REQUIRE _A_P0
//  721 

        RSEG BANKED_CODE:CODE:NOROOT(0)
//  722 void SampleAPP_send_delay_message(void)
SampleAPP_send_delay_message:
        CFI Block cfiBlock20 Using cfiCommon0
        CFI Function SampleAPP_send_delay_message
        CODE
//  723 {
        FUNCALL SampleAPP_send_delay_message, bindNumReflections
        LOCFRAME ISTACK, 0, STACK
        LOCFRAME PSTACK, 0, STACK
        LOCFRAME XSTACK, 10, STACK
        LOCFRAME IOVERLAY, 0, STATIC
        LOCFRAME DOVERLAY, 0, STATIC
        ARGFRAME ISTACK, 0, STACK
        ARGFRAME PSTACK, 0, STACK
        ARGFRAME XSTACK, 10, STACK
        ARGFRAME IOVERLAY, 0, STATIC
        ARGFRAME DOVERLAY, 0, STATIC
        FUNCALL SampleAPP_send_delay_message, HalLedBlink
        LOCFRAME ISTACK, 0, STACK
        LOCFRAME PSTACK, 0, STACK
        LOCFRAME XSTACK, 10, STACK
        LOCFRAME IOVERLAY, 0, STATIC
        LOCFRAME DOVERLAY, 0, STATIC
        ARGFRAME ISTACK, 0, STACK
        ARGFRAME PSTACK, 0, STACK
        ARGFRAME XSTACK, 10, STACK
        ARGFRAME IOVERLAY, 0, STATIC
        ARGFRAME DOVERLAY, 0, STATIC
        FUNCALL SampleAPP_send_delay_message, AF_DataRequest
        LOCFRAME ISTACK, 0, STACK
        LOCFRAME PSTACK, 0, STACK
        LOCFRAME XSTACK, 19, STACK
        LOCFRAME IOVERLAY, 0, STATIC
        LOCFRAME DOVERLAY, 0, STATIC
        ARGFRAME ISTACK, 0, STACK
        ARGFRAME PSTACK, 0, STACK
        ARGFRAME XSTACK, 19, STACK
        ARGFRAME IOVERLAY, 0, STATIC
        ARGFRAME DOVERLAY, 0, STATIC
        FUNCALL SampleAPP_send_delay_message, bindNumReflections
        LOCFRAME ISTACK, 0, STACK
        LOCFRAME PSTACK, 0, STACK
        LOCFRAME XSTACK, 10, STACK
        LOCFRAME IOVERLAY, 0, STATIC
        LOCFRAME DOVERLAY, 0, STATIC
        ARGFRAME ISTACK, 0, STACK
        ARGFRAME PSTACK, 0, STACK
        ARGFRAME XSTACK, 10, STACK
        ARGFRAME IOVERLAY, 0, STATIC
        ARGFRAME DOVERLAY, 0, STATIC
        FUNCALL SampleAPP_send_delay_message, HalLedBlink
        LOCFRAME ISTACK, 0, STACK
        LOCFRAME PSTACK, 0, STACK
        LOCFRAME XSTACK, 10, STACK
        LOCFRAME IOVERLAY, 0, STATIC
        LOCFRAME DOVERLAY, 0, STATIC
        ARGFRAME ISTACK, 0, STACK
        ARGFRAME PSTACK, 0, STACK
        ARGFRAME XSTACK, 10, STACK
        ARGFRAME IOVERLAY, 0, STATIC
        ARGFRAME DOVERLAY, 0, STATIC
        FUNCALL SampleAPP_send_delay_message, AF_DataRequest
        LOCFRAME ISTACK, 0, STACK
        LOCFRAME PSTACK, 0, STACK
        LOCFRAME XSTACK, 19, STACK
        LOCFRAME IOVERLAY, 0, STATIC
        LOCFRAME DOVERLAY, 0, STATIC
        ARGFRAME ISTACK, 0, STACK
        ARGFRAME PSTACK, 0, STACK
        ARGFRAME XSTACK, 19, STACK
        ARGFRAME IOVERLAY, 0, STATIC
        ARGFRAME DOVERLAY, 0, STATIC
        FUNCALL SampleAPP_send_delay_message, bindNumReflections
        LOCFRAME ISTACK, 0, STACK
        LOCFRAME PSTACK, 0, STACK
        LOCFRAME XSTACK, 10, STACK
        LOCFRAME IOVERLAY, 0, STATIC
        LOCFRAME DOVERLAY, 0, STATIC
        ARGFRAME ISTACK, 0, STACK
        ARGFRAME PSTACK, 0, STACK
        ARGFRAME XSTACK, 10, STACK
        ARGFRAME IOVERLAY, 0, STATIC
        ARGFRAME DOVERLAY, 0, STATIC
        FUNCALL SampleAPP_send_delay_message, HalLedBlink
        LOCFRAME ISTACK, 0, STACK
        LOCFRAME PSTACK, 0, STACK
        LOCFRAME XSTACK, 10, STACK
        LOCFRAME IOVERLAY, 0, STATIC
        LOCFRAME DOVERLAY, 0, STATIC
        ARGFRAME ISTACK, 0, STACK
        ARGFRAME PSTACK, 0, STACK
        ARGFRAME XSTACK, 10, STACK
        ARGFRAME IOVERLAY, 0, STATIC
        ARGFRAME DOVERLAY, 0, STATIC
        FUNCALL SampleAPP_send_delay_message, AF_DataRequest
        LOCFRAME ISTACK, 0, STACK
        LOCFRAME PSTACK, 0, STACK
        LOCFRAME XSTACK, 19, STACK
        LOCFRAME IOVERLAY, 0, STATIC
        LOCFRAME DOVERLAY, 0, STATIC
        ARGFRAME ISTACK, 0, STACK
        ARGFRAME PSTACK, 0, STACK
        ARGFRAME XSTACK, 19, STACK
        ARGFRAME IOVERLAY, 0, STATIC
        ARGFRAME DOVERLAY, 0, STATIC
        FUNCALL SampleAPP_send_delay_message, HalLedBlink
        LOCFRAME ISTACK, 0, STACK
        LOCFRAME PSTACK, 0, STACK
        LOCFRAME XSTACK, 10, STACK
        LOCFRAME IOVERLAY, 0, STATIC
        LOCFRAME DOVERLAY, 0, STATIC
        ARGFRAME ISTACK, 0, STACK
        ARGFRAME PSTACK, 0, STACK
        ARGFRAME XSTACK, 10, STACK
        ARGFRAME IOVERLAY, 0, STATIC
        ARGFRAME DOVERLAY, 0, STATIC
        FUNCALL SampleAPP_send_delay_message, osal_start_timerEx
        LOCFRAME ISTACK, 0, STACK
        LOCFRAME PSTACK, 0, STACK
        LOCFRAME XSTACK, 10, STACK
        LOCFRAME IOVERLAY, 0, STATIC
        LOCFRAME DOVERLAY, 0, STATIC
        ARGFRAME ISTACK, 0, STACK
        ARGFRAME PSTACK, 0, STACK
        ARGFRAME XSTACK, 10, STACK
        ARGFRAME IOVERLAY, 0, STATIC
        ARGFRAME DOVERLAY, 0, STATIC
        FUNCALL SampleAPP_send_delay_message, SampleApp_SendInMessage
        LOCFRAME ISTACK, 0, STACK
        LOCFRAME PSTACK, 0, STACK
        LOCFRAME XSTACK, 10, STACK
        LOCFRAME IOVERLAY, 0, STATIC
        LOCFRAME DOVERLAY, 0, STATIC
        ARGFRAME ISTACK, 0, STACK
        ARGFRAME PSTACK, 0, STACK
        ARGFRAME XSTACK, 10, STACK
        ARGFRAME IOVERLAY, 0, STATIC
        ARGFRAME DOVERLAY, 0, STATIC
        FUNCALL SampleAPP_send_delay_message, bindNumReflections
        LOCFRAME ISTACK, 0, STACK
        LOCFRAME PSTACK, 0, STACK
        LOCFRAME XSTACK, 10, STACK
        LOCFRAME IOVERLAY, 0, STATIC
        LOCFRAME DOVERLAY, 0, STATIC
        ARGFRAME ISTACK, 0, STACK
        ARGFRAME PSTACK, 0, STACK
        ARGFRAME XSTACK, 10, STACK
        ARGFRAME IOVERLAY, 0, STATIC
        ARGFRAME DOVERLAY, 0, STATIC
        FUNCALL SampleAPP_send_delay_message, HalLedBlink
        LOCFRAME ISTACK, 0, STACK
        LOCFRAME PSTACK, 0, STACK
        LOCFRAME XSTACK, 10, STACK
        LOCFRAME IOVERLAY, 0, STATIC
        LOCFRAME DOVERLAY, 0, STATIC
        ARGFRAME ISTACK, 0, STACK
        ARGFRAME PSTACK, 0, STACK
        ARGFRAME XSTACK, 10, STACK
        ARGFRAME IOVERLAY, 0, STATIC
        ARGFRAME DOVERLAY, 0, STATIC
        FUNCALL SampleAPP_send_delay_message, AF_DataRequest
        LOCFRAME ISTACK, 0, STACK
        LOCFRAME PSTACK, 0, STACK
        LOCFRAME XSTACK, 19, STACK
        LOCFRAME IOVERLAY, 0, STATIC
        LOCFRAME DOVERLAY, 0, STATIC
        ARGFRAME ISTACK, 0, STACK
        ARGFRAME PSTACK, 0, STACK
        ARGFRAME XSTACK, 19, STACK
        ARGFRAME IOVERLAY, 0, STATIC
        ARGFRAME DOVERLAY, 0, STATIC
        FUNCALL SampleAPP_send_delay_message, bindNumReflections
        LOCFRAME ISTACK, 0, STACK
        LOCFRAME PSTACK, 0, STACK
        LOCFRAME XSTACK, 10, STACK
        LOCFRAME IOVERLAY, 0, STATIC
        LOCFRAME DOVERLAY, 0, STATIC
        ARGFRAME ISTACK, 0, STACK
        ARGFRAME PSTACK, 0, STACK
        ARGFRAME XSTACK, 10, STACK
        ARGFRAME IOVERLAY, 0, STATIC
        ARGFRAME DOVERLAY, 0, STATIC
        FUNCALL SampleAPP_send_delay_message, HalLedBlink
        LOCFRAME ISTACK, 0, STACK
        LOCFRAME PSTACK, 0, STACK
        LOCFRAME XSTACK, 10, STACK
        LOCFRAME IOVERLAY, 0, STATIC
        LOCFRAME DOVERLAY, 0, STATIC
        ARGFRAME ISTACK, 0, STACK
        ARGFRAME PSTACK, 0, STACK
        ARGFRAME XSTACK, 10, STACK
        ARGFRAME IOVERLAY, 0, STATIC
        ARGFRAME DOVERLAY, 0, STATIC
        FUNCALL SampleAPP_send_delay_message, AF_DataRequest
        LOCFRAME ISTACK, 0, STACK
        LOCFRAME PSTACK, 0, STACK
        LOCFRAME XSTACK, 19, STACK
        LOCFRAME IOVERLAY, 0, STATIC
        LOCFRAME DOVERLAY, 0, STATIC
        ARGFRAME ISTACK, 0, STACK
        ARGFRAME PSTACK, 0, STACK
        ARGFRAME XSTACK, 19, STACK
        ARGFRAME IOVERLAY, 0, STATIC
        ARGFRAME DOVERLAY, 0, STATIC
        FUNCALL SampleAPP_send_delay_message, bindNumReflections
        LOCFRAME ISTACK, 0, STACK
        LOCFRAME PSTACK, 0, STACK
        LOCFRAME XSTACK, 10, STACK
        LOCFRAME IOVERLAY, 0, STATIC
        LOCFRAME DOVERLAY, 0, STATIC
        ARGFRAME ISTACK, 0, STACK
        ARGFRAME PSTACK, 0, STACK
        ARGFRAME XSTACK, 10, STACK
        ARGFRAME IOVERLAY, 0, STATIC
        ARGFRAME DOVERLAY, 0, STATIC
        FUNCALL SampleAPP_send_delay_message, HalLedBlink
        LOCFRAME ISTACK, 0, STACK
        LOCFRAME PSTACK, 0, STACK
        LOCFRAME XSTACK, 10, STACK
        LOCFRAME IOVERLAY, 0, STATIC
        LOCFRAME DOVERLAY, 0, STATIC
        ARGFRAME ISTACK, 0, STACK
        ARGFRAME PSTACK, 0, STACK
        ARGFRAME XSTACK, 10, STACK
        ARGFRAME IOVERLAY, 0, STATIC
        ARGFRAME DOVERLAY, 0, STATIC
        FUNCALL SampleAPP_send_delay_message, AF_DataRequest
        LOCFRAME ISTACK, 0, STACK
        LOCFRAME PSTACK, 0, STACK
        LOCFRAME XSTACK, 19, STACK
        LOCFRAME IOVERLAY, 0, STATIC
        LOCFRAME DOVERLAY, 0, STATIC
        ARGFRAME ISTACK, 0, STACK
        ARGFRAME PSTACK, 0, STACK
        ARGFRAME XSTACK, 19, STACK
        ARGFRAME IOVERLAY, 0, STATIC
        ARGFRAME DOVERLAY, 0, STATIC
        FUNCALL SampleAPP_send_delay_message, HalLedBlink
        LOCFRAME ISTACK, 0, STACK
        LOCFRAME PSTACK, 0, STACK
        LOCFRAME XSTACK, 10, STACK
        LOCFRAME IOVERLAY, 0, STATIC
        LOCFRAME DOVERLAY, 0, STATIC
        ARGFRAME ISTACK, 0, STACK
        ARGFRAME PSTACK, 0, STACK
        ARGFRAME XSTACK, 10, STACK
        ARGFRAME IOVERLAY, 0, STATIC
        ARGFRAME DOVERLAY, 0, STATIC
        FUNCALL SampleAPP_send_delay_message, osal_start_timerEx
        LOCFRAME ISTACK, 0, STACK
        LOCFRAME PSTACK, 0, STACK
        LOCFRAME XSTACK, 10, STACK
        LOCFRAME IOVERLAY, 0, STATIC
        LOCFRAME DOVERLAY, 0, STATIC
        ARGFRAME ISTACK, 0, STACK
        ARGFRAME PSTACK, 0, STACK
        ARGFRAME XSTACK, 10, STACK
        ARGFRAME IOVERLAY, 0, STATIC
        ARGFRAME DOVERLAY, 0, STATIC
        FUNCALL SampleAPP_send_delay_message, SampleApp_SendInMessage
        LOCFRAME ISTACK, 0, STACK
        LOCFRAME PSTACK, 0, STACK
        LOCFRAME XSTACK, 10, STACK
        LOCFRAME IOVERLAY, 0, STATIC
        LOCFRAME DOVERLAY, 0, STATIC
        ARGFRAME ISTACK, 0, STACK
        ARGFRAME PSTACK, 0, STACK
        ARGFRAME XSTACK, 10, STACK
        ARGFRAME IOVERLAY, 0, STATIC
        ARGFRAME DOVERLAY, 0, STATIC
        MOV     A,#-0xa
        LCALL   ?BANKED_ENTER_XDATA
        CFI DPH0 load(1, XDATA, add(CFA_XSP16, literal(-1)))
        CFI DPL0 load(1, XDATA, add(CFA_XSP16, literal(-2)))
        CFI ?BRET_EXT load(1, XDATA, add(CFA_XSP16, literal(-3)))
        CFI ?RET_HIGH load(1, XDATA, add(CFA_XSP16, literal(-4)))
        CFI ?RET_LOW load(1, XDATA, add(CFA_XSP16, literal(-5)))
        CFI R7 load(1, XDATA, add(CFA_XSP16, literal(-6)))
        CFI V1 load(1, XDATA, add(CFA_XSP16, literal(-7)))
        CFI V0 load(1, XDATA, add(CFA_XSP16, literal(-8)))
        CFI VB load(1, XDATA, add(CFA_XSP16, literal(-9)))
        CFI R6 load(1, XDATA, add(CFA_XSP16, literal(-10)))
        CFI CFA_SP SP+0
        CFI CFA_XSP16 add(XSP16, 10)
        ; Saved register size: 10
        ; Auto size: 0
//  724   if (screen_flag == 1)
        MOV     DPTR,#screen_flag
        MOVX    A,@DPTR
        XRL     A,#0x1
        JZ      $+5
        LJMP    ??SampleAPP_send_delay_message_0 & 0xFFFF
//  725   { 
//  726     if(bindNumReflections(SAMPLEAPP_ENDPOINT1,SAMPLEAPP_HUE_CLUSTERID)>0)//有绑定项目 hue up
        ; Setup parameters for call to function bindNumReflections
        MOV     R2,#0xf
        MOV     R3,#0x0
        MOV     R1,#0x15
        LCALL   ??bindNumReflections?relay
        MOV     ?V0 + 0,R2
        MOV     ?V0 + 1,R3
        MOV     A,?V0 + 0
        ORL     A,?V0 + 1
        JZ      ??SampleAPP_send_delay_message_1
//  727     {
//  728       HalLedBlink ( HAL_LED_2, 1, 25, 200 );
        ; Setup parameters for call to function HalLedBlink
        MOV     R4,#-0x38
        MOV     R5,#0x0
        MOV     R3,#0x19
        MOV     R2,#0x1
        MOV     R1,#0x2
        LCALL   ??HalLedBlink?relay
//  729       huePara[0] =1;  //开      
        MOV     DPTR,#huePara
        MOV     A,#0x1
        MOVX    @DPTR,A
//  730       if ( AF_DataRequest( &SampleApp_BIND_DstAddr, &SampleApp_epDesc1,
//  731                           SAMPLEAPP_HUE_CLUSTERID,
//  732                           1,  //数据长度
//  733                           (uint8 *)&huePara,//###添加的发送数据        
//  734                           &SampleApp_TransID,
//  735                           AF_DISCV_ROUTE,
//  736                           AF_DEFAULT_RADIUS ) == afStatus_SUCCESS )
        ; Setup parameters for call to function AF_DataRequest
        MOV     ?V0 + 0,#0xf
        MOV     R0,#?V0 + 0
        LCALL   ?PUSH_XSTACK_I_ONE
        CFI CFA_XSP16 add(XSP16, 11)
        MOV     ?V0 + 0,#SampleApp_TransID & 0xff
        MOV     ?V0 + 1,#(SampleApp_TransID >> 8) & 0xff
        MOV     R0,#?V0 + 0
        LCALL   ?PUSH_XSTACK_I_TWO
        CFI CFA_XSP16 add(XSP16, 13)
        MOV     ?V0 + 0,#huePara & 0xff
        MOV     ?V0 + 1,#(huePara >> 8) & 0xff
        MOV     R0,#?V0 + 0
        LCALL   ?PUSH_XSTACK_I_TWO
        CFI CFA_XSP16 add(XSP16, 15)
        MOV     ?V0 + 0,#0x1
        MOV     ?V0 + 1,#0x0
        MOV     R0,#?V0 + 0
        LCALL   ?PUSH_XSTACK_I_TWO
        CFI CFA_XSP16 add(XSP16, 17)
        MOV     ?V0 + 0,#0xf
        MOV     ?V0 + 1,#0x0
        MOV     R0,#?V0 + 0
        LCALL   ?PUSH_XSTACK_I_TWO
        CFI CFA_XSP16 add(XSP16, 19)
        MOV     R1,#0x20
        MOV     R4,#SampleApp_epDesc1 & 0xff
        MOV     R5,#(SampleApp_epDesc1 >> 8) & 0xff
        MOV     R2,#SampleApp_BIND_DstAddr & 0xff
        MOV     R3,#(SampleApp_BIND_DstAddr >> 8) & 0xff
        LCALL   ??AF_DataRequest?relay
        MOV     A,#0x9
        LCALL   ?DEALLOC_XSTACK8
        CFI CFA_XSP16 add(XSP16, 10)
        MOV     A,R1
        LJMP    ??SampleAPP_send_delay_message_2 & 0xFFFF
//  737       {
//  738         
//  739       }
//  740     }
//  741     else if(bindNumReflections(SAMPLEAPP_ENDPOINT1,SAMPLEAPP_ONOFF_CLUSTERID)>0)//有绑定项目
??SampleAPP_send_delay_message_1:
        ; Setup parameters for call to function bindNumReflections
        MOV     R2,#0x1
        MOV     R3,#0x0
        MOV     R1,#0x15
        LCALL   ??bindNumReflections?relay
        MOV     ?V0 + 0,R2
        MOV     ?V0 + 1,R3
        MOV     A,?V0 + 0
        ORL     A,?V0 + 1
        JZ      ??SampleAPP_send_delay_message_3
//  742     {
//  743       HalLedBlink ( HAL_LED_2, 1, 25, 200 );
        ; Setup parameters for call to function HalLedBlink
        MOV     R4,#-0x38
        MOV     R5,#0x0
        MOV     R3,#0x19
        MOV     R2,#0x1
        MOV     R1,#0x2
        LCALL   ??HalLedBlink?relay
//  744       ONOROFF2 =2;  //开         
        MOV     DPTR,#ONOROFF2
        MOV     A,#0x2
        MOVX    @DPTR,A
//  745       if ( AF_DataRequest( &SampleApp_BIND_DstAddr, &SampleApp_epDesc1,
//  746                           SAMPLEAPP_ONOFF_CLUSTERID,
//  747                           1,  //数据长度
//  748                           &ONOROFF2,//###添加的发送数据        
//  749                           &SampleApp_TransID,
//  750                           AF_DISCV_ROUTE,
//  751                           AF_DEFAULT_RADIUS ) == afStatus_SUCCESS )
        ; Setup parameters for call to function AF_DataRequest
        MOV     ?V0 + 0,#0xf
        MOV     R0,#?V0 + 0
        LCALL   ?PUSH_XSTACK_I_ONE
        CFI CFA_XSP16 add(XSP16, 11)
        MOV     ?V0 + 0,#SampleApp_TransID & 0xff
        MOV     ?V0 + 1,#(SampleApp_TransID >> 8) & 0xff
        MOV     R0,#?V0 + 0
        LCALL   ?PUSH_XSTACK_I_TWO
        CFI CFA_XSP16 add(XSP16, 13)
        MOV     ?V0 + 0,#ONOROFF2 & 0xff
        MOV     ?V0 + 1,#(ONOROFF2 >> 8) & 0xff
        MOV     R0,#?V0 + 0
        LCALL   ?PUSH_XSTACK_I_TWO
        CFI CFA_XSP16 add(XSP16, 15)
        MOV     ?V0 + 0,#0x1
        MOV     ?V0 + 1,#0x0
        MOV     R0,#?V0 + 0
        LCALL   ?PUSH_XSTACK_I_TWO
        CFI CFA_XSP16 add(XSP16, 17)
        MOV     ?V0 + 0,#0x1
        MOV     ?V0 + 1,#0x0
        MOV     R0,#?V0 + 0
        LCALL   ?PUSH_XSTACK_I_TWO
        CFI CFA_XSP16 add(XSP16, 19)
        MOV     R1,#0x20
        MOV     R4,#SampleApp_epDesc1 & 0xff
        MOV     R5,#(SampleApp_epDesc1 >> 8) & 0xff
        MOV     R2,#SampleApp_BIND_DstAddr & 0xff
        MOV     R3,#(SampleApp_BIND_DstAddr >> 8) & 0xff
        LCALL   ??AF_DataRequest?relay
        MOV     A,#0x9
        LCALL   ?DEALLOC_XSTACK8
        CFI CFA_XSP16 add(XSP16, 10)
        MOV     A,R1
        LJMP    ??SampleAPP_send_delay_message_2 & 0xFFFF
//  752       {
//  753         
//  754       }
//  755     }
//  756     
//  757     else if(bindNumReflections(SAMPLEAPP_ENDPOINT1,SAMPLEAPP_DIMMER_CLUSTERID)>0)//有绑定项目
??SampleAPP_send_delay_message_3:
        ; Setup parameters for call to function bindNumReflections
        MOV     R2,#0xb
        MOV     R3,#0x0
        MOV     R1,#0x15
        LCALL   ??bindNumReflections?relay
        MOV     ?V0 + 0,R2
        MOV     ?V0 + 1,R3
        MOV     A,?V0 + 0
        ORL     A,?V0 + 1
        JZ      ??SampleAPP_send_delay_message_4
//  758     {
//  759       HalLedBlink ( HAL_LED_2, 1, 25, 200 );
        ; Setup parameters for call to function HalLedBlink
        MOV     R4,#-0x38
        MOV     R5,#0x0
        MOV     R3,#0x19
        MOV     R2,#0x1
        MOV     R1,#0x2
        LCALL   ??HalLedBlink?relay
//  760       ONOROFF2 = 0;
        MOV     DPTR,#ONOROFF2
        MOV     A,#0x0
        MOVX    @DPTR,A
//  761       
//  762       if ( AF_DataRequest( &SampleApp_BIND_DstAddr, &SampleApp_epDesc1,
//  763                           SAMPLEAPP_DIMMER_CLUSTERID,
//  764                           1,  //数据长度
//  765                           &ONOROFF2,//###添加的发送数据        
//  766                           &SampleApp_TransID,
//  767                           AF_DISCV_ROUTE,
//  768                           AF_DEFAULT_RADIUS ) == afStatus_SUCCESS )
        ; Setup parameters for call to function AF_DataRequest
        MOV     ?V0 + 0,#0xf
        MOV     R0,#?V0 + 0
        LCALL   ?PUSH_XSTACK_I_ONE
        CFI CFA_XSP16 add(XSP16, 11)
        MOV     ?V0 + 0,#SampleApp_TransID & 0xff
        MOV     ?V0 + 1,#(SampleApp_TransID >> 8) & 0xff
        MOV     R0,#?V0 + 0
        LCALL   ?PUSH_XSTACK_I_TWO
        CFI CFA_XSP16 add(XSP16, 13)
        MOV     ?V0 + 0,#ONOROFF2 & 0xff
        MOV     ?V0 + 1,#(ONOROFF2 >> 8) & 0xff
        MOV     R0,#?V0 + 0
        LCALL   ?PUSH_XSTACK_I_TWO
        CFI CFA_XSP16 add(XSP16, 15)
        MOV     ?V0 + 0,#0x1
        MOV     ?V0 + 1,#0x0
        MOV     R0,#?V0 + 0
        LCALL   ?PUSH_XSTACK_I_TWO
        CFI CFA_XSP16 add(XSP16, 17)
        MOV     ?V0 + 0,#0xb
        MOV     ?V0 + 1,#0x0
        MOV     R0,#?V0 + 0
        LCALL   ?PUSH_XSTACK_I_TWO
        CFI CFA_XSP16 add(XSP16, 19)
        MOV     R1,#0x20
        MOV     R4,#SampleApp_epDesc1 & 0xff
        MOV     R5,#(SampleApp_epDesc1 >> 8) & 0xff
        MOV     R2,#SampleApp_BIND_DstAddr & 0xff
        MOV     R3,#(SampleApp_BIND_DstAddr >> 8) & 0xff
        LCALL   ??AF_DataRequest?relay
        MOV     A,#0x9
        LCALL   ?DEALLOC_XSTACK8
        CFI CFA_XSP16 add(XSP16, 10)
        MOV     A,R1
        LJMP    ??SampleAPP_send_delay_message_2 & 0xFFFF
//  769       {
//  770         
//  771       }
//  772     }
//  773     else
//  774     {  
//  775       
//  776       if(screen_current_flag==0)//2012 9 15 添加每次操作之间间隔10S才能操作下一个。以防场景切换太快，影响系统
??SampleAPP_send_delay_message_4:
        MOV     DPTR,#screen_current_flag
        MOVX    A,@DPTR
        JZ      $+5
        LJMP    ??SampleAPP_send_delay_message_2 & 0xFFFF
//  777       {  
//  778         HalLedBlink ( HAL_LED_2, 1, 25, 200 );
        ; Setup parameters for call to function HalLedBlink
        MOV     R4,#-0x38
        MOV     R5,#0x0
        MOV     R3,#0x19
        MOV     R2,#0x1
        MOV     R1,#0x2
        LCALL   ??HalLedBlink?relay
//  779         screen_current_flag=1;
        MOV     DPTR,#screen_current_flag
        MOV     A,#0x1
        MOVX    @DPTR,A
//  780         osal_start_timerEx( UserApp_TaskID,SCREEN_CURRENT_FLAG_EVT,1000 );
        ; Setup parameters for call to function osal_start_timerEx
        MOV     R4,#-0x18
        MOV     R5,#0x3
        MOV     R2,#0x4
        MOV     R3,#0x0
        MOV     DPTR,#UserApp_TaskID
        MOVX    A,@DPTR
        MOV     R1,A
        LCALL   ??osal_start_timerEx?relay
        MOV     A,R1
//  781         SampleApp_SendInMessage();
        ; Setup parameters for call to function SampleApp_SendInMessage
        LCALL   ??SampleApp_SendInMessage?relay
        LJMP    ??SampleAPP_send_delay_message_2 & 0xFFFF
//  782       }
//  783     }
//  784     
//  785   }
//  786   else if (screen_flag == 2)
??SampleAPP_send_delay_message_0:
        MOV     DPTR,#screen_flag
        MOVX    A,@DPTR
        XRL     A,#0x2
        JZ      $+5
        LJMP    ??SampleAPP_send_delay_message_2 & 0xFFFF
//  787   { 
//  788     
//  789     if(bindNumReflections(SAMPLEAPP_ENDPOINT1,SAMPLEAPP_HUE_CLUSTERID)>0)//有绑定项目 hue up
        ; Setup parameters for call to function bindNumReflections
        MOV     R2,#0xf
        MOV     R3,#0x0
        MOV     R1,#0x15
        LCALL   ??bindNumReflections?relay
        MOV     ?V0 + 0,R2
        MOV     ?V0 + 1,R3
        MOV     A,?V0 + 0
        ORL     A,?V0 + 1
        JZ      ??SampleAPP_send_delay_message_5
//  790     {
//  791       HalLedBlink ( HAL_LED_3, 1, 25, 200 );
        ; Setup parameters for call to function HalLedBlink
        MOV     R4,#-0x38
        MOV     R5,#0x0
        MOV     R3,#0x19
        MOV     R2,#0x1
        MOV     R1,#0x4
        LCALL   ??HalLedBlink?relay
//  792       huePara[0] =4;  //开         
        MOV     DPTR,#huePara
        MOV     A,#0x4
        MOVX    @DPTR,A
//  793       huePara[1] =0;  //开         
        MOV     DPTR,#huePara + 1
        MOV     A,#0x0
        MOVX    @DPTR,A
//  794       if ( AF_DataRequest( &SampleApp_BIND_DstAddr, &SampleApp_epDesc1,
//  795                           SAMPLEAPP_HUE_CLUSTERID,
//  796                           2,  //数据长度
//  797                           (uint8 *)&huePara,//###添加的发送数据        
//  798                           &SampleApp_TransID,
//  799                           AF_DISCV_ROUTE,
//  800                           AF_DEFAULT_RADIUS ) == afStatus_SUCCESS )
        ; Setup parameters for call to function AF_DataRequest
        MOV     ?V0 + 0,#0xf
        MOV     R0,#?V0 + 0
        LCALL   ?PUSH_XSTACK_I_ONE
        CFI CFA_XSP16 add(XSP16, 11)
        MOV     ?V0 + 0,#SampleApp_TransID & 0xff
        MOV     ?V0 + 1,#(SampleApp_TransID >> 8) & 0xff
        MOV     R0,#?V0 + 0
        LCALL   ?PUSH_XSTACK_I_TWO
        CFI CFA_XSP16 add(XSP16, 13)
        MOV     ?V0 + 0,#huePara & 0xff
        MOV     ?V0 + 1,#(huePara >> 8) & 0xff
        MOV     R0,#?V0 + 0
        LCALL   ?PUSH_XSTACK_I_TWO
        CFI CFA_XSP16 add(XSP16, 15)
        MOV     ?V0 + 0,#0x2
        MOV     ?V0 + 1,#0x0
        MOV     R0,#?V0 + 0
        LCALL   ?PUSH_XSTACK_I_TWO
        CFI CFA_XSP16 add(XSP16, 17)
        MOV     ?V0 + 0,#0xf
        MOV     ?V0 + 1,#0x0
        MOV     R0,#?V0 + 0
        LCALL   ?PUSH_XSTACK_I_TWO
        CFI CFA_XSP16 add(XSP16, 19)
        MOV     R1,#0x20
        MOV     R4,#SampleApp_epDesc1 & 0xff
        MOV     R5,#(SampleApp_epDesc1 >> 8) & 0xff
        MOV     R2,#SampleApp_BIND_DstAddr & 0xff
        MOV     R3,#(SampleApp_BIND_DstAddr >> 8) & 0xff
        LCALL   ??AF_DataRequest?relay
        MOV     A,#0x9
        LCALL   ?DEALLOC_XSTACK8
        CFI CFA_XSP16 add(XSP16, 10)
        MOV     A,R1
        LJMP    ??SampleAPP_send_delay_message_2 & 0xFFFF
//  801       {
//  802         
//  803       }
//  804     }
//  805     else if(bindNumReflections(SAMPLEAPP_ENDPOINT2,SAMPLEAPP_ONOFF_CLUSTERID)>0)//有绑定项目
??SampleAPP_send_delay_message_5:
        ; Setup parameters for call to function bindNumReflections
        MOV     R2,#0x1
        MOV     R3,#0x0
        MOV     R1,#0x16
        LCALL   ??bindNumReflections?relay
        MOV     ?V0 + 0,R2
        MOV     ?V0 + 1,R3
        MOV     A,?V0 + 0
        ORL     A,?V0 + 1
        JZ      ??SampleAPP_send_delay_message_6
//  806     {
//  807       HalLedBlink ( HAL_LED_3, 1, 25, 200 );
        ; Setup parameters for call to function HalLedBlink
        MOV     R4,#-0x38
        MOV     R5,#0x0
        MOV     R3,#0x19
        MOV     R2,#0x1
        MOV     R1,#0x4
        LCALL   ??HalLedBlink?relay
//  808       ONOROFF3 = 2;  //开         
        MOV     DPTR,#ONOROFF3
        MOV     A,#0x2
        MOVX    @DPTR,A
//  809       if ( AF_DataRequest( &SampleApp_BIND_DstAddr, &SampleApp_epDesc2,
//  810                           SAMPLEAPP_ONOFF_CLUSTERID,
//  811                           1,  //数据长度
//  812                           &ONOROFF3,//###添加的发送数据        
//  813                           &SampleApp_TransID,
//  814                           AF_DISCV_ROUTE,
//  815                           AF_DEFAULT_RADIUS ) == afStatus_SUCCESS )
        ; Setup parameters for call to function AF_DataRequest
        MOV     ?V0 + 0,#0xf
        MOV     R0,#?V0 + 0
        LCALL   ?PUSH_XSTACK_I_ONE
        CFI CFA_XSP16 add(XSP16, 11)
        MOV     ?V0 + 0,#SampleApp_TransID & 0xff
        MOV     ?V0 + 1,#(SampleApp_TransID >> 8) & 0xff
        MOV     R0,#?V0 + 0
        LCALL   ?PUSH_XSTACK_I_TWO
        CFI CFA_XSP16 add(XSP16, 13)
        MOV     ?V0 + 0,#ONOROFF3 & 0xff
        MOV     ?V0 + 1,#(ONOROFF3 >> 8) & 0xff
        MOV     R0,#?V0 + 0
        LCALL   ?PUSH_XSTACK_I_TWO
        CFI CFA_XSP16 add(XSP16, 15)
        MOV     ?V0 + 0,#0x1
        MOV     ?V0 + 1,#0x0
        MOV     R0,#?V0 + 0
        LCALL   ?PUSH_XSTACK_I_TWO
        CFI CFA_XSP16 add(XSP16, 17)
        MOV     ?V0 + 0,#0x1
        MOV     ?V0 + 1,#0x0
        MOV     R0,#?V0 + 0
        LCALL   ?PUSH_XSTACK_I_TWO
        CFI CFA_XSP16 add(XSP16, 19)
        MOV     R1,#0x20
        MOV     R4,#SampleApp_epDesc2 & 0xff
        MOV     R5,#(SampleApp_epDesc2 >> 8) & 0xff
        MOV     R2,#SampleApp_BIND_DstAddr & 0xff
        MOV     R3,#(SampleApp_BIND_DstAddr >> 8) & 0xff
        LCALL   ??AF_DataRequest?relay
        MOV     A,#0x9
        LCALL   ?DEALLOC_XSTACK8
        CFI CFA_XSP16 add(XSP16, 10)
        MOV     A,R1
        LJMP    ??SampleAPP_send_delay_message_2 & 0xFFFF
//  816       {
//  817         
//  818       }
//  819     }
//  820     
//  821     else if(bindNumReflections(SAMPLEAPP_ENDPOINT2,SAMPLEAPP_DIMMER_CLUSTERID)>0)//有绑定项目
??SampleAPP_send_delay_message_6:
        ; Setup parameters for call to function bindNumReflections
        MOV     R2,#0xb
        MOV     R3,#0x0
        MOV     R1,#0x16
        LCALL   ??bindNumReflections?relay
        MOV     ?V0 + 0,R2
        MOV     ?V0 + 1,R3
        MOV     A,?V0 + 0
        ORL     A,?V0 + 1
        JZ      ??SampleAPP_send_delay_message_7
//  822     {
//  823       HalLedBlink ( HAL_LED_3, 1, 25, 200 );
        ; Setup parameters for call to function HalLedBlink
        MOV     R4,#-0x38
        MOV     R5,#0x0
        MOV     R3,#0x19
        MOV     R2,#0x1
        MOV     R1,#0x4
        LCALL   ??HalLedBlink?relay
//  824       ONOROFF3 = 100;
        MOV     DPTR,#ONOROFF3
        MOV     A,#0x64
        MOVX    @DPTR,A
//  825       
//  826       if ( AF_DataRequest( &SampleApp_BIND_DstAddr, &SampleApp_epDesc2,
//  827                           SAMPLEAPP_DIMMER_CLUSTERID,
//  828                           1,  //数据长度
//  829                           &ONOROFF3,//###添加的发送数据        
//  830                           &SampleApp_TransID,
//  831                           AF_DISCV_ROUTE,
//  832                           AF_DEFAULT_RADIUS ) == afStatus_SUCCESS )
        ; Setup parameters for call to function AF_DataRequest
        MOV     ?V0 + 0,#0xf
        MOV     R0,#?V0 + 0
        LCALL   ?PUSH_XSTACK_I_ONE
        CFI CFA_XSP16 add(XSP16, 11)
        MOV     ?V0 + 0,#SampleApp_TransID & 0xff
        MOV     ?V0 + 1,#(SampleApp_TransID >> 8) & 0xff
        MOV     R0,#?V0 + 0
        LCALL   ?PUSH_XSTACK_I_TWO
        CFI CFA_XSP16 add(XSP16, 13)
        MOV     ?V0 + 0,#ONOROFF3 & 0xff
        MOV     ?V0 + 1,#(ONOROFF3 >> 8) & 0xff
        MOV     R0,#?V0 + 0
        LCALL   ?PUSH_XSTACK_I_TWO
        CFI CFA_XSP16 add(XSP16, 15)
        MOV     ?V0 + 0,#0x1
        MOV     ?V0 + 1,#0x0
        MOV     R0,#?V0 + 0
        LCALL   ?PUSH_XSTACK_I_TWO
        CFI CFA_XSP16 add(XSP16, 17)
        MOV     ?V0 + 0,#0xb
        MOV     ?V0 + 1,#0x0
        MOV     R0,#?V0 + 0
        LCALL   ?PUSH_XSTACK_I_TWO
        CFI CFA_XSP16 add(XSP16, 19)
        MOV     R1,#0x20
        MOV     R4,#SampleApp_epDesc2 & 0xff
        MOV     R5,#(SampleApp_epDesc2 >> 8) & 0xff
        MOV     R2,#SampleApp_BIND_DstAddr & 0xff
        MOV     R3,#(SampleApp_BIND_DstAddr >> 8) & 0xff
        LCALL   ??AF_DataRequest?relay
        MOV     A,#0x9
        LCALL   ?DEALLOC_XSTACK8
        CFI CFA_XSP16 add(XSP16, 10)
        MOV     A,R1
        SJMP    ??SampleAPP_send_delay_message_2
//  833       {
//  834         
//  835       }
//  836     }
//  837     else
//  838     {  
//  839       
//  840       if(screen_current_flag==0)//2012 9 15 添加每次操作之间间隔10S才能操作下一个。以防场景切换太快，影响系统
??SampleAPP_send_delay_message_7:
        MOV     DPTR,#screen_current_flag
        MOVX    A,@DPTR
        JNZ     ??SampleAPP_send_delay_message_2
//  841       {  
//  842         HalLedBlink ( HAL_LED_3, 1, 25, 200 );
        ; Setup parameters for call to function HalLedBlink
        MOV     R4,#-0x38
        MOV     R5,#0x0
        MOV     R3,#0x19
        MOV     R2,#0x1
        MOV     R1,#0x4
        LCALL   ??HalLedBlink?relay
//  843         screen_current_flag=1;
        MOV     DPTR,#screen_current_flag
        MOV     A,#0x1
        MOVX    @DPTR,A
//  844         osal_start_timerEx( UserApp_TaskID,SCREEN_CURRENT_FLAG_EVT,1000 );
        ; Setup parameters for call to function osal_start_timerEx
        MOV     R4,#-0x18
        MOV     R5,#0x3
        MOV     R2,#0x4
        MOV     R3,#0x0
        MOV     DPTR,#UserApp_TaskID
        MOVX    A,@DPTR
        MOV     R1,A
        LCALL   ??osal_start_timerEx?relay
        MOV     A,R1
//  845         SampleApp_SendInMessage();
        ; Setup parameters for call to function SampleApp_SendInMessage
        LCALL   ??SampleApp_SendInMessage?relay
//  846       }
//  847     }
//  848     
//  849   }
//  850 }
??SampleAPP_send_delay_message_2:
        MOV     R7,#0x2
        LJMP    ?BANKED_LEAVE_XDATA
        CFI EndBlock cfiBlock20

        RSEG XDATA_ID:CODE:NOROOT(0)
`?<Initializer for bindingOUTClusters>`:
        DATA16
        DW 1
        DW 11
        DW 15

        RSEG XDATA_ID:CODE:NOROOT(0)
`?<Initializer for USER_SampleApp_ClusterList>`:
        DATA16
        DW 1
        DW 2
        DW 3
        DW 4
        DW 5
        DW 6
        DW 7
        DW 8
        DW 0
        DW 0
        DW 0
        DW 0
        DW 0

        RSEG XDATA_ID:CODE:NOROOT(0)
`?<Initializer for SampleApp_SimpleDesc1>`:
        DATA8
        DB 21
        DATA16
        DW 3848
        DW 1
        DATA8
        DB 0
        DB 13
        DATA16
        DW USER_SampleApp_ClusterList
        DATA8
        DB 13
        DATA16
        DW USER_SampleApp_ClusterList

        RSEG XDATA_ID:CODE:NOROOT(0)
`?<Initializer for SampleApp_SimpleDesc2>`:
        DATA8
        DB 22
        DATA16
        DW 3848
        DW 1
        DATA8
        DB 0
        DB 13
        DATA16
        DW USER_SampleApp_ClusterList
        DATA8
        DB 13
        DATA16
        DW USER_SampleApp_ClusterList

        RSEG XDATA_ID:CODE:NOROOT(0)
`?<Initializer for USER_bindingINClusters>`:
        DATA16
        DW 1

        RSEG BANK_RELAYS:CODE:REORDER:NOROOT(0)
??USER_AFTER_RS_MSG?relay:
        LCALL   ?BDISPATCH
        DATA
        DC24    USER_AFTER_RS_MSG

        RSEG BANK_RELAYS:CODE:REORDER:NOROOT(0)
??UserApp_Init?relay:
        LCALL   ?BDISPATCH
        DATA
        DC24    UserApp_Init

        RSEG BANK_RELAYS:CODE:REORDER:NOROOT(0)
??UserApp_ProcessEvent?relay:
        LCALL   ?BDISPATCH
        DATA
        DC24    UserApp_ProcessEvent

        RSEG BANK_RELAYS:CODE:REORDER:NOROOT(0)
??SampleApp_HandleKeys?relay:
        LCALL   ?BDISPATCH
        DATA
        DC24    SampleApp_HandleKeys

        RSEG BANK_RELAYS:CODE:REORDER:NOROOT(0)
??SampleApp_ProcessBINDINGMessage?relay:
        LCALL   ?BDISPATCH
        DATA
        DC24    SampleApp_ProcessBINDINGMessage

        RSEG BANK_RELAYS:CODE:REORDER:NOROOT(0)
??USER_APP_JOIN_MSG?relay:
        LCALL   ?BDISPATCH
        DATA
        DC24    USER_APP_JOIN_MSG

        RSEG BANK_RELAYS:CODE:REORDER:NOROOT(0)
??USER_APP_COMMAND?relay:
        LCALL   ?BDISPATCH
        DATA
        DC24    USER_APP_COMMAND

        RSEG BANK_RELAYS:CODE:REORDER:NOROOT(0)
??USER_SET_RS_MSG?relay:
        LCALL   ?BDISPATCH
        DATA
        DC24    USER_SET_RS_MSG

        RSEG BANK_RELAYS:CODE:REORDER:NOROOT(0)
??SampleApp_SendInMessage?relay:
        LCALL   ?BDISPATCH
        DATA
        DC24    SampleApp_SendInMessage

        RSEG BANK_RELAYS:CODE:REORDER:NOROOT(0)
??User_APP_Drive_init?relay:
        LCALL   ?BDISPATCH
        DATA
        DC24    User_APP_Drive_init

        RSEG BANK_RELAYS:CODE:REORDER:NOROOT(0)
??READ_NETKEY?relay:
        LCALL   ?BDISPATCH
        DATA
        DC24    READ_NETKEY

        RSEG BANK_RELAYS:CODE:REORDER:NOROOT(0)
??LED_CHANGE?relay:
        LCALL   ?BDISPATCH
        DATA
        DC24    LED_CHANGE

        RSEG BANK_RELAYS:CODE:REORDER:NOROOT(0)
??USER_ZDO_JOINING_MSG?relay:
        LCALL   ?BDISPATCH
        DATA
        DC24    USER_ZDO_JOINING_MSG

        RSEG BANK_RELAYS:CODE:REORDER:NOROOT(0)
??SampleAPP_ProcessZDOMsgs?relay:
        LCALL   ?BDISPATCH
        DATA
        DC24    SampleAPP_ProcessZDOMsgs

        RSEG BANK_RELAYS:CODE:REORDER:NOROOT(0)
??open_load_1?relay:
        LCALL   ?BDISPATCH
        DATA
        DC24    open_load_1

        RSEG BANK_RELAYS:CODE:REORDER:NOROOT(0)
??close_load_1?relay:
        LCALL   ?BDISPATCH
        DATA
        DC24    close_load_1

        RSEG BANK_RELAYS:CODE:REORDER:NOROOT(0)
??hold_load_1?relay:
        LCALL   ?BDISPATCH
        DATA
        DC24    hold_load_1

        RSEG BANK_RELAYS:CODE:REORDER:NOROOT(0)
??open_load_2?relay:
        LCALL   ?BDISPATCH
        DATA
        DC24    open_load_2

        RSEG BANK_RELAYS:CODE:REORDER:NOROOT(0)
??close_load_2?relay:
        LCALL   ?BDISPATCH
        DATA
        DC24    close_load_2

        RSEG BANK_RELAYS:CODE:REORDER:NOROOT(0)
??hold_load_2?relay:
        LCALL   ?BDISPATCH
        DATA
        DC24    hold_load_2

        RSEG BANK_RELAYS:CODE:REORDER:NOROOT(0)
??SampleAPP_send_delay_message?relay:
        LCALL   ?BDISPATCH
        DATA
        DC24    SampleAPP_send_delay_message

        END
//  851 
//  852 /**********************************END OF FILE********************************/
//  853 /*****************************************************************************/
//  854 
//  855 
//  856 
//  857 
//  858 
//  859 
//  860 
//  861 
//  862 
//  863 
//  864 
// 
// 2 242 bytes in segment BANKED_CODE
//   126 bytes in segment BANK_RELAYS
//     5 bytes in segment SFR_AN
//    58 bytes in segment XDATA_I
//    58 bytes in segment XDATA_ID
//    62 bytes in segment XDATA_Z
// 
// 2 426 bytes of CODE  memory
//     0 bytes of DATA  memory (+ 5 bytes shared)
//   120 bytes of XDATA memory
//
//Errors: none
//Warnings: 2
