///////////////////////////////////////////////////////////////////////////////
//                                                                            /
// IAR C/C++ Compiler V8.10.1.10194/W32 for 8051        10/Dec/2014  17:47:08 /
// Copyright 2004-2011 IAR Systems AB.                                        /
//                                                                            /
//    Core               =  plain                                             /
//    Code model         =  banked                                            /
//    Data model         =  large                                             /
//    Calling convention =  xdata reentrant                                   /
//    Constant location  =  data_rom                                          /
//    Dptr setup         =  1,16                                              /
//    Source file        =  D:\RE_1_2_0_FORMAL_APP(251)-14-12-8\Projects\zsta /
//                          ck\Samples\SampleApp\Source\rssi_test\c\mcu.c     /
//    Command line       =  -f "D:\RE_1_2_0_FORMAL_APP(251)-14-12-8\Projects\ /
//                          zstack\Samples\SampleApp\CC2530DB\..\..\..\Tools\ /
//                          CC2530DB\f8wRouter.cfg" (-DCPU32MHZ               /
//                          -DROOT=__near_func -DMAC_CFG_APP_PENDING_QUEUE=TR /
//                          UE -DMAC_CFG_TX_DATA_MAX=5 -DMAC_CFG_TX_MAX=8     /
//                          -DMAC_CFG_RX_MAX=5 -DRTR_NWK) -f                  /
//                          "D:\RE_1_2_0_FORMAL_APP(251)-14-12-8\Projects\zst /
//                          ack\Samples\SampleApp\CC2530DB\..\..\..\Tools\CC2 /
//                          530DB\f8wConfig.cfg" (-DZIGBEEPRO -DSECURE=1      /
//                          -DZG_SECURE_DYNAMIC=0 -DREFLECTOR                 /
//                          -DZDAPP_CONFIG_PAN_ID=0xFFFF                      /
//                          -DNWK_START_DELAY=100 -DEXTENDED_JOINING_RANDOM_M /
//                          ASK=0x007F -DBEACON_REQUEST_DELAY=100             /
//                          -DBEACON_REQ_DELAY_MASK=0x00FF                    /
//                          -DLINK_STATUS_JITTER_MASK=0x007F                  /
//                          -DROUTE_EXPIRY_TIME=30 -DAPSC_ACK_WAIT_DURATION_P /
//                          OLLED=3000 -DNWK_INDIRECT_MSG_TIMEOUT=60          /
//                          -DMAX_RREQ_ENTRIES=8 -DAPSC_MAX_FRAME_RETRIES=3   /
//                          -DNWK_MAX_DATA_RETRIES=2                          /
//                          -DMAX_POLL_FAILURE_RETRIES=2 -DMAX_BCAST=9        /
//                          -DAPS_MAX_GROUPS=16 -DMAX_RTG_ENTRIES=30          /
//                          -DNWK_MAX_BINDING_ENTRIES=8                       /
//                          -DMAX_BINDING_CLUSTER_IDS=4 -DASSERT_RESET        /
//                          -DMAC_MAX_FRAME_SIZE=116                          /
//                          -DZDNWKMGR_MIN_TRANSMISSIONS=20 "-DCONST=const    /
//                          __code" -DGENERIC=__generic                       /
//                          -DRFD_RCVC_ALWAYS_ON=FALSE -DPOLL_RATE=8000       /
//                          -DQUEUED_POLL_RATE=100 -DRESPONSE_POLL_RATE=1000) /
//                           -DREJOIN_POLL_RATE=440                           /
//                          "D:\RE_1_2_0_FORMAL_APP(251)-14-12-8\Projects\zst /
//                          ack\Samples\SampleApp\Source\rssi_test\c\mcu.c"   /
//                          -D NV_INIT -D NV_RESTORE -D HOLD_AUTO_START -D    /
//                          MT_TASK -D MT_APP_FUNC -D MT_SYS_FUNC -D          /
//                          MT_ZDO_FUNC -D MT_ZDO_MGMT -D ISR_KEYINTERRUPT    /
//                          -D xWDT_IN_PM1 -D xOSC32K_CRYSTAL_INSTALLED=0 -D  /
//                          xLARGER_NETWORK -D xPOWER_PA -D IRR_ROUTER -D     /
//                          HAVE_TEST_FUN -lC "D:\RE_1_2_0_FORMAL_APP(251)-14 /
//                          -12-8\Projects\zstack\Samples\SampleApp\CC2530DB\ /
//                          IRR_ROUTER_STUDY_device\List\" -lA                /
//                          "D:\RE_1_2_0_FORMAL_APP(251)-14-12-8\Projects\zst /
//                          ack\Samples\SampleApp\CC2530DB\IRR_ROUTER_STUDY_d /
//                          evice\List\" --diag_suppress Pe001,Pa010 -o       /
//                          "D:\RE_1_2_0_FORMAL_APP(251)-14-12-8\Projects\zst /
//                          ack\Samples\SampleApp\CC2530DB\IRR_ROUTER_STUDY_d /
//                          evice\Obj\" -e --no_cse --no_unroll --no_inline   /
//                          --no_code_motion --no_tbaa --debug --core=plain   /
//                          --dptr=16,1 --data_model=large                    /
//                          --code_model=banked --calling_convention=xdata_re /
//                          entrant --place_constants=data_rom                /
//                          --nr_virtual_regs 16 -I                           /
//                          "D:\RE_1_2_0_FORMAL_APP(251)-14-12-8\Projects\zst /
//                          ack\Samples\SampleApp\CC2530DB\" -I               /
//                          "D:\RE_1_2_0_FORMAL_APP(251)-14-12-8\Projects\zst /
//                          ack\Samples\SampleApp\CC2530DB\..\Source\" -I     /
//                          "D:\RE_1_2_0_FORMAL_APP(251)-14-12-8\Projects\zst /
//                          ack\Samples\SampleApp\CC2530DB\..\Source\rssi_tes /
//                          t\h\" -I "D:\RE_1_2_0_FORMAL_APP(251)-14-12-8\Pro /
//                          jects\zstack\Samples\SampleApp\CC2530DB\..\Source /
//                          \IRR_router\" -I "D:\RE_1_2_0_FORMAL_APP(251)-14- /
//                          12-8\Projects\zstack\Samples\SampleApp\CC2530DB\. /
//                          .\..\..\ZMain\TI2530DB\" -I                       /
//                          "D:\RE_1_2_0_FORMAL_APP(251)-14-12-8\Projects\zst /
//                          ack\Samples\SampleApp\CC2530DB\..\..\..\..\..\Com /
//                          ponents\hal\include\" -I                          /
//                          "D:\RE_1_2_0_FORMAL_APP(251)-14-12-8\Projects\zst /
//                          ack\Samples\SampleApp\CC2530DB\..\..\..\..\..\Com /
//                          ponents\hal\target\CC2530EB\" -I                  /
//                          "D:\RE_1_2_0_FORMAL_APP(251)-14-12-8\Projects\zst /
//                          ack\Samples\SampleApp\CC2530DB\..\..\..\..\..\Com /
//                          ponents\mac\include\" -I                          /
//                          "D:\RE_1_2_0_FORMAL_APP(251)-14-12-8\Projects\zst /
//                          ack\Samples\SampleApp\CC2530DB\..\..\..\..\..\Com /
//                          ponents\mac\high_level\" -I                       /
//                          "D:\RE_1_2_0_FORMAL_APP(251)-14-12-8\Projects\zst /
//                          ack\Samples\SampleApp\CC2530DB\..\..\..\..\..\Com /
//                          ponents\mac\low_level\srf04\" -I                  /
//                          "D:\RE_1_2_0_FORMAL_APP(251)-14-12-8\Projects\zst /
//                          ack\Samples\SampleApp\CC2530DB\..\..\..\..\..\Com /
//                          ponents\mac\low_level\srf04\single_chip\" -I      /
//                          "D:\RE_1_2_0_FORMAL_APP(251)-14-12-8\Projects\zst /
//                          ack\Samples\SampleApp\CC2530DB\..\..\..\..\..\Com /
//                          ponents\mt\" -I "D:\RE_1_2_0_FORMAL_APP(251)-14-1 /
//                          2-8\Projects\zstack\Samples\SampleApp\CC2530DB\.. /
//                          \..\..\..\..\Components\osal\include\" -I         /
//                          "D:\RE_1_2_0_FORMAL_APP(251)-14-12-8\Projects\zst /
//                          ack\Samples\SampleApp\CC2530DB\..\..\..\..\..\Com /
//                          ponents\services\saddr\" -I                       /
//                          "D:\RE_1_2_0_FORMAL_APP(251)-14-12-8\Projects\zst /
//                          ack\Samples\SampleApp\CC2530DB\..\..\..\..\..\Com /
//                          ponents\services\sdata\" -I                       /
//                          "D:\RE_1_2_0_FORMAL_APP(251)-14-12-8\Projects\zst /
//                          ack\Samples\SampleApp\CC2530DB\..\..\..\..\..\Com /
//                          ponents\stack\af\" -I "D:\RE_1_2_0_FORMAL_APP(251 /
//                          )-14-12-8\Projects\zstack\Samples\SampleApp\CC253 /
//                          0DB\..\..\..\..\..\Components\stack\nwk\" -I      /
//                          "D:\RE_1_2_0_FORMAL_APP(251)-14-12-8\Projects\zst /
//                          ack\Samples\SampleApp\CC2530DB\..\..\..\..\..\Com /
//                          ponents\stack\sapi\" -I                           /
//                          "D:\RE_1_2_0_FORMAL_APP(251)-14-12-8\Projects\zst /
//                          ack\Samples\SampleApp\CC2530DB\..\..\..\..\..\Com /
//                          ponents\stack\sec\" -I "D:\RE_1_2_0_FORMAL_APP(25 /
//                          1)-14-12-8\Projects\zstack\Samples\SampleApp\CC25 /
//                          30DB\..\..\..\..\..\Components\stack\sys\" -I     /
//                          "D:\RE_1_2_0_FORMAL_APP(251)-14-12-8\Projects\zst /
//                          ack\Samples\SampleApp\CC2530DB\..\..\..\..\..\Com /
//                          ponents\stack\zdo\" -I "D:\RE_1_2_0_FORMAL_APP(25 /
//                          1)-14-12-8\Projects\zstack\Samples\SampleApp\CC25 /
//                          30DB\..\..\..\..\..\Components\zmac\" -I          /
//                          "D:\RE_1_2_0_FORMAL_APP(251)-14-12-8\Projects\zst /
//                          ack\Samples\SampleApp\CC2530DB\..\..\..\..\..\Com /
//                          ponents\zmac\f8w\" -On --require_prototypes       /
//    List file          =  D:\RE_1_2_0_FORMAL_APP(251)-14-12-8\Projects\zsta /
//                          ck\Samples\SampleApp\CC2530DB\IRR_ROUTER_STUDY_de /
//                          vice\List\mcu.s51                                 /
//                                                                            /
//                                                                            /
///////////////////////////////////////////////////////////////////////////////

        NAME mcu

        RTMODEL "__SystemLibrary", "CLib"
        RTMODEL "__calling_convention", "xdata_reentrant"
        RTMODEL "__code_model", "banked"
        RTMODEL "__core", "plain"
        RTMODEL "__data_model", "large"
        RTMODEL "__dptr_size", "16"
        RTMODEL "__extended_stack", "disabled"
        RTMODEL "__location_for_constants", "data"
        RTMODEL "__number_of_dptrs", "1"
        RTMODEL "__rt_version", "1"

        RSEG DOVERLAY:DATA:NOROOT(0)
        RSEG IOVERLAY:IDATA:NOROOT(0)
        RSEG ISTACK:IDATA:NOROOT(0)
        RSEG PSTACK:XDATA:NOROOT(0)
        RSEG XSTACK:XDATA:NOROOT(0)

        EXTERN ?BANKED_ENTER_XDATA
        EXTERN ?BANKED_LEAVE_XDATA
        EXTERN ?BDISPATCH
        EXTERN ?BRET

        PUBLIC ??halMcuInit?relay
        FUNCTION ??halMcuInit?relay,0203H
        PUBLIC ??halMcuReset?relay
        FUNCTION ??halMcuReset?relay,0203H
        PUBLIC ??halMcuSetLowPowerMode?relay
        FUNCTION ??halMcuSetLowPowerMode?relay,0203H
        PUBLIC ??halMcuWaitMs?relay
        FUNCTION ??halMcuWaitMs?relay,0203H
        PUBLIC ??halMcuWaitUs?relay
        FUNCTION ??halMcuWaitUs?relay,0203H
        PUBWEAK WDCTL
        PUBLIC halMcuInit
        FUNCTION halMcuInit,021203H
        ARGFRAME XSTACK, 0, STACK
        LOCFRAME ISTACK, 2, STACK
        PUBLIC halMcuReset
        FUNCTION halMcuReset,0203H
        ARGFRAME XSTACK, 0, STACK
        PUBLIC halMcuSetLowPowerMode
        FUNCTION halMcuSetLowPowerMode,0203H
        ARGFRAME XSTACK, 0, STACK
        PUBLIC halMcuWaitMs
        FUNCTION halMcuWaitMs,021203H
        ARGFRAME XSTACK, 0, STACK
        LOCFRAME XSTACK, 9, STACK
        PUBLIC halMcuWaitUs
        FUNCTION halMcuWaitUs,080203H
        ARGFRAME XSTACK, 9, STACK
        ARGFRAME IOVERLAY, 0, STATIC
        ARGFRAME DOVERLAY, 0, STATIC
        
        CFI Names cfiNames0
        CFI StackFrame CFA_SP SP IDATA
        CFI StackFrame CFA_PSP16 PSP16 XDATA
        CFI StackFrame CFA_XSP16 XSP16 XDATA
        CFI StaticOverlayFrame CFA_IOVERLAY IOVERLAY
        CFI StaticOverlayFrame CFA_DOVERLAY DOVERLAY
        CFI Resource `PSW.CY`:1, `B.BR0`:1, `B.BR1`:1, `B.BR2`:1, `B.BR3`:1
        CFI Resource `B.BR4`:1, `B.BR5`:1, `B.BR6`:1, `B.BR7`:1, `VB.BR8`:1
        CFI Resource `VB.BR9`:1, `VB.BR10`:1, `VB.BR11`:1, `VB.BR12`:1
        CFI Resource `VB.BR13`:1, `VB.BR14`:1, `VB.BR15`:1, VB:8, B:8, A:8
        CFI Resource PSW:8, DPL0:8, DPH0:8, R0:8, R1:8, R2:8, R3:8, R4:8, R5:8
        CFI Resource R6:8, R7:8, V0:8, V1:8, V2:8, V3:8, V4:8, V5:8, V6:8, V7:8
        CFI Resource V8:8, V9:8, V10:8, V11:8, V12:8, V13:8, V14:8, V15:8, SP:8
        CFI Resource PSPH:8, PSPL:8, PSP16:16, XSPH:8, XSPL:8, XSP16:16
        CFI VirtualResource ?RET:24
        CFI Resource ?BRET_EXT:8
        CFI VirtualResource ?RET_HIGH:8, ?RET_LOW:8
        CFI ResourceParts PSP16 PSPH, PSPL
        CFI ResourceParts XSP16 XSPH, XSPL
        CFI ResourceParts ?RET ?BRET_EXT, ?RET_HIGH, ?RET_LOW
        CFI EndNames cfiNames0
        
        CFI Common cfiCommon0 Using cfiNames0
        CFI CodeAlign 1
        CFI DataAlign -1
        CFI ReturnAddress ?RET CODE
        CFI CFA_DOVERLAY Used
        CFI CFA_IOVERLAY Used
        CFI CFA_SP SP+-3
        CFI CFA_PSP16 PSP16+0
        CFI CFA_XSP16 XSP16+0
        CFI `PSW.CY` SameValue
        CFI `B.BR0` SameValue
        CFI `B.BR1` SameValue
        CFI `B.BR2` SameValue
        CFI `B.BR3` SameValue
        CFI `B.BR4` SameValue
        CFI `B.BR5` SameValue
        CFI `B.BR6` SameValue
        CFI `B.BR7` SameValue
        CFI `VB.BR8` SameValue
        CFI `VB.BR9` SameValue
        CFI `VB.BR10` SameValue
        CFI `VB.BR11` SameValue
        CFI `VB.BR12` SameValue
        CFI `VB.BR13` SameValue
        CFI `VB.BR14` SameValue
        CFI `VB.BR15` SameValue
        CFI VB SameValue
        CFI B Undefined
        CFI A Undefined
        CFI PSW SameValue
        CFI DPL0 SameValue
        CFI DPH0 SameValue
        CFI R0 Undefined
        CFI R1 Undefined
        CFI R2 Undefined
        CFI R3 Undefined
        CFI R4 Undefined
        CFI R5 Undefined
        CFI R6 SameValue
        CFI R7 SameValue
        CFI V0 SameValue
        CFI V1 SameValue
        CFI V2 SameValue
        CFI V3 SameValue
        CFI V4 SameValue
        CFI V5 SameValue
        CFI V6 SameValue
        CFI V7 SameValue
        CFI V8 SameValue
        CFI V9 SameValue
        CFI V10 SameValue
        CFI V11 SameValue
        CFI V12 SameValue
        CFI V13 SameValue
        CFI V14 SameValue
        CFI V15 SameValue
        CFI PSPH Undefined
        CFI PSPL Undefined
        CFI XSPH Undefined
        CFI XSPL Undefined
        CFI ?RET Concat
        CFI ?BRET_EXT Frame(CFA_SP, 3)
        CFI ?RET_HIGH Frame(CFA_SP, 2)
        CFI ?RET_LOW Frame(CFA_SP, 1)
        CFI EndCommon cfiCommon0
        
clockSelect32k      SYMBOL "clockSelect32k"
clockSetMainSrc     SYMBOL "clockSetMainSrc"
halAssertHandler    SYMBOL "halAssertHandler"
??clockSelect32k?relay SYMBOL "?relay", clockSelect32k
??clockSetMainSrc?relay SYMBOL "?relay", clockSetMainSrc
??halAssertHandler?relay SYMBOL "?relay", halAssertHandler
halMcuInit          SYMBOL "halMcuInit"
??halMcuInit?relay  SYMBOL "?relay", halMcuInit
halMcuReset         SYMBOL "halMcuReset"
??halMcuReset?relay SYMBOL "?relay", halMcuReset
halMcuSetLowPowerMode SYMBOL "halMcuSetLowPowerMode"
??halMcuSetLowPowerMode?relay SYMBOL "?relay", halMcuSetLowPowerMode
halMcuWaitMs        SYMBOL "halMcuWaitMs"
??halMcuWaitMs?relay SYMBOL "?relay", halMcuWaitMs
halMcuWaitUs        SYMBOL "halMcuWaitUs"
??halMcuWaitUs?relay SYMBOL "?relay", halMcuWaitUs

        EXTERN clockSelect32k
        FUNCTION clockSelect32k,0202H
        ARGFRAME ISTACK, 2, STACK
        ARGFRAME PSTACK, 0, STACK
        ARGFRAME XSTACK, 0, STACK
        ARGFRAME IOVERLAY, 0, STATIC
        ARGFRAME DOVERLAY, 0, STATIC
        EXTERN clockSetMainSrc
        FUNCTION clockSetMainSrc,0202H
        ARGFRAME ISTACK, 2, STACK
        ARGFRAME PSTACK, 0, STACK
        ARGFRAME XSTACK, 0, STACK
        ARGFRAME IOVERLAY, 0, STATIC
        ARGFRAME DOVERLAY, 0, STATIC
        EXTERN halAssertHandler
        FUNCTION halAssertHandler,0202H
        ARGFRAME ISTACK, 2, STACK
        ARGFRAME PSTACK, 0, STACK
        ARGFRAME XSTACK, 0, STACK
        ARGFRAME IOVERLAY, 0, STATIC
        ARGFRAME DOVERLAY, 0, STATIC
        EXTERN ??clockSelect32k?relay
        FUNCTION ??clockSelect32k?relay,00H
        EXTERN ??clockSetMainSrc?relay
        FUNCTION ??clockSetMainSrc?relay,00H
        EXTERN ??halAssertHandler?relay
        FUNCTION ??halAssertHandler?relay,00H

// D:\RE_1_2_0_FORMAL_APP(251)-14-12-8\Projects\zstack\Samples\SampleApp\Source\rssi_test\c\mcu.c
//    1 /***********************************************************************************
//    2     Filename:     hal_mcu.c
//    3 
//    4     Description:
//    5 
//    6 ***********************************************************************************/
//    7 
//    8 #include "hal_types.h"
//    9 #include <mcu.h>
//   10 
//   11 #include "clock.h"
//   12 #include "hal_defs.h"
//   13 #include "assert.h"
//   14 #include "comdef.h"
//   15 #include "ioCC2530.h"

        ASEGN SFR_AN:DATA:NOROOT,0c9H
// unsigned char volatile __sfr WDCTL
WDCTL:
        DATA8
        DS 1
//   16 /***********************************************************************************
//   17 * @fn          halMcuInit
//   18 *
//   19 * @brief       Set Main Clock source to XOSC
//   20 *
//   21 * @param       none
//   22 *
//   23 * @return      none
//   24 */

        RSEG BANKED_CODE:CODE:NOROOT(0)
//   25 void halMcuInit(void)
halMcuInit:
        CFI Block cfiBlock0 Using cfiCommon0
        CFI Function halMcuInit
        CODE
//   26 {
        FUNCALL halMcuInit, clockSelect32k
        LOCFRAME ISTACK, 2, STACK
        LOCFRAME PSTACK, 0, STACK
        LOCFRAME XSTACK, 0, STACK
        LOCFRAME IOVERLAY, 0, STATIC
        LOCFRAME DOVERLAY, 0, STATIC
        ARGFRAME ISTACK, 2, STACK
        ARGFRAME PSTACK, 0, STACK
        ARGFRAME XSTACK, 0, STACK
        ARGFRAME IOVERLAY, 0, STATIC
        ARGFRAME DOVERLAY, 0, STATIC
        FUNCALL halMcuInit, clockSetMainSrc
        LOCFRAME ISTACK, 2, STACK
        LOCFRAME PSTACK, 0, STACK
        LOCFRAME XSTACK, 0, STACK
        LOCFRAME IOVERLAY, 0, STATIC
        LOCFRAME DOVERLAY, 0, STATIC
        ARGFRAME ISTACK, 2, STACK
        ARGFRAME PSTACK, 0, STACK
        ARGFRAME XSTACK, 0, STACK
        ARGFRAME IOVERLAY, 0, STATIC
        ARGFRAME DOVERLAY, 0, STATIC
        FUNCALL halMcuInit, clockSelect32k
        LOCFRAME ISTACK, 2, STACK
        LOCFRAME PSTACK, 0, STACK
        LOCFRAME XSTACK, 0, STACK
        LOCFRAME IOVERLAY, 0, STATIC
        LOCFRAME DOVERLAY, 0, STATIC
        ARGFRAME ISTACK, 2, STACK
        ARGFRAME PSTACK, 0, STACK
        ARGFRAME XSTACK, 0, STACK
        ARGFRAME IOVERLAY, 0, STATIC
        ARGFRAME DOVERLAY, 0, STATIC
        FUNCALL halMcuInit, halAssertHandler
        LOCFRAME ISTACK, 2, STACK
        LOCFRAME PSTACK, 0, STACK
        LOCFRAME XSTACK, 0, STACK
        LOCFRAME IOVERLAY, 0, STATIC
        LOCFRAME DOVERLAY, 0, STATIC
        ARGFRAME ISTACK, 2, STACK
        ARGFRAME PSTACK, 0, STACK
        ARGFRAME XSTACK, 0, STACK
        ARGFRAME IOVERLAY, 0, STATIC
        ARGFRAME DOVERLAY, 0, STATIC
        FUNCALL halMcuInit, clockSetMainSrc
        LOCFRAME ISTACK, 2, STACK
        LOCFRAME PSTACK, 0, STACK
        LOCFRAME XSTACK, 0, STACK
        LOCFRAME IOVERLAY, 0, STATIC
        LOCFRAME DOVERLAY, 0, STATIC
        ARGFRAME ISTACK, 2, STACK
        ARGFRAME PSTACK, 0, STACK
        ARGFRAME XSTACK, 0, STACK
        ARGFRAME IOVERLAY, 0, STATIC
        ARGFRAME DOVERLAY, 0, STATIC
        PUSH    DPL
        CFI DPL0 Frame(CFA_SP, 4)
        CFI CFA_SP SP+-4
        PUSH    DPH
        CFI DPH0 Frame(CFA_SP, 5)
        CFI CFA_SP SP+-5
        ; Saved register size: 2
        ; Auto size: 0
//   27   // if 32k clock change fails, set system clock to HF RC and try again
//   28   if(clockSelect32k(CLOCK_32K_XTAL) != SUCCESS) {
        ; Setup parameters for call to function clockSelect32k
        MOV     R1,#0x0
        LCALL   ??clockSelect32k?relay
        MOV     A,R1
        JZ      ??halMcuInit_0
//   29     clockSetMainSrc(CLOCK_SRC_HFRC);
        ; Setup parameters for call to function clockSetMainSrc
        MOV     R1,#0x1
        LCALL   ??clockSetMainSrc?relay
//   30     if(clockSelect32k(CLOCK_32K_XTAL) != SUCCESS) {
        ; Setup parameters for call to function clockSelect32k
        MOV     R1,#0x0
        LCALL   ??clockSelect32k?relay
        MOV     A,R1
        JZ      ??halMcuInit_0
//   31       HAL_ASSERT(FALSE);
        ; Setup parameters for call to function halAssertHandler
        LCALL   ??halAssertHandler?relay
//   32     }
//   33   }
//   34   clockSetMainSrc(CLOCK_SRC_XOSC);
??halMcuInit_0:
        ; Setup parameters for call to function clockSetMainSrc
        MOV     R1,#0x0
        LCALL   ??clockSetMainSrc?relay
//   35 }
        POP     DPH
        CFI DPH0 SameValue
        CFI CFA_SP SP+-4
        POP     DPL
        CFI DPL0 SameValue
        CFI CFA_SP SP+-3
        LJMP    ?BRET
        CFI EndBlock cfiBlock0
//   36 
//   37 /***********************************************************************************
//   38 * @fn          halMcuWaitUs
//   39 *
//   40 * @brief       Busy wait function. Waits the specified number of microseconds. Use
//   41 *              assumptions about number of clock cycles needed for the various
//   42 *              instructions. This function assumes a 32 MHz clock.
//   43 *
//   44 *              NB! This function is highly dependent on architecture and compiler!
//   45 *
//   46 * @param       uint16 usec - number of microseconds delays
//   47 *
//   48 * @return      none
//   49 */
//   50 #pragma optimize=none

        RSEG BANKED_CODE:CODE:NOROOT(0)
//   51 void halMcuWaitUs(uint16 usec)
halMcuWaitUs:
        CFI Block cfiBlock1 Using cfiCommon0
        CFI Function halMcuWaitUs
        CODE
//   52 {
        ; Saved register size: 0
        ; Auto size: 0
//   53     usec>>= 1;
        MOV     A,R3
        CLR     C
        RRC     A
        MOV     R3,A
        MOV     A,R2
        RRC     A
        MOV     R2,A
//   54     while(usec--)
??halMcuWaitUs_0:
        MOV     A,R2
        MOV     R0,A
        MOV     A,R3
        MOV     R1,A
        MOV     A,R0
        ADD     A,#-0x1
        MOV     R2,A
        MOV     A,R1
        ADDC    A,#-0x1
        MOV     R3,A
        MOV     A,R0
        ORL     A,R1
        JZ      ??halMcuWaitUs_1
//   55     {
//   56         ASM_NOP;
        NOP
//   57         ASM_NOP;
        NOP
//   58         ASM_NOP;
        NOP
//   59         ASM_NOP;
        NOP
//   60         ASM_NOP;
        NOP
//   61         ASM_NOP;
        NOP
//   62         ASM_NOP;
        NOP
//   63         ASM_NOP;
        NOP
//   64         ASM_NOP;
        NOP
//   65         ASM_NOP;
        NOP
//   66         ASM_NOP;
        NOP
//   67         ASM_NOP;
        NOP
//   68         ASM_NOP;
        NOP
//   69         ASM_NOP;
        NOP
//   70         ASM_NOP;
        NOP
//   71         ASM_NOP;
        NOP
//   72         ASM_NOP;
        NOP
        SJMP    ??halMcuWaitUs_0
//   73     }
//   74 }
??halMcuWaitUs_1:
        LJMP    ?BRET
        CFI EndBlock cfiBlock1
//   75 /***********************************************************************************
//   76 * @fn          halMcuWaitMs
//   77 *
//   78 * @brief       Busy wait function. Waits the specified number of milliseconds. Use
//   79 *              assumptions about number of clock cycles needed for the various
//   80 *              instructions.
//   81 *
//   82 *              NB! This function is highly dependent on architecture and compiler!
//   83 *
//   84 * @param       uint16 millisec - number of milliseconds delay
//   85 *
//   86 * @return      none
//   87 */
//   88 #pragma optimize=none

        RSEG BANKED_CODE:CODE:NOROOT(0)
//   89 void halMcuWaitMs(uint16 msec)
halMcuWaitMs:
        CFI Block cfiBlock2 Using cfiCommon0
        CFI Function halMcuWaitMs
        CODE
//   90 {
        FUNCALL halMcuWaitMs, halMcuWaitUs
        LOCFRAME ISTACK, 0, STACK
        LOCFRAME PSTACK, 0, STACK
        LOCFRAME XSTACK, 9, STACK
        LOCFRAME IOVERLAY, 0, STATIC
        LOCFRAME DOVERLAY, 0, STATIC
        ARGFRAME ISTACK, 0, STACK
        ARGFRAME PSTACK, 0, STACK
        ARGFRAME XSTACK, 9, STACK
        ARGFRAME IOVERLAY, 0, STATIC
        ARGFRAME DOVERLAY, 0, STATIC
        MOV     A,#-0x9
        LCALL   ?BANKED_ENTER_XDATA
        CFI DPH0 load(1, XDATA, add(CFA_XSP16, literal(-1)))
        CFI DPL0 load(1, XDATA, add(CFA_XSP16, literal(-2)))
        CFI ?BRET_EXT load(1, XDATA, add(CFA_XSP16, literal(-3)))
        CFI ?RET_HIGH load(1, XDATA, add(CFA_XSP16, literal(-4)))
        CFI ?RET_LOW load(1, XDATA, add(CFA_XSP16, literal(-5)))
        CFI R7 load(1, XDATA, add(CFA_XSP16, literal(-6)))
        CFI V0 load(1, XDATA, add(CFA_XSP16, literal(-7)))
        CFI VB load(1, XDATA, add(CFA_XSP16, literal(-8)))
        CFI R6 load(1, XDATA, add(CFA_XSP16, literal(-9)))
        CFI CFA_SP SP+0
        CFI CFA_XSP16 add(XSP16, 9)
        ; Saved register size: 9
        ; Auto size: 0
        MOV     A,R2
        MOV     R6,A
        MOV     A,R3
        MOV     R7,A
//   91     while(msec--)
??halMcuWaitMs_0:
        MOV     A,R6
        MOV     R0,A
        MOV     A,R7
        MOV     R1,A
        MOV     A,R0
        ADD     A,#-0x1
        MOV     R6,A
        MOV     A,R1
        ADDC    A,#-0x1
        MOV     R7,A
        MOV     A,R0
        ORL     A,R1
        JZ      ??halMcuWaitMs_1
//   92         halMcuWaitUs(1000);
        ; Setup parameters for call to function halMcuWaitUs
        MOV     R2,#-0x18
        MOV     R3,#0x3
        LCALL   ??halMcuWaitUs?relay
        SJMP    ??halMcuWaitMs_0
//   93 }
??halMcuWaitMs_1:
        MOV     R7,#0x1
        LJMP    ?BANKED_LEAVE_XDATA
        CFI EndBlock cfiBlock2
//   94 
//   95 
//   96 /***********************************************************************************
//   97 * @fn          halMcuSetLowPowerMode
//   98 *
//   99 * @brief      Sets the MCU in a low power mode. Will turn global interrupts on at
//  100 *             the same time as entering the LPM mode. The MCU must be waken from
//  101 *             an interrupt (status register on stack must be modified).
//  102 *
//  103 *              NB! This function is highly dependent on architecture and compiler!
//  104 *
//  105 * @param       uint8 mode - power mode
//  106 *
//  107 * @return      none
//  108 */

        RSEG BANKED_CODE:CODE:NOROOT(0)
//  109 void halMcuSetLowPowerMode(uint8 mode)
halMcuSetLowPowerMode:
        CFI Block cfiBlock3 Using cfiCommon0
        CFI Function halMcuSetLowPowerMode
        CODE
//  110 {
        ; Saved register size: 0
        ; Auto size: 0
//  111   // comment: not yet implemented
//  112 //  HAL_ASSERT(FALSE);
//  113 }
        LJMP    ?BRET
        CFI EndBlock cfiBlock3
//  114 
//  115 
//  116 /******************************************************************************
//  117 * @fn  halMcuReset
//  118 *
//  119 * @brief
//  120 * Resets the MCU. This utilize the watchdog timer as there is no other way
//  121 * for a software reset. The reset will not occur until ~2 ms.
//  122 * NB: The function will not return! (hangs until reset)
//  123 *
//  124 * Parameters:
//  125 *
//  126 * @param  void
//  127 *
//  128 * @return void
//  129 *
//  130 ******************************************************************************/

        RSEG BANKED_CODE:CODE:NOROOT(0)
//  131 void halMcuReset(void)
halMcuReset:
        CFI Block cfiBlock4 Using cfiCommon0
        CFI Function halMcuReset
        CODE
//  132 {
        ; Saved register size: 0
        ; Auto size: 0
//  133     const uint8 WDT_INTERVAL_MSEC_2=                    0x03;   // after ~2 ms
        MOV     R1,#0x3
//  134 
//  135     WDCTL = ((WDCTL & 0xFC) | (WDT_INTERVAL_MSEC_2 & 0x03));
        MOV     A,#0x3
        ANL     A,R1
        MOV     R0,A
        MOV     A,0xc9
        ANL     A,#0xfc
        ORL     A,R0
        MOV     0xc9,A
//  136     // Start watchdog
//  137     WDCTL &= ~0x04;     // Select watchdog mode
        ANL     0xc9,#0xfb
//  138     WDCTL |= 0x08;      // Enable timer
        ORL     0xc9,#0x8
//  139     while(1);                                   // Halt here until reset
??halMcuReset_0:
        SJMP    ??halMcuReset_0
        CFI EndBlock cfiBlock4
        REQUIRE WDCTL
//  140 }

        RSEG BANK_RELAYS:CODE:REORDER:NOROOT(0)
??halMcuInit?relay:
        LCALL   ?BDISPATCH
        DATA
        DC24    halMcuInit

        RSEG BANK_RELAYS:CODE:REORDER:NOROOT(0)
??halMcuWaitUs?relay:
        LCALL   ?BDISPATCH
        DATA
        DC24    halMcuWaitUs

        RSEG BANK_RELAYS:CODE:REORDER:NOROOT(0)
??halMcuWaitMs?relay:
        LCALL   ?BDISPATCH
        DATA
        DC24    halMcuWaitMs

        RSEG BANK_RELAYS:CODE:REORDER:NOROOT(0)
??halMcuSetLowPowerMode?relay:
        LCALL   ?BDISPATCH
        DATA
        DC24    halMcuSetLowPowerMode

        RSEG BANK_RELAYS:CODE:REORDER:NOROOT(0)
??halMcuReset?relay:
        LCALL   ?BDISPATCH
        DATA
        DC24    halMcuReset

        END
//  141 
//  142 /***********************************************************************************
//  143   Copyright 2007 Texas Instruments Incorporated. All rights reserved.
//  144 
//  145   IMPORTANT: Your use of this Software is limited to those specific rights
//  146   granted under the terms of a software license agreement between the user
//  147   who downloaded the software, his/her employer (which must be your employer)
//  148   and Texas Instruments Incorporated (the "License").  You may not use this
//  149   Software unless you agree to abide by the terms of the License. The License
//  150   limits your use, and you acknowledge, that the Software may not be modified,
//  151   copied or distributed unless embedded on a Texas Instruments microcontroller
//  152   or used solely and exclusively in conjunction with a Texas Instruments radio
//  153   frequency transceiver, which is integrated into your product.  Other than for
//  154   the foregoing purpose, you may not use, reproduce, copy, prepare derivative
//  155   works of, modify, distribute, perform, display or sell this Software and/or
//  156   its documentation for any purpose.
//  157 
//  158   YOU FURTHER ACKNOWLEDGE AND AGREE THAT THE SOFTWARE AND DOCUMENTATION ARE
//  159   PROVIDED “AS IS” WITHOUT WARRANTY OF ANY KIND, EITHER EXPRESS OR IMPLIED,
//  160   INCLUDING WITHOUT LIMITATION, ANY WARRANTY OF MERCHANTABILITY, TITLE,
//  161   NON-INFRINGEMENT AND FITNESS FOR A PARTICULAR PURPOSE. IN NO EVENT SHALL
//  162   TEXAS INSTRUMENTS OR ITS LICENSORS BE LIABLE OR OBLIGATED UNDER CONTRACT,
//  163   NEGLIGENCE, STRICT LIABILITY, CONTRIBUTION, BREACH OF WARRANTY, OR OTHER
//  164   LEGAL EQUITABLE THEORY ANY DIRECT OR INDIRECT DAMAGES OR EXPENSES
//  165   INCLUDING BUT NOT LIMITED TO ANY INCIDENTAL, SPECIAL, INDIRECT, PUNITIVE
//  166   OR CONSEQUENTIAL DAMAGES, LOST PROFITS OR LOST DATA, COST OF PROCUREMENT
//  167   OF SUBSTITUTE GOODS, TECHNOLOGY, SERVICES, OR ANY CLAIMS BY THIRD PARTIES
//  168   (INCLUDING BUT NOT LIMITED TO ANY DEFENSE THEREOF), OR OTHER SIMILAR COSTS.
//  169 
//  170   Should you have any questions regarding your right to use this Software,
//  171   contact Texas Instruments Incorporated at www.TI.com.
//  172 ***********************************************************************************/
// 
// 148 bytes in segment BANKED_CODE
//  30 bytes in segment BANK_RELAYS
//   1 byte  in segment SFR_AN
// 
// 178 bytes of CODE memory
//   0 bytes of DATA memory (+ 1 byte shared)
//
//Errors: none
//Warnings: none
