///////////////////////////////////////////////////////////////////////////////
//                                                                            /
// IAR C/C++ Compiler V8.10.1.10194/W32 for 8051        19/Dec/2014  16:36:34 /
// Copyright 2004-2011 IAR Systems AB.                                        /
//                                                                            /
//    Core               =  plain                                             /
//    Code model         =  banked                                            /
//    Data model         =  large                                             /
//    Calling convention =  xdata reentrant                                   /
//    Constant location  =  data_rom                                          /
//    Dptr setup         =  1,16                                              /
//    Source file        =  D:\RE_1_2_0_FORMAL_APP(251)-14-12-8\Components\st /
//                          ack\sys\ZGlobals.c                                /
//    Command line       =  -f "D:\RE_1_2_0_FORMAL_APP(251)-14-12-8\Projects\ /
//                          zstack\Samples\SampleApp\CC2530DB\..\..\..\Tools\ /
//                          CC2530DB\f8wRouter.cfg" (-DCPU32MHZ               /
//                          -DROOT=__near_func -DMAC_CFG_APP_PENDING_QUEUE=TR /
//                          UE -DMAC_CFG_TX_DATA_MAX=5 -DMAC_CFG_TX_MAX=8     /
//                          -DMAC_CFG_RX_MAX=5 -DRTR_NWK) -f                  /
//                          "D:\RE_1_2_0_FORMAL_APP(251)-14-12-8\Projects\zst /
//                          ack\Samples\SampleApp\CC2530DB\..\..\..\Tools\CC2 /
//                          530DB\f8wConfig.cfg" (-DZIGBEEPRO -DSECURE=1      /
//                          -DZG_SECURE_DYNAMIC=0 -DREFLECTOR                 /
//                          -DZDAPP_CONFIG_PAN_ID=0xFFFF                      /
//                          -DNWK_START_DELAY=100 -DEXTENDED_JOINING_RANDOM_M /
//                          ASK=0x007F -DBEACON_REQUEST_DELAY=100             /
//                          -DBEACON_REQ_DELAY_MASK=0x00FF                    /
//                          -DLINK_STATUS_JITTER_MASK=0x007F                  /
//                          -DROUTE_EXPIRY_TIME=30 -DAPSC_ACK_WAIT_DURATION_P /
//                          OLLED=3000 -DNWK_INDIRECT_MSG_TIMEOUT=60          /
//                          -DMAX_RREQ_ENTRIES=8 -DAPSC_MAX_FRAME_RETRIES=3   /
//                          -DNWK_MAX_DATA_RETRIES=2                          /
//                          -DMAX_POLL_FAILURE_RETRIES=2 -DMAX_BCAST=9        /
//                          -DAPS_MAX_GROUPS=16 -DMAX_RTG_ENTRIES=30          /
//                          -DNWK_MAX_BINDING_ENTRIES=10                      /
//                          -DMAX_BINDING_CLUSTER_IDS=4 -DASSERT_RESET        /
//                          -DMAC_MAX_FRAME_SIZE=116                          /
//                          -DZDNWKMGR_MIN_TRANSMISSIONS=20 "-DCONST=const    /
//                          __code" -DGENERIC=__generic                       /
//                          -DRFD_RCVC_ALWAYS_ON=FALSE -DPOLL_RATE=8000       /
//                          -DQUEUED_POLL_RATE=100 -DRESPONSE_POLL_RATE=1000) /
//                           -DREJOIN_POLL_RATE=440                           /
//                          "D:\RE_1_2_0_FORMAL_APP(251)-14-12-8\Components\s /
//                          tack\sys\ZGlobals.c" -D NV_INIT -D NV_RESTORE -D  /
//                          HOLD_AUTO_START -D MT_TASK -D MT_APP_FUNC -D      /
//                          MT_SYS_FUNC -D MT_ZDO_FUNC -D xMT_ZDO_MGMT -D     /
//                          ISR_KEYINTERRUPT -D xWDT_IN_PM1 -D                /
//                          xOSC32K_CRYSTAL_INSTALLED=0 -D xPOWER_PA -D       /
//                          IRR_ROUTER -D M_V332 -D xHAVE_TEST_FUN -lC        /
//                          "D:\RE_1_2_0_FORMAL_APP(251)-14-12-8\Projects\zst /
//                          ack\Samples\SampleApp\CC2530DB\IRR_ROUTER_STUDY_d /
//                          evice\List\" -lA "D:\RE_1_2_0_FORMAL_APP(251)-14- /
//                          12-8\Projects\zstack\Samples\SampleApp\CC2530DB\I /
//                          RR_ROUTER_STUDY_device\List\" --diag_suppress     /
//                          Pe001,Pa010 -o "D:\RE_1_2_0_FORMAL_APP(251)-14-12 /
//                          -8\Projects\zstack\Samples\SampleApp\CC2530DB\IRR /
//                          _ROUTER_STUDY_device\Obj\" -e --no_cse            /
//                          --no_unroll --no_inline --no_code_motion          /
//                          --no_tbaa --debug --core=plain --dptr=16,1        /
//                          --data_model=large --code_model=banked            /
//                          --calling_convention=xdata_reentrant              /
//                          --place_constants=data_rom --nr_virtual_regs 16   /
//                          -I "D:\RE_1_2_0_FORMAL_APP(251)-14-12-8\Projects\ /
//                          zstack\Samples\SampleApp\CC2530DB\" -I            /
//                          "D:\RE_1_2_0_FORMAL_APP(251)-14-12-8\Projects\zst /
//                          ack\Samples\SampleApp\CC2530DB\..\Source\" -I     /
//                          "D:\RE_1_2_0_FORMAL_APP(251)-14-12-8\Projects\zst /
//                          ack\Samples\SampleApp\CC2530DB\..\Source\rssi_tes /
//                          t\h\" -I "D:\RE_1_2_0_FORMAL_APP(251)-14-12-8\Pro /
//                          jects\zstack\Samples\SampleApp\CC2530DB\..\Source /
//                          \IRR_router\" -I "D:\RE_1_2_0_FORMAL_APP(251)-14- /
//                          12-8\Projects\zstack\Samples\SampleApp\CC2530DB\. /
//                          .\..\..\ZMain\TI2530DB\" -I                       /
//                          "D:\RE_1_2_0_FORMAL_APP(251)-14-12-8\Projects\zst /
//                          ack\Samples\SampleApp\CC2530DB\..\..\..\..\..\Com /
//                          ponents\hal\include\" -I                          /
//                          "D:\RE_1_2_0_FORMAL_APP(251)-14-12-8\Projects\zst /
//                          ack\Samples\SampleApp\CC2530DB\..\..\..\..\..\Com /
//                          ponents\hal\target\CC2530EB\" -I                  /
//                          "D:\RE_1_2_0_FORMAL_APP(251)-14-12-8\Projects\zst /
//                          ack\Samples\SampleApp\CC2530DB\..\..\..\..\..\Com /
//                          ponents\mac\include\" -I                          /
//                          "D:\RE_1_2_0_FORMAL_APP(251)-14-12-8\Projects\zst /
//                          ack\Samples\SampleApp\CC2530DB\..\..\..\..\..\Com /
//                          ponents\mac\high_level\" -I                       /
//                          "D:\RE_1_2_0_FORMAL_APP(251)-14-12-8\Projects\zst /
//                          ack\Samples\SampleApp\CC2530DB\..\..\..\..\..\Com /
//                          ponents\mac\low_level\srf04\" -I                  /
//                          "D:\RE_1_2_0_FORMAL_APP(251)-14-12-8\Projects\zst /
//                          ack\Samples\SampleApp\CC2530DB\..\..\..\..\..\Com /
//                          ponents\mac\low_level\srf04\single_chip\" -I      /
//                          "D:\RE_1_2_0_FORMAL_APP(251)-14-12-8\Projects\zst /
//                          ack\Samples\SampleApp\CC2530DB\..\..\..\..\..\Com /
//                          ponents\mt\" -I "D:\RE_1_2_0_FORMAL_APP(251)-14-1 /
//                          2-8\Projects\zstack\Samples\SampleApp\CC2530DB\.. /
//                          \..\..\..\..\Components\osal\include\" -I         /
//                          "D:\RE_1_2_0_FORMAL_APP(251)-14-12-8\Projects\zst /
//                          ack\Samples\SampleApp\CC2530DB\..\..\..\..\..\Com /
//                          ponents\services\saddr\" -I                       /
//                          "D:\RE_1_2_0_FORMAL_APP(251)-14-12-8\Projects\zst /
//                          ack\Samples\SampleApp\CC2530DB\..\..\..\..\..\Com /
//                          ponents\services\sdata\" -I                       /
//                          "D:\RE_1_2_0_FORMAL_APP(251)-14-12-8\Projects\zst /
//                          ack\Samples\SampleApp\CC2530DB\..\..\..\..\..\Com /
//                          ponents\stack\af\" -I "D:\RE_1_2_0_FORMAL_APP(251 /
//                          )-14-12-8\Projects\zstack\Samples\SampleApp\CC253 /
//                          0DB\..\..\..\..\..\Components\stack\nwk\" -I      /
//                          "D:\RE_1_2_0_FORMAL_APP(251)-14-12-8\Projects\zst /
//                          ack\Samples\SampleApp\CC2530DB\..\..\..\..\..\Com /
//                          ponents\stack\sapi\" -I                           /
//                          "D:\RE_1_2_0_FORMAL_APP(251)-14-12-8\Projects\zst /
//                          ack\Samples\SampleApp\CC2530DB\..\..\..\..\..\Com /
//                          ponents\stack\sec\" -I "D:\RE_1_2_0_FORMAL_APP(25 /
//                          1)-14-12-8\Projects\zstack\Samples\SampleApp\CC25 /
//                          30DB\..\..\..\..\..\Components\stack\sys\" -I     /
//                          "D:\RE_1_2_0_FORMAL_APP(251)-14-12-8\Projects\zst /
//                          ack\Samples\SampleApp\CC2530DB\..\..\..\..\..\Com /
//                          ponents\stack\zdo\" -I "D:\RE_1_2_0_FORMAL_APP(25 /
//                          1)-14-12-8\Projects\zstack\Samples\SampleApp\CC25 /
//                          30DB\..\..\..\..\..\Components\zmac\" -I          /
//                          "D:\RE_1_2_0_FORMAL_APP(251)-14-12-8\Projects\zst /
//                          ack\Samples\SampleApp\CC2530DB\..\..\..\..\..\Com /
//                          ponents\zmac\f8w\" -On --require_prototypes       /
//    List file          =  D:\RE_1_2_0_FORMAL_APP(251)-14-12-8\Projects\zsta /
//                          ck\Samples\SampleApp\CC2530DB\IRR_ROUTER_STUDY_de /
//                          vice\List\ZGlobals.s51                            /
//                                                                            /
//                                                                            /
///////////////////////////////////////////////////////////////////////////////

        NAME ZGlobals

        RTMODEL "__SystemLibrary", "CLib"
        RTMODEL "__calling_convention", "xdata_reentrant"
        RTMODEL "__code_model", "banked"
        RTMODEL "__core", "plain"
        RTMODEL "__data_model", "large"
        RTMODEL "__dptr_size", "16"
        RTMODEL "__extended_stack", "disabled"
        RTMODEL "__location_for_constants", "data"
        RTMODEL "__number_of_dptrs", "1"
        RTMODEL "__rt_version", "1"

        RSEG DOVERLAY:DATA:NOROOT(0)
        RSEG IOVERLAY:IDATA:NOROOT(0)
        RSEG ISTACK:IDATA:NOROOT(0)
        RSEG PSTACK:XDATA:NOROOT(0)
        RSEG XSTACK:XDATA:NOROOT(0)

        EXTERN ?ALLOC_XSTACK8
        EXTERN ?BANKED_ENTER_XDATA
        EXTERN ?BANKED_LEAVE_XDATA
        EXTERN ?BDISPATCH
        EXTERN ?DEALLOC_XSTACK8
        EXTERN ?PUSH_XSTACK8_C_TWO
        EXTERN ?PUSH_XSTACK_I_THREE
        EXTERN ?PUSH_XSTACK_I_TWO
        EXTERN ?V0
        EXTERN ?XSP
        EXTERN ?XSTACK_DISP0_8
        EXTERN __INIT_XDATA_I
        EXTERN __INIT_XDATA_Z

        PUBLIC ??zgInit?relay
        FUNCTION ??zgInit?relay,0203H
        PUBLIC ??zgInitItems?relay
        FUNCTION ??zgInitItems?relay,0203H
        FUNCTION ??zgItemInit?relay,0203H
        FUNCTION ??zgPreconfigKeyInit?relay,0203H
        PUBLIC ??zgReadStartupOptions?relay
        FUNCTION ??zgReadStartupOptions?relay,0203H
        PUBLIC ??zgSetItem?relay
        FUNCTION ??zgSetItem?relay,0203H
        PUBLIC ??zgWriteStartupOptions?relay
        FUNCTION ??zgWriteStartupOptions?relay,0203H
        PUBLIC zgApsAckWaitMultiplier
        PUBLIC zgApsDefaultMaxBindingTime
        PUBLIC zgApsNonMemberRadius
        PUBLIC zgApsUseExtendedPANID
        PUBLIC zgApsUseInsecureJoin
        PUBLIC zgApscAckWaitDurationPolled
        PUBLIC zgApscMaxFrameRetries
        PUBLIC zgBcastDeliveryTime
        PUBLIC zgConcentratorDiscoveryTime
        PUBLIC zgConcentratorEnable
        PUBLIC zgConcentratorRC
        PUBLIC zgConcentratorRadius
        PUBLIC zgConfigPANID
        PUBLIC zgDefaultChannelList
        PUBLIC zgDefaultStartingScanDuration
        PUBLIC zgDeviceLogicalType
        PUBLIC zgExtendedPANID
        PUBLIC zgIndirectMsgTimeout
        PUBLIC zgInit
        FUNCTION zgInit,021203H
        ARGFRAME XSTACK, 0, STACK
        LOCFRAME XSTACK, 9, STACK
        PUBLIC zgInitItems
        FUNCTION zgInitItems,021203H
        ARGFRAME XSTACK, 9, STACK
        ARGFRAME IOVERLAY, 0, STATIC
        ARGFRAME DOVERLAY, 0, STATIC
        LOCFRAME XSTACK, 11, STACK
        FUNCTION zgItemInit,021203H
        ARGFRAME XSTACK, 11, STACK
        ARGFRAME IOVERLAY, 0, STATIC
        ARGFRAME DOVERLAY, 0, STATIC
        LOCFRAME XSTACK, 18, STACK
        PUBLIC zgMaxBcastRetires
        PUBLIC zgMaxDataRetries
        PUBLIC zgMaxPollFailureRetries
        PUBLIC zgNwkMgrMinTransmissions
        PUBLIC zgNwkMgrMode
        PUBLIC zgNwkMode
        PUBLIC zgNwkSrcRtgExpiryTime
        PUBLIC zgPassiveAckTimeout
        PUBLIC zgPollRate
        PUBLIC zgPreConfigKeys
        FUNCTION zgPreconfigKeyInit,021203H
        ARGFRAME XSTACK, 9, STACK
        ARGFRAME IOVERLAY, 0, STATIC
        ARGFRAME DOVERLAY, 0, STATIC
        LOCFRAME XSTACK, 31, STACK
        PUBLIC zgQueuedPollRate
        PUBLIC zgReadStartupOptions
        FUNCTION zgReadStartupOptions,021203H
        ARGFRAME XSTACK, 9, STACK
        ARGFRAME IOVERLAY, 0, STATIC
        ARGFRAME DOVERLAY, 0, STATIC
        LOCFRAME XSTACK, 15, STACK
        PUBLIC zgRejoinPollRate
        PUBLIC zgResponsePollRate
        PUBLIC zgRouteDiscoveryTime
        PUBLIC zgRouteExpiryTime
        PUBLIC zgRouterOffAssocCleanup
        PUBLIC zgSapiEndpoint
        PUBLIC zgSecurePermitJoin
        PUBLIC zgSecurityMode
        PUBLIC zgSetItem
        FUNCTION zgSetItem,021203H
        ARGFRAME XSTACK, 2, STACK
        LOCFRAME XSTACK, 19, STACK
        PUBLIC zgStackProfile
        PUBLIC zgStartDelay
        PUBLIC zgTrustCenterAddr
        PUBLIC zgUseDefaultTCLK
        PUBLIC zgWriteStartupOptions
        FUNCTION zgWriteStartupOptions,021203H
        ARGFRAME XSTACK, 9, STACK
        ARGFRAME IOVERLAY, 0, STATIC
        ARGFRAME DOVERLAY, 0, STATIC
        LOCFRAME XSTACK, 16, STACK
        
        CFI Names cfiNames0
        CFI StackFrame CFA_SP SP IDATA
        CFI StackFrame CFA_PSP16 PSP16 XDATA
        CFI StackFrame CFA_XSP16 XSP16 XDATA
        CFI StaticOverlayFrame CFA_IOVERLAY IOVERLAY
        CFI StaticOverlayFrame CFA_DOVERLAY DOVERLAY
        CFI Resource `PSW.CY`:1, `B.BR0`:1, `B.BR1`:1, `B.BR2`:1, `B.BR3`:1
        CFI Resource `B.BR4`:1, `B.BR5`:1, `B.BR6`:1, `B.BR7`:1, `VB.BR8`:1
        CFI Resource `VB.BR9`:1, `VB.BR10`:1, `VB.BR11`:1, `VB.BR12`:1
        CFI Resource `VB.BR13`:1, `VB.BR14`:1, `VB.BR15`:1, VB:8, B:8, A:8
        CFI Resource PSW:8, DPL0:8, DPH0:8, R0:8, R1:8, R2:8, R3:8, R4:8, R5:8
        CFI Resource R6:8, R7:8, V0:8, V1:8, V2:8, V3:8, V4:8, V5:8, V6:8, V7:8
        CFI Resource V8:8, V9:8, V10:8, V11:8, V12:8, V13:8, V14:8, V15:8, SP:8
        CFI Resource PSPH:8, PSPL:8, PSP16:16, XSPH:8, XSPL:8, XSP16:16
        CFI VirtualResource ?RET:24
        CFI Resource ?BRET_EXT:8
        CFI VirtualResource ?RET_HIGH:8, ?RET_LOW:8
        CFI ResourceParts PSP16 PSPH, PSPL
        CFI ResourceParts XSP16 XSPH, XSPL
        CFI ResourceParts ?RET ?BRET_EXT, ?RET_HIGH, ?RET_LOW
        CFI EndNames cfiNames0
        
        CFI Common cfiCommon0 Using cfiNames0
        CFI CodeAlign 1
        CFI DataAlign -1
        CFI ReturnAddress ?RET CODE
        CFI CFA_DOVERLAY Used
        CFI CFA_IOVERLAY Used
        CFI CFA_SP SP+-3
        CFI CFA_PSP16 PSP16+0
        CFI CFA_XSP16 XSP16+0
        CFI `PSW.CY` SameValue
        CFI `B.BR0` SameValue
        CFI `B.BR1` SameValue
        CFI `B.BR2` SameValue
        CFI `B.BR3` SameValue
        CFI `B.BR4` SameValue
        CFI `B.BR5` SameValue
        CFI `B.BR6` SameValue
        CFI `B.BR7` SameValue
        CFI `VB.BR8` SameValue
        CFI `VB.BR9` SameValue
        CFI `VB.BR10` SameValue
        CFI `VB.BR11` SameValue
        CFI `VB.BR12` SameValue
        CFI `VB.BR13` SameValue
        CFI `VB.BR14` SameValue
        CFI `VB.BR15` SameValue
        CFI VB SameValue
        CFI B Undefined
        CFI A Undefined
        CFI PSW SameValue
        CFI DPL0 SameValue
        CFI DPH0 SameValue
        CFI R0 Undefined
        CFI R1 Undefined
        CFI R2 Undefined
        CFI R3 Undefined
        CFI R4 Undefined
        CFI R5 Undefined
        CFI R6 SameValue
        CFI R7 SameValue
        CFI V0 SameValue
        CFI V1 SameValue
        CFI V2 SameValue
        CFI V3 SameValue
        CFI V4 SameValue
        CFI V5 SameValue
        CFI V6 SameValue
        CFI V7 SameValue
        CFI V8 SameValue
        CFI V9 SameValue
        CFI V10 SameValue
        CFI V11 SameValue
        CFI V12 SameValue
        CFI V13 SameValue
        CFI V14 SameValue
        CFI V15 SameValue
        CFI PSPH Undefined
        CFI PSPL Undefined
        CFI XSPH Undefined
        CFI XSPL Undefined
        CFI ?RET Concat
        CFI ?BRET_EXT Frame(CFA_SP, 3)
        CFI ?RET_HIGH Frame(CFA_SP, 2)
        CFI ?RET_LOW Frame(CFA_SP, 1)
        CFI EndCommon cfiCommon0
        
osal_nv_item_init   SYMBOL "osal_nv_item_init"
osal_nv_write       SYMBOL "osal_nv_write"
osal_nv_read        SYMBOL "osal_nv_read"
ZMacGetReq          SYMBOL "ZMacGetReq"
ZDSecMgrInitNVKeyTables SYMBOL "ZDSecMgrInitNVKeyTables"
osal_memcpy         SYMBOL "osal_memcpy"
osal_memset         SYMBOL "osal_memset"
??ZDSecMgrInitNVKeyTables?relay SYMBOL "?relay", ZDSecMgrInitNVKeyTables
??ZMacGetReq?relay  SYMBOL "?relay", ZMacGetReq
??osal_memcpy?relay SYMBOL "?relay", osal_memcpy
??osal_memset?relay SYMBOL "?relay", osal_memset
??osal_nv_item_init?relay SYMBOL "?relay", osal_nv_item_init
??osal_nv_read?relay SYMBOL "?relay", osal_nv_read
??osal_nv_write?relay SYMBOL "?relay", osal_nv_write
zgInit              SYMBOL "zgInit"
??zgInit?relay      SYMBOL "?relay", zgInit
zgInitItems         SYMBOL "zgInitItems"
??zgInitItems?relay SYMBOL "?relay", zgInitItems
zgReadStartupOptions SYMBOL "zgReadStartupOptions"
??zgReadStartupOptions?relay SYMBOL "?relay", zgReadStartupOptions
zgSetItem           SYMBOL "zgSetItem"
??zgSetItem?relay   SYMBOL "?relay", zgSetItem
zgWriteStartupOptions SYMBOL "zgWriteStartupOptions"
??zgWriteStartupOptions?relay SYMBOL "?relay", zgWriteStartupOptions

        EXTERN osal_nv_item_init
        FUNCTION osal_nv_item_init,0202H
        ARGFRAME ISTACK, 0, STACK
        ARGFRAME PSTACK, 0, STACK
        ARGFRAME XSTACK, 29, STACK
        ARGFRAME IOVERLAY, 0, STATIC
        ARGFRAME DOVERLAY, 0, STATIC
        EXTERN osal_nv_write
        FUNCTION osal_nv_write,0202H
        ARGFRAME ISTACK, 0, STACK
        ARGFRAME PSTACK, 0, STACK
        ARGFRAME XSTACK, 31, STACK
        ARGFRAME IOVERLAY, 0, STATIC
        ARGFRAME DOVERLAY, 0, STATIC
        EXTERN osal_nv_read
        FUNCTION osal_nv_read,0202H
        ARGFRAME ISTACK, 0, STACK
        ARGFRAME PSTACK, 0, STACK
        ARGFRAME XSTACK, 18, STACK
        ARGFRAME IOVERLAY, 0, STATIC
        ARGFRAME DOVERLAY, 0, STATIC
        EXTERN ZMacGetReq
        FUNCTION ZMacGetReq,0202H
        ARGFRAME ISTACK, 0, STACK
        ARGFRAME PSTACK, 0, STACK
        ARGFRAME XSTACK, 9, STACK
        ARGFRAME IOVERLAY, 0, STATIC
        ARGFRAME DOVERLAY, 0, STATIC
        EXTERN ZDSecMgrInitNVKeyTables
        FUNCTION ZDSecMgrInitNVKeyTables,0202H
        ARGFRAME ISTACK, 0, STACK
        ARGFRAME PSTACK, 0, STACK
        ARGFRAME XSTACK, 9, STACK
        ARGFRAME IOVERLAY, 0, STATIC
        ARGFRAME DOVERLAY, 0, STATIC
        EXTERN osal_memcpy
        FUNCTION osal_memcpy,0202H
        ARGFRAME ISTACK, 0, STACK
        ARGFRAME PSTACK, 0, STACK
        ARGFRAME XSTACK, 30, STACK
        ARGFRAME IOVERLAY, 0, STATIC
        ARGFRAME DOVERLAY, 0, STATIC
        EXTERN osal_memset
        FUNCTION osal_memset,0202H
        ARGFRAME ISTACK, 0, STACK
        ARGFRAME PSTACK, 0, STACK
        ARGFRAME XSTACK, 27, STACK
        ARGFRAME IOVERLAY, 0, STATIC
        ARGFRAME DOVERLAY, 0, STATIC
        EXTERN ??ZDSecMgrInitNVKeyTables?relay
        FUNCTION ??ZDSecMgrInitNVKeyTables?relay,00H
        EXTERN ??ZMacGetReq?relay
        FUNCTION ??ZMacGetReq?relay,00H
        EXTERN ??osal_memcpy?relay
        FUNCTION ??osal_memcpy?relay,00H
        EXTERN ??osal_memset?relay
        FUNCTION ??osal_memset?relay,00H
        EXTERN ??osal_nv_item_init?relay
        FUNCTION ??osal_nv_item_init?relay,00H
        EXTERN ??osal_nv_read?relay
        FUNCTION ??osal_nv_read?relay,00H
        EXTERN ??osal_nv_write?relay
        FUNCTION ??osal_nv_write?relay,00H
        EXTERN defaultKey

// D:\RE_1_2_0_FORMAL_APP(251)-14-12-8\Components\stack\sys\ZGlobals.c
//    1 /**************************************************************************************************
//    2   Filename:       ZGlobals.c
//    3   Revised:        $Date: 2012-04-02 17:02:19 -0700 (Mon, 02 Apr 2012) $
//    4   Revision:       $Revision: 29996 $
//    5 
//    6   Description:    User definable Z-Stack parameters.
//    7 
//    8 
//    9   Copyright 2007-2011 Texas Instruments Incorporated. All rights reserved.
//   10 
//   11   IMPORTANT: Your use of this Software is limited to those specific rights
//   12   granted under the terms of a software license agreement between the user
//   13   who downloaded the software, his/her employer (which must be your employer)
//   14   and Texas Instruments Incorporated (the "License").  You may not use this
//   15   Software unless you agree to abide by the terms of the License. The License
//   16   limits your use, and you acknowledge, that the Software may not be modified,
//   17   copied or distributed unless embedded on a Texas Instruments microcontroller
//   18   or used solely and exclusively in conjunction with a Texas Instruments radio
//   19   frequency transceiver, which is integrated into your product. Other than for
//   20   the foregoing purpose, you may not use, reproduce, copy, prepare derivative
//   21   works of, modify, distribute, perform, display or sell this Software and/or
//   22   its documentation for any purpose.
//   23 
//   24   YOU FURTHER ACKNOWLEDGE AND AGREE THAT THE SOFTWARE AND DOCUMENTATION ARE
//   25   PROVIDED “AS IS?WITHOUT WARRANTY OF ANY KIND, EITHER EXPRESS OR IMPLIED,
//   26   INCLUDING WITHOUT LIMITATION, ANY WARRANTY OF MERCHANTABILITY, TITLE,
//   27   NON-INFRINGEMENT AND FITNESS FOR A PARTICULAR PURPOSE. IN NO EVENT SHALL
//   28   TEXAS INSTRUMENTS OR ITS LICENSORS BE LIABLE OR OBLIGATED UNDER CONTRACT,
//   29   NEGLIGENCE, STRICT LIABILITY, CONTRIBUTION, BREACH OF WARRANTY, OR OTHER
//   30   LEGAL EQUITABLE THEORY ANY DIRECT OR INDIRECT DAMAGES OR EXPENSES
//   31   INCLUDING BUT NOT LIMITED TO ANY INCIDENTAL, SPECIAL, INDIRECT, PUNITIVE
//   32   OR CONSEQUENTIAL DAMAGES, LOST PROFITS OR LOST DATA, COST OF PROCUREMENT
//   33   OF SUBSTITUTE GOODS, TECHNOLOGY, SERVICES, OR ANY CLAIMS BY THIRD PARTIES
//   34   (INCLUDING BUT NOT LIMITED TO ANY DEFENSE THEREOF), OR OTHER SIMILAR COSTS.
//   35 
//   36   Should you have any questions regarding your right to use this Software,
//   37   contact Texas Instruments Incorporated at www.TI.com.
//   38 **************************************************************************************************/
//   39 
//   40 /*********************************************************************
//   41  * INCLUDES
//   42  */
//   43 
//   44 #include "ZComDef.h"
//   45 #include "OSAL_Nv.h"
//   46 #include "ZDObject.h"
//   47 #include "ZGlobals.h"
//   48 #include "ZDNwkMgr.h"
//   49 #include "OnBoard.h"
//   50 #include "ZDSecMgr.h"
//   51 #include "nwk_globals.h"
//   52 /*********************************************************************
//   53  * MACROS
//   54  */
//   55 
//   56 /*********************************************************************
//   57  * CONSTANTS
//   58  */
//   59 
//   60 /*********************************************************************
//   61  * TYPEDEFS
//   62  */
//   63 
//   64 typedef struct zgItem
//   65 {
//   66   uint16 id;
//   67   uint16 len;
//   68   void *buf;
//   69 } zgItem_t;
//   70 
//   71 
//   72 
//   73 /*********************************************************************
//   74  * NWK GLOBAL VARIABLES
//   75  */
//   76 
//   77 // Polling values

        RSEG XDATA_I:XDATA:NOROOT(0)
//   78 uint16 zgPollRate = POLL_RATE;
zgPollRate:
        DATA16
        DS 2
        REQUIRE `?<Initializer for zgPollRate>`
        REQUIRE __INIT_XDATA_I

        RSEG XDATA_I:XDATA:NOROOT(0)
//   79 uint16 zgQueuedPollRate = QUEUED_POLL_RATE;
zgQueuedPollRate:
        DATA16
        DS 2
        REQUIRE `?<Initializer for zgQueuedPollRate>`
        REQUIRE __INIT_XDATA_I

        RSEG XDATA_I:XDATA:NOROOT(0)
//   80 uint16 zgResponsePollRate = RESPONSE_POLL_RATE;
zgResponsePollRate:
        DATA16
        DS 2
        REQUIRE `?<Initializer for zgResponsePollRate>`
        REQUIRE __INIT_XDATA_I

        RSEG XDATA_I:XDATA:NOROOT(0)
//   81 uint16 zgRejoinPollRate = REJOIN_POLL_RATE;
zgRejoinPollRate:
        DATA16
        DS 2
        REQUIRE `?<Initializer for zgRejoinPollRate>`
        REQUIRE __INIT_XDATA_I
//   82 
//   83 // Transmission retries numbers

        RSEG XDATA_I:XDATA:NOROOT(0)
//   84 uint8 zgMaxDataRetries = NWK_MAX_DATA_RETRIES;
zgMaxDataRetries:
        DATA8
        DS 1
        REQUIRE `?<Initializer for zgMaxDataRetries>`
        REQUIRE __INIT_XDATA_I
//   85 
//   86 #if defined(LONG_POLL_TIMES)
//   87 uint8 zgMaxPollFailureRetries = 10;
//   88 #else

        RSEG XDATA_I:XDATA:NOROOT(0)
//   89 uint8 zgMaxPollFailureRetries = MAX_POLL_FAILURE_RETRIES;
zgMaxPollFailureRetries:
        DATA8
        DS 1
        REQUIRE `?<Initializer for zgMaxPollFailureRetries>`
        REQUIRE __INIT_XDATA_I
//   90 #endif
//   91 // Default channel list

        RSEG XDATA_I:XDATA:NOROOT(0)
//   92 uint32 zgDefaultChannelList = 0x0318C800; //DEFAULT_CHANLIST;
zgDefaultChannelList:
        DATA32
        DS 4
        REQUIRE `?<Initializer for zgDefaultChannelList>`
        REQUIRE __INIT_XDATA_I
//   93 
//   94 // Default starting scan duration

        RSEG XDATA_I:XDATA:NOROOT(0)
//   95 uint8 zgDefaultStartingScanDuration = STARTING_SCAN_DURATION;
zgDefaultStartingScanDuration:
        DATA8
        DS 1
        REQUIRE `?<Initializer for zgDefaultStartingScanDuratio`
        REQUIRE __INIT_XDATA_I
//   96 
//   97 // Stack profile Id

        RSEG XDATA_I:XDATA:NOROOT(0)
//   98 uint8 zgStackProfile = STACK_PROFILE_ID;
zgStackProfile:
        DATA8
        DS 1
        REQUIRE `?<Initializer for zgStackProfile>`
        REQUIRE __INIT_XDATA_I
//   99 
//  100 // Default indirect message holding timeout

        RSEG XDATA_I:XDATA:NOROOT(0)
//  101 uint8 zgIndirectMsgTimeout = NWK_INDIRECT_MSG_TIMEOUT;
zgIndirectMsgTimeout:
        DATA8
        DS 1
        REQUIRE `?<Initializer for zgIndirectMsgTimeout>`
        REQUIRE __INIT_XDATA_I
//  102 
//  103 // Security mode

        RSEG XDATA_I:XDATA:NOROOT(0)
//  104 uint8 zgSecurityMode = ZG_SECURITY_MODE;
zgSecurityMode:
        DATA8
        DS 1
        REQUIRE `?<Initializer for zgSecurityMode>`
        REQUIRE __INIT_XDATA_I
//  105 
//  106 // Secure permit join

        RSEG XDATA_I:XDATA:NOROOT(0)
//  107 uint8 zgSecurePermitJoin = true;
zgSecurePermitJoin:
        DATA8
        DS 1
        REQUIRE `?<Initializer for zgSecurePermitJoin>`
        REQUIRE __INIT_XDATA_I
//  108 
//  109 // Trust center address

        RSEG XDATA_Z:XDATA:NOROOT(0)
        DATA16
//  110 uint16 zgTrustCenterAddr = ZG_TRUSTCENTER_ADDR;
zgTrustCenterAddr:
        DS 2
        REQUIRE __INIT_XDATA_Z
//  111 
//  112 // Route Discovery Time - amount of time that a route request lasts

        RSEG XDATA_I:XDATA:NOROOT(0)
//  113 uint8 zgRouteDiscoveryTime = ROUTE_DISCOVERY_TIME;
zgRouteDiscoveryTime:
        DATA8
        DS 1
        REQUIRE `?<Initializer for zgRouteDiscoveryTime>`
        REQUIRE __INIT_XDATA_I
//  114 
//  115 // Route expiry

        RSEG XDATA_I:XDATA:NOROOT(0)
//  116 uint8 zgRouteExpiryTime = ROUTE_EXPIRY_TIME;
zgRouteExpiryTime:
        DATA8
        DS 1
        REQUIRE `?<Initializer for zgRouteExpiryTime>`
        REQUIRE __INIT_XDATA_I
//  117 
//  118 // Extended PAN Id

        RSEG XDATA_Z:XDATA:NOROOT(0)
        DATA8
//  119 uint8 zgExtendedPANID[Z_EXTADDR_LEN];
zgExtendedPANID:
        DS 8
        REQUIRE __INIT_XDATA_Z
//  120 
//  121 // Broadcast parameters

        RSEG XDATA_I:XDATA:NOROOT(0)
//  122 uint8 zgMaxBcastRetires   = MAX_BCAST_RETRIES;
zgMaxBcastRetires:
        DATA8
        DS 1
        REQUIRE `?<Initializer for zgMaxBcastRetires>`
        REQUIRE __INIT_XDATA_I

        RSEG XDATA_I:XDATA:NOROOT(0)
//  123 uint8 zgPassiveAckTimeout = PASSIVE_ACK_TIMEOUT;
zgPassiveAckTimeout:
        DATA8
        DS 1
        REQUIRE `?<Initializer for zgPassiveAckTimeout>`
        REQUIRE __INIT_XDATA_I

        RSEG XDATA_I:XDATA:NOROOT(0)
//  124 uint8 zgBcastDeliveryTime = BCAST_DELIVERY_TIME;
zgBcastDeliveryTime:
        DATA8
        DS 1
        REQUIRE `?<Initializer for zgBcastDeliveryTime>`
        REQUIRE __INIT_XDATA_I
//  125 
//  126 // Network mode

        RSEG XDATA_I:XDATA:NOROOT(0)
//  127 uint8 zgNwkMode = NWK_MODE;
zgNwkMode:
        DATA8
        DS 1
        REQUIRE `?<Initializer for zgNwkMode>`
        REQUIRE __INIT_XDATA_I
//  128 
//  129 // Many-to-one values

        RSEG XDATA_Z:XDATA:NOROOT(0)
        DATA8
//  130 uint8 zgConcentratorEnable = CONCENTRATOR_ENABLE;
zgConcentratorEnable:
        DS 1
        REQUIRE __INIT_XDATA_Z

        RSEG XDATA_Z:XDATA:NOROOT(0)
        DATA8
//  131 uint8 zgConcentratorDiscoveryTime = CONCENTRATOR_DISCOVERY_TIME;
zgConcentratorDiscoveryTime:
        DS 1
        REQUIRE __INIT_XDATA_Z

        RSEG XDATA_I:XDATA:NOROOT(0)
//  132 uint8 zgConcentratorRadius = CONCENTRATOR_RADIUS;
zgConcentratorRadius:
        DATA8
        DS 1
        REQUIRE `?<Initializer for zgConcentratorRadius>`
        REQUIRE __INIT_XDATA_I

        RSEG XDATA_Z:XDATA:NOROOT(0)
        DATA8
//  133 uint8 zgConcentratorRC = CONCENTRATOR_ROUTE_CACHE;   // concentrator with route cache (no memory constraints)
zgConcentratorRC:
        DS 1
        REQUIRE __INIT_XDATA_Z

        RSEG XDATA_I:XDATA:NOROOT(0)
//  134 uint8 zgNwkSrcRtgExpiryTime = SRC_RTG_EXPIRY_TIME;
zgNwkSrcRtgExpiryTime:
        DATA8
        DS 1
        REQUIRE `?<Initializer for zgNwkSrcRtgExpiryTime>`
        REQUIRE __INIT_XDATA_I
//  135 
//  136 // Cleanup Child Table according to routing traffic

        RSEG XDATA_Z:XDATA:NOROOT(0)
        DATA8
//  137 uint8 zgRouterOffAssocCleanup = FALSE;//FALSE;//; TRUE//2012 4 24
zgRouterOffAssocCleanup:
        DS 1
        REQUIRE __INIT_XDATA_Z
//  138 
//  139 /*********************************************************************
//  140  * APS GLOBAL VARIABLES
//  141  */
//  142 
//  143 // The maximum number of retries allowed after a transmission failure

        RSEG XDATA_I:XDATA:NOROOT(0)
//  144 uint8 zgApscMaxFrameRetries = APSC_MAX_FRAME_RETRIES;
zgApscMaxFrameRetries:
        DATA8
        DS 1
        REQUIRE `?<Initializer for zgApscMaxFrameRetries>`
        REQUIRE __INIT_XDATA_I
//  145 
//  146 // The maximum number of seconds (milliseconds) to wait for an
//  147 // acknowledgement to a transmitted frame.
//  148 
//  149 // This number is used by polled devices.

        RSEG XDATA_I:XDATA:NOROOT(0)
//  150 uint16 zgApscAckWaitDurationPolled = APSC_ACK_WAIT_DURATION_POLLED;
zgApscAckWaitDurationPolled:
        DATA16
        DS 2
        REQUIRE `?<Initializer for zgApscAckWaitDurationPolled>`
        REQUIRE __INIT_XDATA_I
//  151 
//  152 // This number is used by non-polled devices in the following formula:
//  153 //   (100 mSec) * (_NIB.MaxDepth * zgApsAckWaitMultiplier)

        RSEG XDATA_I:XDATA:NOROOT(0)
//  154 uint8 zgApsAckWaitMultiplier = 2;
zgApsAckWaitMultiplier:
        DATA8
        DS 1
        REQUIRE `?<Initializer for zgApsAckWaitMultiplier>`
        REQUIRE __INIT_XDATA_I
//  155 
//  156 // The maximum number of milliseconds for the end device binding

        RSEG XDATA_I:XDATA:NOROOT(0)
//  157 uint16 zgApsDefaultMaxBindingTime = APS_DEFAULT_MAXBINDING_TIME;
zgApsDefaultMaxBindingTime:
        DATA16
        DS 2
        REQUIRE `?<Initializer for zgApsDefaultMaxBindingTime>`
        REQUIRE __INIT_XDATA_I
//  158 
//  159 // The 64-big identifier of the network to join or form.
//  160 // Default set to all zeros

        RSEG XDATA_Z:XDATA:NOROOT(0)
        DATA8
//  161 uint8 zgApsUseExtendedPANID[Z_EXTADDR_LEN] = {00,00,00,00,00,00,00,00};
zgApsUseExtendedPANID:
        DS 8
        REQUIRE __INIT_XDATA_Z
//  162 
//  163 // A boolean flag that indicates whether it is OK to use insecure join
//  164 // on startup. Default set to true

        RSEG XDATA_I:XDATA:NOROOT(0)
//  165 uint8 zgApsUseInsecureJoin = TRUE;
zgApsUseInsecureJoin:
        DATA8
        DS 1
        REQUIRE `?<Initializer for zgApsUseInsecureJoin>`
        REQUIRE __INIT_XDATA_I
//  166 
//  167 // The radius of broadcast multicast transmissions

        RSEG XDATA_I:XDATA:NOROOT(0)
//  168 uint8 zgApsNonMemberRadius = APS_DEFAULT_NONMEMBER_RADIUS;
zgApsNonMemberRadius:
        DATA8
        DS 1
        REQUIRE `?<Initializer for zgApsNonMemberRadius>`
        REQUIRE __INIT_XDATA_I
//  169 
//  170 /*********************************************************************
//  171  * SECURITY GLOBAL VARIABLES
//  172  */
//  173 
//  174 // If true, preConfigKey should be configured on all devices on the network
//  175 // If false, it is configured only on the coordinator and sent to other
//  176 // devices upon joining.

        RSEG XDATA_I:XDATA:NOROOT(0)
//  177 uint8 zgPreConfigKeys = TRUE;// false;TRUE
zgPreConfigKeys:
        DATA8
        DS 1
        REQUIRE `?<Initializer for zgPreConfigKeys>`
        REQUIRE __INIT_XDATA_I
//  178 
//  179 // If true, defaultTCLinkKey should be configured on all devices on the
//  180 // network. If false, individual trust center link key between each device and
//  181 // the trust center should be manually configured via MT_WRITE_NV

        RSEG XDATA_I:XDATA:NOROOT(0)
//  182 uint8 zgUseDefaultTCLK = TRUE; // FALSE
zgUseDefaultTCLK:
        DATA8
        DS 1
        REQUIRE `?<Initializer for zgUseDefaultTCLK>`
        REQUIRE __INIT_XDATA_I
//  183 
//  184 /*********************************************************************
//  185  * ZDO GLOBAL VARIABLES
//  186  */
//  187 
//  188 // Configured PAN ID

        RSEG XDATA_I:XDATA:NOROOT(0)
//  189 uint16 zgConfigPANID = ZDAPP_CONFIG_PAN_ID;
zgConfigPANID:
        DATA16
        DS 2
        REQUIRE `?<Initializer for zgConfigPANID>`
        REQUIRE __INIT_XDATA_I
//  190 
//  191 // Device Logical Type

        RSEG XDATA_I:XDATA:NOROOT(0)
//  192 uint8 zgDeviceLogicalType = DEVICE_LOGICAL_TYPE;
zgDeviceLogicalType:
        DATA8
        DS 1
        REQUIRE `?<Initializer for zgDeviceLogicalType>`
        REQUIRE __INIT_XDATA_I
//  193 
//  194 // Startup Delay

        RSEG XDATA_I:XDATA:NOROOT(0)
//  195 uint8 zgStartDelay = START_DELAY;
zgStartDelay:
        DATA8
        DS 1
        REQUIRE `?<Initializer for zgStartDelay>`
        REQUIRE __INIT_XDATA_I
//  196 
//  197 #if !defined MT_TASK
//  198 // Flag to use verbose (i.e. "cc2480-style") direct MT callbacks in ZDProfile.c, ZDP_IncomingData().
//  199 uint8 zgZdoDirectCB = FALSE;
//  200 #endif
//  201 
//  202 // Min number of attempted transmissions for Channel Interference detection

        RSEG XDATA_I:XDATA:NOROOT(0)
//  203 uint8 zgNwkMgrMinTransmissions = ZDNWKMGR_MIN_TRANSMISSIONS;
zgNwkMgrMinTransmissions:
        DATA8
        DS 1
        REQUIRE `?<Initializer for zgNwkMgrMinTransmissions>`
        REQUIRE __INIT_XDATA_I
//  204 
//  205 /*********************************************************************
//  206  * APPLICATION GLOBAL VARIABLES
//  207  */
//  208 
//  209 // Network Manager Mode

        RSEG XDATA_I:XDATA:NOROOT(0)
//  210 uint8 zgNwkMgrMode = ZDNWKMGR_ENABLE;
zgNwkMgrMode:
        DATA8
        DS 1
        REQUIRE `?<Initializer for zgNwkMgrMode>`
        REQUIRE __INIT_XDATA_I
//  211 
//  212 /*********************************************************************
//  213  * NON-STANDARD GLOBAL VARIABLES
//  214  */
//  215 
//  216 // Simple API Endpoint

        RSEG XDATA_I:XDATA:NOROOT(0)
//  217 uint8 zgSapiEndpoint = SAPI_ENDPOINT;
zgSapiEndpoint:
        DATA8
        DS 1
        REQUIRE `?<Initializer for zgSapiEndpoint>`
        REQUIRE __INIT_XDATA_I
//  218 
//  219 /*********************************************************************
//  220  * LOCAL VARIABLES
//  221  */
//  222 
//  223 /*********************************************************************
//  224  * ZGlobal Item Table
//  225  */

        RSEG CODE_C:CODE:REORDER:NOROOT(0)
        DATA8
//  226 static CONST zgItem_t zgItemTable[] =
zgItemTable:
        DATA16
        DW 135
        DW 1
        DW zgDeviceLogicalType
        DW 36
        DW 2
        DW zgPollRate
        DW 37
        DW 2
        DW zgQueuedPollRate
        DW 38
        DW 2
        DW zgResponsePollRate
        DW 39
        DW 2
        DW zgRejoinPollRate
        DW 40
        DW 1
        DW zgMaxDataRetries
        DW 41
        DW 1
        DW zgMaxPollFailureRetries
        DW 132
        DW 4
        DW zgDefaultChannelList
        DW 134
        DW 1
        DW zgDefaultStartingScanDuration
        DW 42
        DW 1
        DW zgStackProfile
        DW 43
        DW 1
        DW zgIndirectMsgTimeout
        DW 44
        DW 1
        DW zgRouteExpiryTime
        DW 45
        DW 8
        DW zgExtendedPANID
        DW 46
        DW 1
        DW zgMaxBcastRetires
        DW 47
        DW 1
        DW zgPassiveAckTimeout
        DW 48
        DW 1
        DW zgBcastDeliveryTime
        DW 49
        DW 1
        DW zgNwkMode
        DW 50
        DW 1
        DW zgConcentratorEnable
        DW 51
        DW 1
        DW zgConcentratorDiscoveryTime
        DW 52
        DW 1
        DW zgConcentratorRadius
        DW 54
        DW 1
        DW zgConcentratorRC
        DW 56
        DW 1
        DW zgNwkSrcRtgExpiryTime
        DW 57
        DW 1
        DW zgRouteDiscoveryTime
        DW 131
        DW 2
        DW zgConfigPANID
        DW 99
        DW 1
        DW zgPreConfigKeys
        DW 100
        DW 1
        DW zgSecurityMode
        DW 101
        DW 1
        DW zgSecurePermitJoin
        DW 109
        DW 1
        DW zgUseDefaultTCLK
        DW 110
        DW 2
        DW zgTrustCenterAddr
        DW 67
        DW 1
        DW zgApscMaxFrameRetries
        DW 68
        DW 2
        DW zgApscAckWaitDurationPolled
        DW 69
        DW 1
        DW zgApsAckWaitMultiplier
        DW 70
        DW 2
        DW zgApsDefaultMaxBindingTime
        DW 71
        DW 8
        DW zgApsUseExtendedPANID
        DW 72
        DW 1
        DW zgApsUseInsecureJoin
        DW 75
        DW 1
        DW zgApsNonMemberRadius
        DW 4
        DW 1
        DW zgStartDelay
        DW 161
        DW 1
        DW zgSapiEndpoint
        DW 55
        DW 1
        DW zgNwkMgrMode
        DW 136
        DW 1
        DW zgNwkMgrMinTransmissions
        DW 60
        DW 1
        DW zgRouterOffAssocCleanup
        DW 0
        DW 0
        DW 0H
//  227 {
//  228 #if defined ( NV_INIT )
//  229 #if !defined MT_TASK
//  230   {
//  231     ZCD_NV_ZDO_DIRECT_CB, sizeof(zgZdoDirectCB), &zgZdoDirectCB
//  232   },
//  233 #endif
//  234   {
//  235     ZCD_NV_LOGICAL_TYPE, sizeof(zgDeviceLogicalType), &zgDeviceLogicalType
//  236   },
//  237   {
//  238     ZCD_NV_POLL_RATE, sizeof(zgPollRate), &zgPollRate
//  239   },
//  240   {
//  241     ZCD_NV_QUEUED_POLL_RATE, sizeof(zgQueuedPollRate), &zgQueuedPollRate
//  242   },
//  243   {
//  244     ZCD_NV_RESPONSE_POLL_RATE, sizeof(zgResponsePollRate), &zgResponsePollRate
//  245   },
//  246   {
//  247     ZCD_NV_REJOIN_POLL_RATE, sizeof(zgRejoinPollRate), &zgRejoinPollRate
//  248   },
//  249   {
//  250     ZCD_NV_DATA_RETRIES, sizeof(zgMaxDataRetries), &zgMaxDataRetries
//  251   },
//  252   {
//  253     ZCD_NV_POLL_FAILURE_RETRIES, sizeof(zgMaxPollFailureRetries), &zgMaxPollFailureRetries
//  254   },
//  255   {
//  256     ZCD_NV_CHANLIST, sizeof(zgDefaultChannelList), &zgDefaultChannelList
//  257   },
//  258   {
//  259     ZCD_NV_SCAN_DURATION, sizeof(zgDefaultStartingScanDuration), &zgDefaultStartingScanDuration
//  260   },
//  261   {
//  262     ZCD_NV_STACK_PROFILE, sizeof(zgStackProfile), &zgStackProfile
//  263   },
//  264   {
//  265     ZCD_NV_INDIRECT_MSG_TIMEOUT, sizeof(zgIndirectMsgTimeout), &zgIndirectMsgTimeout
//  266   },
//  267   {
//  268     ZCD_NV_ROUTE_EXPIRY_TIME, sizeof(zgRouteExpiryTime), &zgRouteExpiryTime
//  269   },
//  270   {
//  271     ZCD_NV_EXTENDED_PAN_ID, Z_EXTADDR_LEN, zgExtendedPANID
//  272   },
//  273   {
//  274     ZCD_NV_BCAST_RETRIES, sizeof(zgMaxBcastRetires), &zgMaxBcastRetires
//  275   },
//  276   {
//  277     ZCD_NV_PASSIVE_ACK_TIMEOUT, sizeof(zgPassiveAckTimeout), &zgPassiveAckTimeout
//  278   },
//  279   {
//  280     ZCD_NV_BCAST_DELIVERY_TIME, sizeof(zgBcastDeliveryTime), &zgBcastDeliveryTime
//  281   },
//  282   {
//  283     ZCD_NV_NWK_MODE, sizeof(zgNwkMode), &zgNwkMode
//  284   },
//  285   {
//  286     ZCD_NV_CONCENTRATOR_ENABLE, sizeof(zgConcentratorEnable), &zgConcentratorEnable
//  287   },
//  288   {
//  289     ZCD_NV_CONCENTRATOR_DISCOVERY, sizeof(zgConcentratorDiscoveryTime), &zgConcentratorDiscoveryTime
//  290   },
//  291   {
//  292     ZCD_NV_CONCENTRATOR_RADIUS, sizeof(zgConcentratorRadius), &zgConcentratorRadius
//  293   },
//  294   {
//  295     ZCD_NV_CONCENTRATOR_RC, sizeof(zgConcentratorRC), &zgConcentratorRC
//  296   },
//  297   {
//  298     ZCD_NV_SRC_RTG_EXPIRY_TIME, sizeof(zgNwkSrcRtgExpiryTime), &zgNwkSrcRtgExpiryTime
//  299   },
//  300   {
//  301     ZCD_NV_ROUTE_DISCOVERY_TIME, sizeof(zgRouteDiscoveryTime), &zgRouteDiscoveryTime
//  302   },
//  303 #ifndef NONWK
//  304   {
//  305     ZCD_NV_PANID, sizeof(zgConfigPANID), &zgConfigPANID
//  306   },
//  307   {
//  308     ZCD_NV_PRECFGKEYS_ENABLE, sizeof(zgPreConfigKeys), &zgPreConfigKeys
//  309   },
//  310   {
//  311     ZCD_NV_SECURITY_MODE, sizeof(zgSecurityMode), &zgSecurityMode
//  312   },
//  313   {
//  314     ZCD_NV_SECURE_PERMIT_JOIN, sizeof(zgSecurePermitJoin), &zgSecurePermitJoin
//  315   },
//  316   {
//  317     ZCD_NV_USE_DEFAULT_TCLK, sizeof(zgUseDefaultTCLK), &zgUseDefaultTCLK
//  318   },
//  319   {
//  320     ZCD_NV_TRUSTCENTER_ADDR, sizeof(zgTrustCenterAddr), &zgTrustCenterAddr
//  321   },
//  322 #endif // NONWK
//  323   {
//  324     ZCD_NV_APS_FRAME_RETRIES, sizeof(zgApscMaxFrameRetries), &zgApscMaxFrameRetries
//  325   },
//  326   {
//  327     ZCD_NV_APS_ACK_WAIT_DURATION, sizeof(zgApscAckWaitDurationPolled), &zgApscAckWaitDurationPolled
//  328   },
//  329   {
//  330     ZCD_NV_APS_ACK_WAIT_MULTIPLIER, sizeof(zgApsAckWaitMultiplier), &zgApsAckWaitMultiplier
//  331   },
//  332   {
//  333     ZCD_NV_BINDING_TIME, sizeof(zgApsDefaultMaxBindingTime), &zgApsDefaultMaxBindingTime
//  334   },
//  335   {
//  336     ZCD_NV_APS_USE_EXT_PANID, Z_EXTADDR_LEN, zgApsUseExtendedPANID
//  337   },
//  338   {
//  339     ZCD_NV_APS_USE_INSECURE_JOIN, sizeof(zgApsUseInsecureJoin), &zgApsUseInsecureJoin
//  340   },
//  341   {
//  342     ZCD_NV_APS_NONMEMBER_RADIUS, sizeof(zgApsNonMemberRadius), &zgApsNonMemberRadius
//  343   },
//  344   {
//  345     ZCD_NV_START_DELAY, sizeof(zgStartDelay), &zgStartDelay
//  346   },
//  347   {
//  348     ZCD_NV_SAPI_ENDPOINT, sizeof(zgSapiEndpoint), &zgSapiEndpoint
//  349   },
//  350   {
//  351     ZCD_NV_NWK_MGR_MODE, sizeof(zgNwkMgrMode), &zgNwkMgrMode
//  352   },
//  353   {
//  354     ZCD_NV_NWKMGR_MIN_TX, sizeof(zgNwkMgrMinTransmissions), &zgNwkMgrMinTransmissions
//  355   },
//  356   {
//  357     ZCD_NV_ROUTER_OFF_ASSOC_CLEANUP, sizeof(zgRouterOffAssocCleanup), &zgRouterOffAssocCleanup
//  358   },
//  359 #endif // NV_INIT
//  360   // Last item -- DO NOT MOVE IT!
//  361   {
//  362     0x00, 0, NULL
//  363   }
//  364 };
//  365 
//  366 /*********************************************************************
//  367  * LOCAL FUNCTIONS
//  368  */
//  369 
//  370 static uint8 zgItemInit( uint16 id, uint16 len, void *buf, uint8 setDefault );
//  371 
//  372 #ifndef NONWK
//  373 static uint8 zgPreconfigKeyInit( uint8 setDefault );
//  374 #endif
//  375 
//  376 /*********************************************************************
//  377  * @fn       zgItemInit()
//  378  *
//  379  * @brief
//  380  *
//  381  *   Initialize a global item. If the item doesn't exist in NV memory,
//  382  *   write the system default (value passed in) into NV memory. But if
//  383  *   it exists, set the item to the value stored in NV memory.
//  384  *
//  385  *   Also, if setDefault is TRUE and the item exists, we will write
//  386  *   the default value to NV space.
//  387  *
//  388  * @param   id - item id
//  389  * @param   len - item len
//  390  * @param   buf - pointer to the item
//  391  * @param   setDefault - TRUE to set default, not read
//  392  *
//  393  * @return  ZSUCCESS if successful, NV_ITEM_UNINIT if item did not
//  394  *          exist in NV, NV_OPER_FAILED if failure.
//  395  */

        RSEG BANKED_CODE:CODE:NOROOT(0)
//  396 static uint8 zgItemInit( uint16 id, uint16 len, void *buf, uint8 setDefault )
zgItemInit:
        CFI Block cfiBlock0 Using cfiCommon0
        CFI Function zgItemInit
        CODE
//  397 {
        FUNCALL zgItemInit, osal_nv_item_init
        LOCFRAME ISTACK, 0, STACK
        LOCFRAME PSTACK, 0, STACK
        LOCFRAME XSTACK, 16, STACK
        LOCFRAME IOVERLAY, 0, STATIC
        LOCFRAME DOVERLAY, 0, STATIC
        ARGFRAME ISTACK, 0, STACK
        ARGFRAME PSTACK, 0, STACK
        ARGFRAME XSTACK, 16, STACK
        ARGFRAME IOVERLAY, 0, STATIC
        ARGFRAME DOVERLAY, 0, STATIC
        FUNCALL zgItemInit, osal_nv_write
        LOCFRAME ISTACK, 0, STACK
        LOCFRAME PSTACK, 0, STACK
        LOCFRAME XSTACK, 18, STACK
        LOCFRAME IOVERLAY, 0, STATIC
        LOCFRAME DOVERLAY, 0, STATIC
        ARGFRAME ISTACK, 0, STACK
        ARGFRAME PSTACK, 0, STACK
        ARGFRAME XSTACK, 18, STACK
        ARGFRAME IOVERLAY, 0, STATIC
        ARGFRAME DOVERLAY, 0, STATIC
        FUNCALL zgItemInit, osal_nv_read
        LOCFRAME ISTACK, 0, STACK
        LOCFRAME PSTACK, 0, STACK
        LOCFRAME XSTACK, 18, STACK
        LOCFRAME IOVERLAY, 0, STATIC
        LOCFRAME DOVERLAY, 0, STATIC
        ARGFRAME ISTACK, 0, STACK
        ARGFRAME PSTACK, 0, STACK
        ARGFRAME XSTACK, 18, STACK
        ARGFRAME IOVERLAY, 0, STATIC
        ARGFRAME DOVERLAY, 0, STATIC
        MOV     A,#-0xe
        LCALL   ?BANKED_ENTER_XDATA
        CFI DPH0 load(1, XDATA, add(CFA_XSP16, literal(-1)))
        CFI DPL0 load(1, XDATA, add(CFA_XSP16, literal(-2)))
        CFI ?BRET_EXT load(1, XDATA, add(CFA_XSP16, literal(-3)))
        CFI ?RET_HIGH load(1, XDATA, add(CFA_XSP16, literal(-4)))
        CFI ?RET_LOW load(1, XDATA, add(CFA_XSP16, literal(-5)))
        CFI R7 load(1, XDATA, add(CFA_XSP16, literal(-6)))
        CFI V5 load(1, XDATA, add(CFA_XSP16, literal(-7)))
        CFI V4 load(1, XDATA, add(CFA_XSP16, literal(-8)))
        CFI V3 load(1, XDATA, add(CFA_XSP16, literal(-9)))
        CFI V2 load(1, XDATA, add(CFA_XSP16, literal(-10)))
        CFI V1 load(1, XDATA, add(CFA_XSP16, literal(-11)))
        CFI V0 load(1, XDATA, add(CFA_XSP16, literal(-12)))
        CFI VB load(1, XDATA, add(CFA_XSP16, literal(-13)))
        CFI R6 load(1, XDATA, add(CFA_XSP16, literal(-14)))
        CFI CFA_SP SP+0
        CFI CFA_XSP16 add(XSP16, 14)
        ; Saved register size: 14
        ; Auto size: 0
        MOV     A,R2
        MOV     R6,A
        MOV     A,R3
        MOV     R7,A
        MOV     ?V0 + 2,R4
        MOV     ?V0 + 3,R5
        MOV     ?V0 + 5,R1
        MOV     A,#0xe
        LCALL   ?XSTACK_DISP0_8
        MOVX    A,@DPTR
        MOV     ?V0 + 0,A
        INC     DPTR
        MOVX    A,@DPTR
        MOV     ?V0 + 1,A
//  398   uint8 status;
//  399 
//  400   // If the item doesn't exist in NV memory, create and initialize
//  401   // it with the value passed in.
//  402   status = osal_nv_item_init( id, len, buf );
        ; Setup parameters for call to function osal_nv_item_init
        MOV     R0,#?V0 + 0
        LCALL   ?PUSH_XSTACK_I_TWO
        CFI CFA_XSP16 add(XSP16, 16)
        MOV     R4,?V0 + 2
        MOV     R5,?V0 + 3
        MOV     A,R6
        MOV     R2,A
        MOV     A,R7
        MOV     R3,A
        LCALL   ??osal_nv_item_init?relay
        MOV     A,#0x2
        LCALL   ?DEALLOC_XSTACK8
        CFI CFA_XSP16 add(XSP16, 14)
        MOV     A,R1
        MOV     ?V0 + 4,A
//  403   if ( status == ZSUCCESS )
        MOV     A,?V0 + 4
        JNZ     ??zgItemInit_0
//  404   {
//  405     if ( setDefault )
        MOV     A,?V0 + 5
        JZ      ??zgItemInit_1
//  406     {
//  407       // Write the default value back to NV
//  408       status = osal_nv_write( id, 0, len, buf );
        ; Setup parameters for call to function osal_nv_write
        MOV     R0,#?V0 + 0
        LCALL   ?PUSH_XSTACK_I_TWO
        CFI CFA_XSP16 add(XSP16, 16)
        MOV     R0,#?V0 + 2
        LCALL   ?PUSH_XSTACK_I_TWO
        CFI CFA_XSP16 add(XSP16, 18)
        MOV     R4,#0x0
        MOV     R5,#0x0
        MOV     A,R6
        MOV     R2,A
        MOV     A,R7
        MOV     R3,A
        LCALL   ??osal_nv_write?relay
        MOV     A,#0x4
        LCALL   ?DEALLOC_XSTACK8
        CFI CFA_XSP16 add(XSP16, 14)
        MOV     A,R1
        MOV     ?V0 + 4,A
        SJMP    ??zgItemInit_0
//  409     }
//  410     else
//  411     {
//  412       // The item exists in NV memory, read it from NV memory
//  413       status = osal_nv_read( id, 0, len, buf );
??zgItemInit_1:
        ; Setup parameters for call to function osal_nv_read
        MOV     R0,#?V0 + 0
        LCALL   ?PUSH_XSTACK_I_TWO
        CFI CFA_XSP16 add(XSP16, 16)
        MOV     R0,#?V0 + 2
        LCALL   ?PUSH_XSTACK_I_TWO
        CFI CFA_XSP16 add(XSP16, 18)
        MOV     R4,#0x0
        MOV     R5,#0x0
        MOV     A,R6
        MOV     R2,A
        MOV     A,R7
        MOV     R3,A
        LCALL   ??osal_nv_read?relay
        MOV     A,#0x4
        LCALL   ?DEALLOC_XSTACK8
        CFI CFA_XSP16 add(XSP16, 14)
        MOV     A,R1
        MOV     ?V0 + 4,A
//  414     }
//  415   }
//  416 
//  417   return (status);
??zgItemInit_0:
        MOV     R1,?V0 + 4
        MOV     R7,#0x6
        LJMP    ?BANKED_LEAVE_XDATA
        CFI EndBlock cfiBlock0
//  418 }
//  419 
//  420 /*********************************************************************
//  421  * API FUNCTIONS
//  422  */
//  423 
//  424 /*********************************************************************
//  425  * @fn          zgInit
//  426  *
//  427  * @brief
//  428  *
//  429  *   Initialize the Z-Stack Globals. If an item doesn't exist in
//  430  *   NV memory, write the system default into NV memory. But if
//  431  *   it exists, set the item to the value stored in NV memory.
//  432  *
//  433  * NOTE: The Startup Options (ZCD_NV_STARTUP_OPTION) indicate
//  434  *       that the Config state items (zgItemTable) need to be
//  435  *       set to defaults (ZCD_STARTOPT_DEFAULT_CONFIG_STATE). The
//  436  *
//  437  * @param       none
//  438  *
//  439  * @return      ZSUCCESS if successful, NV_ITEM_UNINIT if item did not
//  440  *              exist in NV, NV_OPER_FAILED if failure.
//  441  */

        RSEG BANKED_CODE:CODE:NOROOT(0)
//  442 uint8 zgInit( void )
zgInit:
        CFI Block cfiBlock1 Using cfiCommon0
        CFI Function zgInit
        CODE
//  443 {
        FUNCALL zgInit, zgReadStartupOptions
        LOCFRAME ISTACK, 0, STACK
        LOCFRAME PSTACK, 0, STACK
        LOCFRAME XSTACK, 9, STACK
        LOCFRAME IOVERLAY, 0, STATIC
        LOCFRAME DOVERLAY, 0, STATIC
        ARGFRAME ISTACK, 0, STACK
        ARGFRAME PSTACK, 0, STACK
        ARGFRAME XSTACK, 9, STACK
        ARGFRAME IOVERLAY, 0, STATIC
        ARGFRAME DOVERLAY, 0, STATIC
        FUNCALL zgInit, ZMacGetReq
        LOCFRAME ISTACK, 0, STACK
        LOCFRAME PSTACK, 0, STACK
        LOCFRAME XSTACK, 9, STACK
        LOCFRAME IOVERLAY, 0, STATIC
        LOCFRAME DOVERLAY, 0, STATIC
        ARGFRAME ISTACK, 0, STACK
        ARGFRAME PSTACK, 0, STACK
        ARGFRAME XSTACK, 9, STACK
        ARGFRAME IOVERLAY, 0, STATIC
        ARGFRAME DOVERLAY, 0, STATIC
        FUNCALL zgInit, zgInitItems
        LOCFRAME ISTACK, 0, STACK
        LOCFRAME PSTACK, 0, STACK
        LOCFRAME XSTACK, 9, STACK
        LOCFRAME IOVERLAY, 0, STATIC
        LOCFRAME DOVERLAY, 0, STATIC
        ARGFRAME ISTACK, 0, STACK
        ARGFRAME PSTACK, 0, STACK
        ARGFRAME XSTACK, 9, STACK
        ARGFRAME IOVERLAY, 0, STATIC
        ARGFRAME DOVERLAY, 0, STATIC
        FUNCALL zgInit, zgPreconfigKeyInit
        LOCFRAME ISTACK, 0, STACK
        LOCFRAME PSTACK, 0, STACK
        LOCFRAME XSTACK, 9, STACK
        LOCFRAME IOVERLAY, 0, STATIC
        LOCFRAME DOVERLAY, 0, STATIC
        ARGFRAME ISTACK, 0, STACK
        ARGFRAME PSTACK, 0, STACK
        ARGFRAME XSTACK, 9, STACK
        ARGFRAME IOVERLAY, 0, STATIC
        ARGFRAME DOVERLAY, 0, STATIC
        FUNCALL zgInit, ZDSecMgrInitNVKeyTables
        LOCFRAME ISTACK, 0, STACK
        LOCFRAME PSTACK, 0, STACK
        LOCFRAME XSTACK, 9, STACK
        LOCFRAME IOVERLAY, 0, STATIC
        LOCFRAME DOVERLAY, 0, STATIC
        ARGFRAME ISTACK, 0, STACK
        ARGFRAME PSTACK, 0, STACK
        ARGFRAME XSTACK, 9, STACK
        ARGFRAME IOVERLAY, 0, STATIC
        ARGFRAME DOVERLAY, 0, STATIC
        FUNCALL zgInit, zgWriteStartupOptions
        LOCFRAME ISTACK, 0, STACK
        LOCFRAME PSTACK, 0, STACK
        LOCFRAME XSTACK, 9, STACK
        LOCFRAME IOVERLAY, 0, STATIC
        LOCFRAME DOVERLAY, 0, STATIC
        ARGFRAME ISTACK, 0, STACK
        ARGFRAME PSTACK, 0, STACK
        ARGFRAME XSTACK, 9, STACK
        ARGFRAME IOVERLAY, 0, STATIC
        ARGFRAME DOVERLAY, 0, STATIC
        MOV     A,#-0x9
        LCALL   ?BANKED_ENTER_XDATA
        CFI DPH0 load(1, XDATA, add(CFA_XSP16, literal(-1)))
        CFI DPL0 load(1, XDATA, add(CFA_XSP16, literal(-2)))
        CFI ?BRET_EXT load(1, XDATA, add(CFA_XSP16, literal(-3)))
        CFI ?RET_HIGH load(1, XDATA, add(CFA_XSP16, literal(-4)))
        CFI ?RET_LOW load(1, XDATA, add(CFA_XSP16, literal(-5)))
        CFI R7 load(1, XDATA, add(CFA_XSP16, literal(-6)))
        CFI V0 load(1, XDATA, add(CFA_XSP16, literal(-7)))
        CFI VB load(1, XDATA, add(CFA_XSP16, literal(-8)))
        CFI R6 load(1, XDATA, add(CFA_XSP16, literal(-9)))
        CFI CFA_SP SP+0
        CFI CFA_XSP16 add(XSP16, 9)
        ; Saved register size: 9
        ; Auto size: 0
//  444   uint8  setDefault = FALSE;
        MOV     R6,#0x0
//  445 
//  446   // Do we want to default the Config state values
//  447   if ( zgReadStartupOptions() & ZCD_STARTOPT_DEFAULT_CONFIG_STATE )
        ; Setup parameters for call to function zgReadStartupOptions
        LCALL   ??zgReadStartupOptions?relay
        MOV     A,R1
        MOV     R0,A
        MOV     C,0xE0 /* A   */.0
        JNC     ??zgInit_0
//  448   {
//  449     setDefault = TRUE;
        MOV     R6,#0x1
//  450   }
//  451 
//  452 #if 0
//  453   // Enable this section if you need to track the number of resets
//  454   // This section is normally disabled to minimize "wear" on NV memory
//  455   uint16 bootCnt = 0;
//  456 
//  457   // Update the Boot Counter
//  458   if ( osal_nv_item_init( ZCD_NV_BOOTCOUNTER, sizeof(bootCnt), &bootCnt ) == ZSUCCESS )
//  459   {
//  460     // Get the old value from NV memory
//  461     osal_nv_read( ZCD_NV_BOOTCOUNTER, 0, sizeof(bootCnt), &bootCnt );
//  462   }
//  463 
//  464   // Increment the Boot Counter and store it into NV memory
//  465   if ( setDefault )
//  466     bootCnt = 0;
//  467   else
//  468     bootCnt++;
//  469   osal_nv_write( ZCD_NV_BOOTCOUNTER, 0, sizeof(bootCnt), &bootCnt );
//  470 #endif
//  471 
//  472   // Initialize the Extended PAN ID as my own extended address
//  473   ZMacGetReq( ZMacExtAddr, zgExtendedPANID );
??zgInit_0:
        ; Setup parameters for call to function ZMacGetReq
        MOV     R2,#zgExtendedPANID & 0xff
        MOV     R3,#(zgExtendedPANID >> 8) & 0xff
        MOV     R1,#-0x1e
        LCALL   ??ZMacGetReq?relay
        MOV     A,R1
//  474 
//  475   // Initialize the items table
//  476   zgInitItems( setDefault );
        ; Setup parameters for call to function zgInitItems
        MOV     A,R6
        MOV     R1,A
        LCALL   ??zgInitItems?relay
//  477 
//  478 #ifndef NONWK
//  479   if ( ZG_SECURE_ENABLED )
//  480   {
//  481     // Initialize the Pre-Configured Key to the default key
//  482     zgPreconfigKeyInit( setDefault );
        ; Setup parameters for call to function zgPreconfigKeyInit
        MOV     A,R6
        MOV     R1,A
        LCALL   ??zgPreconfigKeyInit?relay
        MOV     A,R1
//  483 
//  484     // Initialize NV items for all Keys: NWK, APS, TCLK and Master
//  485     ZDSecMgrInitNVKeyTables( setDefault );
        ; Setup parameters for call to function ZDSecMgrInitNVKeyTables
        MOV     A,R6
        MOV     R1,A
        LCALL   ??ZDSecMgrInitNVKeyTables?relay
//  486   }
//  487 #endif // NONWK
//  488 
//  489   // Clear the Config State default
//  490   if ( setDefault )
        MOV     A,R6
        JZ      ??zgInit_1
//  491   {
//  492     zgWriteStartupOptions( ZG_STARTUP_CLEAR, ZCD_STARTOPT_DEFAULT_CONFIG_STATE );
        ; Setup parameters for call to function zgWriteStartupOptions
        MOV     R2,#0x1
        MOV     R1,#0x0
        LCALL   ??zgWriteStartupOptions?relay
        MOV     A,R1
//  493   }
//  494 
//  495   return ( ZSUCCESS );
??zgInit_1:
        MOV     R1,#0x0
        MOV     R7,#0x1
        LJMP    ?BANKED_LEAVE_XDATA
        CFI EndBlock cfiBlock1
//  496 }
//  497 
//  498 /*********************************************************************
//  499  * @fn          zgInitItems
//  500  *
//  501  * @brief       Initializes RAM variables from NV.  If NV items don't
//  502  *              exist, then the NV is initialize with what is in RAM
//  503  *              variables.
//  504  *
//  505  * @param       none
//  506  *
//  507  * @return      none
//  508  */

        RSEG BANKED_CODE:CODE:NOROOT(0)
//  509 void zgInitItems( uint8 setDefault )
zgInitItems:
        CFI Block cfiBlock2 Using cfiCommon0
        CFI Function zgInitItems
        CODE
//  510 {
        FUNCALL zgInitItems, zgItemInit
        LOCFRAME ISTACK, 0, STACK
        LOCFRAME PSTACK, 0, STACK
        LOCFRAME XSTACK, 11, STACK
        LOCFRAME IOVERLAY, 0, STATIC
        LOCFRAME DOVERLAY, 0, STATIC
        ARGFRAME ISTACK, 0, STACK
        ARGFRAME PSTACK, 0, STACK
        ARGFRAME XSTACK, 11, STACK
        ARGFRAME IOVERLAY, 0, STATIC
        ARGFRAME DOVERLAY, 0, STATIC
        MOV     A,#-0x9
        LCALL   ?BANKED_ENTER_XDATA
        CFI DPH0 load(1, XDATA, add(CFA_XSP16, literal(-1)))
        CFI DPL0 load(1, XDATA, add(CFA_XSP16, literal(-2)))
        CFI ?BRET_EXT load(1, XDATA, add(CFA_XSP16, literal(-3)))
        CFI ?RET_HIGH load(1, XDATA, add(CFA_XSP16, literal(-4)))
        CFI ?RET_LOW load(1, XDATA, add(CFA_XSP16, literal(-5)))
        CFI R7 load(1, XDATA, add(CFA_XSP16, literal(-6)))
        CFI V0 load(1, XDATA, add(CFA_XSP16, literal(-7)))
        CFI VB load(1, XDATA, add(CFA_XSP16, literal(-8)))
        CFI R6 load(1, XDATA, add(CFA_XSP16, literal(-9)))
        CFI CFA_SP SP+0
        CFI CFA_XSP16 add(XSP16, 9)
        ; Saved register size: 9
        ; Auto size: 0
        MOV     A,R1
        MOV     R7,A
//  511   uint8  i = 0;
        MOV     R6,#0x0
//  512 
//  513   while ( zgItemTable[i].id != 0x00 )
??zgInitItems_0:
        MOV     A,R6
        MOV     R0,A
        MOV     R1,#0x0
        MOV     A,R0
        MOV     B,#0x6
        MUL     AB
        XCH     A,R0
        MOV     R2,B
        MOV     B,#0x0
        MUL     AB
        ADD     A,R2
        MOV     R2,A
        MOV     B,#0x6
        MOV     A,R1
        MUL     AB
        ADD     A,R2
        MOV     R1,A
        MOV     A,#zgItemTable & 0xff
        ADD     A,R0
        MOV     DPL,A
        MOV     A,#(zgItemTable >> 8) & 0xff
        ADDC    A,R1
        MOV     DPH,A
        CLR     A
        MOVC    A,@A+DPTR
        MOV     R0,A
        MOV     A,#0x1
        MOVC    A,@A+DPTR
        MOV     R1,A
        MOV     A,R0
        ORL     A,R1
        JNZ     $+5
        LJMP    ??zgInitItems_1 & 0xFFFF
//  514   {
//  515     // Initialize the item
//  516     zgItemInit( zgItemTable[i].id, zgItemTable[i].len, zgItemTable[i].buf, setDefault  );
        ; Setup parameters for call to function zgItemInit
        MOV     A,R6
        MOV     R0,A
        MOV     R1,#0x0
        MOV     A,R0
        MOV     B,#0x6
        MUL     AB
        XCH     A,R0
        MOV     R2,B
        MOV     B,#0x0
        MUL     AB
        ADD     A,R2
        MOV     R2,A
        MOV     B,#0x6
        MOV     A,R1
        MUL     AB
        ADD     A,R2
        MOV     R1,A
        MOV     A,#(zgItemTable + 4) & 0xff
        ADD     A,R0
        MOV     DPL,A
        MOV     A,#((zgItemTable + 4) >> 8) & 0xff
        ADDC    A,R1
        MOV     DPH,A
        LCALL   ?PUSH_XSTACK8_C_TWO
        CFI CFA_XSP16 add(XSP16, 11)
        MOV     A,R7
        MOV     R1,A
        MOV     A,R6
        MOV     R2,A
        MOV     R3,#0x0
        MOV     A,R2
        MOV     B,#0x6
        MUL     AB
        XCH     A,R2
        MOV     R0,B
        MOV     B,#0x0
        MUL     AB
        ADD     A,R0
        MOV     R0,A
        MOV     B,#0x6
        MOV     A,R3
        MUL     AB
        ADD     A,R0
        MOV     R3,A
        MOV     A,#(zgItemTable + 2) & 0xff
        ADD     A,R2
        MOV     DPL,A
        MOV     A,#((zgItemTable + 2) >> 8) & 0xff
        ADDC    A,R3
        MOV     DPH,A
        CLR     A
        MOVC    A,@A+DPTR
        MOV     R4,A
        MOV     A,#0x1
        MOVC    A,@A+DPTR
        MOV     R5,A
        MOV     A,R6
        MOV     R2,A
        MOV     R3,#0x0
        MOV     A,R2
        MOV     B,#0x6
        MUL     AB
        XCH     A,R2
        MOV     R0,B
        MOV     B,#0x0
        MUL     AB
        ADD     A,R0
        MOV     R0,A
        MOV     B,#0x6
        MOV     A,R3
        MUL     AB
        ADD     A,R0
        MOV     R3,A
        MOV     A,#zgItemTable & 0xff
        ADD     A,R2
        MOV     DPL,A
        MOV     A,#(zgItemTable >> 8) & 0xff
        ADDC    A,R3
        MOV     DPH,A
        CLR     A
        MOVC    A,@A+DPTR
        MOV     R2,A
        MOV     A,#0x1
        MOVC    A,@A+DPTR
        MOV     R3,A
        LCALL   ??zgItemInit?relay
        MOV     A,#0x2
        LCALL   ?DEALLOC_XSTACK8
        CFI CFA_XSP16 add(XSP16, 9)
        MOV     A,R1
//  517 
//  518     // Move on to the next item
//  519     i++;
        INC     R6
        LJMP    ??zgInitItems_0 & 0xFFFF
//  520   }
//  521 }
??zgInitItems_1:
        MOV     R7,#0x1
        LJMP    ?BANKED_LEAVE_XDATA
        CFI EndBlock cfiBlock2
//  522 
//  523 /*********************************************************************
//  524  * @fn          zgReadStartupOptions
//  525  *
//  526  * @brief       Reads the ZCD_NV_STARTUP_OPTION NV Item.
//  527  *
//  528  * @param       none
//  529  *
//  530  * @return      the ZCD_NV_STARTUP_OPTION NV item
//  531  */

        RSEG BANKED_CODE:CODE:NOROOT(0)
//  532 uint8 zgReadStartupOptions( void )
zgReadStartupOptions:
        CFI Block cfiBlock3 Using cfiCommon0
        CFI Function zgReadStartupOptions
        CODE
//  533 {
        FUNCALL zgReadStartupOptions, osal_nv_item_init
        LOCFRAME ISTACK, 0, STACK
        LOCFRAME PSTACK, 0, STACK
        LOCFRAME XSTACK, 13, STACK
        LOCFRAME IOVERLAY, 0, STATIC
        LOCFRAME DOVERLAY, 0, STATIC
        ARGFRAME ISTACK, 0, STACK
        ARGFRAME PSTACK, 0, STACK
        ARGFRAME XSTACK, 13, STACK
        ARGFRAME IOVERLAY, 0, STATIC
        ARGFRAME DOVERLAY, 0, STATIC
        FUNCALL zgReadStartupOptions, osal_nv_read
        LOCFRAME ISTACK, 0, STACK
        LOCFRAME PSTACK, 0, STACK
        LOCFRAME XSTACK, 15, STACK
        LOCFRAME IOVERLAY, 0, STATIC
        LOCFRAME DOVERLAY, 0, STATIC
        ARGFRAME ISTACK, 0, STACK
        ARGFRAME PSTACK, 0, STACK
        ARGFRAME XSTACK, 15, STACK
        ARGFRAME IOVERLAY, 0, STATIC
        ARGFRAME DOVERLAY, 0, STATIC
        MOV     A,#-0xa
        LCALL   ?BANKED_ENTER_XDATA
        CFI DPH0 load(1, XDATA, add(CFA_XSP16, literal(-1)))
        CFI DPL0 load(1, XDATA, add(CFA_XSP16, literal(-2)))
        CFI ?BRET_EXT load(1, XDATA, add(CFA_XSP16, literal(-3)))
        CFI ?RET_HIGH load(1, XDATA, add(CFA_XSP16, literal(-4)))
        CFI ?RET_LOW load(1, XDATA, add(CFA_XSP16, literal(-5)))
        CFI R7 load(1, XDATA, add(CFA_XSP16, literal(-6)))
        CFI V1 load(1, XDATA, add(CFA_XSP16, literal(-7)))
        CFI V0 load(1, XDATA, add(CFA_XSP16, literal(-8)))
        CFI VB load(1, XDATA, add(CFA_XSP16, literal(-9)))
        CFI R6 load(1, XDATA, add(CFA_XSP16, literal(-10)))
        CFI CFA_SP SP+0
        CFI CFA_XSP16 add(XSP16, 10)
        ; Saved register size: 10
        ; Auto size: 1
        MOV     A,#-0x1
        LCALL   ?ALLOC_XSTACK8
        CFI CFA_XSP16 add(XSP16, 11)
//  534   // Default to Use Config State and Use Network State
//  535   uint8 startupOption = 0;
        MOV     DPL,?XSP + 0
        MOV     DPH,?XSP + 1
        MOV     A,#0x0
        MOVX    @DPTR,A
//  536 
//  537   // This should have been done in ZMain.c, but just in case.
//  538   if ( osal_nv_item_init( ZCD_NV_STARTUP_OPTION,
//  539                               sizeof(startupOption),
//  540                               &startupOption ) == ZSUCCESS )
        ; Setup parameters for call to function osal_nv_item_init
        MOV     DPL,?XSP + 0
        MOV     DPH,?XSP + 1
        MOV     ?V0 + 0,DPL
        MOV     ?V0 + 1,DPH
        MOV     R0,#?V0 + 0
        LCALL   ?PUSH_XSTACK_I_TWO
        CFI CFA_XSP16 add(XSP16, 13)
        MOV     R4,#0x1
        MOV     R5,#0x0
        MOV     R2,#0x3
        MOV     R3,#0x0
        LCALL   ??osal_nv_item_init?relay
        MOV     A,#0x2
        LCALL   ?DEALLOC_XSTACK8
        CFI CFA_XSP16 add(XSP16, 11)
        MOV     A,R1
        JNZ     ??zgReadStartupOptions_0
//  541   {
//  542     // Read saved startup control
//  543     osal_nv_read( ZCD_NV_STARTUP_OPTION,
//  544                   0,
//  545                   sizeof( startupOption ),
//  546                   &startupOption);
        ; Setup parameters for call to function osal_nv_read
        MOV     DPL,?XSP + 0
        MOV     DPH,?XSP + 1
        MOV     ?V0 + 0,DPL
        MOV     ?V0 + 1,DPH
        MOV     R0,#?V0 + 0
        LCALL   ?PUSH_XSTACK_I_TWO
        CFI CFA_XSP16 add(XSP16, 13)
        MOV     ?V0 + 0,#0x1
        MOV     ?V0 + 1,#0x0
        MOV     R0,#?V0 + 0
        LCALL   ?PUSH_XSTACK_I_TWO
        CFI CFA_XSP16 add(XSP16, 15)
        MOV     R4,#0x0
        MOV     R5,#0x0
        MOV     R2,#0x3
        MOV     R3,#0x0
        LCALL   ??osal_nv_read?relay
        MOV     A,#0x4
        LCALL   ?DEALLOC_XSTACK8
        CFI CFA_XSP16 add(XSP16, 11)
        MOV     A,R1
//  547   }
//  548   return ( startupOption );
??zgReadStartupOptions_0:
        MOV     DPL,?XSP + 0
        MOV     DPH,?XSP + 1
        MOVX    A,@DPTR
        MOV     R1,A
        MOV     A,#0x1
        LCALL   ?DEALLOC_XSTACK8
        CFI CFA_XSP16 add(XSP16, 10)
        MOV     R7,#0x2
        LJMP    ?BANKED_LEAVE_XDATA
        CFI EndBlock cfiBlock3
//  549 }
//  550 
//  551 /*********************************************************************
//  552  * @fn          zgWriteStartupOptions
//  553  *
//  554  * @brief       Writes bits into the ZCD_NV_STARTUP_OPTION NV Item.
//  555  *
//  556  * @param       action - ZG_STARTUP_SET set bit, ZG_STARTUP_CLEAR to
//  557  *               clear bit. The set bit is an OR operation, and the
//  558  *               clear bit is an AND ~(bitOptions) operation.
//  559  *
//  560  * @param       bitOptions - which bits to perform action on:
//  561  *                      ZCD_STARTOPT_DEFAULT_CONFIG_STATE
//  562  *                      ZCD_STARTOPT_DEFAULT_NETWORK_STATE
//  563  *
//  564  * @return      ZSUCCESS if successful
//  565  */

        RSEG BANKED_CODE:CODE:NOROOT(0)
//  566 uint8 zgWriteStartupOptions( uint8 action, uint8 bitOptions )
zgWriteStartupOptions:
        CFI Block cfiBlock4 Using cfiCommon0
        CFI Function zgWriteStartupOptions
        CODE
//  567 {
        FUNCALL zgWriteStartupOptions, osal_nv_read
        LOCFRAME ISTACK, 0, STACK
        LOCFRAME PSTACK, 0, STACK
        LOCFRAME XSTACK, 16, STACK
        LOCFRAME IOVERLAY, 0, STATIC
        LOCFRAME DOVERLAY, 0, STATIC
        ARGFRAME ISTACK, 0, STACK
        ARGFRAME PSTACK, 0, STACK
        ARGFRAME XSTACK, 16, STACK
        ARGFRAME IOVERLAY, 0, STATIC
        ARGFRAME DOVERLAY, 0, STATIC
        FUNCALL zgWriteStartupOptions, osal_nv_write
        LOCFRAME ISTACK, 0, STACK
        LOCFRAME PSTACK, 0, STACK
        LOCFRAME XSTACK, 16, STACK
        LOCFRAME IOVERLAY, 0, STATIC
        LOCFRAME DOVERLAY, 0, STATIC
        ARGFRAME ISTACK, 0, STACK
        ARGFRAME PSTACK, 0, STACK
        ARGFRAME XSTACK, 16, STACK
        ARGFRAME IOVERLAY, 0, STATIC
        ARGFRAME DOVERLAY, 0, STATIC
        MOV     A,#-0xb
        LCALL   ?BANKED_ENTER_XDATA
        CFI DPH0 load(1, XDATA, add(CFA_XSP16, literal(-1)))
        CFI DPL0 load(1, XDATA, add(CFA_XSP16, literal(-2)))
        CFI ?BRET_EXT load(1, XDATA, add(CFA_XSP16, literal(-3)))
        CFI ?RET_HIGH load(1, XDATA, add(CFA_XSP16, literal(-4)))
        CFI ?RET_LOW load(1, XDATA, add(CFA_XSP16, literal(-5)))
        CFI R7 load(1, XDATA, add(CFA_XSP16, literal(-6)))
        CFI V2 load(1, XDATA, add(CFA_XSP16, literal(-7)))
        CFI V1 load(1, XDATA, add(CFA_XSP16, literal(-8)))
        CFI V0 load(1, XDATA, add(CFA_XSP16, literal(-9)))
        CFI VB load(1, XDATA, add(CFA_XSP16, literal(-10)))
        CFI R6 load(1, XDATA, add(CFA_XSP16, literal(-11)))
        CFI CFA_SP SP+0
        CFI CFA_XSP16 add(XSP16, 11)
        ; Saved register size: 11
        ; Auto size: 1
        MOV     A,#-0x1
        LCALL   ?ALLOC_XSTACK8
        CFI CFA_XSP16 add(XSP16, 12)
        MOV     A,R1
        MOV     R7,A
        MOV     ?V0 + 2,R2
//  568   uint8 status;
//  569   uint8 startupOptions = 0;
        MOV     DPL,?XSP + 0
        MOV     DPH,?XSP + 1
        MOV     A,#0x0
        MOVX    @DPTR,A
//  570 
//  571   status = osal_nv_read( ZCD_NV_STARTUP_OPTION,
//  572                 0,
//  573                 sizeof( startupOptions ),
//  574                 &startupOptions );
        ; Setup parameters for call to function osal_nv_read
        MOV     DPL,?XSP + 0
        MOV     DPH,?XSP + 1
        MOV     ?V0 + 0,DPL
        MOV     ?V0 + 1,DPH
        MOV     R0,#?V0 + 0
        LCALL   ?PUSH_XSTACK_I_TWO
        CFI CFA_XSP16 add(XSP16, 14)
        MOV     ?V0 + 0,#0x1
        MOV     ?V0 + 1,#0x0
        MOV     R0,#?V0 + 0
        LCALL   ?PUSH_XSTACK_I_TWO
        CFI CFA_XSP16 add(XSP16, 16)
        MOV     R4,#0x0
        MOV     R5,#0x0
        MOV     R2,#0x3
        MOV     R3,#0x0
        LCALL   ??osal_nv_read?relay
        MOV     A,#0x4
        LCALL   ?DEALLOC_XSTACK8
        CFI CFA_XSP16 add(XSP16, 12)
        MOV     A,R1
        MOV     R6,A
//  575 
//  576   if ( status == ZSUCCESS )
        MOV     A,R6
        JNZ     ??zgWriteStartupOptions_0
//  577   {
//  578     if ( action == ZG_STARTUP_SET )
        MOV     A,#-0x1
        XRL     A,R7
        JNZ     ??zgWriteStartupOptions_1
//  579     {
//  580       // Set bits
//  581       startupOptions |= bitOptions;
        MOV     DPL,?XSP + 0
        MOV     DPH,?XSP + 1
        MOVX    A,@DPTR
        ORL     A,?V0 + 2
        MOVX    @DPTR,A
        SJMP    ??zgWriteStartupOptions_2
//  582     }
//  583     else
//  584     {
//  585       // Clear bits
//  586       startupOptions &= (bitOptions ^ 0xFF);
??zgWriteStartupOptions_1:
        MOV     A,#-0x1
        XRL     A,?V0 + 2
        MOV     R0,A
        MOV     DPL,?XSP + 0
        MOV     DPH,?XSP + 1
        MOVX    A,@DPTR
        ANL     A,R0
        MOVX    @DPTR,A
//  587     }
//  588 
//  589     // Changed?
//  590     status = osal_nv_write( ZCD_NV_STARTUP_OPTION,
//  591                  0,
//  592                  sizeof( startupOptions ),
//  593                  &startupOptions );
??zgWriteStartupOptions_2:
        ; Setup parameters for call to function osal_nv_write
        MOV     DPL,?XSP + 0
        MOV     DPH,?XSP + 1
        MOV     ?V0 + 0,DPL
        MOV     ?V0 + 1,DPH
        MOV     R0,#?V0 + 0
        LCALL   ?PUSH_XSTACK_I_TWO
        CFI CFA_XSP16 add(XSP16, 14)
        MOV     ?V0 + 0,#0x1
        MOV     ?V0 + 1,#0x0
        MOV     R0,#?V0 + 0
        LCALL   ?PUSH_XSTACK_I_TWO
        CFI CFA_XSP16 add(XSP16, 16)
        MOV     R4,#0x0
        MOV     R5,#0x0
        MOV     R2,#0x3
        MOV     R3,#0x0
        LCALL   ??osal_nv_write?relay
        MOV     A,#0x4
        LCALL   ?DEALLOC_XSTACK8
        CFI CFA_XSP16 add(XSP16, 12)
        MOV     A,R1
        MOV     R6,A
//  594   }
//  595 
//  596   return ( status );
??zgWriteStartupOptions_0:
        MOV     A,R6
        MOV     R1,A
        MOV     A,#0x1
        LCALL   ?DEALLOC_XSTACK8
        CFI CFA_XSP16 add(XSP16, 11)
        MOV     R7,#0x3
        LJMP    ?BANKED_LEAVE_XDATA
        CFI EndBlock cfiBlock4
//  597 }
//  598 
//  599 /*********************************************************************
//  600  * @fn          zgSetItem
//  601  *
//  602  * @brief       Set RAM variables from set-NV, if it exist in the zgItemTable
//  603  *
//  604  * @param       id - NV ID
//  605  *              len - NV item length
//  606  *              buf - pointer to the input buffer
//  607  *
//  608  * @return      none
//  609  */

        RSEG BANKED_CODE:CODE:NOROOT(0)
//  610 void zgSetItem( uint16 id, uint16 len, void *buf )
zgSetItem:
        CFI Block cfiBlock5 Using cfiCommon0
        CFI Function zgSetItem
        CODE
//  611 {
        FUNCALL zgSetItem, osal_memcpy
        LOCFRAME ISTACK, 0, STACK
        LOCFRAME PSTACK, 0, STACK
        LOCFRAME XSTACK, 19, STACK
        LOCFRAME IOVERLAY, 0, STATIC
        LOCFRAME DOVERLAY, 0, STATIC
        ARGFRAME ISTACK, 0, STACK
        ARGFRAME PSTACK, 0, STACK
        ARGFRAME XSTACK, 19, STACK
        ARGFRAME IOVERLAY, 0, STATIC
        ARGFRAME DOVERLAY, 0, STATIC
        MOV     A,#-0x10
        LCALL   ?BANKED_ENTER_XDATA
        CFI DPH0 load(1, XDATA, add(CFA_XSP16, literal(-1)))
        CFI DPL0 load(1, XDATA, add(CFA_XSP16, literal(-2)))
        CFI ?BRET_EXT load(1, XDATA, add(CFA_XSP16, literal(-3)))
        CFI ?RET_HIGH load(1, XDATA, add(CFA_XSP16, literal(-4)))
        CFI ?RET_LOW load(1, XDATA, add(CFA_XSP16, literal(-5)))
        CFI R7 load(1, XDATA, add(CFA_XSP16, literal(-6)))
        CFI V7 load(1, XDATA, add(CFA_XSP16, literal(-7)))
        CFI V6 load(1, XDATA, add(CFA_XSP16, literal(-8)))
        CFI V5 load(1, XDATA, add(CFA_XSP16, literal(-9)))
        CFI V4 load(1, XDATA, add(CFA_XSP16, literal(-10)))
        CFI V3 load(1, XDATA, add(CFA_XSP16, literal(-11)))
        CFI V2 load(1, XDATA, add(CFA_XSP16, literal(-12)))
        CFI V1 load(1, XDATA, add(CFA_XSP16, literal(-13)))
        CFI V0 load(1, XDATA, add(CFA_XSP16, literal(-14)))
        CFI VB load(1, XDATA, add(CFA_XSP16, literal(-15)))
        CFI R6 load(1, XDATA, add(CFA_XSP16, literal(-16)))
        CFI CFA_SP SP+0
        CFI CFA_XSP16 add(XSP16, 16)
        ; Saved register size: 16
        ; Auto size: 0
        MOV     ?V0 + 2,R2
        MOV     ?V0 + 3,R3
        MOV     A,R4
        MOV     R6,A
        MOV     A,R5
        MOV     R7,A
        MOV     A,#0x10
        LCALL   ?XSTACK_DISP0_8
        MOVX    A,@DPTR
        MOV     ?V0 + 0,A
        INC     DPTR
        MOVX    A,@DPTR
        MOV     ?V0 + 1,A
//  612 
//  613   uint8  i = 0;
        MOV     ?V0 + 7,#0x0
//  614 
//  615   // Look up the NV item table
//  616   while ( zgItemTable[i].id != 0x00 )
??zgSetItem_0:
        MOV     A,?V0 + 7
        MOV     R0,?V0 + 7
        MOV     R1,#0x0
        MOV     A,R0
        MOV     B,#0x6
        MUL     AB
        XCH     A,R0
        MOV     R2,B
        MOV     B,#0x0
        MUL     AB
        ADD     A,R2
        MOV     R2,A
        MOV     B,#0x6
        MOV     A,R1
        MUL     AB
        ADD     A,R2
        MOV     R1,A
        MOV     A,#zgItemTable & 0xff
        ADD     A,R0
        MOV     DPL,A
        MOV     A,#(zgItemTable >> 8) & 0xff
        ADDC    A,R1
        MOV     DPH,A
        CLR     A
        MOVC    A,@A+DPTR
        MOV     R0,A
        MOV     A,#0x1
        MOVC    A,@A+DPTR
        MOV     R1,A
        MOV     A,R0
        ORL     A,R1
        JNZ     $+5
        LJMP    ??zgSetItem_1 & 0xFFFF
//  617   {
//  618     if( zgItemTable[i].id == id )
        MOV     A,?V0 + 7
        MOV     R0,?V0 + 7
        MOV     R1,#0x0
        MOV     A,R0
        MOV     B,#0x6
        MUL     AB
        XCH     A,R0
        MOV     R2,B
        MOV     B,#0x0
        MUL     AB
        ADD     A,R2
        MOV     R2,A
        MOV     B,#0x6
        MOV     A,R1
        MUL     AB
        ADD     A,R2
        MOV     R1,A
        MOV     A,#zgItemTable & 0xff
        ADD     A,R0
        MOV     DPL,A
        MOV     A,#(zgItemTable >> 8) & 0xff
        ADDC    A,R1
        MOV     DPH,A
        CLR     A
        MOVC    A,@A+DPTR
        MOV     R0,A
        MOV     A,#0x1
        MOVC    A,@A+DPTR
        MOV     R1,A
        MOV     A,?V0 + 2
        XRL     A,R0
        JNZ     ??zgSetItem_2
        MOV     A,?V0 + 3
        XRL     A,R1
??zgSetItem_2:
        JNZ     ??zgSetItem_3
//  619     {
//  620       if ( zgItemTable[i].len == len )
        MOV     A,?V0 + 7
        MOV     R0,?V0 + 7
        MOV     R1,#0x0
        MOV     A,R0
        MOV     B,#0x6
        MUL     AB
        XCH     A,R0
        MOV     R2,B
        MOV     B,#0x0
        MUL     AB
        ADD     A,R2
        MOV     R2,A
        MOV     B,#0x6
        MOV     A,R1
        MUL     AB
        ADD     A,R2
        MOV     R1,A
        MOV     A,#(zgItemTable + 2) & 0xff
        ADD     A,R0
        MOV     DPL,A
        MOV     A,#((zgItemTable + 2) >> 8) & 0xff
        ADDC    A,R1
        MOV     DPH,A
        CLR     A
        MOVC    A,@A+DPTR
        MOV     R0,A
        MOV     A,#0x1
        MOVC    A,@A+DPTR
        MOV     R1,A
        MOV     A,R6
        XRL     A,R0
        JNZ     ??zgSetItem_4
        MOV     A,R7
        XRL     A,R1
??zgSetItem_4:
        JNZ     ??zgSetItem_1
//  621       {
//  622         osal_memcpy( zgItemTable[i].buf, buf, len );
        ; Setup parameters for call to function osal_memcpy
        MOV     ?V0 + 4,?V0 + 0
        MOV     ?V0 + 5,?V0 + 1
        MOV     ?V0 + 6,#0x0
        MOV     R0,#?V0 + 4
        LCALL   ?PUSH_XSTACK_I_THREE
        CFI CFA_XSP16 add(XSP16, 19)
        MOV     A,R6
        MOV     R4,A
        MOV     A,R7
        MOV     R5,A
        MOV     A,?V0 + 7
        MOV     R0,?V0 + 7
        MOV     R1,#0x0
        MOV     A,R0
        MOV     B,#0x6
        MUL     AB
        XCH     A,R0
        MOV     R2,B
        MOV     B,#0x0
        MUL     AB
        ADD     A,R2
        MOV     R2,A
        MOV     B,#0x6
        MOV     A,R1
        MUL     AB
        ADD     A,R2
        MOV     R1,A
        MOV     A,#(zgItemTable + 4) & 0xff
        ADD     A,R0
        MOV     DPL,A
        MOV     A,#((zgItemTable + 4) >> 8) & 0xff
        ADDC    A,R1
        MOV     DPH,A
        CLR     A
        MOVC    A,@A+DPTR
        MOV     R2,A
        MOV     A,#0x1
        MOVC    A,@A+DPTR
        MOV     R3,A
        LCALL   ??osal_memcpy?relay
        MOV     A,#0x3
        LCALL   ?DEALLOC_XSTACK8
        CFI CFA_XSP16 add(XSP16, 16)
//  623       }
//  624       break;
        SJMP    ??zgSetItem_1
//  625     }
//  626     // Move on to the next item
//  627     i++;
??zgSetItem_3:
        INC     ?V0 + 7
        LJMP    ??zgSetItem_0 & 0xFFFF
//  628   }
//  629 }
??zgSetItem_1:
        MOV     R7,#0x8
        LJMP    ?BANKED_LEAVE_XDATA
        CFI EndBlock cfiBlock5
//  630 
//  631 #ifndef NONWK
//  632 /*********************************************************************
//  633  * @fn       zgPreconfigKeyInit()
//  634  *
//  635  * @brief
//  636  *
//  637  *   Initialize ZCD_NV_PRECFGKEY NV item. If the item doesn't exist in NV memory,
//  638  *   write the system default (value passed in) into NV memory. But if
//  639  *   it exists do not overwrite it.
//  640  *
//  641  *   Also, if setDefault is TRUE and the item exists, we will write
//  642  *   the default value to NV space.
//  643  *
//  644  * @param   setDefault - TRUE to set default
//  645  *
//  646  * @return  ZSUCCESS if successful, NV_ITEM_UNINIT if item did not
//  647  *          exist in NV, NV_OPER_FAILED if failure.
//  648  */

        RSEG BANKED_CODE:CODE:NOROOT(0)
//  649 static uint8 zgPreconfigKeyInit( uint8 setDefault )
zgPreconfigKeyInit:
        CFI Block cfiBlock6 Using cfiCommon0
        CFI Function zgPreconfigKeyInit
        CODE
//  650 {
        FUNCALL zgPreconfigKeyInit, osal_memcpy
        LOCFRAME ISTACK, 0, STACK
        LOCFRAME PSTACK, 0, STACK
        LOCFRAME XSTACK, 30, STACK
        LOCFRAME IOVERLAY, 0, STATIC
        LOCFRAME DOVERLAY, 0, STATIC
        ARGFRAME ISTACK, 0, STACK
        ARGFRAME PSTACK, 0, STACK
        ARGFRAME XSTACK, 30, STACK
        ARGFRAME IOVERLAY, 0, STATIC
        ARGFRAME DOVERLAY, 0, STATIC
        FUNCALL zgPreconfigKeyInit, osal_nv_item_init
        LOCFRAME ISTACK, 0, STACK
        LOCFRAME PSTACK, 0, STACK
        LOCFRAME XSTACK, 29, STACK
        LOCFRAME IOVERLAY, 0, STATIC
        LOCFRAME DOVERLAY, 0, STATIC
        ARGFRAME ISTACK, 0, STACK
        ARGFRAME PSTACK, 0, STACK
        ARGFRAME XSTACK, 29, STACK
        ARGFRAME IOVERLAY, 0, STATIC
        ARGFRAME DOVERLAY, 0, STATIC
        FUNCALL zgPreconfigKeyInit, osal_nv_write
        LOCFRAME ISTACK, 0, STACK
        LOCFRAME PSTACK, 0, STACK
        LOCFRAME XSTACK, 31, STACK
        LOCFRAME IOVERLAY, 0, STATIC
        LOCFRAME DOVERLAY, 0, STATIC
        ARGFRAME ISTACK, 0, STACK
        ARGFRAME PSTACK, 0, STACK
        ARGFRAME XSTACK, 31, STACK
        ARGFRAME IOVERLAY, 0, STATIC
        ARGFRAME DOVERLAY, 0, STATIC
        FUNCALL zgPreconfigKeyInit, osal_memset
        LOCFRAME ISTACK, 0, STACK
        LOCFRAME PSTACK, 0, STACK
        LOCFRAME XSTACK, 27, STACK
        LOCFRAME IOVERLAY, 0, STATIC
        LOCFRAME DOVERLAY, 0, STATIC
        ARGFRAME ISTACK, 0, STACK
        ARGFRAME PSTACK, 0, STACK
        ARGFRAME XSTACK, 27, STACK
        ARGFRAME IOVERLAY, 0, STATIC
        ARGFRAME DOVERLAY, 0, STATIC
        MOV     A,#-0xb
        LCALL   ?BANKED_ENTER_XDATA
        CFI DPH0 load(1, XDATA, add(CFA_XSP16, literal(-1)))
        CFI DPL0 load(1, XDATA, add(CFA_XSP16, literal(-2)))
        CFI ?BRET_EXT load(1, XDATA, add(CFA_XSP16, literal(-3)))
        CFI ?RET_HIGH load(1, XDATA, add(CFA_XSP16, literal(-4)))
        CFI ?RET_LOW load(1, XDATA, add(CFA_XSP16, literal(-5)))
        CFI R7 load(1, XDATA, add(CFA_XSP16, literal(-6)))
        CFI V2 load(1, XDATA, add(CFA_XSP16, literal(-7)))
        CFI V1 load(1, XDATA, add(CFA_XSP16, literal(-8)))
        CFI V0 load(1, XDATA, add(CFA_XSP16, literal(-9)))
        CFI VB load(1, XDATA, add(CFA_XSP16, literal(-10)))
        CFI R6 load(1, XDATA, add(CFA_XSP16, literal(-11)))
        CFI CFA_SP SP+0
        CFI CFA_XSP16 add(XSP16, 11)
        ; Saved register size: 11
        ; Auto size: 16
        MOV     A,#-0x10
        LCALL   ?ALLOC_XSTACK8
        CFI CFA_XSP16 add(XSP16, 27)
        MOV     A,R1
        MOV     R7,A
//  651   uint8 zgPreConfigKey[SEC_KEY_LEN];
//  652   uint8 status;
//  653 
//  654   // Initialize the Pre-Configured Key to the default key
//  655   osal_memcpy( zgPreConfigKey, defaultKey, SEC_KEY_LEN );
        ; Setup parameters for call to function osal_memcpy
        MOV     ?V0 + 0,#defaultKey & 0xff
        MOV     ?V0 + 1,#(defaultKey >> 8) & 0xff
        MOV     ?V0 + 2,#0x0
        MOV     R0,#?V0 + 0
        LCALL   ?PUSH_XSTACK_I_THREE
        CFI CFA_XSP16 add(XSP16, 30)
        MOV     R4,#0x10
        MOV     R5,#0x0
        MOV     A,#0x3
        LCALL   ?XSTACK_DISP0_8
        MOV     R2,DPL
        MOV     R3,DPH
        LCALL   ??osal_memcpy?relay
        MOV     A,#0x3
        LCALL   ?DEALLOC_XSTACK8
        CFI CFA_XSP16 add(XSP16, 27)
//  656 
//  657   // If the item doesn't exist in NV memory, create and initialize it
//  658   status = osal_nv_item_init( ZCD_NV_PRECFGKEY, SEC_KEY_LEN, zgPreConfigKey );
        ; Setup parameters for call to function osal_nv_item_init
        MOV     DPL,?XSP + 0
        MOV     DPH,?XSP + 1
        MOV     ?V0 + 0,DPL
        MOV     ?V0 + 1,DPH
        MOV     R0,#?V0 + 0
        LCALL   ?PUSH_XSTACK_I_TWO
        CFI CFA_XSP16 add(XSP16, 29)
        MOV     R4,#0x10
        MOV     R5,#0x0
        MOV     R2,#0x62
        MOV     R3,#0x0
        LCALL   ??osal_nv_item_init?relay
        MOV     A,#0x2
        LCALL   ?DEALLOC_XSTACK8
        CFI CFA_XSP16 add(XSP16, 27)
        MOV     A,R1
        MOV     R6,A
//  659   if ( status == ZSUCCESS )
        MOV     A,R6
        JNZ     ??zgPreconfigKeyInit_0
//  660   {
//  661     if ( setDefault )
        MOV     A,R7
        JZ      ??zgPreconfigKeyInit_0
//  662     {
//  663       // Write the default value back to NV
//  664       status =  osal_nv_write( ZCD_NV_PRECFGKEY, 0, SEC_KEY_LEN, zgPreConfigKey );
        ; Setup parameters for call to function osal_nv_write
        MOV     DPL,?XSP + 0
        MOV     DPH,?XSP + 1
        MOV     ?V0 + 0,DPL
        MOV     ?V0 + 1,DPH
        MOV     R0,#?V0 + 0
        LCALL   ?PUSH_XSTACK_I_TWO
        CFI CFA_XSP16 add(XSP16, 29)
        MOV     ?V0 + 0,#0x10
        MOV     ?V0 + 1,#0x0
        MOV     R0,#?V0 + 0
        LCALL   ?PUSH_XSTACK_I_TWO
        CFI CFA_XSP16 add(XSP16, 31)
        MOV     R4,#0x0
        MOV     R5,#0x0
        MOV     R2,#0x62
        MOV     R3,#0x0
        LCALL   ??osal_nv_write?relay
        MOV     A,#0x4
        LCALL   ?DEALLOC_XSTACK8
        CFI CFA_XSP16 add(XSP16, 27)
        MOV     A,R1
        MOV     R6,A
//  665     }
//  666   }
//  667 
//  668   // clear local copy of default key
//  669   osal_memset(zgPreConfigKey, 0x00, SEC_KEY_LEN);
??zgPreconfigKeyInit_0:
        ; Setup parameters for call to function osal_memset
        MOV     R4,#0x10
        MOV     R5,#0x0
        MOV     R1,#0x0
        MOV     DPL,?XSP + 0
        MOV     DPH,?XSP + 1
        MOV     R2,DPL
        MOV     R3,DPH
        LCALL   ??osal_memset?relay
//  670 
//  671   return (status);
        MOV     A,R6
        MOV     R1,A
        MOV     A,#0x10
        LCALL   ?DEALLOC_XSTACK8
        CFI CFA_XSP16 add(XSP16, 11)
        MOV     R7,#0x3
        LJMP    ?BANKED_LEAVE_XDATA
        CFI EndBlock cfiBlock6
//  672 }

        RSEG XDATA_ID:CODE:NOROOT(0)
`?<Initializer for zgPollRate>`:
        DATA16
        DW 8000

        RSEG XDATA_ID:CODE:NOROOT(0)
`?<Initializer for zgQueuedPollRate>`:
        DATA16
        DW 100

        RSEG XDATA_ID:CODE:NOROOT(0)
`?<Initializer for zgResponsePollRate>`:
        DATA16
        DW 1000

        RSEG XDATA_ID:CODE:NOROOT(0)
`?<Initializer for zgRejoinPollRate>`:
        DATA16
        DW 440

        RSEG XDATA_ID:CODE:NOROOT(0)
`?<Initializer for zgMaxDataRetries>`:
        DATA8
        DB 2

        RSEG XDATA_ID:CODE:NOROOT(0)
`?<Initializer for zgMaxPollFailureRetries>`:
        DATA8
        DB 2

        RSEG XDATA_ID:CODE:NOROOT(0)
`?<Initializer for zgDefaultChannelList>`:
        DATA32
        DD 51955712

        RSEG XDATA_ID:CODE:NOROOT(0)
`?<Initializer for zgDefaultStartingScanDuratio`:
        DATA8
        DB 5

        RSEG XDATA_ID:CODE:NOROOT(0)
`?<Initializer for zgStackProfile>`:
        DATA8
        DB 2

        RSEG XDATA_ID:CODE:NOROOT(0)
`?<Initializer for zgIndirectMsgTimeout>`:
        DATA8
        DB 60

        RSEG XDATA_ID:CODE:NOROOT(0)
`?<Initializer for zgSecurityMode>`:
        DATA8
        DB 1

        RSEG XDATA_ID:CODE:NOROOT(0)
`?<Initializer for zgSecurePermitJoin>`:
        DATA8
        DB 1

        RSEG XDATA_ID:CODE:NOROOT(0)
`?<Initializer for zgRouteDiscoveryTime>`:
        DATA8
        DB 13

        RSEG XDATA_ID:CODE:NOROOT(0)
`?<Initializer for zgRouteExpiryTime>`:
        DATA8
        DB 30

        RSEG XDATA_ID:CODE:NOROOT(0)
`?<Initializer for zgMaxBcastRetires>`:
        DATA8
        DB 2

        RSEG XDATA_ID:CODE:NOROOT(0)
`?<Initializer for zgPassiveAckTimeout>`:
        DATA8
        DB 5

        RSEG XDATA_ID:CODE:NOROOT(0)
`?<Initializer for zgBcastDeliveryTime>`:
        DATA8
        DB 100

        RSEG XDATA_ID:CODE:NOROOT(0)
`?<Initializer for zgNwkMode>`:
        DATA8
        DB 2

        RSEG XDATA_ID:CODE:NOROOT(0)
`?<Initializer for zgConcentratorRadius>`:
        DATA8
        DB 10

        RSEG XDATA_ID:CODE:NOROOT(0)
`?<Initializer for zgNwkSrcRtgExpiryTime>`:
        DATA8
        DB 10

        RSEG XDATA_ID:CODE:NOROOT(0)
`?<Initializer for zgApscMaxFrameRetries>`:
        DATA8
        DB 3

        RSEG XDATA_ID:CODE:NOROOT(0)
`?<Initializer for zgApscAckWaitDurationPolled>`:
        DATA16
        DW 3000

        RSEG XDATA_ID:CODE:NOROOT(0)
`?<Initializer for zgApsAckWaitMultiplier>`:
        DATA8
        DB 2

        RSEG XDATA_ID:CODE:NOROOT(0)
`?<Initializer for zgApsDefaultMaxBindingTime>`:
        DATA16
        DW 16000

        RSEG XDATA_ID:CODE:NOROOT(0)
`?<Initializer for zgApsUseInsecureJoin>`:
        DATA8
        DB 1

        RSEG XDATA_ID:CODE:NOROOT(0)
`?<Initializer for zgApsNonMemberRadius>`:
        DATA8
        DB 2

        RSEG XDATA_ID:CODE:NOROOT(0)
`?<Initializer for zgPreConfigKeys>`:
        DATA8
        DB 1

        RSEG XDATA_ID:CODE:NOROOT(0)
`?<Initializer for zgUseDefaultTCLK>`:
        DATA8
        DB 1

        RSEG XDATA_ID:CODE:NOROOT(0)
`?<Initializer for zgConfigPANID>`:
        DATA16
        DW 65535

        RSEG XDATA_ID:CODE:NOROOT(0)
`?<Initializer for zgDeviceLogicalType>`:
        DATA8
        DB 1

        RSEG XDATA_ID:CODE:NOROOT(0)
`?<Initializer for zgStartDelay>`:
        DATA8
        DB 10

        RSEG XDATA_ID:CODE:NOROOT(0)
`?<Initializer for zgNwkMgrMinTransmissions>`:
        DATA8
        DB 20

        RSEG XDATA_ID:CODE:NOROOT(0)
`?<Initializer for zgNwkMgrMode>`:
        DATA8
        DB 1

        RSEG XDATA_ID:CODE:NOROOT(0)
`?<Initializer for zgSapiEndpoint>`:
        DATA8
        DB 224

        RSEG BANK_RELAYS:CODE:REORDER:NOROOT(0)
??zgItemInit?relay:
        LCALL   ?BDISPATCH
        DATA
        DC24    zgItemInit

        RSEG BANK_RELAYS:CODE:REORDER:NOROOT(0)
??zgInit?relay:
        LCALL   ?BDISPATCH
        DATA
        DC24    zgInit

        RSEG BANK_RELAYS:CODE:REORDER:NOROOT(0)
??zgInitItems?relay:
        LCALL   ?BDISPATCH
        DATA
        DC24    zgInitItems

        RSEG BANK_RELAYS:CODE:REORDER:NOROOT(0)
??zgReadStartupOptions?relay:
        LCALL   ?BDISPATCH
        DATA
        DC24    zgReadStartupOptions

        RSEG BANK_RELAYS:CODE:REORDER:NOROOT(0)
??zgWriteStartupOptions?relay:
        LCALL   ?BDISPATCH
        DATA
        DC24    zgWriteStartupOptions

        RSEG BANK_RELAYS:CODE:REORDER:NOROOT(0)
??zgSetItem?relay:
        LCALL   ?BDISPATCH
        DATA
        DC24    zgSetItem

        RSEG BANK_RELAYS:CODE:REORDER:NOROOT(0)
??zgPreconfigKeyInit?relay:
        LCALL   ?BDISPATCH
        DATA
        DC24    zgPreconfigKeyInit

        END
//  673 #endif
//  674 
//  675 /*********************************************************************
//  676 *********************************************************************/
// 
// 1 099 bytes in segment BANKED_CODE
//    42 bytes in segment BANK_RELAYS
//   252 bytes in segment CODE_C
//    44 bytes in segment XDATA_I
//    44 bytes in segment XDATA_ID
//    22 bytes in segment XDATA_Z
// 
// 1 437 bytes of CODE  memory
//    66 bytes of XDATA memory
//
//Errors: none
//Warnings: none
