///////////////////////////////////////////////////////////////////////////////
//                                                                            /
// IAR C/C++ Compiler V8.10.1.10194/W32 for 8051        11/Dec/2014  16:16:16 /
// Copyright 2004-2011 IAR Systems AB.                                        /
//                                                                            /
//    Core               =  plain                                             /
//    Code model         =  banked                                            /
//    Data model         =  large                                             /
//    Calling convention =  xdata reentrant                                   /
//    Constant location  =  data_rom                                          /
//    Dptr setup         =  1,16                                              /
//    Source file        =  D:\RE_1_2_0_FORMAL_APP(251)-14-12-8\Projects\zsta /
//                          ck\Samples\SampleApp\Source\rssi_test\c\button.c  /
//    Command line       =  -f "D:\RE_1_2_0_FORMAL_APP(251)-14-12-8\Projects\ /
//                          zstack\Samples\SampleApp\CC2530DB\..\..\..\Tools\ /
//                          CC2530DB\f8wEndev.cfg" (-DCPU32MHZ                /
//                          -DROOT=__near_func -DMAC_CFG_TX_DATA_MAX=3        /
//                          -DMAC_CFG_TX_MAX=6 -DMAC_CFG_RX_MAX=3) -f         /
//                          "D:\RE_1_2_0_FORMAL_APP(251)-14-12-8\Projects\zst /
//                          ack\Samples\SampleApp\CC2530DB\..\..\..\Tools\CC2 /
//                          530DB\f8wConfig.cfg" (-DZIGBEEPRO -DSECURE=1      /
//                          -DZG_SECURE_DYNAMIC=0 -DREFLECTOR                 /
//                          -DZDAPP_CONFIG_PAN_ID=0xFFFF                      /
//                          -DNWK_START_DELAY=100 -DEXTENDED_JOINING_RANDOM_M /
//                          ASK=0x007F -DBEACON_REQUEST_DELAY=100             /
//                          -DBEACON_REQ_DELAY_MASK=0x00FF                    /
//                          -DLINK_STATUS_JITTER_MASK=0x007F                  /
//                          -DROUTE_EXPIRY_TIME=30 -DAPSC_ACK_WAIT_DURATION_P /
//                          OLLED=3000 -DNWK_INDIRECT_MSG_TIMEOUT=60          /
//                          -DMAX_RREQ_ENTRIES=8 -DAPSC_MAX_FRAME_RETRIES=3   /
//                          -DNWK_MAX_DATA_RETRIES=2                          /
//                          -DMAX_POLL_FAILURE_RETRIES=2 -DMAX_BCAST=9        /
//                          -DAPS_MAX_GROUPS=16 -DMAX_RTG_ENTRIES=30          /
//                          -DNWK_MAX_BINDING_ENTRIES=1                       /
//                          -DMAX_BINDING_CLUSTER_IDS=4 -DASSERT_RESET        /
//                          -DMAC_MAX_FRAME_SIZE=116                          /
//                          -DZDNWKMGR_MIN_TRANSMISSIONS=20 "-DCONST=const    /
//                          __code" -DGENERIC=__generic                       /
//                          -DRFD_RCVC_ALWAYS_ON=FALSE -DPOLL_RATE=8000       /
//                          -DQUEUED_POLL_RATE=100 -DRESPONSE_POLL_RATE=1000) /
//                           -DREJOIN_POLL_RATE=440                           /
//                          "D:\RE_1_2_0_FORMAL_APP(251)-14-12-8\Projects\zst /
//                          ack\Samples\SampleApp\Source\rssi_test\c\button.c /
//                          " -D NV_INIT -D NV_RESTORE -D HOLD_AUTO_START -D  /
//                          MT_TASK -D xMT_APP_FUNC -D MT_SYS_FUNC -D         /
//                          MT_ZDO_FUNC -D xMT_ZDO_MGMT -D ISR_KEYINTERRUPT   /
//                          -D POWER_SAVING -D LONG_POLL_TIMES -D             /
//                          HAVE_TEST_FUN -D RESUME_TIME_TEST -D              /
//                          SCEEN_KEYPAD -D M_V332 -lC                        /
//                          "D:\RE_1_2_0_FORMAL_APP(251)-14-12-8\Projects\zst /
//                          ack\Samples\SampleApp\CC2530DB\SCEEN_KEYPAD\List\ /
//                          " -lA "D:\RE_1_2_0_FORMAL_APP(251)-14-12-8\Projec /
//                          ts\zstack\Samples\SampleApp\CC2530DB\SCEEN_KEYPAD /
//                          \List\" --diag_suppress Pe001,Pa010 -o            /
//                          "D:\RE_1_2_0_FORMAL_APP(251)-14-12-8\Projects\zst /
//                          ack\Samples\SampleApp\CC2530DB\SCEEN_KEYPAD\Obj\" /
//                           -e --no_cse --no_unroll --no_inline              /
//                          --no_code_motion --no_tbaa --debug --core=plain   /
//                          --dptr=16,1 --data_model=large                    /
//                          --code_model=banked --calling_convention=xdata_re /
//                          entrant --place_constants=data_rom                /
//                          --nr_virtual_regs 16 -I                           /
//                          "D:\RE_1_2_0_FORMAL_APP(251)-14-12-8\Projects\zst /
//                          ack\Samples\SampleApp\CC2530DB\" -I               /
//                          "D:\RE_1_2_0_FORMAL_APP(251)-14-12-8\Projects\zst /
//                          ack\Samples\SampleApp\CC2530DB\..\Source\" -I     /
//                          "D:\RE_1_2_0_FORMAL_APP(251)-14-12-8\Projects\zst /
//                          ack\Samples\SampleApp\CC2530DB\..\Source\rssi_tes /
//                          t\h\" -I "D:\RE_1_2_0_FORMAL_APP(251)-14-12-8\Pro /
//                          jects\zstack\Samples\SampleApp\CC2530DB\..\Source /
//                          \SCEEN_KEYPAD\" -I "D:\RE_1_2_0_FORMAL_APP(251)-1 /
//                          4-12-8\Projects\zstack\Samples\SampleApp\CC2530DB /
//                          \..\..\..\ZMain\TI2530DB\" -I                     /
//                          "D:\RE_1_2_0_FORMAL_APP(251)-14-12-8\Projects\zst /
//                          ack\Samples\SampleApp\CC2530DB\..\..\..\..\..\Com /
//                          ponents\hal\include\" -I                          /
//                          "D:\RE_1_2_0_FORMAL_APP(251)-14-12-8\Projects\zst /
//                          ack\Samples\SampleApp\CC2530DB\..\..\..\..\..\Com /
//                          ponents\hal\target\CC2530EB\" -I                  /
//                          "D:\RE_1_2_0_FORMAL_APP(251)-14-12-8\Projects\zst /
//                          ack\Samples\SampleApp\CC2530DB\..\..\..\..\..\Com /
//                          ponents\mac\include\" -I                          /
//                          "D:\RE_1_2_0_FORMAL_APP(251)-14-12-8\Projects\zst /
//                          ack\Samples\SampleApp\CC2530DB\..\..\..\..\..\Com /
//                          ponents\mac\high_level\" -I                       /
//                          "D:\RE_1_2_0_FORMAL_APP(251)-14-12-8\Projects\zst /
//                          ack\Samples\SampleApp\CC2530DB\..\..\..\..\..\Com /
//                          ponents\mac\low_level\srf04\" -I                  /
//                          "D:\RE_1_2_0_FORMAL_APP(251)-14-12-8\Projects\zst /
//                          ack\Samples\SampleApp\CC2530DB\..\..\..\..\..\Com /
//                          ponents\mac\low_level\srf04\single_chip\" -I      /
//                          "D:\RE_1_2_0_FORMAL_APP(251)-14-12-8\Projects\zst /
//                          ack\Samples\SampleApp\CC2530DB\..\..\..\..\..\Com /
//                          ponents\mt\" -I "D:\RE_1_2_0_FORMAL_APP(251)-14-1 /
//                          2-8\Projects\zstack\Samples\SampleApp\CC2530DB\.. /
//                          \..\..\..\..\Components\osal\include\" -I         /
//                          "D:\RE_1_2_0_FORMAL_APP(251)-14-12-8\Projects\zst /
//                          ack\Samples\SampleApp\CC2530DB\..\..\..\..\..\Com /
//                          ponents\services\saddr\" -I                       /
//                          "D:\RE_1_2_0_FORMAL_APP(251)-14-12-8\Projects\zst /
//                          ack\Samples\SampleApp\CC2530DB\..\..\..\..\..\Com /
//                          ponents\services\sdata\" -I                       /
//                          "D:\RE_1_2_0_FORMAL_APP(251)-14-12-8\Projects\zst /
//                          ack\Samples\SampleApp\CC2530DB\..\..\..\..\..\Com /
//                          ponents\stack\af\" -I "D:\RE_1_2_0_FORMAL_APP(251 /
//                          )-14-12-8\Projects\zstack\Samples\SampleApp\CC253 /
//                          0DB\..\..\..\..\..\Components\stack\nwk\" -I      /
//                          "D:\RE_1_2_0_FORMAL_APP(251)-14-12-8\Projects\zst /
//                          ack\Samples\SampleApp\CC2530DB\..\..\..\..\..\Com /
//                          ponents\stack\sapi\" -I                           /
//                          "D:\RE_1_2_0_FORMAL_APP(251)-14-12-8\Projects\zst /
//                          ack\Samples\SampleApp\CC2530DB\..\..\..\..\..\Com /
//                          ponents\stack\sec\" -I "D:\RE_1_2_0_FORMAL_APP(25 /
//                          1)-14-12-8\Projects\zstack\Samples\SampleApp\CC25 /
//                          30DB\..\..\..\..\..\Components\stack\sys\" -I     /
//                          "D:\RE_1_2_0_FORMAL_APP(251)-14-12-8\Projects\zst /
//                          ack\Samples\SampleApp\CC2530DB\..\..\..\..\..\Com /
//                          ponents\stack\zdo\" -I "D:\RE_1_2_0_FORMAL_APP(25 /
//                          1)-14-12-8\Projects\zstack\Samples\SampleApp\CC25 /
//                          30DB\..\..\..\..\..\Components\zmac\" -I          /
//                          "D:\RE_1_2_0_FORMAL_APP(251)-14-12-8\Projects\zst /
//                          ack\Samples\SampleApp\CC2530DB\..\..\..\..\..\Com /
//                          ponents\zmac\f8w\" -On --require_prototypes       /
//    List file          =  D:\RE_1_2_0_FORMAL_APP(251)-14-12-8\Projects\zsta /
//                          ck\Samples\SampleApp\CC2530DB\SCEEN_KEYPAD\List\b /
//                          utton.s51                                         /
//                                                                            /
//                                                                            /
///////////////////////////////////////////////////////////////////////////////

        NAME button

        RTMODEL "__SystemLibrary", "CLib"
        RTMODEL "__calling_convention", "xdata_reentrant"
        RTMODEL "__code_model", "banked"
        RTMODEL "__core", "plain"
        RTMODEL "__data_model", "large"
        RTMODEL "__dptr_size", "16"
        RTMODEL "__extended_stack", "disabled"
        RTMODEL "__location_for_constants", "data"
        RTMODEL "__number_of_dptrs", "1"
        RTMODEL "__rt_version", "1"

        RSEG DOVERLAY:DATA:NOROOT(0)
        RSEG IOVERLAY:IDATA:NOROOT(0)
        RSEG ISTACK:IDATA:NOROOT(0)
        RSEG PSTACK:XDATA:NOROOT(0)
        RSEG XSTACK:XDATA:NOROOT(0)

        EXTERN ?BDISPATCH
        EXTERN ?BRET

        PUBLIC ??halButtonInit?relay
        FUNCTION ??halButtonInit?relay,0203H
        PUBLIC ??halButtonPushed?relay
        FUNCTION ??halButtonPushed?relay,0203H
        PUBWEAK P0DIR
        PUBWEAK P0INP
        PUBWEAK P0SEL
        PUBWEAK P2INP
        PUBWEAK _A_P0
        PUBLIC halButtonInit
        FUNCTION halButtonInit,0203H
        ARGFRAME XSTACK, 0, STACK
        PUBLIC halButtonPushed
        FUNCTION halButtonPushed,0203H
        ARGFRAME XSTACK, 0, STACK
        LOCFRAME ISTACK, 2, STACK
        
        CFI Names cfiNames0
        CFI StackFrame CFA_SP SP IDATA
        CFI StackFrame CFA_PSP16 PSP16 XDATA
        CFI StackFrame CFA_XSP16 XSP16 XDATA
        CFI StaticOverlayFrame CFA_IOVERLAY IOVERLAY
        CFI StaticOverlayFrame CFA_DOVERLAY DOVERLAY
        CFI Resource `PSW.CY`:1, `B.BR0`:1, `B.BR1`:1, `B.BR2`:1, `B.BR3`:1
        CFI Resource `B.BR4`:1, `B.BR5`:1, `B.BR6`:1, `B.BR7`:1, `VB.BR8`:1
        CFI Resource `VB.BR9`:1, `VB.BR10`:1, `VB.BR11`:1, `VB.BR12`:1
        CFI Resource `VB.BR13`:1, `VB.BR14`:1, `VB.BR15`:1, VB:8, B:8, A:8
        CFI Resource PSW:8, DPL0:8, DPH0:8, R0:8, R1:8, R2:8, R3:8, R4:8, R5:8
        CFI Resource R6:8, R7:8, V0:8, V1:8, V2:8, V3:8, V4:8, V5:8, V6:8, V7:8
        CFI Resource V8:8, V9:8, V10:8, V11:8, V12:8, V13:8, V14:8, V15:8, SP:8
        CFI Resource PSPH:8, PSPL:8, PSP16:16, XSPH:8, XSPL:8, XSP16:16
        CFI VirtualResource ?RET:24
        CFI Resource ?BRET_EXT:8
        CFI VirtualResource ?RET_HIGH:8, ?RET_LOW:8
        CFI ResourceParts PSP16 PSPH, PSPL
        CFI ResourceParts XSP16 XSPH, XSPL
        CFI ResourceParts ?RET ?BRET_EXT, ?RET_HIGH, ?RET_LOW
        CFI EndNames cfiNames0
        
        CFI Common cfiCommon0 Using cfiNames0
        CFI CodeAlign 1
        CFI DataAlign -1
        CFI ReturnAddress ?RET CODE
        CFI CFA_DOVERLAY Used
        CFI CFA_IOVERLAY Used
        CFI CFA_SP SP+-3
        CFI CFA_PSP16 PSP16+0
        CFI CFA_XSP16 XSP16+0
        CFI `PSW.CY` SameValue
        CFI `B.BR0` SameValue
        CFI `B.BR1` SameValue
        CFI `B.BR2` SameValue
        CFI `B.BR3` SameValue
        CFI `B.BR4` SameValue
        CFI `B.BR5` SameValue
        CFI `B.BR6` SameValue
        CFI `B.BR7` SameValue
        CFI `VB.BR8` SameValue
        CFI `VB.BR9` SameValue
        CFI `VB.BR10` SameValue
        CFI `VB.BR11` SameValue
        CFI `VB.BR12` SameValue
        CFI `VB.BR13` SameValue
        CFI `VB.BR14` SameValue
        CFI `VB.BR15` SameValue
        CFI VB SameValue
        CFI B Undefined
        CFI A Undefined
        CFI PSW SameValue
        CFI DPL0 SameValue
        CFI DPH0 SameValue
        CFI R0 Undefined
        CFI R1 Undefined
        CFI R2 Undefined
        CFI R3 Undefined
        CFI R4 Undefined
        CFI R5 Undefined
        CFI R6 SameValue
        CFI R7 SameValue
        CFI V0 SameValue
        CFI V1 SameValue
        CFI V2 SameValue
        CFI V3 SameValue
        CFI V4 SameValue
        CFI V5 SameValue
        CFI V6 SameValue
        CFI V7 SameValue
        CFI V8 SameValue
        CFI V9 SameValue
        CFI V10 SameValue
        CFI V11 SameValue
        CFI V12 SameValue
        CFI V13 SameValue
        CFI V14 SameValue
        CFI V15 SameValue
        CFI PSPH Undefined
        CFI PSPL Undefined
        CFI XSPH Undefined
        CFI XSPL Undefined
        CFI ?RET Concat
        CFI ?BRET_EXT Frame(CFA_SP, 3)
        CFI ?RET_HIGH Frame(CFA_SP, 2)
        CFI ?RET_LOW Frame(CFA_SP, 1)
        CFI EndCommon cfiCommon0
        
halButtonInit       SYMBOL "halButtonInit"
??halButtonInit?relay SYMBOL "?relay", halButtonInit
halButtonPushed     SYMBOL "halButtonPushed"
??halButtonPushed?relay SYMBOL "?relay", halButtonPushed

        EXTERN led4State

// D:\RE_1_2_0_FORMAL_APP(251)-14-12-8\Projects\zstack\Samples\SampleApp\Source\rssi_test\c\button.c
//    1 /***********************************************************************************
//    2     Filename:     hal_button.c
//    3 
//    4     Description:  HAL button implementation for CCSoC + SmartRF05EB
//    5 
//    6     Copyright 2007 Texas Instruments, Inc.
//    7 ***********************************************************************************/
//    8 #include "hal_types.h"
//    9 #include "board.h"

        ASEGN SFR_AN:DATA:NOROOT,080H
// union <unnamed> volatile __sfr _A_P0
_A_P0:
        DATA8
        DS 1

        ASEGN SFR_AN:DATA:NOROOT,08fH
// unsigned char volatile __sfr P0INP
P0INP:
        DATA8
        DS 1

        ASEGN SFR_AN:DATA:NOROOT,0f3H
// unsigned char volatile __sfr P0SEL
P0SEL:
        DATA8
        DS 1

        ASEGN SFR_AN:DATA:NOROOT,0f7H
// unsigned char volatile __sfr P2INP
P2INP:
        DATA8
        DS 1

        ASEGN SFR_AN:DATA:NOROOT,0fdH
// unsigned char volatile __sfr P0DIR
P0DIR:
        DATA8
        DS 1
//   10 #include "button.h"
//   11 #include "cc8051.h"
//   12 
//   13 
//   14 /******************************************************************************
//   15 * @fn  halButtonInit
//   16 *
//   17 * @brief
//   18 *      Initializes the button functionality
//   19 *
//   20 * Parameters:
//   21 *
//   22 * @param  void
//   23 *
//   24 * @return void
//   25 *
//   26 ******************************************************************************/

        RSEG BANKED_CODE:CODE:NOROOT(0)
//   27 void halButtonInit(void)
halButtonInit:
        CFI Block cfiBlock0 Using cfiCommon0
        CFI Function halButtonInit
        CODE
//   28 {
        ; Saved register size: 0
        ; Auto size: 0
//   29     // Button push input
//   30     MCU_IO_INPUT(HAL_BOARD_IO_BTN_1_PORT, HAL_BOARD_IO_BTN_1_PIN, MCU_IO_TRISTATE);
        ANL     0xf3,#0xfd
        ANL     0xfd,#0xfd
        ORL     0x8f,#0x2
//   31 }
        LJMP    ?BRET
        CFI EndBlock cfiBlock0
        REQUIRE P0SEL
        REQUIRE P0DIR
        REQUIRE P0INP
        REQUIRE P2INP
//   32 
//   33 
//   34 /******************************************************************************
//   35 * @fn  halButtonPushed
//   36 *
//   37 * @brief
//   38 *      This function detects if 'S1' is being pushed. The function
//   39 *      implements software debounce. Return true only if previuosly called
//   40 *      with button not pushed. Return true only once each time the button
//   41 *      is pressed.
//   42 *
//   43 * Parameters:
//   44 *
//   45 * @param  void
//   46 *
//   47 * @return uint8
//   48 *          1: Button is being pushed
//   49 *          0: Button is not being pushed
//   50 *
//   51 ******************************************************************************/

        RSEG BANKED_CODE:CODE:NOROOT(0)
//   52 uint8 halButtonPushed(void)
halButtonPushed:
        CFI Block cfiBlock1 Using cfiCommon0
        CFI Function halButtonPushed
        CODE
//   53 {
        PUSH    DPL
        CFI DPL0 Frame(CFA_SP, 4)
        CFI CFA_SP SP+-4
        PUSH    DPH
        CFI DPH0 Frame(CFA_SP, 5)
        CFI CFA_SP SP+-5
        ; Saved register size: 2
        ; Auto size: 0
//   54     extern volatile uint8 led4State;
//   55 
//   56     uint8        v= HAL_BUTTON_NONE;
        MOV     R1,#0x0
//   57 
//   58 #ifdef SRF05EB_VERSION_1_3
//   59     if (HAL_BUTTON_1_PUSHED()) {
//   60         HAL_DEBOUNCE(!HAL_BUTTON_1_PUSHED());
//   61         v= HAL_BUTTON_1;
//   62     }
//   63 
//   64 #else
//   65 
//   66     // Need to set direction because the button is shared with LED4 on SmartRF05EB rev 1.7+
//   67     MCU_IO_INPUT(HAL_BOARD_IO_BTN_1_PORT, HAL_BOARD_IO_BTN_1_PIN, MCU_IO_TRISTATE);
        ANL     0xf3,#0xfd
        ANL     0xfd,#0xfd
        ORL     0x8f,#0x2
//   68 
//   69     if (HAL_BUTTON_1_PUSHED()) {
        MOV     C,0x80.1
        JNC     ??halButtonPushed_0
//   70         HAL_DEBOUNCE(!HAL_BUTTON_1_PUSHED());
        MOV     R2,#0x0
        MOV     R3,#0x0
??halButtonPushed_1:
        CLR     C
        MOV     A,R2
        SUBB    A,#-0xc
        MOV     A,R3
        SUBB    A,#0x1
        MOV     C,0xD0 /* PSW */.2
        XRL     A,PSW
        RLC     A
        JNC     ??halButtonPushed_2
        MOV     C,0x80.1
        JNC     ??halButtonPushed_3
        MOV     R2,#0x0
        MOV     R3,#0x0
??halButtonPushed_3:
        MOV     A,R2
        ADD     A,#0x1
        MOV     R2,A
        MOV     A,R3
        ADDC    A,#0x0
        MOV     R3,A
        SJMP    ??halButtonPushed_1
//   71         v= HAL_BUTTON_1;
??halButtonPushed_2:
        MOV     R1,#0x1
//   72     }
//   73 
//   74     // Restore for use with LED
//   75     MCU_IO_OUTPUT(HAL_BOARD_IO_LED_4_PORT, HAL_BOARD_IO_LED_4_PIN, led4State);
??halButtonPushed_0:
        ANL     0xf3,#0xfd
        MOV     DPTR,#led4State
        MOVX    A,@DPTR
        MOV     C,0xE0 /* A   */.0
        MOV     0x80.1,C
        ORL     0xfd,#0x2
//   76 #endif
//   77 
//   78     return v;
        POP     DPH
        CFI DPH0 SameValue
        CFI CFA_SP SP+-4
        POP     DPL
        CFI DPL0 SameValue
        CFI CFA_SP SP+-3
        LJMP    ?BRET
        CFI EndBlock cfiBlock1
        REQUIRE P0SEL
        REQUIRE P0DIR
        REQUIRE P0INP
        REQUIRE P2INP
        REQUIRE _A_P0
//   79 }

        RSEG BANK_RELAYS:CODE:REORDER:NOROOT(0)
??halButtonInit?relay:
        LCALL   ?BDISPATCH
        DATA
        DC24    halButtonInit

        RSEG BANK_RELAYS:CODE:REORDER:NOROOT(0)
??halButtonPushed?relay:
        LCALL   ?BDISPATCH
        DATA
        DC24    halButtonPushed

        END
// 
// 90 bytes in segment BANKED_CODE
// 12 bytes in segment BANK_RELAYS
//  5 bytes in segment SFR_AN
// 
// 102 bytes of CODE memory
//   0 bytes of DATA memory (+ 5 bytes shared)
//
//Errors: none
//Warnings: none
