///////////////////////////////////////////////////////////////////////////////
//                                                                            /
// IAR C/C++ Compiler V8.10.1.10194/W32 for 8051        11/Dec/2014  16:16:16 /
// Copyright 2004-2011 IAR Systems AB.                                        /
//                                                                            /
//    Core               =  plain                                             /
//    Code model         =  banked                                            /
//    Data model         =  large                                             /
//    Calling convention =  xdata reentrant                                   /
//    Constant location  =  data_rom                                          /
//    Dptr setup         =  1,16                                              /
//    Source file        =  D:\RE_1_2_0_FORMAL_APP(251)-14-12-8\Projects\zsta /
//                          ck\Samples\SampleApp\Source\rssi_test\c\clock.c   /
//    Command line       =  -f "D:\RE_1_2_0_FORMAL_APP(251)-14-12-8\Projects\ /
//                          zstack\Samples\SampleApp\CC2530DB\..\..\..\Tools\ /
//                          CC2530DB\f8wEndev.cfg" (-DCPU32MHZ                /
//                          -DROOT=__near_func -DMAC_CFG_TX_DATA_MAX=3        /
//                          -DMAC_CFG_TX_MAX=6 -DMAC_CFG_RX_MAX=3) -f         /
//                          "D:\RE_1_2_0_FORMAL_APP(251)-14-12-8\Projects\zst /
//                          ack\Samples\SampleApp\CC2530DB\..\..\..\Tools\CC2 /
//                          530DB\f8wConfig.cfg" (-DZIGBEEPRO -DSECURE=1      /
//                          -DZG_SECURE_DYNAMIC=0 -DREFLECTOR                 /
//                          -DZDAPP_CONFIG_PAN_ID=0xFFFF                      /
//                          -DNWK_START_DELAY=100 -DEXTENDED_JOINING_RANDOM_M /
//                          ASK=0x007F -DBEACON_REQUEST_DELAY=100             /
//                          -DBEACON_REQ_DELAY_MASK=0x00FF                    /
//                          -DLINK_STATUS_JITTER_MASK=0x007F                  /
//                          -DROUTE_EXPIRY_TIME=30 -DAPSC_ACK_WAIT_DURATION_P /
//                          OLLED=3000 -DNWK_INDIRECT_MSG_TIMEOUT=60          /
//                          -DMAX_RREQ_ENTRIES=8 -DAPSC_MAX_FRAME_RETRIES=3   /
//                          -DNWK_MAX_DATA_RETRIES=2                          /
//                          -DMAX_POLL_FAILURE_RETRIES=2 -DMAX_BCAST=9        /
//                          -DAPS_MAX_GROUPS=16 -DMAX_RTG_ENTRIES=30          /
//                          -DNWK_MAX_BINDING_ENTRIES=1                       /
//                          -DMAX_BINDING_CLUSTER_IDS=4 -DASSERT_RESET        /
//                          -DMAC_MAX_FRAME_SIZE=116                          /
//                          -DZDNWKMGR_MIN_TRANSMISSIONS=20 "-DCONST=const    /
//                          __code" -DGENERIC=__generic                       /
//                          -DRFD_RCVC_ALWAYS_ON=FALSE -DPOLL_RATE=8000       /
//                          -DQUEUED_POLL_RATE=100 -DRESPONSE_POLL_RATE=1000) /
//                           -DREJOIN_POLL_RATE=440                           /
//                          "D:\RE_1_2_0_FORMAL_APP(251)-14-12-8\Projects\zst /
//                          ack\Samples\SampleApp\Source\rssi_test\c\clock.c" /
//                           -D NV_INIT -D NV_RESTORE -D HOLD_AUTO_START -D   /
//                          MT_TASK -D xMT_APP_FUNC -D MT_SYS_FUNC -D         /
//                          MT_ZDO_FUNC -D xMT_ZDO_MGMT -D ISR_KEYINTERRUPT   /
//                          -D POWER_SAVING -D LONG_POLL_TIMES -D             /
//                          HAVE_TEST_FUN -D RESUME_TIME_TEST -D              /
//                          SCEEN_KEYPAD -D M_V332 -lC                        /
//                          "D:\RE_1_2_0_FORMAL_APP(251)-14-12-8\Projects\zst /
//                          ack\Samples\SampleApp\CC2530DB\SCEEN_KEYPAD\List\ /
//                          " -lA "D:\RE_1_2_0_FORMAL_APP(251)-14-12-8\Projec /
//                          ts\zstack\Samples\SampleApp\CC2530DB\SCEEN_KEYPAD /
//                          \List\" --diag_suppress Pe001,Pa010 -o            /
//                          "D:\RE_1_2_0_FORMAL_APP(251)-14-12-8\Projects\zst /
//                          ack\Samples\SampleApp\CC2530DB\SCEEN_KEYPAD\Obj\" /
//                           -e --no_cse --no_unroll --no_inline              /
//                          --no_code_motion --no_tbaa --debug --core=plain   /
//                          --dptr=16,1 --data_model=large                    /
//                          --code_model=banked --calling_convention=xdata_re /
//                          entrant --place_constants=data_rom                /
//                          --nr_virtual_regs 16 -I                           /
//                          "D:\RE_1_2_0_FORMAL_APP(251)-14-12-8\Projects\zst /
//                          ack\Samples\SampleApp\CC2530DB\" -I               /
//                          "D:\RE_1_2_0_FORMAL_APP(251)-14-12-8\Projects\zst /
//                          ack\Samples\SampleApp\CC2530DB\..\Source\" -I     /
//                          "D:\RE_1_2_0_FORMAL_APP(251)-14-12-8\Projects\zst /
//                          ack\Samples\SampleApp\CC2530DB\..\Source\rssi_tes /
//                          t\h\" -I "D:\RE_1_2_0_FORMAL_APP(251)-14-12-8\Pro /
//                          jects\zstack\Samples\SampleApp\CC2530DB\..\Source /
//                          \SCEEN_KEYPAD\" -I "D:\RE_1_2_0_FORMAL_APP(251)-1 /
//                          4-12-8\Projects\zstack\Samples\SampleApp\CC2530DB /
//                          \..\..\..\ZMain\TI2530DB\" -I                     /
//                          "D:\RE_1_2_0_FORMAL_APP(251)-14-12-8\Projects\zst /
//                          ack\Samples\SampleApp\CC2530DB\..\..\..\..\..\Com /
//                          ponents\hal\include\" -I                          /
//                          "D:\RE_1_2_0_FORMAL_APP(251)-14-12-8\Projects\zst /
//                          ack\Samples\SampleApp\CC2530DB\..\..\..\..\..\Com /
//                          ponents\hal\target\CC2530EB\" -I                  /
//                          "D:\RE_1_2_0_FORMAL_APP(251)-14-12-8\Projects\zst /
//                          ack\Samples\SampleApp\CC2530DB\..\..\..\..\..\Com /
//                          ponents\mac\include\" -I                          /
//                          "D:\RE_1_2_0_FORMAL_APP(251)-14-12-8\Projects\zst /
//                          ack\Samples\SampleApp\CC2530DB\..\..\..\..\..\Com /
//                          ponents\mac\high_level\" -I                       /
//                          "D:\RE_1_2_0_FORMAL_APP(251)-14-12-8\Projects\zst /
//                          ack\Samples\SampleApp\CC2530DB\..\..\..\..\..\Com /
//                          ponents\mac\low_level\srf04\" -I                  /
//                          "D:\RE_1_2_0_FORMAL_APP(251)-14-12-8\Projects\zst /
//                          ack\Samples\SampleApp\CC2530DB\..\..\..\..\..\Com /
//                          ponents\mac\low_level\srf04\single_chip\" -I      /
//                          "D:\RE_1_2_0_FORMAL_APP(251)-14-12-8\Projects\zst /
//                          ack\Samples\SampleApp\CC2530DB\..\..\..\..\..\Com /
//                          ponents\mt\" -I "D:\RE_1_2_0_FORMAL_APP(251)-14-1 /
//                          2-8\Projects\zstack\Samples\SampleApp\CC2530DB\.. /
//                          \..\..\..\..\Components\osal\include\" -I         /
//                          "D:\RE_1_2_0_FORMAL_APP(251)-14-12-8\Projects\zst /
//                          ack\Samples\SampleApp\CC2530DB\..\..\..\..\..\Com /
//                          ponents\services\saddr\" -I                       /
//                          "D:\RE_1_2_0_FORMAL_APP(251)-14-12-8\Projects\zst /
//                          ack\Samples\SampleApp\CC2530DB\..\..\..\..\..\Com /
//                          ponents\services\sdata\" -I                       /
//                          "D:\RE_1_2_0_FORMAL_APP(251)-14-12-8\Projects\zst /
//                          ack\Samples\SampleApp\CC2530DB\..\..\..\..\..\Com /
//                          ponents\stack\af\" -I "D:\RE_1_2_0_FORMAL_APP(251 /
//                          )-14-12-8\Projects\zstack\Samples\SampleApp\CC253 /
//                          0DB\..\..\..\..\..\Components\stack\nwk\" -I      /
//                          "D:\RE_1_2_0_FORMAL_APP(251)-14-12-8\Projects\zst /
//                          ack\Samples\SampleApp\CC2530DB\..\..\..\..\..\Com /
//                          ponents\stack\sapi\" -I                           /
//                          "D:\RE_1_2_0_FORMAL_APP(251)-14-12-8\Projects\zst /
//                          ack\Samples\SampleApp\CC2530DB\..\..\..\..\..\Com /
//                          ponents\stack\sec\" -I "D:\RE_1_2_0_FORMAL_APP(25 /
//                          1)-14-12-8\Projects\zstack\Samples\SampleApp\CC25 /
//                          30DB\..\..\..\..\..\Components\stack\sys\" -I     /
//                          "D:\RE_1_2_0_FORMAL_APP(251)-14-12-8\Projects\zst /
//                          ack\Samples\SampleApp\CC2530DB\..\..\..\..\..\Com /
//                          ponents\stack\zdo\" -I "D:\RE_1_2_0_FORMAL_APP(25 /
//                          1)-14-12-8\Projects\zstack\Samples\SampleApp\CC25 /
//                          30DB\..\..\..\..\..\Components\zmac\" -I          /
//                          "D:\RE_1_2_0_FORMAL_APP(251)-14-12-8\Projects\zst /
//                          ack\Samples\SampleApp\CC2530DB\..\..\..\..\..\Com /
//                          ponents\zmac\f8w\" -On --require_prototypes       /
//    List file          =  D:\RE_1_2_0_FORMAL_APP(251)-14-12-8\Projects\zsta /
//                          ck\Samples\SampleApp\CC2530DB\SCEEN_KEYPAD\List\c /
//                          lock.s51                                          /
//                                                                            /
//                                                                            /
///////////////////////////////////////////////////////////////////////////////

        NAME clock

        RTMODEL "__SystemLibrary", "CLib"
        RTMODEL "__calling_convention", "xdata_reentrant"
        RTMODEL "__code_model", "banked"
        RTMODEL "__core", "plain"
        RTMODEL "__data_model", "large"
        RTMODEL "__dptr_size", "16"
        RTMODEL "__extended_stack", "disabled"
        RTMODEL "__location_for_constants", "data"
        RTMODEL "__number_of_dptrs", "1"
        RTMODEL "__rt_version", "1"

        RSEG DOVERLAY:DATA:NOROOT(0)
        RSEG IOVERLAY:IDATA:NOROOT(0)
        RSEG ISTACK:IDATA:NOROOT(0)
        RSEG PSTACK:XDATA:NOROOT(0)
        RSEG XSTACK:XDATA:NOROOT(0)

        EXTERN ?BDISPATCH
        EXTERN ?BRET

        PUBLIC ??clockSelect32k?relay
        FUNCTION ??clockSelect32k?relay,0203H
        PUBLIC ??clockSetMainSrc?relay
        FUNCTION ??clockSetMainSrc?relay,0203H
        PUBWEAK CLKCONCMD
        PUBWEAK CLKCONSTA
        PUBWEAK SLEEPCMD
        PUBWEAK SLEEPSTA
        PUBLIC clockSelect32k
        FUNCTION clockSelect32k,0203H
        ARGFRAME XSTACK, 0, STACK
        PUBLIC clockSetMainSrc
        FUNCTION clockSetMainSrc,080203H
        ARGFRAME XSTACK, 0, STACK
        
        CFI Names cfiNames0
        CFI StackFrame CFA_SP SP IDATA
        CFI StackFrame CFA_PSP16 PSP16 XDATA
        CFI StackFrame CFA_XSP16 XSP16 XDATA
        CFI StaticOverlayFrame CFA_IOVERLAY IOVERLAY
        CFI StaticOverlayFrame CFA_DOVERLAY DOVERLAY
        CFI Resource `PSW.CY`:1, `B.BR0`:1, `B.BR1`:1, `B.BR2`:1, `B.BR3`:1
        CFI Resource `B.BR4`:1, `B.BR5`:1, `B.BR6`:1, `B.BR7`:1, `VB.BR8`:1
        CFI Resource `VB.BR9`:1, `VB.BR10`:1, `VB.BR11`:1, `VB.BR12`:1
        CFI Resource `VB.BR13`:1, `VB.BR14`:1, `VB.BR15`:1, VB:8, B:8, A:8
        CFI Resource PSW:8, DPL0:8, DPH0:8, R0:8, R1:8, R2:8, R3:8, R4:8, R5:8
        CFI Resource R6:8, R7:8, V0:8, V1:8, V2:8, V3:8, V4:8, V5:8, V6:8, V7:8
        CFI Resource V8:8, V9:8, V10:8, V11:8, V12:8, V13:8, V14:8, V15:8, SP:8
        CFI Resource PSPH:8, PSPL:8, PSP16:16, XSPH:8, XSPL:8, XSP16:16
        CFI VirtualResource ?RET:24
        CFI Resource ?BRET_EXT:8
        CFI VirtualResource ?RET_HIGH:8, ?RET_LOW:8
        CFI ResourceParts PSP16 PSPH, PSPL
        CFI ResourceParts XSP16 XSPH, XSPL
        CFI ResourceParts ?RET ?BRET_EXT, ?RET_HIGH, ?RET_LOW
        CFI EndNames cfiNames0
        
        CFI Common cfiCommon0 Using cfiNames0
        CFI CodeAlign 1
        CFI DataAlign -1
        CFI ReturnAddress ?RET CODE
        CFI CFA_DOVERLAY Used
        CFI CFA_IOVERLAY Used
        CFI CFA_SP SP+-3
        CFI CFA_PSP16 PSP16+0
        CFI CFA_XSP16 XSP16+0
        CFI `PSW.CY` SameValue
        CFI `B.BR0` SameValue
        CFI `B.BR1` SameValue
        CFI `B.BR2` SameValue
        CFI `B.BR3` SameValue
        CFI `B.BR4` SameValue
        CFI `B.BR5` SameValue
        CFI `B.BR6` SameValue
        CFI `B.BR7` SameValue
        CFI `VB.BR8` SameValue
        CFI `VB.BR9` SameValue
        CFI `VB.BR10` SameValue
        CFI `VB.BR11` SameValue
        CFI `VB.BR12` SameValue
        CFI `VB.BR13` SameValue
        CFI `VB.BR14` SameValue
        CFI `VB.BR15` SameValue
        CFI VB SameValue
        CFI B Undefined
        CFI A Undefined
        CFI PSW SameValue
        CFI DPL0 SameValue
        CFI DPH0 SameValue
        CFI R0 Undefined
        CFI R1 Undefined
        CFI R2 Undefined
        CFI R3 Undefined
        CFI R4 Undefined
        CFI R5 Undefined
        CFI R6 SameValue
        CFI R7 SameValue
        CFI V0 SameValue
        CFI V1 SameValue
        CFI V2 SameValue
        CFI V3 SameValue
        CFI V4 SameValue
        CFI V5 SameValue
        CFI V6 SameValue
        CFI V7 SameValue
        CFI V8 SameValue
        CFI V9 SameValue
        CFI V10 SameValue
        CFI V11 SameValue
        CFI V12 SameValue
        CFI V13 SameValue
        CFI V14 SameValue
        CFI V15 SameValue
        CFI PSPH Undefined
        CFI PSPL Undefined
        CFI XSPH Undefined
        CFI XSPL Undefined
        CFI ?RET Concat
        CFI ?BRET_EXT Frame(CFA_SP, 3)
        CFI ?RET_HIGH Frame(CFA_SP, 2)
        CFI ?RET_LOW Frame(CFA_SP, 1)
        CFI EndCommon cfiCommon0
        
clockSelect32k      SYMBOL "clockSelect32k"
??clockSelect32k?relay SYMBOL "?relay", clockSelect32k
clockSetMainSrc     SYMBOL "clockSetMainSrc"
??clockSetMainSrc?relay SYMBOL "?relay", clockSetMainSrc

// D:\RE_1_2_0_FORMAL_APP(251)-14-12-8\Projects\zstack\Samples\SampleApp\Source\rssi_test\c\clock.c
//    1 /******************************************************************************
//    2     Filename: clock.c
//    3 
//    4     This file defines clock related functions for the CC253x family
//    5     of RF system-on-chips from Texas Instruments.
//    6 
//    7 ******************************************************************************/
//    8 
//    9 /*******************************************************************************
//   10  * INCLUDES
//   11  */
//   12 
//   13 #include "clock.h"
//   14 #include "hal_defs.h"
//   15 #include "mcu.h"
//   16 #include "comdef.h"
//   17    #include "hal_types.h"
//   18    #include "ioCC2530.h"

        ASEGN SFR_AN:DATA:NOROOT,09dH
// unsigned char volatile __sfr SLEEPSTA
SLEEPSTA:
        DATA8
        DS 1

        ASEGN SFR_AN:DATA:NOROOT,09eH
// unsigned char volatile __sfr CLKCONSTA
CLKCONSTA:
        DATA8
        DS 1

        ASEGN SFR_AN:DATA:NOROOT,0beH
// unsigned char volatile __sfr SLEEPCMD
SLEEPCMD:
        DATA8
        DS 1

        ASEGN SFR_AN:DATA:NOROOT,0c6H
// unsigned char volatile __sfr CLKCONCMD
CLKCONCMD:
        DATA8
        DS 1
//   19 /*******************************************************************************
//   20  * PUBLIC FUNCTIONS
//   21  */
//   22 
//   23 
//   24 /******************************************************************************
//   25 * @fn  clockSetMainSrc
//   26 *
//   27 * @brief  Function for setting the main system clock source.
//   28 *         The function turns off the clock source that is not being used.
//   29 *         TICKSPD is set to the same frequency as the source.
//   30 *
//   31 * @param  uint8 source (one of CLOCK_SRC_HFRC or CLOCK_SRC_XOSC)
//   32 *
//   33 * @return void
//   34 *
//   35 ******************************************************************************/

        RSEG BANKED_CODE:CODE:NOROOT(0)
//   36 void clockSetMainSrc(uint8 source)
clockSetMainSrc:
        CFI Block cfiBlock0 Using cfiCommon0
        CFI Function clockSetMainSrc
        CODE
//   37 {
        ; Saved register size: 0
        ; Auto size: 0
//   38     register uint8 osc32k_bm = CLKCONCMD & CLKCON_OSC32K_BM;
        MOV     A,0xc6
        ANL     A,#0x80
        MOV     R0,A
//   39 
//   40     // Source can have the following values:
//   41     // CLOCK_SRC_XOSC   0x00  High speed Crystal Oscillator (XOSC)
//   42     // CLOCK_SRC_HFRC   0x01  Low power RC Oscillator (HFRC)
//   43     
//   44     SLEEPCMD &= ~SLEEP_OSC_PD_BM;       // power up both oscillators
        ANL     0xbe,#0xfb
//   45     while (!CC2530_IS_HFRC_STABLE() || ((SLEEPSTA & SLEEP_OSC_PD_BM)!=0));// wait until the oscillator is stable
??clockSetMainSrc_0:
        MOV     A,0x9d
        MOV     C,0xE0 /* A   */.5
        JNC     ??clockSetMainSrc_0
        MOV     A,0x9d
        MOV     C,0xE0 /* A   */.2
        JC      ??clockSetMainSrc_0
//   46     ASM_NOP;
        NOP
//   47 
//   48     if (source == CLOCK_SRC_HFRC){
        MOV     A,#0x1
        XRL     A,R1
        JNZ     ??clockSetMainSrc_1
//   49         CLKCONCMD = (osc32k_bm | CLKCON_OSC_BM | TICKSPD_DIV_2 | CLKCON_CLKSPD_BM);
        MOV     A,#0x49
        ORL     A,R0
        MOV     0xc6,A
        SJMP    ??clockSetMainSrc_2
//   50     }
//   51     else if (source == CLOCK_SRC_XOSC){
??clockSetMainSrc_1:
        MOV     A,R1
        JNZ     ??clockSetMainSrc_2
//   52         CLKCONCMD = (osc32k_bm | TICKSPD_DIV_1);
        MOV     0xc6,R0
//   53     }
//   54     CC2530_WAIT_CLK_UPDATE();
??clockSetMainSrc_2:
        MOV     A,0xc6
        MOV     R2,A
??clockSetMainSrc_3:
        MOV     A,0x9e
        MOV     R3,A
        MOV     A,R2
        XRL     A,R3
        JNZ     ??clockSetMainSrc_3
//   55     SLEEPCMD |= SLEEP_OSC_PD_BM;        // power down the unused oscillator
        ORL     0xbe,#0x4
//   56 }
        LJMP    ?BRET
        CFI EndBlock cfiBlock0
        REQUIRE CLKCONCMD
        REQUIRE SLEEPCMD
        REQUIRE SLEEPSTA
        REQUIRE CLKCONSTA
//   57 
//   58 /******************************************************************************
//   59 * @fn  clockSelect32k
//   60 *
//   61 * @brief  Function for selecting source for the 32kHz oscillator
//   62 *
//   63 * @param  uint8 source (one of CLOCK_32K_XTAL or CLOCK_32K_RCOSC)
//   64 *
//   65 * @return uint8 - SUCCESS or FAILED
//   66 *
//   67 ******************************************************************************/

        RSEG BANKED_CODE:CODE:NOROOT(0)
//   68 uint8 clockSelect32k(uint8 source)
clockSelect32k:
        CFI Block cfiBlock1 Using cfiCommon0
        CFI Function clockSelect32k
        CODE
//   69 {
        ; Saved register size: 0
        ; Auto size: 0
        MOV     A,R1
        MOV     R0,A
//   70     // System clock source must be high frequency RC oscillator before
//   71     // changing 32K source. 
//   72     if( !(CLKCONSTA & CLKCON_OSC_BM) )
        MOV     A,0x9e
        MOV     C,0xE0 /* A   */.6
        JC      ??clockSelect32k_0
//   73       return FAILURE;
        MOV     R1,#0x1
        SJMP    ??clockSelect32k_1
//   74     
//   75     if (source == CLOCK_32K_XTAL){
??clockSelect32k_0:
        MOV     A,R0
        JNZ     ??clockSelect32k_2
//   76         CLKCONCMD &= ~CLKCON_OSC32K_BM;
        ANL     0xc6,#0x7f
        SJMP    ??clockSelect32k_3
//   77     }
//   78     else if (source == CLOCK_32K_RCOSC){
??clockSelect32k_2:
        MOV     A,#0x1
        XRL     A,R0
        JNZ     ??clockSelect32k_3
//   79         CLKCONCMD |= CLKCON_OSC32K_BM;
        ORL     0xc6,#0x80
//   80     }
//   81     CC2530_WAIT_CLK_UPDATE();
??clockSelect32k_3:
        MOV     A,0xc6
        MOV     R1,A
??clockSelect32k_4:
        MOV     A,0x9e
        MOV     R2,A
        MOV     A,R1
        XRL     A,R2
        JNZ     ??clockSelect32k_4
//   82     
//   83     return SUCCESS;
        MOV     R1,#0x0
??clockSelect32k_1:
        LJMP    ?BRET
        CFI EndBlock cfiBlock1
        REQUIRE CLKCONSTA
        REQUIRE CLKCONCMD
//   84 }

        RSEG BANK_RELAYS:CODE:REORDER:NOROOT(0)
??clockSetMainSrc?relay:
        LCALL   ?BDISPATCH
        DATA
        DC24    clockSetMainSrc

        RSEG BANK_RELAYS:CODE:REORDER:NOROOT(0)
??clockSelect32k?relay:
        LCALL   ?BDISPATCH
        DATA
        DC24    clockSelect32k

        END
//   85 
//   86 /***********************************************************************************
//   87   Copyright 2007 Texas Instruments Incorporated. All rights reserved.
//   88 
//   89   IMPORTANT: Your use of this Software is limited to those specific rights
//   90   granted under the terms of a software license agreement between the user
//   91   who downloaded the software, his/her employer (which must be your employer)
//   92   and Texas Instruments Incorporated (the "License").  You may not use this
//   93   Software unless you agree to abide by the terms of the License. The License
//   94   limits your use, and you acknowledge, that the Software may not be modified,
//   95   copied or distributed unless embedded on a Texas Instruments microcontroller
//   96   or used solely and exclusively in conjunction with a Texas Instruments radio
//   97   frequency transceiver, which is integrated into your product.  Other than for
//   98   the foregoing purpose, you may not use, reproduce, copy, prepare derivative
//   99   works of, modify, distribute, perform, display or sell this Software and/or
//  100   its documentation for any purpose.
//  101 
//  102   YOU FURTHER ACKNOWLEDGE AND AGREE THAT THE SOFTWARE AND DOCUMENTATION ARE
//  103   PROVIDED “AS IS” WITHOUT WARRANTY OF ANY KIND, EITHER EXPRESS OR IMPLIED,
//  104   INCLUDING WITHOUT LIMITATION, ANY WARRANTY OF MERCHANTABILITY, TITLE,
//  105   NON-INFRINGEMENT AND FITNESS FOR A PARTICULAR PURPOSE. IN NO EVENT SHALL
//  106   TEXAS INSTRUMENTS OR ITS LICENSORS BE LIABLE OR OBLIGATED UNDER CONTRACT,
//  107   NEGLIGENCE, STRICT LIABILITY, CONTRIBUTION, BREACH OF WARRANTY, OR OTHER
//  108   LEGAL EQUITABLE THEORY ANY DIRECT OR INDIRECT DAMAGES OR EXPENSES
//  109   INCLUDING BUT NOT LIMITED TO ANY INCIDENTAL, SPECIAL, INDIRECT, PUNITIVE
//  110   OR CONSEQUENTIAL DAMAGES, LOST PROFITS OR LOST DATA, COST OF PROCUREMENT
//  111   OF SUBSTITUTE GOODS, TECHNOLOGY, SERVICES, OR ANY CLAIMS BY THIRD PARTIES
//  112   (INCLUDING BUT NOT LIMITED TO ANY DEFENSE THEREOF), OR OTHER SIMILAR COSTS.
//  113 
//  114   Should you have any questions regarding your right to use this Software,
//  115   contact Texas Instruments Incorporated at www.TI.com.
//  116 ***********************************************************************************/
// 
// 97 bytes in segment BANKED_CODE
// 12 bytes in segment BANK_RELAYS
//  4 bytes in segment SFR_AN
// 
// 109 bytes of CODE memory
//   0 bytes of DATA memory (+ 4 bytes shared)
//
//Errors: none
//Warnings: none
