///////////////////////////////////////////////////////////////////////////////
//                                                                            /
// IAR C/C++ Compiler V8.10.1.10194/W32 for 8051        11/Feb/2015  16:51:49 /
// Copyright 2004-2011 IAR Systems AB.                                        /
//                                                                            /
//    Core               =  plain                                             /
//    Code model         =  banked                                            /
//    Data model         =  large                                             /
//    Calling convention =  xdata reentrant                                   /
//    Constant location  =  data_rom                                          /
//    Dptr setup         =  1,16                                              /
//    Source file        =  D:\RE_1_2_0_FORMAL_APP(251)-14-12-8\Components\ha /
//                          l\common\hal_drivers.c                            /
//    Command line       =  -f "D:\RE_1_2_0_FORMAL_APP(251)-14-12-8\Projects\ /
//                          zstack\Samples\SampleApp\CC2530DB\..\..\..\Tools\ /
//                          CC2530DB\f8wEndev.cfg" (-DCPU32MHZ                /
//                          -DROOT=__near_func -DMAC_CFG_TX_DATA_MAX=3        /
//                          -DMAC_CFG_TX_MAX=6 -DMAC_CFG_RX_MAX=3) -f         /
//                          "D:\RE_1_2_0_FORMAL_APP(251)-14-12-8\Projects\zst /
//                          ack\Samples\SampleApp\CC2530DB\..\..\..\Tools\CC2 /
//                          530DB\f8wConfig.cfg" (-DZIGBEEPRO -DSECURE=1      /
//                          -DZG_SECURE_DYNAMIC=0 -DREFLECTOR                 /
//                          -DZDAPP_CONFIG_PAN_ID=0xFFFF                      /
//                          -DNWK_START_DELAY=100 -DEXTENDED_JOINING_RANDOM_M /
//                          ASK=0x007F -DBEACON_REQUEST_DELAY=100             /
//                          -DBEACON_REQ_DELAY_MASK=0x00FF                    /
//                          -DLINK_STATUS_JITTER_MASK=0x007F                  /
//                          -DROUTE_EXPIRY_TIME=30 -DAPSC_ACK_WAIT_DURATION_P /
//                          OLLED=3000 -DNWK_INDIRECT_MSG_TIMEOUT=60          /
//                          -DMAX_RREQ_ENTRIES=8 -DAPSC_MAX_FRAME_RETRIES=3   /
//                          -DNWK_MAX_DATA_RETRIES=2                          /
//                          -DMAX_POLL_FAILURE_RETRIES=2 -DMAX_BCAST=9        /
//                          -DAPS_MAX_GROUPS=16 -DMAX_RTG_ENTRIES=30          /
//                          -DNWK_MAX_BINDING_ENTRIES=10                      /
//                          -DMAX_BINDING_CLUSTER_IDS=4 -DASSERT_RESET        /
//                          -DMAC_MAX_FRAME_SIZE=116                          /
//                          -DZDNWKMGR_MIN_TRANSMISSIONS=20 "-DCONST=const    /
//                          __code" -DGENERIC=__generic                       /
//                          -DRFD_RCVC_ALWAYS_ON=FALSE -DPOLL_RATE=8000       /
//                          -DQUEUED_POLL_RATE=100 -DRESPONSE_POLL_RATE=1000) /
//                           -DREJOIN_POLL_RATE=440                           /
//                          "D:\RE_1_2_0_FORMAL_APP(251)-14-12-8\Components\h /
//                          al\common\hal_drivers.c" -D NV_INIT -D            /
//                          NV_RESTORE -D HOLD_AUTO_START -D MT_TASK -D       /
//                          xMT_APP_FUNC -D MT_SYS_FUNC -D MT_ZDO_FUNC -D     /
//                          xMT_ZDO_MGMT -D ISR_KEYINTERRUPT -D POWER_SAVING  /
//                          -D xLONG_POLL_TIMES -D xHAVE_TEST_FUN -D          /
//                          RESUME_TIME_TEST -D SCEEN_KEYPAD -D xM_V332 -lC   /
//                          "D:\RE_1_2_0_FORMAL_APP(251)-14-12-8\Projects\zst /
//                          ack\Samples\SampleApp\CC2530DB\SCEEN_KEYPAD\List\ /
//                          " -lA "D:\RE_1_2_0_FORMAL_APP(251)-14-12-8\Projec /
//                          ts\zstack\Samples\SampleApp\CC2530DB\SCEEN_KEYPAD /
//                          \List\" --diag_suppress Pe001,Pa010 -o            /
//                          "D:\RE_1_2_0_FORMAL_APP(251)-14-12-8\Projects\zst /
//                          ack\Samples\SampleApp\CC2530DB\SCEEN_KEYPAD\Obj\" /
//                           -e --no_cse --no_unroll --no_inline              /
//                          --no_code_motion --no_tbaa --debug --core=plain   /
//                          --dptr=16,1 --data_model=large                    /
//                          --code_model=banked --calling_convention=xdata_re /
//                          entrant --place_constants=data_rom                /
//                          --nr_virtual_regs 16 -I                           /
//                          "D:\RE_1_2_0_FORMAL_APP(251)-14-12-8\Projects\zst /
//                          ack\Samples\SampleApp\CC2530DB\" -I               /
//                          "D:\RE_1_2_0_FORMAL_APP(251)-14-12-8\Projects\zst /
//                          ack\Samples\SampleApp\CC2530DB\..\Source\" -I     /
//                          "D:\RE_1_2_0_FORMAL_APP(251)-14-12-8\Projects\zst /
//                          ack\Samples\SampleApp\CC2530DB\..\Source\rssi_tes /
//                          t\h\" -I "D:\RE_1_2_0_FORMAL_APP(251)-14-12-8\Pro /
//                          jects\zstack\Samples\SampleApp\CC2530DB\..\Source /
//                          \SCEEN_KEYPAD\" -I "D:\RE_1_2_0_FORMAL_APP(251)-1 /
//                          4-12-8\Projects\zstack\Samples\SampleApp\CC2530DB /
//                          \..\..\..\ZMain\TI2530DB\" -I                     /
//                          "D:\RE_1_2_0_FORMAL_APP(251)-14-12-8\Projects\zst /
//                          ack\Samples\SampleApp\CC2530DB\..\..\..\..\..\Com /
//                          ponents\hal\include\" -I                          /
//                          "D:\RE_1_2_0_FORMAL_APP(251)-14-12-8\Projects\zst /
//                          ack\Samples\SampleApp\CC2530DB\..\..\..\..\..\Com /
//                          ponents\hal\target\CC2530EB\" -I                  /
//                          "D:\RE_1_2_0_FORMAL_APP(251)-14-12-8\Projects\zst /
//                          ack\Samples\SampleApp\CC2530DB\..\..\..\..\..\Com /
//                          ponents\mac\include\" -I                          /
//                          "D:\RE_1_2_0_FORMAL_APP(251)-14-12-8\Projects\zst /
//                          ack\Samples\SampleApp\CC2530DB\..\..\..\..\..\Com /
//                          ponents\mac\high_level\" -I                       /
//                          "D:\RE_1_2_0_FORMAL_APP(251)-14-12-8\Projects\zst /
//                          ack\Samples\SampleApp\CC2530DB\..\..\..\..\..\Com /
//                          ponents\mac\low_level\srf04\" -I                  /
//                          "D:\RE_1_2_0_FORMAL_APP(251)-14-12-8\Projects\zst /
//                          ack\Samples\SampleApp\CC2530DB\..\..\..\..\..\Com /
//                          ponents\mac\low_level\srf04\single_chip\" -I      /
//                          "D:\RE_1_2_0_FORMAL_APP(251)-14-12-8\Projects\zst /
//                          ack\Samples\SampleApp\CC2530DB\..\..\..\..\..\Com /
//                          ponents\mt\" -I "D:\RE_1_2_0_FORMAL_APP(251)-14-1 /
//                          2-8\Projects\zstack\Samples\SampleApp\CC2530DB\.. /
//                          \..\..\..\..\Components\osal\include\" -I         /
//                          "D:\RE_1_2_0_FORMAL_APP(251)-14-12-8\Projects\zst /
//                          ack\Samples\SampleApp\CC2530DB\..\..\..\..\..\Com /
//                          ponents\services\saddr\" -I                       /
//                          "D:\RE_1_2_0_FORMAL_APP(251)-14-12-8\Projects\zst /
//                          ack\Samples\SampleApp\CC2530DB\..\..\..\..\..\Com /
//                          ponents\services\sdata\" -I                       /
//                          "D:\RE_1_2_0_FORMAL_APP(251)-14-12-8\Projects\zst /
//                          ack\Samples\SampleApp\CC2530DB\..\..\..\..\..\Com /
//                          ponents\stack\af\" -I "D:\RE_1_2_0_FORMAL_APP(251 /
//                          )-14-12-8\Projects\zstack\Samples\SampleApp\CC253 /
//                          0DB\..\..\..\..\..\Components\stack\nwk\" -I      /
//                          "D:\RE_1_2_0_FORMAL_APP(251)-14-12-8\Projects\zst /
//                          ack\Samples\SampleApp\CC2530DB\..\..\..\..\..\Com /
//                          ponents\stack\sapi\" -I                           /
//                          "D:\RE_1_2_0_FORMAL_APP(251)-14-12-8\Projects\zst /
//                          ack\Samples\SampleApp\CC2530DB\..\..\..\..\..\Com /
//                          ponents\stack\sec\" -I "D:\RE_1_2_0_FORMAL_APP(25 /
//                          1)-14-12-8\Projects\zstack\Samples\SampleApp\CC25 /
//                          30DB\..\..\..\..\..\Components\stack\sys\" -I     /
//                          "D:\RE_1_2_0_FORMAL_APP(251)-14-12-8\Projects\zst /
//                          ack\Samples\SampleApp\CC2530DB\..\..\..\..\..\Com /
//                          ponents\stack\zdo\" -I "D:\RE_1_2_0_FORMAL_APP(25 /
//                          1)-14-12-8\Projects\zstack\Samples\SampleApp\CC25 /
//                          30DB\..\..\..\..\..\Components\zmac\" -I          /
//                          "D:\RE_1_2_0_FORMAL_APP(251)-14-12-8\Projects\zst /
//                          ack\Samples\SampleApp\CC2530DB\..\..\..\..\..\Com /
//                          ponents\zmac\f8w\" -On --require_prototypes       /
//    List file          =  D:\RE_1_2_0_FORMAL_APP(251)-14-12-8\Projects\zsta /
//                          ck\Samples\SampleApp\CC2530DB\SCEEN_KEYPAD\List\h /
//                          al_drivers.s51                                    /
//                                                                            /
//                                                                            /
///////////////////////////////////////////////////////////////////////////////

        NAME hal_drivers

        RTMODEL "__SystemLibrary", "CLib"
        RTMODEL "__calling_convention", "xdata_reentrant"
        RTMODEL "__code_model", "banked"
        RTMODEL "__core", "plain"
        RTMODEL "__data_model", "large"
        RTMODEL "__dptr_size", "16"
        RTMODEL "__extended_stack", "disabled"
        RTMODEL "__location_for_constants", "data"
        RTMODEL "__number_of_dptrs", "1"
        RTMODEL "__rt_version", "1"

        RSEG DOVERLAY:DATA:NOROOT(0)
        RSEG IOVERLAY:IDATA:NOROOT(0)
        RSEG ISTACK:IDATA:NOROOT(0)
        RSEG PSTACK:XDATA:NOROOT(0)
        RSEG XSTACK:XDATA:NOROOT(0)

        EXTERN ?BANKED_ENTER_XDATA
        EXTERN ?BANKED_LEAVE_XDATA
        EXTERN ?BDISPATCH
        EXTERN ?BRET
        EXTERN ?V0
        EXTERN __INIT_XDATA_Z

        PUBLIC ??HalDriverInit?relay
        FUNCTION ??HalDriverInit?relay,0203H
        PUBLIC ??Hal_Init?relay
        FUNCTION ??Hal_Init?relay,0203H
        PUBLIC ??Hal_ProcessEvent?relay
        FUNCTION ??Hal_ProcessEvent?relay,0203H
        PUBLIC ??Hal_ProcessPoll?relay
        FUNCTION ??Hal_ProcessPoll?relay,0203H
        PUBLIC HalDriverInit
        FUNCTION HalDriverInit,021203H
        ARGFRAME XSTACK, 0, STACK
        LOCFRAME ISTACK, 2, STACK
        PUBLIC Hal_Init
        FUNCTION Hal_Init,0203H
        ARGFRAME XSTACK, 0, STACK
        LOCFRAME ISTACK, 2, STACK
        PUBLIC Hal_ProcessEvent
        FUNCTION Hal_ProcessEvent,021203H
        ARGFRAME XSTACK, 0, STACK
        LOCFRAME XSTACK, 14, STACK
        PUBLIC Hal_ProcessPoll
        FUNCTION Hal_ProcessPoll,0203H
        ARGFRAME XSTACK, 0, STACK
        PUBLIC Hal_TaskID
        
        CFI Names cfiNames0
        CFI StackFrame CFA_SP SP IDATA
        CFI StackFrame CFA_PSP16 PSP16 XDATA
        CFI StackFrame CFA_XSP16 XSP16 XDATA
        CFI StaticOverlayFrame CFA_IOVERLAY IOVERLAY
        CFI StaticOverlayFrame CFA_DOVERLAY DOVERLAY
        CFI Resource `PSW.CY`:1, `B.BR0`:1, `B.BR1`:1, `B.BR2`:1, `B.BR3`:1
        CFI Resource `B.BR4`:1, `B.BR5`:1, `B.BR6`:1, `B.BR7`:1, `VB.BR8`:1
        CFI Resource `VB.BR9`:1, `VB.BR10`:1, `VB.BR11`:1, `VB.BR12`:1
        CFI Resource `VB.BR13`:1, `VB.BR14`:1, `VB.BR15`:1, VB:8, B:8, A:8
        CFI Resource PSW:8, DPL0:8, DPH0:8, R0:8, R1:8, R2:8, R3:8, R4:8, R5:8
        CFI Resource R6:8, R7:8, V0:8, V1:8, V2:8, V3:8, V4:8, V5:8, V6:8, V7:8
        CFI Resource V8:8, V9:8, V10:8, V11:8, V12:8, V13:8, V14:8, V15:8, SP:8
        CFI Resource PSPH:8, PSPL:8, PSP16:16, XSPH:8, XSPL:8, XSP16:16
        CFI VirtualResource ?RET:24
        CFI Resource ?BRET_EXT:8
        CFI VirtualResource ?RET_HIGH:8, ?RET_LOW:8
        CFI ResourceParts PSP16 PSPH, PSPL
        CFI ResourceParts XSP16 XSPH, XSPL
        CFI ResourceParts ?RET ?BRET_EXT, ?RET_HIGH, ?RET_LOW
        CFI EndNames cfiNames0
        
        CFI Common cfiCommon0 Using cfiNames0
        CFI CodeAlign 1
        CFI DataAlign -1
        CFI ReturnAddress ?RET CODE
        CFI CFA_DOVERLAY Used
        CFI CFA_IOVERLAY Used
        CFI CFA_SP SP+-3
        CFI CFA_PSP16 PSP16+0
        CFI CFA_XSP16 XSP16+0
        CFI `PSW.CY` SameValue
        CFI `B.BR0` SameValue
        CFI `B.BR1` SameValue
        CFI `B.BR2` SameValue
        CFI `B.BR3` SameValue
        CFI `B.BR4` SameValue
        CFI `B.BR5` SameValue
        CFI `B.BR6` SameValue
        CFI `B.BR7` SameValue
        CFI `VB.BR8` SameValue
        CFI `VB.BR9` SameValue
        CFI `VB.BR10` SameValue
        CFI `VB.BR11` SameValue
        CFI `VB.BR12` SameValue
        CFI `VB.BR13` SameValue
        CFI `VB.BR14` SameValue
        CFI `VB.BR15` SameValue
        CFI VB SameValue
        CFI B Undefined
        CFI A Undefined
        CFI PSW SameValue
        CFI DPL0 SameValue
        CFI DPH0 SameValue
        CFI R0 Undefined
        CFI R1 Undefined
        CFI R2 Undefined
        CFI R3 Undefined
        CFI R4 Undefined
        CFI R5 Undefined
        CFI R6 SameValue
        CFI R7 SameValue
        CFI V0 SameValue
        CFI V1 SameValue
        CFI V2 SameValue
        CFI V3 SameValue
        CFI V4 SameValue
        CFI V5 SameValue
        CFI V6 SameValue
        CFI V7 SameValue
        CFI V8 SameValue
        CFI V9 SameValue
        CFI V10 SameValue
        CFI V11 SameValue
        CFI V12 SameValue
        CFI V13 SameValue
        CFI V14 SameValue
        CFI V15 SameValue
        CFI PSPH Undefined
        CFI PSPL Undefined
        CFI XSPH Undefined
        CFI XSPL Undefined
        CFI ?RET Concat
        CFI ?BRET_EXT Frame(CFA_SP, 3)
        CFI ?RET_HIGH Frame(CFA_SP, 2)
        CFI ?RET_LOW Frame(CFA_SP, 1)
        CFI EndCommon cfiCommon0
        
HalAdcInit          SYMBOL "HalAdcInit"
HalDmaInit          SYMBOL "HalDmaInit"
HalAesInit          SYMBOL "HalAesInit"
HalLedInit          SYMBOL "HalLedInit"
HalKeyInit          SYMBOL "HalKeyInit"
osal_msg_receive    SYMBOL "osal_msg_receive"
osal_msg_deallocate SYMBOL "osal_msg_deallocate"
HalLedUpdate        SYMBOL "HalLedUpdate"
HalKeyPoll          SYMBOL "HalKeyPoll"
osal_start_timerEx  SYMBOL "osal_start_timerEx"
HalKeyMultiClickCheck SYMBOL "HalKeyMultiClickCheck"
HalKeyHoldCheck     SYMBOL "HalKeyHoldCheck"
halRestoreSleepLevel SYMBOL "halRestoreSleepLevel"
??HalAdcInit?relay  SYMBOL "?relay", HalAdcInit
??HalAesInit?relay  SYMBOL "?relay", HalAesInit
??HalDmaInit?relay  SYMBOL "?relay", HalDmaInit
??HalKeyHoldCheck?relay SYMBOL "?relay", HalKeyHoldCheck
??HalKeyInit?relay  SYMBOL "?relay", HalKeyInit
??HalKeyMultiClickCheck?relay SYMBOL "?relay", HalKeyMultiClickCheck
??HalKeyPoll?relay  SYMBOL "?relay", HalKeyPoll
??HalLedInit?relay  SYMBOL "?relay", HalLedInit
??HalLedUpdate?relay SYMBOL "?relay", HalLedUpdate
??halRestoreSleepLevel?relay SYMBOL "?relay", halRestoreSleepLevel
??osal_msg_deallocate?relay SYMBOL "?relay", osal_msg_deallocate
??osal_msg_receive?relay SYMBOL "?relay", osal_msg_receive
??osal_start_timerEx?relay SYMBOL "?relay", osal_start_timerEx
HalDriverInit       SYMBOL "HalDriverInit"
??HalDriverInit?relay SYMBOL "?relay", HalDriverInit
Hal_Init            SYMBOL "Hal_Init"
??Hal_Init?relay    SYMBOL "?relay", Hal_Init
Hal_ProcessEvent    SYMBOL "Hal_ProcessEvent"
??Hal_ProcessEvent?relay SYMBOL "?relay", Hal_ProcessEvent
Hal_ProcessPoll     SYMBOL "Hal_ProcessPoll"
??Hal_ProcessPoll?relay SYMBOL "?relay", Hal_ProcessPoll

        EXTERN HalAdcInit
        FUNCTION HalAdcInit,0202H
        ARGFRAME ISTACK, 2, STACK
        ARGFRAME PSTACK, 0, STACK
        ARGFRAME XSTACK, 0, STACK
        ARGFRAME IOVERLAY, 0, STATIC
        ARGFRAME DOVERLAY, 0, STATIC
        EXTERN HalDmaInit
        FUNCTION HalDmaInit,0202H
        ARGFRAME ISTACK, 2, STACK
        ARGFRAME PSTACK, 0, STACK
        ARGFRAME XSTACK, 0, STACK
        ARGFRAME IOVERLAY, 0, STATIC
        ARGFRAME DOVERLAY, 0, STATIC
        EXTERN HalAesInit
        FUNCTION HalAesInit,0202H
        ARGFRAME ISTACK, 2, STACK
        ARGFRAME PSTACK, 0, STACK
        ARGFRAME XSTACK, 0, STACK
        ARGFRAME IOVERLAY, 0, STATIC
        ARGFRAME DOVERLAY, 0, STATIC
        EXTERN HalLedInit
        FUNCTION HalLedInit,0202H
        ARGFRAME ISTACK, 2, STACK
        ARGFRAME PSTACK, 0, STACK
        ARGFRAME XSTACK, 0, STACK
        ARGFRAME IOVERLAY, 0, STATIC
        ARGFRAME DOVERLAY, 0, STATIC
        EXTERN HalKeyInit
        FUNCTION HalKeyInit,0202H
        ARGFRAME ISTACK, 2, STACK
        ARGFRAME PSTACK, 0, STACK
        ARGFRAME XSTACK, 0, STACK
        ARGFRAME IOVERLAY, 0, STATIC
        ARGFRAME DOVERLAY, 0, STATIC
        EXTERN osal_msg_receive
        FUNCTION osal_msg_receive,0202H
        ARGFRAME ISTACK, 0, STACK
        ARGFRAME PSTACK, 0, STACK
        ARGFRAME XSTACK, 14, STACK
        ARGFRAME IOVERLAY, 0, STATIC
        ARGFRAME DOVERLAY, 0, STATIC
        EXTERN osal_msg_deallocate
        FUNCTION osal_msg_deallocate,0202H
        ARGFRAME ISTACK, 0, STACK
        ARGFRAME PSTACK, 0, STACK
        ARGFRAME XSTACK, 14, STACK
        ARGFRAME IOVERLAY, 0, STATIC
        ARGFRAME DOVERLAY, 0, STATIC
        EXTERN HalLedUpdate
        FUNCTION HalLedUpdate,0202H
        ARGFRAME ISTACK, 0, STACK
        ARGFRAME PSTACK, 0, STACK
        ARGFRAME XSTACK, 14, STACK
        ARGFRAME IOVERLAY, 0, STATIC
        ARGFRAME DOVERLAY, 0, STATIC
        EXTERN HalKeyPoll
        FUNCTION HalKeyPoll,0202H
        ARGFRAME ISTACK, 0, STACK
        ARGFRAME PSTACK, 0, STACK
        ARGFRAME XSTACK, 14, STACK
        ARGFRAME IOVERLAY, 0, STATIC
        ARGFRAME DOVERLAY, 0, STATIC
        EXTERN osal_start_timerEx
        FUNCTION osal_start_timerEx,0202H
        ARGFRAME ISTACK, 0, STACK
        ARGFRAME PSTACK, 0, STACK
        ARGFRAME XSTACK, 14, STACK
        ARGFRAME IOVERLAY, 0, STATIC
        ARGFRAME DOVERLAY, 0, STATIC
        EXTERN HalKeyMultiClickCheck
        FUNCTION HalKeyMultiClickCheck,0202H
        ARGFRAME ISTACK, 0, STACK
        ARGFRAME PSTACK, 0, STACK
        ARGFRAME XSTACK, 14, STACK
        ARGFRAME IOVERLAY, 0, STATIC
        ARGFRAME DOVERLAY, 0, STATIC
        EXTERN HalKeyHoldCheck
        FUNCTION HalKeyHoldCheck,0202H
        ARGFRAME ISTACK, 0, STACK
        ARGFRAME PSTACK, 0, STACK
        ARGFRAME XSTACK, 14, STACK
        ARGFRAME IOVERLAY, 0, STATIC
        ARGFRAME DOVERLAY, 0, STATIC
        EXTERN halRestoreSleepLevel
        FUNCTION halRestoreSleepLevel,0202H
        ARGFRAME ISTACK, 0, STACK
        ARGFRAME PSTACK, 0, STACK
        ARGFRAME XSTACK, 14, STACK
        ARGFRAME IOVERLAY, 0, STATIC
        ARGFRAME DOVERLAY, 0, STATIC
        EXTERN ??HalAdcInit?relay
        FUNCTION ??HalAdcInit?relay,00H
        EXTERN ??HalAesInit?relay
        FUNCTION ??HalAesInit?relay,00H
        EXTERN ??HalDmaInit?relay
        FUNCTION ??HalDmaInit?relay,00H
        EXTERN ??HalKeyHoldCheck?relay
        FUNCTION ??HalKeyHoldCheck?relay,00H
        EXTERN ??HalKeyInit?relay
        FUNCTION ??HalKeyInit?relay,00H
        EXTERN ??HalKeyMultiClickCheck?relay
        FUNCTION ??HalKeyMultiClickCheck?relay,00H
        EXTERN ??HalKeyPoll?relay
        FUNCTION ??HalKeyPoll?relay,00H
        EXTERN ??HalLedInit?relay
        FUNCTION ??HalLedInit?relay,00H
        EXTERN ??HalLedUpdate?relay
        FUNCTION ??HalLedUpdate?relay,00H
        EXTERN ??halRestoreSleepLevel?relay
        FUNCTION ??halRestoreSleepLevel?relay,00H
        EXTERN ??osal_msg_deallocate?relay
        FUNCTION ??osal_msg_deallocate?relay,00H
        EXTERN ??osal_msg_receive?relay
        FUNCTION ??osal_msg_receive?relay,00H
        EXTERN ??osal_start_timerEx?relay
        FUNCTION ??osal_start_timerEx?relay,00H
        EXTERN Hal_KeyIntEnable
        EXTERN halSleepPconValue

// D:\RE_1_2_0_FORMAL_APP(251)-14-12-8\Components\hal\common\hal_drivers.c
//    1 /**************************************************************************************************
//    2   Filename:       hal_drivers.c
//    3   Revised:        $Date: 2007-07-06 10:42:24 -0700 (Fri, 06 Jul 2007) $
//    4   Revision:       $Revision: 13579 $
//    5 
//    6   Description:    This file contains the interface to the Drivers Service.
//    7 
//    8 
//    9   Copyright 2005-2010 Texas Instruments Incorporated. All rights reserved.
//   10 
//   11   IMPORTANT: Your use of this Software is limited to those specific rights
//   12   granted under the terms of a software license agreement between the user
//   13   who downloaded the software, his/her employer (which must be your employer)
//   14   and Texas Instruments Incorporated (the "License").  You may not use this
//   15   Software unless you agree to abide by the terms of the License. The License
//   16   limits your use, and you acknowledge, that the Software may not be modified,
//   17   copied or distributed unless embedded on a Texas Instruments microcontroller
//   18   or used solely and exclusively in conjunction with a Texas Instruments radio
//   19   frequency transceiver, which is integrated into your product.  Other than for
//   20   the foregoing purpose, you may not use, reproduce, copy, prepare derivative
//   21   works of, modify, distribute, perform, display or sell this Software and/or
//   22   its documentation for any purpose.
//   23 
//   24   YOU FURTHER ACKNOWLEDGE AND AGREE THAT THE SOFTWARE AND DOCUMENTATION ARE
//   25   PROVIDED “AS IS?WITHOUT WARRANTY OF ANY KIND, EITHER EXPRESS OR IMPLIED,
//   26   INCLUDING WITHOUT LIMITATION, ANY WARRANTY OF MERCHANTABILITY, TITLE,
//   27   NON-INFRINGEMENT AND FITNESS FOR A PARTICULAR PURPOSE. IN NO EVENT SHALL
//   28   TEXAS INSTRUMENTS OR ITS LICENSORS BE LIABLE OR OBLIGATED UNDER CONTRACT,
//   29   NEGLIGENCE, STRICT LIABILITY, CONTRIBUTION, BREACH OF WARRANTY, OR OTHER
//   30   LEGAL EQUITABLE THEORY ANY DIRECT OR INDIRECT DAMAGES OR EXPENSES
//   31   INCLUDING BUT NOT LIMITED TO ANY INCIDENTAL, SPECIAL, INDIRECT, PUNITIVE
//   32   OR CONSEQUENTIAL DAMAGES, LOST PROFITS OR LOST DATA, COST OF PROCUREMENT
//   33   OF SUBSTITUTE GOODS, TECHNOLOGY, SERVICES, OR ANY CLAIMS BY THIRD PARTIES
//   34   (INCLUDING BUT NOT LIMITED TO ANY DEFENSE THEREOF), OR OTHER SIMILAR COSTS.
//   35 
//   36   Should you have any questions regarding your right to use this Software,
//   37   contact Texas Instruments Incorporated at www.TI.com.
//   38 **************************************************************************************************/
//   39 
//   40 
//   41 /**************************************************************************************************
//   42  *                                            INCLUDES
//   43  **************************************************************************************************/
//   44 #include "hal_types.h"
//   45 #include "OSAL.h"
//   46 #include "hal_drivers.h"
//   47 #include "hal_adc.h"
//   48 #if (defined HAL_DMA) && (HAL_DMA == TRUE)
//   49   #include "hal_dma.h"
//   50 #endif
//   51 #include "hal_key.h"
//   52 #include "hal_lcd.h"
//   53 #include "hal_led.h"
//   54 #include "hal_timer.h"
//   55 #include "hal_uart.h"
//   56 #include "hal_sleep.h"
//   57 #if (defined HAL_AES) && (HAL_AES == TRUE)
//   58   #include "hal_aes.h"
//   59 #endif
//   60 
//   61 #if (defined HAL_SPI) && (HAL_SPI == TRUE)
//   62   #include "hal_spi.h"
//   63 #endif
//   64 #if (defined HAL_HID) && (HAL_HID == TRUE)
//   65   #include "usb_hid.h"
//   66 #endif
//   67 
//   68 #ifdef CC2591_COMPRESSION_WORKAROUND
//   69   #include "mac_rx.h"
//   70 #endif
//   71 
//   72 
//   73   #ifdef  BINDING_KEY  
//   74    extern void HalKeyPoll_P0(void);
//   75    extern void HalKeyPoll_P1(void);
//   76    void HalotherKeyMultiClickCheck(void);
//   77    extern void HalKey_read_FIFO(void);
//   78   #endif
//   79 
//   80 /**************************************************************************************************
//   81  *                                            MACROS
//   82  **************************************************************************************************/
//   83 
//   84 
//   85 
//   86 /**************************************************************************************************
//   87  *                                          CONSTANTS
//   88  **************************************************************************************************/
//   89 
//   90 
//   91 /**************************************************************************************************
//   92  *                                          TYPEDEFS
//   93  **************************************************************************************************/
//   94 
//   95 
//   96 /**************************************************************************************************
//   97  *                                      GLOBAL VARIABLES
//   98  **************************************************************************************************/

        RSEG XDATA_Z:XDATA:NOROOT(0)
        DATA8
//   99 uint8 Hal_TaskID;
Hal_TaskID:
        DS 1
        REQUIRE __INIT_XDATA_Z
//  100 
//  101 extern void HalLedUpdate( void ); /* Notes: This for internal only so it shouldn't be in hal_led.h */
//  102 
//  103 /**************************************************************************************************
//  104  *                                      FUNCTIONS - API
//  105  **************************************************************************************************/
//  106 
//  107 /**************************************************************************************************
//  108  * @fn      Hal_Init
//  109  *
//  110  * @brief   Hal Initialization function.
//  111  *
//  112  * @param   task_id - Hal TaskId
//  113  *
//  114  * @return  None
//  115  **************************************************************************************************/

        RSEG BANKED_CODE:CODE:NOROOT(0)
//  116 void Hal_Init( uint8 task_id )
Hal_Init:
        CFI Block cfiBlock0 Using cfiCommon0
        CFI Function Hal_Init
        CODE
//  117 {
        PUSH    DPL
        CFI DPL0 Frame(CFA_SP, 4)
        CFI CFA_SP SP+-4
        PUSH    DPH
        CFI DPH0 Frame(CFA_SP, 5)
        CFI CFA_SP SP+-5
        ; Saved register size: 2
        ; Auto size: 0
//  118   /* Register task ID */
//  119   Hal_TaskID = task_id;
        MOV     A,R1
        MOV     DPTR,#Hal_TaskID
        MOVX    @DPTR,A
//  120   
//  121 #ifdef CC2591_COMPRESSION_WORKAROUND  
//  122   osal_start_reload_timer( Hal_TaskID, PERIOD_RSSI_RESET_EVT, PERIOD_RSSI_RESET_TIMEOUT );
//  123 #endif  
//  124 }
        POP     DPH
        CFI DPH0 SameValue
        CFI CFA_SP SP+-4
        POP     DPL
        CFI DPL0 SameValue
        CFI CFA_SP SP+-3
        LJMP    ?BRET
        CFI EndBlock cfiBlock0
//  125 
//  126 /**************************************************************************************************
//  127  * @fn      Hal_DriverInit
//  128  *
//  129  * @brief   Initialize HW - These need to be initialized before anyone.
//  130  *
//  131  * @param   task_id - Hal TaskId
//  132  *
//  133  * @return  None
//  134  **************************************************************************************************/

        RSEG BANKED_CODE:CODE:NOROOT(0)
//  135 void HalDriverInit (void)
HalDriverInit:
        CFI Block cfiBlock1 Using cfiCommon0
        CFI Function HalDriverInit
        CODE
//  136 {
        FUNCALL HalDriverInit, HalAdcInit
        LOCFRAME ISTACK, 2, STACK
        LOCFRAME PSTACK, 0, STACK
        LOCFRAME XSTACK, 0, STACK
        LOCFRAME IOVERLAY, 0, STATIC
        LOCFRAME DOVERLAY, 0, STATIC
        ARGFRAME ISTACK, 2, STACK
        ARGFRAME PSTACK, 0, STACK
        ARGFRAME XSTACK, 0, STACK
        ARGFRAME IOVERLAY, 0, STATIC
        ARGFRAME DOVERLAY, 0, STATIC
        FUNCALL HalDriverInit, HalDmaInit
        LOCFRAME ISTACK, 2, STACK
        LOCFRAME PSTACK, 0, STACK
        LOCFRAME XSTACK, 0, STACK
        LOCFRAME IOVERLAY, 0, STATIC
        LOCFRAME DOVERLAY, 0, STATIC
        ARGFRAME ISTACK, 2, STACK
        ARGFRAME PSTACK, 0, STACK
        ARGFRAME XSTACK, 0, STACK
        ARGFRAME IOVERLAY, 0, STATIC
        ARGFRAME DOVERLAY, 0, STATIC
        FUNCALL HalDriverInit, HalAesInit
        LOCFRAME ISTACK, 2, STACK
        LOCFRAME PSTACK, 0, STACK
        LOCFRAME XSTACK, 0, STACK
        LOCFRAME IOVERLAY, 0, STATIC
        LOCFRAME DOVERLAY, 0, STATIC
        ARGFRAME ISTACK, 2, STACK
        ARGFRAME PSTACK, 0, STACK
        ARGFRAME XSTACK, 0, STACK
        ARGFRAME IOVERLAY, 0, STATIC
        ARGFRAME DOVERLAY, 0, STATIC
        FUNCALL HalDriverInit, HalLedInit
        LOCFRAME ISTACK, 2, STACK
        LOCFRAME PSTACK, 0, STACK
        LOCFRAME XSTACK, 0, STACK
        LOCFRAME IOVERLAY, 0, STATIC
        LOCFRAME DOVERLAY, 0, STATIC
        ARGFRAME ISTACK, 2, STACK
        ARGFRAME PSTACK, 0, STACK
        ARGFRAME XSTACK, 0, STACK
        ARGFRAME IOVERLAY, 0, STATIC
        ARGFRAME DOVERLAY, 0, STATIC
        FUNCALL HalDriverInit, HalKeyInit
        LOCFRAME ISTACK, 2, STACK
        LOCFRAME PSTACK, 0, STACK
        LOCFRAME XSTACK, 0, STACK
        LOCFRAME IOVERLAY, 0, STATIC
        LOCFRAME DOVERLAY, 0, STATIC
        ARGFRAME ISTACK, 2, STACK
        ARGFRAME PSTACK, 0, STACK
        ARGFRAME XSTACK, 0, STACK
        ARGFRAME IOVERLAY, 0, STATIC
        ARGFRAME DOVERLAY, 0, STATIC
        PUSH    DPL
        CFI DPL0 Frame(CFA_SP, 4)
        CFI CFA_SP SP+-4
        PUSH    DPH
        CFI DPH0 Frame(CFA_SP, 5)
        CFI CFA_SP SP+-5
        ; Saved register size: 2
        ; Auto size: 0
//  137   /* TIMER */
//  138 #if (defined HAL_TIMER) && (HAL_TIMER == TRUE)
//  139   #error "The hal timer driver module is removed."
//  140 #endif
//  141 
//  142   /* ADC */
//  143 #if (defined HAL_ADC) && (HAL_ADC == TRUE)
//  144   HalAdcInit();
        ; Setup parameters for call to function HalAdcInit
        LCALL   ??HalAdcInit?relay
//  145 #endif
//  146 
//  147   /* DMA */
//  148 #if (defined HAL_DMA) && (HAL_DMA == TRUE)
//  149   // Must be called before the init call to any module that uses DMA.
//  150   HalDmaInit();
        ; Setup parameters for call to function HalDmaInit
        LCALL   ??HalDmaInit?relay
//  151 #endif
//  152 
//  153   /* AES */
//  154 #if (defined HAL_AES) && (HAL_AES == TRUE)
//  155   HalAesInit();
        ; Setup parameters for call to function HalAesInit
        LCALL   ??HalAesInit?relay
//  156 #endif
//  157 
//  158   /* LCD */
//  159 #if (defined HAL_LCD) && (HAL_LCD == TRUE)
//  160   HalLcdInit();
//  161 #endif
//  162 
//  163   /* LED */
//  164 #if (defined HAL_LED) && (HAL_LED == TRUE)
//  165   HalLedInit();
        ; Setup parameters for call to function HalLedInit
        LCALL   ??HalLedInit?relay
//  166 #endif
//  167 
//  168   /* UART */
//  169 #if (defined HAL_UART) && (HAL_UART == TRUE)
//  170   HalUARTInit();
//  171 #endif
//  172 
//  173   /* KEY */
//  174 #if (defined HAL_KEY) && (HAL_KEY == TRUE)
//  175   HalKeyInit();
        ; Setup parameters for call to function HalKeyInit
        LCALL   ??HalKeyInit?relay
//  176 #endif
//  177 
//  178   /* SPI */
//  179 #if (defined HAL_SPI) && (HAL_SPI == TRUE)
//  180   HalSpiInit();
//  181 #endif
//  182 
//  183   /* HID */
//  184 #if (defined HAL_HID) && (HAL_HID == TRUE)
//  185   usbHidInit();
//  186 #endif
//  187   
//  188 
//  189 }
        POP     DPH
        CFI DPH0 SameValue
        CFI CFA_SP SP+-4
        POP     DPL
        CFI DPL0 SameValue
        CFI CFA_SP SP+-3
        LJMP    ?BRET
        CFI EndBlock cfiBlock1
//  190 
//  191 
//  192 /**************************************************************************************************
//  193  * @fn      Hal_ProcessEvent
//  194  *
//  195  * @brief   Hal Process Event
//  196  *
//  197  * @param   task_id - Hal TaskId
//  198  *          events - events
//  199  *
//  200  * @return  None
//  201  **************************************************************************************************/

        RSEG BANKED_CODE:CODE:NOROOT(0)
//  202 uint16 Hal_ProcessEvent( uint8 task_id, uint16 events )
Hal_ProcessEvent:
        CFI Block cfiBlock2 Using cfiCommon0
        CFI Function Hal_ProcessEvent
        CODE
//  203 {
        FUNCALL Hal_ProcessEvent, osal_msg_receive
        LOCFRAME ISTACK, 0, STACK
        LOCFRAME PSTACK, 0, STACK
        LOCFRAME XSTACK, 14, STACK
        LOCFRAME IOVERLAY, 0, STATIC
        LOCFRAME DOVERLAY, 0, STATIC
        ARGFRAME ISTACK, 0, STACK
        ARGFRAME PSTACK, 0, STACK
        ARGFRAME XSTACK, 14, STACK
        ARGFRAME IOVERLAY, 0, STATIC
        ARGFRAME DOVERLAY, 0, STATIC
        FUNCALL Hal_ProcessEvent, osal_msg_deallocate
        LOCFRAME ISTACK, 0, STACK
        LOCFRAME PSTACK, 0, STACK
        LOCFRAME XSTACK, 14, STACK
        LOCFRAME IOVERLAY, 0, STATIC
        LOCFRAME DOVERLAY, 0, STATIC
        ARGFRAME ISTACK, 0, STACK
        ARGFRAME PSTACK, 0, STACK
        ARGFRAME XSTACK, 14, STACK
        ARGFRAME IOVERLAY, 0, STATIC
        ARGFRAME DOVERLAY, 0, STATIC
        FUNCALL Hal_ProcessEvent, osal_msg_receive
        LOCFRAME ISTACK, 0, STACK
        LOCFRAME PSTACK, 0, STACK
        LOCFRAME XSTACK, 14, STACK
        LOCFRAME IOVERLAY, 0, STATIC
        LOCFRAME DOVERLAY, 0, STATIC
        ARGFRAME ISTACK, 0, STACK
        ARGFRAME PSTACK, 0, STACK
        ARGFRAME XSTACK, 14, STACK
        ARGFRAME IOVERLAY, 0, STATIC
        ARGFRAME DOVERLAY, 0, STATIC
        FUNCALL Hal_ProcessEvent, HalLedUpdate
        LOCFRAME ISTACK, 0, STACK
        LOCFRAME PSTACK, 0, STACK
        LOCFRAME XSTACK, 14, STACK
        LOCFRAME IOVERLAY, 0, STATIC
        LOCFRAME DOVERLAY, 0, STATIC
        ARGFRAME ISTACK, 0, STACK
        ARGFRAME PSTACK, 0, STACK
        ARGFRAME XSTACK, 14, STACK
        ARGFRAME IOVERLAY, 0, STATIC
        ARGFRAME DOVERLAY, 0, STATIC
        FUNCALL Hal_ProcessEvent, HalKeyPoll
        LOCFRAME ISTACK, 0, STACK
        LOCFRAME PSTACK, 0, STACK
        LOCFRAME XSTACK, 14, STACK
        LOCFRAME IOVERLAY, 0, STATIC
        LOCFRAME DOVERLAY, 0, STATIC
        ARGFRAME ISTACK, 0, STACK
        ARGFRAME PSTACK, 0, STACK
        ARGFRAME XSTACK, 14, STACK
        ARGFRAME IOVERLAY, 0, STATIC
        ARGFRAME DOVERLAY, 0, STATIC
        FUNCALL Hal_ProcessEvent, osal_start_timerEx
        LOCFRAME ISTACK, 0, STACK
        LOCFRAME PSTACK, 0, STACK
        LOCFRAME XSTACK, 14, STACK
        LOCFRAME IOVERLAY, 0, STATIC
        LOCFRAME DOVERLAY, 0, STATIC
        ARGFRAME ISTACK, 0, STACK
        ARGFRAME PSTACK, 0, STACK
        ARGFRAME XSTACK, 14, STACK
        ARGFRAME IOVERLAY, 0, STATIC
        ARGFRAME DOVERLAY, 0, STATIC
        FUNCALL Hal_ProcessEvent, HalKeyMultiClickCheck
        LOCFRAME ISTACK, 0, STACK
        LOCFRAME PSTACK, 0, STACK
        LOCFRAME XSTACK, 14, STACK
        LOCFRAME IOVERLAY, 0, STATIC
        LOCFRAME DOVERLAY, 0, STATIC
        ARGFRAME ISTACK, 0, STACK
        ARGFRAME PSTACK, 0, STACK
        ARGFRAME XSTACK, 14, STACK
        ARGFRAME IOVERLAY, 0, STATIC
        ARGFRAME DOVERLAY, 0, STATIC
        FUNCALL Hal_ProcessEvent, HalKeyHoldCheck
        LOCFRAME ISTACK, 0, STACK
        LOCFRAME PSTACK, 0, STACK
        LOCFRAME XSTACK, 14, STACK
        LOCFRAME IOVERLAY, 0, STATIC
        LOCFRAME DOVERLAY, 0, STATIC
        ARGFRAME ISTACK, 0, STACK
        ARGFRAME PSTACK, 0, STACK
        ARGFRAME XSTACK, 14, STACK
        ARGFRAME IOVERLAY, 0, STATIC
        ARGFRAME DOVERLAY, 0, STATIC
        FUNCALL Hal_ProcessEvent, halRestoreSleepLevel
        LOCFRAME ISTACK, 0, STACK
        LOCFRAME PSTACK, 0, STACK
        LOCFRAME XSTACK, 14, STACK
        LOCFRAME IOVERLAY, 0, STATIC
        LOCFRAME DOVERLAY, 0, STATIC
        ARGFRAME ISTACK, 0, STACK
        ARGFRAME PSTACK, 0, STACK
        ARGFRAME XSTACK, 14, STACK
        ARGFRAME IOVERLAY, 0, STATIC
        ARGFRAME DOVERLAY, 0, STATIC
        MOV     A,#-0xe
        LCALL   ?BANKED_ENTER_XDATA
        CFI DPH0 load(1, XDATA, add(CFA_XSP16, literal(-1)))
        CFI DPL0 load(1, XDATA, add(CFA_XSP16, literal(-2)))
        CFI ?BRET_EXT load(1, XDATA, add(CFA_XSP16, literal(-3)))
        CFI ?RET_HIGH load(1, XDATA, add(CFA_XSP16, literal(-4)))
        CFI ?RET_LOW load(1, XDATA, add(CFA_XSP16, literal(-5)))
        CFI R7 load(1, XDATA, add(CFA_XSP16, literal(-6)))
        CFI V5 load(1, XDATA, add(CFA_XSP16, literal(-7)))
        CFI V4 load(1, XDATA, add(CFA_XSP16, literal(-8)))
        CFI V3 load(1, XDATA, add(CFA_XSP16, literal(-9)))
        CFI V2 load(1, XDATA, add(CFA_XSP16, literal(-10)))
        CFI V1 load(1, XDATA, add(CFA_XSP16, literal(-11)))
        CFI V0 load(1, XDATA, add(CFA_XSP16, literal(-12)))
        CFI VB load(1, XDATA, add(CFA_XSP16, literal(-13)))
        CFI R6 load(1, XDATA, add(CFA_XSP16, literal(-14)))
        CFI CFA_SP SP+0
        CFI CFA_XSP16 add(XSP16, 14)
        ; Saved register size: 14
        ; Auto size: 0
        MOV     ?V0 + 2,R1
        MOV     A,R2
        MOV     R6,A
        MOV     A,R3
        MOV     R7,A
//  204   uint8 *msgPtr;
//  205   
//  206   (void)task_id;  // Intentionally unreferenced parameter
//  207 
//  208   if ( events & SYS_EVENT_MSG )
        MOV     A,R6
        ANL     A,#0x0
        MOV     R0,A
        MOV     A,R7
        ANL     A,#0x80
        MOV     R1,A
        MOV     A,R0
        ORL     A,R1
        JZ      ??Hal_ProcessEvent_0
//  209   {
//  210     msgPtr = osal_msg_receive(Hal_TaskID);
        ; Setup parameters for call to function osal_msg_receive
        MOV     DPTR,#Hal_TaskID
        MOVX    A,@DPTR
        MOV     R1,A
        LCALL   ??osal_msg_receive?relay
        MOV     ?V0 + 4,R2
        MOV     ?V0 + 5,R3
        MOV     ?V0 + 0,?V0 + 4
        MOV     ?V0 + 1,?V0 + 5
//  211 
//  212     while (msgPtr)
??Hal_ProcessEvent_1:
        MOV     A,?V0 + 0
        ORL     A,?V0 + 1
        JZ      ??Hal_ProcessEvent_2
//  213     {
//  214       /* Do something here - for now, just deallocate the msg and move on */
//  215 
//  216       /* De-allocate */
//  217       osal_msg_deallocate( msgPtr );
        ; Setup parameters for call to function osal_msg_deallocate
        MOV     R2,?V0 + 0
        MOV     R3,?V0 + 1
        LCALL   ??osal_msg_deallocate?relay
        MOV     A,R1
//  218       /* Next */
//  219       msgPtr = osal_msg_receive( Hal_TaskID );
        ; Setup parameters for call to function osal_msg_receive
        MOV     DPTR,#Hal_TaskID
        MOVX    A,@DPTR
        MOV     R1,A
        LCALL   ??osal_msg_receive?relay
        MOV     ?V0 + 4,R2
        MOV     ?V0 + 5,R3
        MOV     ?V0 + 0,?V0 + 4
        MOV     ?V0 + 1,?V0 + 5
        SJMP    ??Hal_ProcessEvent_1
//  220     }
//  221     return events ^ SYS_EVENT_MSG;
??Hal_ProcessEvent_2:
        MOV     A,R6
        XRL     A,#0x0
        MOV     R2,A
        MOV     A,R7
        XRL     A,#0x80
        MOV     R3,A
        SJMP    ??Hal_ProcessEvent_3
//  222   }
//  223 
//  224   if ( events & HAL_LED_BLINK_EVENT )
??Hal_ProcessEvent_0:
        MOV     A,R6
        ANL     A,#0x2
        JZ      ??Hal_ProcessEvent_4
//  225   {
//  226 #if (defined (BLINK_LEDS)) && (HAL_LED == TRUE)
//  227     HalLedUpdate();
        ; Setup parameters for call to function HalLedUpdate
        LCALL   ??HalLedUpdate?relay
//  228 #endif /* BLINK_LEDS && HAL_LED */
//  229     return events ^ HAL_LED_BLINK_EVENT;
        MOV     A,R6
        XRL     A,#0x2
        MOV     R2,A
        MOV     A,R7
        XRL     A,#0x0
        MOV     R3,A
        SJMP    ??Hal_ProcessEvent_3
//  230   }
//  231 
//  232   if (events & HAL_KEY_EVENT)
??Hal_ProcessEvent_4:
        MOV     A,R6
        MOV     C,0xE0 /* A   */.0
        JNC     ??Hal_ProcessEvent_5
//  233   {
//  234 
//  235 #if (defined HAL_KEY) && (HAL_KEY == TRUE)
//  236     /* Check for keys */
//  237     HalKeyPoll();
        ; Setup parameters for call to function HalKeyPoll
        LCALL   ??HalKeyPoll?relay
//  238 
//  239     /* if interrupt disabled, do next polling */
//  240     if (!Hal_KeyIntEnable)
        MOV     DPTR,#Hal_KeyIntEnable
        MOVX    A,@DPTR
        JNZ     ??Hal_ProcessEvent_6
//  241     {
//  242       osal_start_timerEx( Hal_TaskID, HAL_KEY_EVENT, 100);
        ; Setup parameters for call to function osal_start_timerEx
        MOV     R4,#0x64
        MOV     R5,#0x0
        MOV     R2,#0x1
        MOV     R3,#0x0
        MOV     DPTR,#Hal_TaskID
        MOVX    A,@DPTR
        MOV     R1,A
        LCALL   ??osal_start_timerEx?relay
        MOV     A,R1
//  243     }
//  244 #endif // HAL_KEY
//  245 
//  246     return events ^ HAL_KEY_EVENT;
??Hal_ProcessEvent_6:
        MOV     A,R6
        XRL     A,#0x1
        MOV     R2,A
        MOV     A,R7
        XRL     A,#0x0
        MOV     R3,A
        SJMP    ??Hal_ProcessEvent_3
//  247   }
//  248   
//  249   #ifdef  BINDING_KEY  
//  250     if (events & HAL_KEY_EVENT_P0)
//  251   {
//  252     HalKeyPoll_P0();
//  253     return events ^ HAL_KEY_EVENT_P0;
//  254   }
//  255   
//  256     if (events & HAL_KEY_EVENT_P1)
//  257   {
//  258     HalKeyPoll_P1();
//  259     return events ^ HAL_KEY_EVENT_P1;
//  260   }
//  261   
//  262    if (events & HAL_BINDING_FIFO_EVENT)
//  263   {
//  264     HalKey_read_FIFO();
//  265     return events ^ HAL_BINDING_FIFO_EVENT;
//  266   }
//  267   
//  268   
//  269  #endif
//  270     
//  271   
//  272   
//  273 
//  274   if (events & HAL_KEY_MULTI_CLICK_EVENT) 
??Hal_ProcessEvent_5:
        MOV     A,R6
        ANL     A,#0x20
        JZ      ??Hal_ProcessEvent_7
//  275   {
//  276      HalKeyMultiClickCheck();
        ; Setup parameters for call to function HalKeyMultiClickCheck
        LCALL   ??HalKeyMultiClickCheck?relay
//  277      
//  278     return events ^ HAL_KEY_MULTI_CLICK_EVENT;
        MOV     A,R6
        XRL     A,#0x20
        MOV     R2,A
        MOV     A,R7
        XRL     A,#0x0
        MOV     R3,A
        SJMP    ??Hal_ProcessEvent_3
//  279   }   
//  280   
//  281   if (events & HAL_KEY_HOLD_EVENT)
??Hal_ProcessEvent_7:
        MOV     A,R6
        ANL     A,#0x40
        JZ      ??Hal_ProcessEvent_8
//  282   {
//  283      HalKeyHoldCheck();
        ; Setup parameters for call to function HalKeyHoldCheck
        LCALL   ??HalKeyHoldCheck?relay
//  284      
//  285     return events ^ HAL_KEY_HOLD_EVENT;
        MOV     A,R6
        XRL     A,#0x40
        MOV     R2,A
        MOV     A,R7
        XRL     A,#0x0
        MOV     R3,A
        SJMP    ??Hal_ProcessEvent_3
//  286   }   
//  287   
//  288  
//  289 
//  290   
//  291  #ifdef WALL_KEY
//  292 
//  293   if (events & HAL_OTHER_KEY_MULTI_CLICK_EVENT)
//  294   {
//  295      HalotherKeyMultiClickCheck();
//  296      
//  297     return events ^ HAL_OTHER_KEY_MULTI_CLICK_EVENT;
//  298   } 
//  299   #endif
//  300   
//  301 
//  302   #if defined(TOUCH_1) ||defined(TOUCH_2)||defined(TOUCH_3)||defined(TOUCH_4)||defined(TOUCH_CURTAIN_CONTORL)||defined(KEY_INTERRUPT_FORBID)
//  303   
//  304    if (events & HAL_KEY_INTERRUPT_STOP_1) 
//  305    {
//  306      
//  307         P1IFG &= ~BV(2);
//  308         P1IEN |= BV(2);
//  309    return events ^ HAL_KEY_INTERRUPT_STOP_1;
//  310   }
//  311   
//  312   if (events & HAL_KEY_INTERRUPT_STOP_2) 
//  313    {
//  314      
//  315        P1IFG &= ~BV(5);
//  316         P1IEN |= BV(5);
//  317    return events ^ HAL_KEY_INTERRUPT_STOP_2;
//  318   }
//  319   
//  320   if (events & HAL_KEY_INTERRUPT_STOP_3) 
//  321    {
//  322      
//  323         P1IFG &= ~BV(6);
//  324         P1IEN |= BV(6);
//  325    return events ^ HAL_KEY_INTERRUPT_STOP_3;
//  326   }
//  327   
//  328   if (events & HAL_KEY_INTERRUPT_STOP_4) 
//  329   {
//  330      
//  331         P1IFG &= ~BV(7);
//  332         P1IEN |= BV(7);
//  333    return events ^ HAL_KEY_INTERRUPT_STOP_4;
//  334   }
//  335   #endif
//  336   
//  337   
//  338   
//  339   
//  340   
//  341 #ifdef POWER_SAVING
//  342   if ( events & HAL_SLEEP_TIMER_EVENT )
??Hal_ProcessEvent_8:
        MOV     A,R6
        ANL     A,#0x4
        JZ      ??Hal_ProcessEvent_9
//  343   {
//  344     halRestoreSleepLevel();
        ; Setup parameters for call to function halRestoreSleepLevel
        LCALL   ??halRestoreSleepLevel?relay
//  345     return events ^ HAL_SLEEP_TIMER_EVENT;
        MOV     A,R6
        XRL     A,#0x4
        MOV     R2,A
        MOV     A,R7
        XRL     A,#0x0
        MOV     R3,A
        SJMP    ??Hal_ProcessEvent_3
//  346   }
//  347 #endif
//  348 
//  349 #ifdef CC2591_COMPRESSION_WORKAROUND
//  350   if ( events & PERIOD_RSSI_RESET_EVT )
//  351   {
//  352     macRxResetRssi();
//  353     return (events ^ PERIOD_RSSI_RESET_EVT);
//  354   }
//  355 #endif  
//  356   
//  357   /* Nothing interested, discard the message */
//  358   return 0;
??Hal_ProcessEvent_9:
        MOV     R2,#0x0
        MOV     R3,#0x0
??Hal_ProcessEvent_3:
        MOV     R7,#0x6
        LJMP    ?BANKED_LEAVE_XDATA
        CFI EndBlock cfiBlock2
//  359 
//  360 }
//  361 
//  362 /**************************************************************************************************
//  363  * @fn      Hal_ProcessPoll
//  364  *
//  365  * @brief   This routine will be called by OSAL to poll UART, TIMER...
//  366  *
//  367  * @param   task_id - Hal TaskId
//  368  *
//  369  * @return  None
//  370  **************************************************************************************************/

        RSEG BANKED_CODE:CODE:NOROOT(0)
//  371 void Hal_ProcessPoll ()
Hal_ProcessPoll:
        CFI Block cfiBlock3 Using cfiCommon0
        CFI Function Hal_ProcessPoll
        CODE
//  372 {
        ; Saved register size: 0
        ; Auto size: 0
//  373 
//  374   /* Timer Poll */
//  375 #if (defined HAL_TIMER) && (HAL_TIMER == TRUE)
//  376   #error "The hal timer driver module is removed."
//  377 #endif
//  378 
//  379   /* UART Poll */
//  380 #if (defined HAL_UART) && (HAL_UART == TRUE)
//  381   HalUARTPoll();
//  382 #endif  
//  383 
//  384   /* SPI Poll */
//  385 #if (defined HAL_SPI) && (HAL_SPI == TRUE)
//  386   HalSpiPoll();
//  387 #endif
//  388 
//  389   /* HID poll */
//  390 #if (defined HAL_HID) && (HAL_HID == TRUE)
//  391   usbHidProcessEvents();
//  392 #endif
//  393   
//  394 #if defined( POWER_SAVING )
//  395   /* Allow sleep before the next OSAL event loop */
//  396   ALLOW_SLEEP_MODE();
        MOV     halSleepPconValue,#0x1
//  397 #endif
//  398 
//  399 }
        LJMP    ?BRET
        CFI EndBlock cfiBlock3

        RSEG BANK_RELAYS:CODE:REORDER:NOROOT(0)
??Hal_Init?relay:
        LCALL   ?BDISPATCH
        DATA
        DC24    Hal_Init

        RSEG BANK_RELAYS:CODE:REORDER:NOROOT(0)
??HalDriverInit?relay:
        LCALL   ?BDISPATCH
        DATA
        DC24    HalDriverInit

        RSEG BANK_RELAYS:CODE:REORDER:NOROOT(0)
??Hal_ProcessEvent?relay:
        LCALL   ?BDISPATCH
        DATA
        DC24    Hal_ProcessEvent

        RSEG BANK_RELAYS:CODE:REORDER:NOROOT(0)
??Hal_ProcessPoll?relay:
        LCALL   ?BDISPATCH
        DATA
        DC24    Hal_ProcessPoll

        END
//  400 
//  401 
//  402 /**************************************************************************************************
//  403 **************************************************************************************************/
//  404 
// 
// 255 bytes in segment BANKED_CODE
//  24 bytes in segment BANK_RELAYS
//   1 byte  in segment XDATA_Z
// 
// 279 bytes of CODE  memory
//   1 byte  of XDATA memory
//
//Errors: none
//Warnings: none
