///////////////////////////////////////////////////////////////////////////////
//                                                                            /
// IAR C/C++ Compiler V8.10.1.10194/W32 for 8051        11/Feb/2015  16:51:45 /
// Copyright 2004-2011 IAR Systems AB.                                        /
//                                                                            /
//    Core               =  plain                                             /
//    Code model         =  banked                                            /
//    Data model         =  large                                             /
//    Calling convention =  xdata reentrant                                   /
//    Constant location  =  data_rom                                          /
//    Dptr setup         =  1,16                                              /
//    Source file        =  D:\RE_1_2_0_FORMAL_APP(251)-14-12-8\Projects\zsta /
//                          ck\Samples\SampleApp\Source\SCEEN_KEYPAD\SCEEN_KE /
//                          YPAD_User_app.c                                   /
//    Command line       =  -f "D:\RE_1_2_0_FORMAL_APP(251)-14-12-8\Projects\ /
//                          zstack\Samples\SampleApp\CC2530DB\..\..\..\Tools\ /
//                          CC2530DB\f8wEndev.cfg" (-DCPU32MHZ                /
//                          -DROOT=__near_func -DMAC_CFG_TX_DATA_MAX=3        /
//                          -DMAC_CFG_TX_MAX=6 -DMAC_CFG_RX_MAX=3) -f         /
//                          "D:\RE_1_2_0_FORMAL_APP(251)-14-12-8\Projects\zst /
//                          ack\Samples\SampleApp\CC2530DB\..\..\..\Tools\CC2 /
//                          530DB\f8wConfig.cfg" (-DZIGBEEPRO -DSECURE=1      /
//                          -DZG_SECURE_DYNAMIC=0 -DREFLECTOR                 /
//                          -DZDAPP_CONFIG_PAN_ID=0xFFFF                      /
//                          -DNWK_START_DELAY=100 -DEXTENDED_JOINING_RANDOM_M /
//                          ASK=0x007F -DBEACON_REQUEST_DELAY=100             /
//                          -DBEACON_REQ_DELAY_MASK=0x00FF                    /
//                          -DLINK_STATUS_JITTER_MASK=0x007F                  /
//                          -DROUTE_EXPIRY_TIME=30 -DAPSC_ACK_WAIT_DURATION_P /
//                          OLLED=3000 -DNWK_INDIRECT_MSG_TIMEOUT=60          /
//                          -DMAX_RREQ_ENTRIES=8 -DAPSC_MAX_FRAME_RETRIES=3   /
//                          -DNWK_MAX_DATA_RETRIES=2                          /
//                          -DMAX_POLL_FAILURE_RETRIES=2 -DMAX_BCAST=9        /
//                          -DAPS_MAX_GROUPS=16 -DMAX_RTG_ENTRIES=30          /
//                          -DNWK_MAX_BINDING_ENTRIES=10                      /
//                          -DMAX_BINDING_CLUSTER_IDS=4 -DASSERT_RESET        /
//                          -DMAC_MAX_FRAME_SIZE=116                          /
//                          -DZDNWKMGR_MIN_TRANSMISSIONS=20 "-DCONST=const    /
//                          __code" -DGENERIC=__generic                       /
//                          -DRFD_RCVC_ALWAYS_ON=FALSE -DPOLL_RATE=8000       /
//                          -DQUEUED_POLL_RATE=100 -DRESPONSE_POLL_RATE=1000) /
//                           -DREJOIN_POLL_RATE=440                           /
//                          "D:\RE_1_2_0_FORMAL_APP(251)-14-12-8\Projects\zst /
//                          ack\Samples\SampleApp\Source\SCEEN_KEYPAD\SCEEN_K /
//                          EYPAD_User_app.c" -D NV_INIT -D NV_RESTORE -D     /
//                          HOLD_AUTO_START -D MT_TASK -D xMT_APP_FUNC -D     /
//                          MT_SYS_FUNC -D MT_ZDO_FUNC -D xMT_ZDO_MGMT -D     /
//                          ISR_KEYINTERRUPT -D POWER_SAVING -D               /
//                          xLONG_POLL_TIMES -D xHAVE_TEST_FUN -D             /
//                          RESUME_TIME_TEST -D SCEEN_KEYPAD -D xM_V332 -lC   /
//                          "D:\RE_1_2_0_FORMAL_APP(251)-14-12-8\Projects\zst /
//                          ack\Samples\SampleApp\CC2530DB\SCEEN_KEYPAD\List\ /
//                          " -lA "D:\RE_1_2_0_FORMAL_APP(251)-14-12-8\Projec /
//                          ts\zstack\Samples\SampleApp\CC2530DB\SCEEN_KEYPAD /
//                          \List\" --diag_suppress Pe001,Pa010 -o            /
//                          "D:\RE_1_2_0_FORMAL_APP(251)-14-12-8\Projects\zst /
//                          ack\Samples\SampleApp\CC2530DB\SCEEN_KEYPAD\Obj\" /
//                           -e --no_cse --no_unroll --no_inline              /
//                          --no_code_motion --no_tbaa --debug --core=plain   /
//                          --dptr=16,1 --data_model=large                    /
//                          --code_model=banked --calling_convention=xdata_re /
//                          entrant --place_constants=data_rom                /
//                          --nr_virtual_regs 16 -I                           /
//                          "D:\RE_1_2_0_FORMAL_APP(251)-14-12-8\Projects\zst /
//                          ack\Samples\SampleApp\CC2530DB\" -I               /
//                          "D:\RE_1_2_0_FORMAL_APP(251)-14-12-8\Projects\zst /
//                          ack\Samples\SampleApp\CC2530DB\..\Source\" -I     /
//                          "D:\RE_1_2_0_FORMAL_APP(251)-14-12-8\Projects\zst /
//                          ack\Samples\SampleApp\CC2530DB\..\Source\rssi_tes /
//                          t\h\" -I "D:\RE_1_2_0_FORMAL_APP(251)-14-12-8\Pro /
//                          jects\zstack\Samples\SampleApp\CC2530DB\..\Source /
//                          \SCEEN_KEYPAD\" -I "D:\RE_1_2_0_FORMAL_APP(251)-1 /
//                          4-12-8\Projects\zstack\Samples\SampleApp\CC2530DB /
//                          \..\..\..\ZMain\TI2530DB\" -I                     /
//                          "D:\RE_1_2_0_FORMAL_APP(251)-14-12-8\Projects\zst /
//                          ack\Samples\SampleApp\CC2530DB\..\..\..\..\..\Com /
//                          ponents\hal\include\" -I                          /
//                          "D:\RE_1_2_0_FORMAL_APP(251)-14-12-8\Projects\zst /
//                          ack\Samples\SampleApp\CC2530DB\..\..\..\..\..\Com /
//                          ponents\hal\target\CC2530EB\" -I                  /
//                          "D:\RE_1_2_0_FORMAL_APP(251)-14-12-8\Projects\zst /
//                          ack\Samples\SampleApp\CC2530DB\..\..\..\..\..\Com /
//                          ponents\mac\include\" -I                          /
//                          "D:\RE_1_2_0_FORMAL_APP(251)-14-12-8\Projects\zst /
//                          ack\Samples\SampleApp\CC2530DB\..\..\..\..\..\Com /
//                          ponents\mac\high_level\" -I                       /
//                          "D:\RE_1_2_0_FORMAL_APP(251)-14-12-8\Projects\zst /
//                          ack\Samples\SampleApp\CC2530DB\..\..\..\..\..\Com /
//                          ponents\mac\low_level\srf04\" -I                  /
//                          "D:\RE_1_2_0_FORMAL_APP(251)-14-12-8\Projects\zst /
//                          ack\Samples\SampleApp\CC2530DB\..\..\..\..\..\Com /
//                          ponents\mac\low_level\srf04\single_chip\" -I      /
//                          "D:\RE_1_2_0_FORMAL_APP(251)-14-12-8\Projects\zst /
//                          ack\Samples\SampleApp\CC2530DB\..\..\..\..\..\Com /
//                          ponents\mt\" -I "D:\RE_1_2_0_FORMAL_APP(251)-14-1 /
//                          2-8\Projects\zstack\Samples\SampleApp\CC2530DB\.. /
//                          \..\..\..\..\Components\osal\include\" -I         /
//                          "D:\RE_1_2_0_FORMAL_APP(251)-14-12-8\Projects\zst /
//                          ack\Samples\SampleApp\CC2530DB\..\..\..\..\..\Com /
//                          ponents\services\saddr\" -I                       /
//                          "D:\RE_1_2_0_FORMAL_APP(251)-14-12-8\Projects\zst /
//                          ack\Samples\SampleApp\CC2530DB\..\..\..\..\..\Com /
//                          ponents\services\sdata\" -I                       /
//                          "D:\RE_1_2_0_FORMAL_APP(251)-14-12-8\Projects\zst /
//                          ack\Samples\SampleApp\CC2530DB\..\..\..\..\..\Com /
//                          ponents\stack\af\" -I "D:\RE_1_2_0_FORMAL_APP(251 /
//                          )-14-12-8\Projects\zstack\Samples\SampleApp\CC253 /
//                          0DB\..\..\..\..\..\Components\stack\nwk\" -I      /
//                          "D:\RE_1_2_0_FORMAL_APP(251)-14-12-8\Projects\zst /
//                          ack\Samples\SampleApp\CC2530DB\..\..\..\..\..\Com /
//                          ponents\stack\sapi\" -I                           /
//                          "D:\RE_1_2_0_FORMAL_APP(251)-14-12-8\Projects\zst /
//                          ack\Samples\SampleApp\CC2530DB\..\..\..\..\..\Com /
//                          ponents\stack\sec\" -I "D:\RE_1_2_0_FORMAL_APP(25 /
//                          1)-14-12-8\Projects\zstack\Samples\SampleApp\CC25 /
//                          30DB\..\..\..\..\..\Components\stack\sys\" -I     /
//                          "D:\RE_1_2_0_FORMAL_APP(251)-14-12-8\Projects\zst /
//                          ack\Samples\SampleApp\CC2530DB\..\..\..\..\..\Com /
//                          ponents\stack\zdo\" -I "D:\RE_1_2_0_FORMAL_APP(25 /
//                          1)-14-12-8\Projects\zstack\Samples\SampleApp\CC25 /
//                          30DB\..\..\..\..\..\Components\zmac\" -I          /
//                          "D:\RE_1_2_0_FORMAL_APP(251)-14-12-8\Projects\zst /
//                          ack\Samples\SampleApp\CC2530DB\..\..\..\..\..\Com /
//                          ponents\zmac\f8w\" -On --require_prototypes       /
//    List file          =  D:\RE_1_2_0_FORMAL_APP(251)-14-12-8\Projects\zsta /
//                          ck\Samples\SampleApp\CC2530DB\SCEEN_KEYPAD\List\S /
//                          CEEN_KEYPAD_User_app.s51                          /
//                                                                            /
//                                                                            /
///////////////////////////////////////////////////////////////////////////////

        NAME SCEEN_KEYPAD_User_app

        RTMODEL "__SystemLibrary", "CLib"
        RTMODEL "__calling_convention", "xdata_reentrant"
        RTMODEL "__code_model", "banked"
        RTMODEL "__core", "plain"
        RTMODEL "__data_model", "large"
        RTMODEL "__dptr_size", "16"
        RTMODEL "__extended_stack", "disabled"
        RTMODEL "__location_for_constants", "data"
        RTMODEL "__number_of_dptrs", "1"
        RTMODEL "__rt_version", "1"

        RSEG DOVERLAY:DATA:NOROOT(0)
        RSEG IOVERLAY:IDATA:NOROOT(0)
        RSEG ISTACK:IDATA:NOROOT(0)
        RSEG PSTACK:XDATA:NOROOT(0)
        RSEG XSTACK:XDATA:NOROOT(0)

        EXTERN ?ALLOC_XSTACK8
        EXTERN ?BANKED_ENTER_XDATA
        EXTERN ?BANKED_LEAVE_XDATA
        EXTERN ?BDISPATCH
        EXTERN ?BRET
        EXTERN ?DEALLOC_XSTACK8
        EXTERN ?PUSH_XSTACK_I_ONE
        EXTERN ?PUSH_XSTACK_I_TWO
        EXTERN ?US_DIV_MOD
        EXTERN ?V0
        EXTERN ?XSP
        EXTERN ?XSTACK_DISP0_8
        EXTERN __INIT_XDATA_I
        EXTERN __INIT_XDATA_Z

        PUBLIC ??LED_CHANGE?relay
        FUNCTION ??LED_CHANGE?relay,0203H
        PUBLIC ??READ_NETKEY?relay
        FUNCTION ??READ_NETKEY?relay,0203H
        PUBLIC ??SampleAPP_ProcessZDOMsgs?relay
        FUNCTION ??SampleAPP_ProcessZDOMsgs?relay,0203H
        PUBLIC ??SampleAPP_send_delay_message?relay
        FUNCTION ??SampleAPP_send_delay_message?relay,0203H
        PUBLIC ??SampleApp_HandleKeys?relay
        FUNCTION ??SampleApp_HandleKeys?relay,0203H
        PUBLIC ??SampleApp_ProcessBINDINGMessage?relay
        FUNCTION ??SampleApp_ProcessBINDINGMessage?relay,0203H
        PUBLIC ??SampleApp_SendInMessage?relay
        FUNCTION ??SampleApp_SendInMessage?relay,0203H
        PUBLIC ??USER_AFTER_RS_MSG?relay
        FUNCTION ??USER_AFTER_RS_MSG?relay,0203H
        PUBLIC ??USER_APP_COMMAND?relay
        FUNCTION ??USER_APP_COMMAND?relay,0203H
        PUBLIC ??USER_APP_JOIN_MSG?relay
        FUNCTION ??USER_APP_JOIN_MSG?relay,0203H
        PUBLIC ??USER_MAYBE_BUTTERY_MSG?relay
        FUNCTION ??USER_MAYBE_BUTTERY_MSG?relay,0203H
        PUBLIC ??USER_SET_NOMAL_POLL_TIME?relay
        FUNCTION ??USER_SET_NOMAL_POLL_TIME?relay,0203H
        PUBLIC ??USER_SET_RS_MSG?relay
        FUNCTION ??USER_SET_RS_MSG?relay,0203H
        PUBLIC ??USER_ZDO_JOINING_MSG?relay
        FUNCTION ??USER_ZDO_JOINING_MSG?relay,0203H
        PUBLIC ??UserApp_Init?relay
        FUNCTION ??UserApp_Init?relay,0203H
        PUBLIC ??UserApp_ProcessEvent?relay
        FUNCTION ??UserApp_ProcessEvent?relay,0203H
        PUBLIC ??User_APP_Drive_init?relay
        FUNCTION ??User_APP_Drive_init?relay,0203H
        PUBLIC BUTTERY_ALARM_BIT
        PUBLIC BUTTERY_LOW_FLAG
        PUBLIC CASH_TIME_FLAG
        PUBLIC CR2_DATA_NODETECT_FLAG
        PUBLIC CmdType
        PUBLIC DEEP_POLL_FLAG
        PUBLIC DEFINED_CONTROL_CHAR
        PUBLIC DEVICE_ID
        PUBLIC FRONT_ALARM_FLAG
        PUBLIC HIGH_BUTTERY_FLAG
        PUBLIC Heart_mesg_count
        PUBLIC Hour_count
        PUBLIC IRCodeIndex
        PUBLIC JOIN_ROLE
        PUBLIC LED_CHANGE
        FUNCTION LED_CHANGE,0203H
        ARGFRAME XSTACK, 0, STACK
        PUBLIC LOW_POWER_MODE
        PUBLIC NORMAL_POLL_TIME
        PUBLIC ONOROFF1
        PUBLIC ONOROFF2
        PUBLIC ONOROFF3
        PUBLIC ONOROFF4
        PUBLIC ONOROFF5
        PUBLIC ONOROFF6
        PUBWEAK P0DIR
        PUBWEAK P0IEN
        PUBWEAK P0IFG
        PUBWEAK P1DIR
        PUBWEAK P1IEN
        PUBWEAK P1IFG
        PUBLIC POLLRATE_TIME_VALUE
        PUBLIC READ_NETKEY
        FUNCTION READ_NETKEY,0203H
        ARGFRAME XSTACK, 0, STACK
        PUBLIC RS_LEN
        PUBLIC RS_STR
        PUBLIC SHORT_ADRESS
        PUBLIC SampleAPP_ProcessZDOMsgs
        FUNCTION SampleAPP_ProcessZDOMsgs,021203H
        ARGFRAME XSTACK, 14, STACK
        ARGFRAME IOVERLAY, 0, STATIC
        ARGFRAME DOVERLAY, 0, STATIC
        LOCFRAME XSTACK, 9, STACK
        PUBLIC SampleAPP_send_delay_message
        FUNCTION SampleAPP_send_delay_message,021203H
        ARGFRAME XSTACK, 0, STACK
        LOCFRAME XSTACK, 19, STACK
        PUBLIC SampleApp_BIND_DstAddr
        PUBLIC SampleApp_HandleKeys
        FUNCTION SampleApp_HandleKeys,021203H
        ARGFRAME XSTACK, 14, STACK
        ARGFRAME IOVERLAY, 0, STATIC
        ARGFRAME DOVERLAY, 0, STATIC
        LOCFRAME XSTACK, 30, STACK
        PUBLIC SampleApp_ProcessBINDINGMessage
        FUNCTION SampleApp_ProcessBINDINGMessage,0203H
        ARGFRAME XSTACK, 0, STACK
        PUBLIC SampleApp_SendInMessage
        FUNCTION SampleApp_SendInMessage,021203H
        ARGFRAME XSTACK, 14, STACK
        ARGFRAME IOVERLAY, 0, STATIC
        ARGFRAME DOVERLAY, 0, STATIC
        LOCFRAME ISTACK, 1, STACK
        LOCFRAME XSTACK, 11, STACK
        PUBLIC SampleApp_SimpleDesc1
        PUBLIC SampleApp_SimpleDesc2
        PUBLIC SampleApp_SimpleDesc3
        PUBLIC SampleApp_SimpleDesc4
        PUBLIC SampleApp_SimpleDesc5
        PUBLIC SampleApp_SimpleDesc6
        PUBLIC SampleApp_epDesc1
        PUBLIC SampleApp_epDesc2
        PUBLIC SampleApp_epDesc3
        PUBLIC SampleApp_epDesc4
        PUBLIC SampleApp_epDesc5
        PUBLIC SampleApp_epDesc6
        PUBLIC USER_AFTER_RS_MSG
        FUNCTION USER_AFTER_RS_MSG,0203H
        ARGFRAME XSTACK, 0, STACK
        PUBLIC USER_APP_COMMAND
        FUNCTION USER_APP_COMMAND,0203H
        ARGFRAME XSTACK, 0, STACK
        LOCFRAME ISTACK, 1, STACK
        LOCFRAME XSTACK, 10, STACK
        PUBLIC USER_APP_JOIN_MSG
        FUNCTION USER_APP_JOIN_MSG,021203H
        ARGFRAME XSTACK, 0, STACK
        LOCFRAME XSTACK, 10, STACK
        PUBLIC USER_DATA_LEN
        PUBLIC USER_DATA_STR
        PUBLIC USER_DATA_TYPE
        PUBLIC USER_MAYBE_BUTTERY_MSG
        FUNCTION USER_MAYBE_BUTTERY_MSG,021203H
        ARGFRAME XSTACK, 0, STACK
        LOCFRAME XSTACK, 10, STACK
        PUBLIC USER_SET_NOMAL_POLL_TIME
        FUNCTION USER_SET_NOMAL_POLL_TIME,0203H
        ARGFRAME XSTACK, 0, STACK
        LOCFRAME ISTACK, 2, STACK
        PUBLIC USER_SET_RS_MSG
        FUNCTION USER_SET_RS_MSG,021203H
        ARGFRAME XSTACK, 0, STACK
        LOCFRAME ISTACK, 2, STACK
        PUBLIC USER_SampleApp_ClusterList
        PUBLIC USER_ZDO_JOINING_MSG
        FUNCTION USER_ZDO_JOINING_MSG,021203H
        ARGFRAME XSTACK, 0, STACK
        LOCFRAME ISTACK, 2, STACK
        PUBLIC UserApp_Init
        FUNCTION UserApp_Init,021203H
        ARGFRAME XSTACK, 0, STACK
        LOCFRAME XSTACK, 9, STACK
        PUBLIC UserApp_ProcessEvent
        FUNCTION UserApp_ProcessEvent,021203H
        ARGFRAME XSTACK, 0, STACK
        LOCFRAME XSTACK, 14, STACK
        PUBLIC UserApp_TaskID
        PUBLIC User_APP_Drive_init
        FUNCTION User_APP_Drive_init,0203H
        ARGFRAME XSTACK, 9, STACK
        ARGFRAME IOVERLAY, 0, STATIC
        ARGFRAME DOVERLAY, 0, STATIC
        PUBWEAK _A_IEN0
        PUBWEAK _A_P0
        PUBWEAK _A_P1
        PUBLIC active_battery_voltage
        PUBLIC bindingINClusters
        PUBLIC forever_forbiten_flag
        PUBLIC huePara
        PUBLIC longPollRateFlag
        PUBLIC more_detect_low_power_flag
        PUBLIC poll_count
        PUBLIC screen_current_flag
        PUBLIC screen_flag
        
        CFI Names cfiNames0
        CFI StackFrame CFA_SP SP IDATA
        CFI StackFrame CFA_PSP16 PSP16 XDATA
        CFI StackFrame CFA_XSP16 XSP16 XDATA
        CFI StaticOverlayFrame CFA_IOVERLAY IOVERLAY
        CFI StaticOverlayFrame CFA_DOVERLAY DOVERLAY
        CFI Resource `PSW.CY`:1, `B.BR0`:1, `B.BR1`:1, `B.BR2`:1, `B.BR3`:1
        CFI Resource `B.BR4`:1, `B.BR5`:1, `B.BR6`:1, `B.BR7`:1, `VB.BR8`:1
        CFI Resource `VB.BR9`:1, `VB.BR10`:1, `VB.BR11`:1, `VB.BR12`:1
        CFI Resource `VB.BR13`:1, `VB.BR14`:1, `VB.BR15`:1, VB:8, B:8, A:8
        CFI Resource PSW:8, DPL0:8, DPH0:8, R0:8, R1:8, R2:8, R3:8, R4:8, R5:8
        CFI Resource R6:8, R7:8, V0:8, V1:8, V2:8, V3:8, V4:8, V5:8, V6:8, V7:8
        CFI Resource V8:8, V9:8, V10:8, V11:8, V12:8, V13:8, V14:8, V15:8, SP:8
        CFI Resource PSPH:8, PSPL:8, PSP16:16, XSPH:8, XSPL:8, XSP16:16
        CFI VirtualResource ?RET:24
        CFI Resource ?BRET_EXT:8
        CFI VirtualResource ?RET_HIGH:8, ?RET_LOW:8
        CFI ResourceParts PSP16 PSPH, PSPL
        CFI ResourceParts XSP16 XSPH, XSPL
        CFI ResourceParts ?RET ?BRET_EXT, ?RET_HIGH, ?RET_LOW
        CFI EndNames cfiNames0
        
        CFI Common cfiCommon0 Using cfiNames0
        CFI CodeAlign 1
        CFI DataAlign -1
        CFI ReturnAddress ?RET CODE
        CFI CFA_DOVERLAY Used
        CFI CFA_IOVERLAY Used
        CFI CFA_SP SP+-3
        CFI CFA_PSP16 PSP16+0
        CFI CFA_XSP16 XSP16+0
        CFI `PSW.CY` SameValue
        CFI `B.BR0` SameValue
        CFI `B.BR1` SameValue
        CFI `B.BR2` SameValue
        CFI `B.BR3` SameValue
        CFI `B.BR4` SameValue
        CFI `B.BR5` SameValue
        CFI `B.BR6` SameValue
        CFI `B.BR7` SameValue
        CFI `VB.BR8` SameValue
        CFI `VB.BR9` SameValue
        CFI `VB.BR10` SameValue
        CFI `VB.BR11` SameValue
        CFI `VB.BR12` SameValue
        CFI `VB.BR13` SameValue
        CFI `VB.BR14` SameValue
        CFI `VB.BR15` SameValue
        CFI VB SameValue
        CFI B Undefined
        CFI A Undefined
        CFI PSW SameValue
        CFI DPL0 SameValue
        CFI DPH0 SameValue
        CFI R0 Undefined
        CFI R1 Undefined
        CFI R2 Undefined
        CFI R3 Undefined
        CFI R4 Undefined
        CFI R5 Undefined
        CFI R6 SameValue
        CFI R7 SameValue
        CFI V0 SameValue
        CFI V1 SameValue
        CFI V2 SameValue
        CFI V3 SameValue
        CFI V4 SameValue
        CFI V5 SameValue
        CFI V6 SameValue
        CFI V7 SameValue
        CFI V8 SameValue
        CFI V9 SameValue
        CFI V10 SameValue
        CFI V11 SameValue
        CFI V12 SameValue
        CFI V13 SameValue
        CFI V14 SameValue
        CFI V15 SameValue
        CFI PSPH Undefined
        CFI PSPL Undefined
        CFI XSPH Undefined
        CFI XSPL Undefined
        CFI ?RET Concat
        CFI ?BRET_EXT Frame(CFA_SP, 3)
        CFI ?RET_HIGH Frame(CFA_SP, 2)
        CFI ?RET_LOW Frame(CFA_SP, 1)
        CFI EndCommon cfiCommon0
        
RegisterForKeys     SYMBOL "RegisterForKeys"
afRegister          SYMBOL "afRegister"
ZDO_RegisterForZDOMsg SYMBOL "ZDO_RegisterForZDOMsg"
osal_msg_receive    SYMBOL "osal_msg_receive"
osal_msg_deallocate SYMBOL "osal_msg_deallocate"
osal_start_timerEx  SYMBOL "osal_start_timerEx"
myApp_ReadBattery   SYMBOL "myApp_ReadBattery"
osal_stop_timerEx   SYMBOL "osal_stop_timerEx"
osal_pwrmgr_device  SYMBOL "osal_pwrmgr_device"
HalLedBlink         SYMBOL "HalLedBlink"
NLME_GetShortAddr   SYMBOL "NLME_GetShortAddr"
ZDP_EndDeviceBindReq SYMBOL "ZDP_EndDeviceBindReq"
APPLY_TO_JOIN_OF_KEY SYMBOL "APPLY_TO_JOIN_OF_KEY"
NLME_PermitJoiningRequest SYMBOL "NLME_PermitJoiningRequest"
ZDP_MgmtPermitJoinReq SYMBOL "ZDP_MgmtPermitJoinReq"
RESTORE_TO_FACTORY  SYMBOL "RESTORE_TO_FACTORY"
NLME_SetPollRate    SYMBOL "NLME_SetPollRate"
SampleApp_GetShortAddr SYMBOL "SampleApp_GetShortAddr"
osal_mem_free       SYMBOL "osal_mem_free"
osal_mem_alloc      SYMBOL "osal_mem_alloc"
USER_SEND_ADD_STR   SYMBOL "USER_SEND_ADD_STR"
USER_APP_SEND_IN    SYMBOL "USER_APP_SEND_IN"
bindNumReflections  SYMBOL "bindNumReflections"
AF_DataRequest      SYMBOL "AF_DataRequest"
??AF_DataRequest?relay SYMBOL "?relay", AF_DataRequest
??APPLY_TO_JOIN_OF_KEY?relay SYMBOL "?relay", APPLY_TO_JOIN_OF_KEY
??HalLedBlink?relay SYMBOL "?relay", HalLedBlink
??NLME_GetShortAddr?relay SYMBOL "?relay", NLME_GetShortAddr
??NLME_PermitJoiningRequest?relay SYMBOL "?relay", NLME_PermitJoiningRequest
??NLME_SetPollRate?relay SYMBOL "?relay", NLME_SetPollRate
??RESTORE_TO_FACTORY?relay SYMBOL "?relay", RESTORE_TO_FACTORY
??RegisterForKeys?relay SYMBOL "?relay", RegisterForKeys
??SampleApp_GetShortAddr?relay SYMBOL "?relay", SampleApp_GetShortAddr
??USER_APP_SEND_IN?relay SYMBOL "?relay", USER_APP_SEND_IN
??USER_SEND_ADD_STR?relay SYMBOL "?relay", USER_SEND_ADD_STR
??ZDO_RegisterForZDOMsg?relay SYMBOL "?relay", ZDO_RegisterForZDOMsg
??ZDP_EndDeviceBindReq?relay SYMBOL "?relay", ZDP_EndDeviceBindReq
??ZDP_MgmtPermitJoinReq?relay SYMBOL "?relay", ZDP_MgmtPermitJoinReq
??afRegister?relay  SYMBOL "?relay", afRegister
??bindNumReflections?relay SYMBOL "?relay", bindNumReflections
??myApp_ReadBattery?relay SYMBOL "?relay", myApp_ReadBattery
??osal_mem_alloc?relay SYMBOL "?relay", osal_mem_alloc
??osal_mem_free?relay SYMBOL "?relay", osal_mem_free
??osal_msg_deallocate?relay SYMBOL "?relay", osal_msg_deallocate
??osal_msg_receive?relay SYMBOL "?relay", osal_msg_receive
??osal_pwrmgr_device?relay SYMBOL "?relay", osal_pwrmgr_device
??osal_start_timerEx?relay SYMBOL "?relay", osal_start_timerEx
??osal_stop_timerEx?relay SYMBOL "?relay", osal_stop_timerEx
LED_CHANGE          SYMBOL "LED_CHANGE"
??LED_CHANGE?relay  SYMBOL "?relay", LED_CHANGE
READ_NETKEY         SYMBOL "READ_NETKEY"
??READ_NETKEY?relay SYMBOL "?relay", READ_NETKEY
SampleAPP_ProcessZDOMsgs SYMBOL "SampleAPP_ProcessZDOMsgs"
??SampleAPP_ProcessZDOMsgs?relay SYMBOL "?relay", SampleAPP_ProcessZDOMsgs
SampleAPP_send_delay_message SYMBOL "SampleAPP_send_delay_message"
??SampleAPP_send_delay_message?relay SYMBOL "?relay", SampleAPP_send_delay_message
SampleApp_HandleKeys SYMBOL "SampleApp_HandleKeys"
??SampleApp_HandleKeys?relay SYMBOL "?relay", SampleApp_HandleKeys
SampleApp_ProcessBINDINGMessage SYMBOL "SampleApp_ProcessBINDINGMessage"
??SampleApp_ProcessBINDINGMessage?relay SYMBOL "?relay", SampleApp_ProcessBINDINGMessage
SampleApp_SendInMessage SYMBOL "SampleApp_SendInMessage"
??SampleApp_SendInMessage?relay SYMBOL "?relay", SampleApp_SendInMessage
USER_AFTER_RS_MSG   SYMBOL "USER_AFTER_RS_MSG"
??USER_AFTER_RS_MSG?relay SYMBOL "?relay", USER_AFTER_RS_MSG
USER_APP_COMMAND    SYMBOL "USER_APP_COMMAND"
??USER_APP_COMMAND?relay SYMBOL "?relay", USER_APP_COMMAND
USER_APP_JOIN_MSG   SYMBOL "USER_APP_JOIN_MSG"
??USER_APP_JOIN_MSG?relay SYMBOL "?relay", USER_APP_JOIN_MSG
USER_MAYBE_BUTTERY_MSG SYMBOL "USER_MAYBE_BUTTERY_MSG"
??USER_MAYBE_BUTTERY_MSG?relay SYMBOL "?relay", USER_MAYBE_BUTTERY_MSG
USER_SET_NOMAL_POLL_TIME SYMBOL "USER_SET_NOMAL_POLL_TIME"
??USER_SET_NOMAL_POLL_TIME?relay SYMBOL "?relay", USER_SET_NOMAL_POLL_TIME
USER_SET_RS_MSG     SYMBOL "USER_SET_RS_MSG"
??USER_SET_RS_MSG?relay SYMBOL "?relay", USER_SET_RS_MSG
USER_ZDO_JOINING_MSG SYMBOL "USER_ZDO_JOINING_MSG"
??USER_ZDO_JOINING_MSG?relay SYMBOL "?relay", USER_ZDO_JOINING_MSG
UserApp_Init        SYMBOL "UserApp_Init"
??UserApp_Init?relay SYMBOL "?relay", UserApp_Init
UserApp_ProcessEvent SYMBOL "UserApp_ProcessEvent"
??UserApp_ProcessEvent?relay SYMBOL "?relay", UserApp_ProcessEvent
User_APP_Drive_init SYMBOL "User_APP_Drive_init"
??User_APP_Drive_init?relay SYMBOL "?relay", User_APP_Drive_init

        EXTERN RegisterForKeys
        FUNCTION RegisterForKeys,0202H
        ARGFRAME ISTACK, 0, STACK
        ARGFRAME PSTACK, 0, STACK
        ARGFRAME XSTACK, 9, STACK
        ARGFRAME IOVERLAY, 0, STATIC
        ARGFRAME DOVERLAY, 0, STATIC
        EXTERN afRegister
        FUNCTION afRegister,0202H
        ARGFRAME ISTACK, 0, STACK
        ARGFRAME PSTACK, 0, STACK
        ARGFRAME XSTACK, 9, STACK
        ARGFRAME IOVERLAY, 0, STATIC
        ARGFRAME DOVERLAY, 0, STATIC
        EXTERN ZDO_RegisterForZDOMsg
        FUNCTION ZDO_RegisterForZDOMsg,0202H
        ARGFRAME ISTACK, 0, STACK
        ARGFRAME PSTACK, 0, STACK
        ARGFRAME XSTACK, 9, STACK
        ARGFRAME IOVERLAY, 0, STATIC
        ARGFRAME DOVERLAY, 0, STATIC
        EXTERN osal_msg_receive
        FUNCTION osal_msg_receive,0202H
        ARGFRAME ISTACK, 0, STACK
        ARGFRAME PSTACK, 0, STACK
        ARGFRAME XSTACK, 14, STACK
        ARGFRAME IOVERLAY, 0, STATIC
        ARGFRAME DOVERLAY, 0, STATIC
        EXTERN osal_msg_deallocate
        FUNCTION osal_msg_deallocate,0202H
        ARGFRAME ISTACK, 0, STACK
        ARGFRAME PSTACK, 0, STACK
        ARGFRAME XSTACK, 14, STACK
        ARGFRAME IOVERLAY, 0, STATIC
        ARGFRAME DOVERLAY, 0, STATIC
        EXTERN osal_start_timerEx
        FUNCTION osal_start_timerEx,0202H
        ARGFRAME ISTACK, 2, STACK
        ARGFRAME PSTACK, 0, STACK
        ARGFRAME XSTACK, 21, STACK
        ARGFRAME IOVERLAY, 0, STATIC
        ARGFRAME DOVERLAY, 0, STATIC
        EXTERN myApp_ReadBattery
        FUNCTION myApp_ReadBattery,0202H
        ARGFRAME ISTACK, 2, STACK
        ARGFRAME PSTACK, 0, STACK
        ARGFRAME XSTACK, 14, STACK
        ARGFRAME IOVERLAY, 0, STATIC
        ARGFRAME DOVERLAY, 0, STATIC
        EXTERN osal_stop_timerEx
        FUNCTION osal_stop_timerEx,0202H
        ARGFRAME ISTACK, 0, STACK
        ARGFRAME PSTACK, 0, STACK
        ARGFRAME XSTACK, 14, STACK
        ARGFRAME IOVERLAY, 0, STATIC
        ARGFRAME DOVERLAY, 0, STATIC
        EXTERN osal_pwrmgr_device
        FUNCTION osal_pwrmgr_device,0202H
        ARGFRAME ISTACK, 0, STACK
        ARGFRAME PSTACK, 0, STACK
        ARGFRAME XSTACK, 14, STACK
        ARGFRAME IOVERLAY, 0, STATIC
        ARGFRAME DOVERLAY, 0, STATIC
        EXTERN HalLedBlink
        FUNCTION HalLedBlink,0202H
        ARGFRAME ISTACK, 2, STACK
        ARGFRAME PSTACK, 0, STACK
        ARGFRAME XSTACK, 21, STACK
        ARGFRAME IOVERLAY, 0, STATIC
        ARGFRAME DOVERLAY, 0, STATIC
        EXTERN NLME_GetShortAddr
        FUNCTION NLME_GetShortAddr,0202H
        ARGFRAME ISTACK, 0, STACK
        ARGFRAME PSTACK, 0, STACK
        ARGFRAME XSTACK, 30, STACK
        ARGFRAME IOVERLAY, 0, STATIC
        ARGFRAME DOVERLAY, 0, STATIC
        EXTERN ZDP_EndDeviceBindReq
        FUNCTION ZDP_EndDeviceBindReq,0202H
        ARGFRAME ISTACK, 0, STACK
        ARGFRAME PSTACK, 0, STACK
        ARGFRAME XSTACK, 30, STACK
        ARGFRAME IOVERLAY, 0, STATIC
        ARGFRAME DOVERLAY, 0, STATIC
        EXTERN APPLY_TO_JOIN_OF_KEY
        FUNCTION APPLY_TO_JOIN_OF_KEY,0202H
        ARGFRAME ISTACK, 0, STACK
        ARGFRAME PSTACK, 0, STACK
        ARGFRAME XSTACK, 21, STACK
        ARGFRAME IOVERLAY, 0, STATIC
        ARGFRAME DOVERLAY, 0, STATIC
        EXTERN NLME_PermitJoiningRequest
        FUNCTION NLME_PermitJoiningRequest,0202H
        ARGFRAME ISTACK, 0, STACK
        ARGFRAME PSTACK, 0, STACK
        ARGFRAME XSTACK, 21, STACK
        ARGFRAME IOVERLAY, 0, STATIC
        ARGFRAME DOVERLAY, 0, STATIC
        EXTERN ZDP_MgmtPermitJoinReq
        FUNCTION ZDP_MgmtPermitJoinReq,0202H
        ARGFRAME ISTACK, 0, STACK
        ARGFRAME PSTACK, 0, STACK
        ARGFRAME XSTACK, 21, STACK
        ARGFRAME IOVERLAY, 0, STATIC
        ARGFRAME DOVERLAY, 0, STATIC
        EXTERN RESTORE_TO_FACTORY
        FUNCTION RESTORE_TO_FACTORY,0202H
        ARGFRAME ISTACK, 0, STACK
        ARGFRAME PSTACK, 0, STACK
        ARGFRAME XSTACK, 21, STACK
        ARGFRAME IOVERLAY, 0, STATIC
        ARGFRAME DOVERLAY, 0, STATIC
        EXTERN NLME_SetPollRate
        FUNCTION NLME_SetPollRate,0202H
        ARGFRAME ISTACK, 0, STACK
        ARGFRAME PSTACK, 0, STACK
        ARGFRAME XSTACK, 10, STACK
        ARGFRAME IOVERLAY, 0, STATIC
        ARGFRAME DOVERLAY, 0, STATIC
        EXTERN SampleApp_GetShortAddr
        FUNCTION SampleApp_GetShortAddr,0202H
        ARGFRAME ISTACK, 0, STACK
        ARGFRAME PSTACK, 0, STACK
        ARGFRAME XSTACK, 10, STACK
        ARGFRAME IOVERLAY, 0, STATIC
        ARGFRAME DOVERLAY, 0, STATIC
        EXTERN osal_mem_free
        FUNCTION osal_mem_free,0202H
        ARGFRAME ISTACK, 0, STACK
        ARGFRAME PSTACK, 0, STACK
        ARGFRAME XSTACK, 11, STACK
        ARGFRAME IOVERLAY, 0, STATIC
        ARGFRAME DOVERLAY, 0, STATIC
        EXTERN osal_mem_alloc
        FUNCTION osal_mem_alloc,0202H
        ARGFRAME ISTACK, 0, STACK
        ARGFRAME PSTACK, 0, STACK
        ARGFRAME XSTACK, 11, STACK
        ARGFRAME IOVERLAY, 0, STATIC
        ARGFRAME DOVERLAY, 0, STATIC
        EXTERN USER_SEND_ADD_STR
        FUNCTION USER_SEND_ADD_STR,0202H
        ARGFRAME ISTACK, 0, STACK
        ARGFRAME PSTACK, 0, STACK
        ARGFRAME XSTACK, 11, STACK
        ARGFRAME IOVERLAY, 0, STATIC
        ARGFRAME DOVERLAY, 0, STATIC
        EXTERN USER_APP_SEND_IN
        FUNCTION USER_APP_SEND_IN,0202H
        ARGFRAME ISTACK, 0, STACK
        ARGFRAME PSTACK, 0, STACK
        ARGFRAME XSTACK, 11, STACK
        ARGFRAME IOVERLAY, 0, STATIC
        ARGFRAME DOVERLAY, 0, STATIC
        EXTERN bindNumReflections
        FUNCTION bindNumReflections,0202H
        ARGFRAME ISTACK, 0, STACK
        ARGFRAME PSTACK, 0, STACK
        ARGFRAME XSTACK, 10, STACK
        ARGFRAME IOVERLAY, 0, STATIC
        ARGFRAME DOVERLAY, 0, STATIC
        EXTERN AF_DataRequest
        FUNCTION AF_DataRequest,0202H
        ARGFRAME ISTACK, 0, STACK
        ARGFRAME PSTACK, 0, STACK
        ARGFRAME XSTACK, 19, STACK
        ARGFRAME IOVERLAY, 0, STATIC
        ARGFRAME DOVERLAY, 0, STATIC
        EXTERN ??AF_DataRequest?relay
        FUNCTION ??AF_DataRequest?relay,00H
        EXTERN ??APPLY_TO_JOIN_OF_KEY?relay
        FUNCTION ??APPLY_TO_JOIN_OF_KEY?relay,00H
        EXTERN ??HalLedBlink?relay
        FUNCTION ??HalLedBlink?relay,00H
        EXTERN ??NLME_GetShortAddr?relay
        FUNCTION ??NLME_GetShortAddr?relay,00H
        EXTERN ??NLME_PermitJoiningRequest?relay
        FUNCTION ??NLME_PermitJoiningRequest?relay,00H
        EXTERN ??NLME_SetPollRate?relay
        FUNCTION ??NLME_SetPollRate?relay,00H
        EXTERN ??RESTORE_TO_FACTORY?relay
        FUNCTION ??RESTORE_TO_FACTORY?relay,00H
        EXTERN ??RegisterForKeys?relay
        FUNCTION ??RegisterForKeys?relay,00H
        EXTERN ??SampleApp_GetShortAddr?relay
        FUNCTION ??SampleApp_GetShortAddr?relay,00H
        EXTERN ??USER_APP_SEND_IN?relay
        FUNCTION ??USER_APP_SEND_IN?relay,00H
        EXTERN ??USER_SEND_ADD_STR?relay
        FUNCTION ??USER_SEND_ADD_STR?relay,00H
        EXTERN ??ZDO_RegisterForZDOMsg?relay
        FUNCTION ??ZDO_RegisterForZDOMsg?relay,00H
        EXTERN ??ZDP_EndDeviceBindReq?relay
        FUNCTION ??ZDP_EndDeviceBindReq?relay,00H
        EXTERN ??ZDP_MgmtPermitJoinReq?relay
        FUNCTION ??ZDP_MgmtPermitJoinReq?relay,00H
        EXTERN ??afRegister?relay
        FUNCTION ??afRegister?relay,00H
        EXTERN ??bindNumReflections?relay
        FUNCTION ??bindNumReflections?relay,00H
        EXTERN ??myApp_ReadBattery?relay
        FUNCTION ??myApp_ReadBattery?relay,00H
        EXTERN ??osal_mem_alloc?relay
        FUNCTION ??osal_mem_alloc?relay,00H
        EXTERN ??osal_mem_free?relay
        FUNCTION ??osal_mem_free?relay,00H
        EXTERN ??osal_msg_deallocate?relay
        FUNCTION ??osal_msg_deallocate?relay,00H
        EXTERN ??osal_msg_receive?relay
        FUNCTION ??osal_msg_receive?relay,00H
        EXTERN ??osal_pwrmgr_device?relay
        FUNCTION ??osal_pwrmgr_device?relay,00H
        EXTERN ??osal_start_timerEx?relay
        FUNCTION ??osal_start_timerEx?relay,00H
        EXTERN ??osal_stop_timerEx?relay
        FUNCTION ??osal_stop_timerEx?relay,00H
        EXTERN HEART_NEED_ACK_FLAG
        EXTERN SampleApp_ClusterList
        EXTERN SampleApp_TaskID
        EXTERN SampleApp_TransID
        EXTERN devState
        EXTERN key_double_flag
        EXTERN key_hold_flag
        EXTERN shortddr_mem

// D:\RE_1_2_0_FORMAL_APP(251)-14-12-8\Projects\zstack\Samples\SampleApp\Source\SCEEN_KEYPAD\SCEEN_KEYPAD_User_app.c
//    1 /**************************************************************************************************
//    2   Filename:       SampleApp.c
//    3   Revised:        $Date: 2007-10-27 17:16:54 -0700 (Sat, 27 Oct 2007) $
//    4   Revision:       $Revision: 15793 $
//    5 
//    6   Description:    Sample Application (no Profile).
//    7 
//    8 
//    9   Copyright 2007 Texas Instruments Incorporated. All rights reserved.
//   10 
//   11   IMPORTANT: Your use of this Software is limited to those specific rights
//   12   granted under the terms of a software license agreement between the user
//   13   who downloaded the software, his/her employer (which must be your employer)
//   14   and Texas Instruments Incorporated (the "License").  You may not use this
//   15   Software unless you agree to abide by the terms of the License. The License
//   16   limits your use, and you acknowledge, that the Software may not be modified,
//   17   copied or distributed unless embedded on a Texas Instruments microcontroller
//   18   or used solely and exclusively in conjunction with a Texas Instruments radio
//   19   frequency transceiver, which is integrated into your product.  Other than for
//   20   the foregoing purpose, you may not use, reproduce, copy, prepare derivative
//   21   works of, modify, distribute, perform, display or sell this Software and/or
//   22   its documentation for any purpose.
//   23 
//   24   YOU FURTHER ACKNOWLEDGE AND AGREE THAT THE SOFTWARE AND DOCUMENTATION ARE
//   25   PROVIDED AS IS?WITHOUT WARRANTY OF ANY KIND, EITHER EXPRESS OR IMPLIED,
//   26   INCLUDING WITHOUT LIMITATION, ANY WARRANTY OF MERCHANTABILITY, TITLE,
//   27   NON-INFRINGEMENT AND FITNESS FOR A PARTICULAR PURPOSE. IN NO EVENT SHALL
//   28   TEXAS INSTRUMENTS OR ITS LICENSORS BE LIABLE OR OBLIGATED UNDER CONTRACT,
//   29   NEGLIGENCE, STRICT LIABILITY, CONTRIBUTION, BREACH OF WARRANTY, OR OTHER
//   30   LEGAL EQUITABLE THEORY ANY DIRECT OR INDIRECT DAMAGES OR EXPENSES
//   31   INCLUDING BUT NOT LIMITED TO ANY INCIDENTAL, SPECIAL, INDIRECT, PUNITIVE
//   32   OR CONSEQUENTIAL DAMAGES, LOST PROFITS OR LOST DATA, COST OF PROCUREMENT
//   33   OF SUBSTITUTE GOODS, TECHNOLOGY, SERVICES, OR ANY CLAIMS BY THIRD PARTIES
//   34   (INCLUDING BUT NOT LIMITED TO ANY DEFENSE THEREOF), OR OTHER SIMILAR COSTS.
//   35 
//   36   Should you have any questions regarding your right to use this Software,
//   37   contact Texas Instruments Incorporated at www.TI.com.
//   38 **************************************************************************************************/
//   39 
//   40 /*********************************************************************
//   41   This application isn't intended to do anything useful, it is
//   42   intended to be a simple example of an application's structure.
//   43 
//   44   This application sends it's messages either as broadcast or
//   45   broadcast filtered group messages.  The other (more normal)
//   46   message addressing is unicast.  Most of the other sample
//   47   applications are written to support the unicast message model.
//   48 
//   49   Key control:
//   50     SW1:  Sends a flash command to all devices in Group 1.
//   51     SW2:  Adds/Removes (toggles) this device in and out
//   52           of Group 1.  This will enable and disable the
//   53           reception of the flash command.
//   54 *********************************************************************/
//   55 
//   56 /*********************************************************************
//   57  * INCLUDES
//   58  */
//   59 
//   60 
//   61 
//   62 
//   63 #include "OSAL.h"
//   64 #include "ZGlobals.h"
//   65 #include "AF.h"
//   66 #include "aps_groups.h"
//   67 #include "ZDApp.h"
//   68 #include "device.h"
//   69 #include "OnBoard.h"

        ASEGN SFR_AN:DATA:NOROOT,080H
// union <unnamed> volatile __sfr _A_P0
_A_P0:
        DATA8
        DS 1

        ASEGN SFR_AN:DATA:NOROOT,089H
// unsigned char volatile __sfr P0IFG
P0IFG:
        DATA8
        DS 1

        ASEGN SFR_AN:DATA:NOROOT,08aH
// unsigned char volatile __sfr P1IFG
P1IFG:
        DATA8
        DS 1

        ASEGN SFR_AN:DATA:NOROOT,08dH
// unsigned char volatile __sfr P1IEN
P1IEN:
        DATA8
        DS 1

        ASEGN SFR_AN:DATA:NOROOT,090H
// union <unnamed> volatile __sfr _A_P1
_A_P1:
        DATA8
        DS 1

        ASEGN SFR_AN:DATA:NOROOT,0a8H
// union <unnamed> volatile __sfr _A_IEN0
_A_IEN0:
        DATA8
        DS 1

        ASEGN SFR_AN:DATA:NOROOT,0abH
// unsigned char volatile __sfr P0IEN
P0IEN:
        DATA8
        DS 1

        ASEGN SFR_AN:DATA:NOROOT,0fdH
// unsigned char volatile __sfr P0DIR
P0DIR:
        DATA8
        DS 1

        ASEGN SFR_AN:DATA:NOROOT,0feH
// unsigned char volatile __sfr P1DIR
P1DIR:
        DATA8
        DS 1
//   70 #include "MT_UART.h"
//   71 #include "mac_rx.h"
//   72 
//   73 /* HAL */
//   74 #include "hal_led.h"
//   75 #include "hal_key.h"
//   76 #include "OSAL_Nv.h"
//   77 
//   78 #include "AddrMgr.h"
//   79 #include "nwk_util.h"
//   80 #include "ZDObject.h"
//   81 #include "ZDO_LIB.h"
//   82 #include "common_device.h"
//   83 #include "IO_config.h"
//   84 #include "OSAL_PwrMgr.h"
//   85 
//   86 
//   87 

        RSEG XDATA_Z:XDATA:NOROOT(0)
        DATA8
//   88 afAddrType_t SampleApp_BIND_DstAddr;
SampleApp_BIND_DstAddr:
        DS 12
        REQUIRE __INIT_XDATA_Z
//   89 

        RSEG XDATA_Z:XDATA:NOROOT(0)
        DATA8
//   90 uint8 UserApp_TaskID;
UserApp_TaskID:
        DS 1
        REQUIRE __INIT_XDATA_Z

        RSEG XDATA_Z:XDATA:NOROOT(0)
        DATA8
//   91 uint8 RS_LEN=0;
RS_LEN:
        DS 1
        REQUIRE __INIT_XDATA_Z

        RSEG XDATA_Z:XDATA:NOROOT(0)
        DATA8
//   92 uint8 RS_STR[10];
RS_STR:
        DS 10
        REQUIRE __INIT_XDATA_Z

        RSEG XDATA_Z:XDATA:NOROOT(0)
        DATA32
//   93 uint8 SHORT_ADRESS[4];
SHORT_ADRESS:
        DS 4
        REQUIRE __INIT_XDATA_Z

        RSEG XDATA_Z:XDATA:NOROOT(0)
        DATA8
//   94 uint8 USER_DATA_LEN=0;
USER_DATA_LEN:
        DS 1
        REQUIRE __INIT_XDATA_Z

        RSEG XDATA_Z:XDATA:NOROOT(0)
        DATA8
//   95 uint8 USER_DATA_TYPE=0;
USER_DATA_TYPE:
        DS 1
        REQUIRE __INIT_XDATA_Z

        RSEG XDATA_Z:XDATA:NOROOT(0)
        DATA16
//   96 uint8 *USER_DATA_STR;
USER_DATA_STR:
        DS 2
        REQUIRE __INIT_XDATA_Z
//   97 
//   98 

        RSEG XDATA_Z:XDATA:NOROOT(0)
        DATA8
//   99 uint8 DEVICE_ID;
DEVICE_ID:
        DS 1
        REQUIRE __INIT_XDATA_Z

        RSEG XDATA_Z:XDATA:NOROOT(0)
        DATA8
//  100 uint8 DEFINED_CONTROL_CHAR;
DEFINED_CONTROL_CHAR:
        DS 1
        REQUIRE __INIT_XDATA_Z

        RSEG XDATA_Z:XDATA:NOROOT(0)
        DATA8
//  101 uint8 JOIN_ROLE;
JOIN_ROLE:
        DS 1
        REQUIRE __INIT_XDATA_Z

        RSEG XDATA_I:XDATA:NOROOT(0)
//  102 uint16 NORMAL_POLL_TIME=7000;
NORMAL_POLL_TIME:
        DATA16
        DS 2
        REQUIRE `?<Initializer for NORMAL_POLL_TIME>`
        REQUIRE __INIT_XDATA_I
//  103 

        RSEG XDATA_Z:XDATA:NOROOT(0)
        DATA8
//  104 uint8 DEEP_POLL_FLAG;
DEEP_POLL_FLAG:
        DS 1
        REQUIRE __INIT_XDATA_Z

        RSEG XDATA_Z:XDATA:NOROOT(0)
        DATA8
//  105 uint8 FRONT_ALARM_FLAG=0;
FRONT_ALARM_FLAG:
        DS 1
        REQUIRE __INIT_XDATA_Z
//  106 

        RSEG XDATA_Z:XDATA:NOROOT(0)
        DATA16
//  107 uint16 active_battery_voltage=0;
active_battery_voltage:
        DS 2
        REQUIRE __INIT_XDATA_Z

        RSEG XDATA_Z:XDATA:NOROOT(0)
        DATA8
//  108 uint8 CASH_TIME_FLAG=0;
CASH_TIME_FLAG:
        DS 1
        REQUIRE __INIT_XDATA_Z

        RSEG XDATA_Z:XDATA:NOROOT(0)
        DATA8
//  109 uint8 HIGH_BUTTERY_FLAG = 0; //大于2.9V
HIGH_BUTTERY_FLAG:
        DS 1
        REQUIRE __INIT_XDATA_Z
//  110 

        RSEG XDATA_Z:XDATA:NOROOT(0)
        DATA8
//  111 uint8 LOW_POWER_MODE=0;  // 低于2.5V ，进入放电模式
LOW_POWER_MODE:
        DS 1
        REQUIRE __INIT_XDATA_Z

        RSEG XDATA_Z:XDATA:NOROOT(0)
        DATA16
//  112 uint16 Heart_mesg_count;  
Heart_mesg_count:
        DS 2
        REQUIRE __INIT_XDATA_Z

        RSEG XDATA_Z:XDATA:NOROOT(0)
        DATA8
//  113 uint8 poll_count=0;    //
poll_count:
        DS 1
        REQUIRE __INIT_XDATA_Z

        RSEG XDATA_Z:XDATA:NOROOT(0)
        DATA8
//  114 uint8 Hour_count=0;
Hour_count:
        DS 1
        REQUIRE __INIT_XDATA_Z

        RSEG XDATA_Z:XDATA:NOROOT(0)
        DATA8
//  115 uint8 more_detect_low_power_flag=0;
more_detect_low_power_flag:
        DS 1
        REQUIRE __INIT_XDATA_Z

        RSEG XDATA_Z:XDATA:NOROOT(0)
        DATA8
//  116 uint8 BUTTERY_LOW_FLAG=0;
BUTTERY_LOW_FLAG:
        DS 1
        REQUIRE __INIT_XDATA_Z

        RSEG XDATA_Z:XDATA:NOROOT(0)
        DATA8
//  117 uint8 BUTTERY_ALARM_BIT=0;
BUTTERY_ALARM_BIT:
        DS 1
        REQUIRE __INIT_XDATA_Z

        RSEG XDATA_Z:XDATA:NOROOT(0)
        DATA8
//  118 uint8 POLLRATE_TIME_VALUE = 0;
POLLRATE_TIME_VALUE:
        DS 1
        REQUIRE __INIT_XDATA_Z
//  119 
//  120 
//  121 #define WALL_ONOFF_BINDOUTGLIST       4

        RSEG XDATA_I:XDATA:NOROOT(0)
//  122 static cId_t bindingOUTClusters[WALL_ONOFF_BINDOUTGLIST] =
bindingOUTClusters:
        DATA8
        DS 8
        REQUIRE `?<Initializer for bindingOUTClusters>`
        REQUIRE __INIT_XDATA_I
//  123 {
//  124   SAMPLEAPP_ONOFF_CLUSTERID,
//  125   SAMPLEAPP_DIMMER_CLUSTERID,
//  126   SAMPLEAPP_CERTAIN_CONTROL_CLUSTERID,
//  127   SAMPLEAPP_ELOCK_CLUSTERID,
//  128 };
//  129 
//  130 #define WALL_ONOFF_BINDOUTGLIST2       3

        RSEG XDATA_I:XDATA:NOROOT(0)
//  131 static cId_t bindingOUTClusters2[WALL_ONOFF_BINDOUTGLIST2] =
bindingOUTClusters2:
        DATA8
        DS 6
        REQUIRE `?<Initializer for bindingOUTClusters2>`
        REQUIRE __INIT_XDATA_I
//  132 {
//  133   SAMPLEAPP_ONOFF_CLUSTERID,
//  134   SAMPLEAPP_DIMMER_CLUSTERID,
//  135   SAMPLEAPP_ELOCK_CLUSTERID,
//  136 }; 
//  137 
//  138 #define WALL_ONOFF_BINDOUTGLIST3       5

        RSEG XDATA_I:XDATA:NOROOT(0)
//  139 static cId_t bindingOUTClusters3[WALL_ONOFF_BINDOUTGLIST3] =
bindingOUTClusters3:
        DATA8
        DS 10
        REQUIRE `?<Initializer for bindingOUTClusters3>`
        REQUIRE __INIT_XDATA_I
//  140 {
//  141   SAMPLEAPP_ONOFF_CLUSTERID,
//  142   SAMPLEAPP_DIMMER_CLUSTERID,
//  143   SAMPLEAPP_CERTAIN_CONTROL_CLUSTERID,
//  144   SAMPLEAPP_ELOCK_CLUSTERID,
//  145   SAMPLEAPP_HUE_CLUSTERID,
//  146 };
//  147 

        RSEG XDATA_Z:XDATA:NOROOT(0)
        DATA16
//  148 uint8 huePara[2];
huePara:
        DS 2
        REQUIRE __INIT_XDATA_Z
//  149 

        RSEG XDATA_Z:XDATA:NOROOT(0)
        DATA8
//  150 uint8 ONOROFF1=0,ONOROFF2=0,ONOROFF3=0,ONOROFF4=0,ONOROFF5=0,ONOROFF6=0;
ONOROFF1:
        DS 1
        REQUIRE __INIT_XDATA_Z

        RSEG XDATA_Z:XDATA:NOROOT(0)
        DATA8
ONOROFF2:
        DS 1
        REQUIRE __INIT_XDATA_Z

        RSEG XDATA_Z:XDATA:NOROOT(0)
        DATA8
ONOROFF3:
        DS 1
        REQUIRE __INIT_XDATA_Z

        RSEG XDATA_Z:XDATA:NOROOT(0)
        DATA8
ONOROFF4:
        DS 1
        REQUIRE __INIT_XDATA_Z

        RSEG XDATA_Z:XDATA:NOROOT(0)
        DATA8
ONOROFF5:
        DS 1
        REQUIRE __INIT_XDATA_Z

        RSEG XDATA_Z:XDATA:NOROOT(0)
        DATA8
ONOROFF6:
        DS 1
        REQUIRE __INIT_XDATA_Z

        RSEG XDATA_Z:XDATA:NOROOT(0)
        DATA8
//  151 uint8 screen_current_flag =0 ;
screen_current_flag:
        DS 1
        REQUIRE __INIT_XDATA_Z

        RSEG XDATA_Z:XDATA:NOROOT(0)
        DATA8
//  152 uint8 screen_flag = 0;
screen_flag:
        DS 1
        REQUIRE __INIT_XDATA_Z
//  153 
//  154 
//  155 
//  156 
//  157 
//  158    

        RSEG XDATA_Z:XDATA:NOROOT(0)
        DATA8
//  159 uint8   CR2_DATA_NODETECT_FLAG = 0; //设置标记位，发送数据的时候禁止中断
CR2_DATA_NODETECT_FLAG:
        DS 1
        REQUIRE __INIT_XDATA_Z
//  160 void CR2_DATA_NODETECT_MSG(void);
//  161    
//  162 
//  163 

        RSEG XDATA_Z:XDATA:NOROOT(0)
        DATA8
//  164 uint8 forever_forbiten_flag=0;
forever_forbiten_flag:
        DS 1
        REQUIRE __INIT_XDATA_Z

        RSEG XDATA_Z:XDATA:NOROOT(0)
        DATA16
//  165 cId_t bindingINClusters[1];
bindingINClusters:
        DS 2
        REQUIRE __INIT_XDATA_Z
//  166 //afAddrType_t SampleApp_BIND_DstAddr;
//  167 
//  168 

        RSEG XDATA_Z:XDATA:NOROOT(0)
        DATA8
//  169     	uint8 CmdType;  //命令类型： '1' 学习，'2' 使用
CmdType:
        DS 1
        REQUIRE __INIT_XDATA_Z

        RSEG XDATA_Z:XDATA:NOROOT(0)
        DATA16
//  170 	uint16 IRCodeIndex;   //
IRCodeIndex:
        DS 2
        REQUIRE __INIT_XDATA_Z

        RSEG XDATA_I:XDATA:NOROOT(0)
//  171 uint8 longPollRateFlag = 1;
longPollRateFlag:
        DATA8
        DS 1
        REQUIRE `?<Initializer for longPollRateFlag>`
        REQUIRE __INIT_XDATA_I
//  172 
//  173 
//  174 

        RSEG XDATA_ROM_C:CONST:REORDER:NOROOT(0)
        DATA8
//  175 const cId_t USER_SampleApp_ClusterList[SAMPLEAPP_MAX_CLUSTERS] =
USER_SampleApp_ClusterList:
        DATA16
        DW 1
        DW 2
        DW 3
        DW 4
        DW 5
        DW 6
        DW 7
        DW 8
        DW 11
        DW 12
        DW 13
        DW 14
        DW 0
//  176 {
//  177   SAMPLEAPP_ONOFF_CLUSTERID, //周期信息簇ID=1
//  178   SAMPLEAPP_FLASH_CLUSTERID,    //闪烁信息簇ID=2
//  179   SAMPLEAPP_ADDR_CLUSTERID,
//  180   SAMPLEAPP_COMMAND_CLUSTERID,
//  181   SAMPLEAPP_PERIODIC_CLUSTERID,
//  182   SAMPLEAPP_ANNCE_REQ_CLUSTERID,
//  183   SAMPLEAPP_PERIODIC_COORDINATOR_CLUSTERID,
//  184   SAMPLEAPP_ACTIVE_COMMAND_CLUSTERID,
//  185   SAMPLEAPP_DIMMER_CLUSTERID,
//  186   SAMPLEAPP_IR_CLUSTERID,
//  187   SAMPLEAPP_CERTAIN_CONTROL_CLUSTERID,
//  188   SAMPLEAPP_ELOCK_CLUSTERID       
//  189 };
//  190 
//  191 

        RSEG XDATA_Z:XDATA:NOROOT(0)
        DATA8
//  192 endPointDesc_t SampleApp_epDesc1;
SampleApp_epDesc1:
        DS 6
        REQUIRE __INIT_XDATA_Z

        RSEG XDATA_Z:XDATA:NOROOT(0)
        DATA8
//  193 endPointDesc_t SampleApp_epDesc2;
SampleApp_epDesc2:
        DS 6
        REQUIRE __INIT_XDATA_Z

        RSEG XDATA_Z:XDATA:NOROOT(0)
        DATA8
//  194 endPointDesc_t SampleApp_epDesc3;
SampleApp_epDesc3:
        DS 6
        REQUIRE __INIT_XDATA_Z

        RSEG XDATA_Z:XDATA:NOROOT(0)
        DATA8
//  195 endPointDesc_t SampleApp_epDesc4;
SampleApp_epDesc4:
        DS 6
        REQUIRE __INIT_XDATA_Z

        RSEG XDATA_Z:XDATA:NOROOT(0)
        DATA8
//  196 endPointDesc_t SampleApp_epDesc5;
SampleApp_epDesc5:
        DS 6
        REQUIRE __INIT_XDATA_Z

        RSEG XDATA_Z:XDATA:NOROOT(0)
        DATA8
//  197 endPointDesc_t SampleApp_epDesc6;
SampleApp_epDesc6:
        DS 6
        REQUIRE __INIT_XDATA_Z
//  198 

        RSEG XDATA_ROM_C:CONST:REORDER:NOROOT(0)
        DATA8
//  199 const SimpleDescriptionFormat_t SampleApp_SimpleDesc1 =
SampleApp_SimpleDesc1:
        DB 21
        DATA16
        DW 3848
        DW 1
        DATA8
        DB 0
        DB 13
        DATA16
        DW SampleApp_ClusterList
        DATA8
        DB 13
        DATA16
        DW SampleApp_ClusterList
//  200 {
//  201   SAMPLEAPP_ENDPOINT1,              //  int Endpoint;
//  202   SAMPLEAPP_PROFID,                //  uint16 AppProfId[2];/**/
//  203   SAMPLEAPP_DEVICEID,              //  uint16 AppDeviceId[2];
//  204   SAMPLEAPP_DEVICE_VERSION,        //  int   AppDevVer:4;
//  205   SAMPLEAPP_FLAGS,                 //  int   AppFlags:4;
//  206   SAMPLEAPP_MAX_CLUSTERS,          //  uint8  AppNumInClusters;
//  207   (cId_t *)SampleApp_ClusterList,  //  uint8 *pAppInClusterList;
//  208   SAMPLEAPP_MAX_CLUSTERS,          //  uint8  AppNumInClusters;
//  209   (cId_t *)SampleApp_ClusterList   //  uint8 *pAppInClusterList;
//  210 };
//  211 

        RSEG XDATA_ROM_C:CONST:REORDER:NOROOT(0)
        DATA8
//  212 const SimpleDescriptionFormat_t SampleApp_SimpleDesc2 =
SampleApp_SimpleDesc2:
        DB 22
        DATA16
        DW 3848
        DW 1
        DATA8
        DB 0
        DB 13
        DATA16
        DW SampleApp_ClusterList
        DATA8
        DB 13
        DATA16
        DW SampleApp_ClusterList
//  213 {
//  214   SAMPLEAPP_ENDPOINT2,              //  int Endpoint;
//  215   SAMPLEAPP_PROFID,                //  uint16 AppProfId[2];/**/
//  216   SAMPLEAPP_DEVICEID,              //  uint16 AppDeviceId[2];
//  217   SAMPLEAPP_DEVICE_VERSION,        //  int   AppDevVer:4;
//  218   SAMPLEAPP_FLAGS,                 //  int   AppFlags:4;
//  219   SAMPLEAPP_MAX_CLUSTERS,          //  uint8  AppNumInClusters;
//  220   (cId_t *)SampleApp_ClusterList,  //  uint8 *pAppInClusterList;
//  221   SAMPLEAPP_MAX_CLUSTERS,          //  uint8  AppNumInClusters;
//  222   (cId_t *)SampleApp_ClusterList   //  uint8 *pAppInClusterList;
//  223 };
//  224 

        RSEG XDATA_ROM_C:CONST:REORDER:NOROOT(0)
        DATA8
//  225 const SimpleDescriptionFormat_t SampleApp_SimpleDesc3 =
SampleApp_SimpleDesc3:
        DB 23
        DATA16
        DW 3848
        DW 1
        DATA8
        DB 0
        DB 13
        DATA16
        DW SampleApp_ClusterList
        DATA8
        DB 13
        DATA16
        DW SampleApp_ClusterList
//  226 {
//  227   SAMPLEAPP_ENDPOINT3,              //  int Endpoint;
//  228   SAMPLEAPP_PROFID,                //  uint16 AppProfId[2];/**/
//  229   SAMPLEAPP_DEVICEID,              //  uint16 AppDeviceId[2];
//  230   SAMPLEAPP_DEVICE_VERSION,        //  int   AppDevVer:4;
//  231   SAMPLEAPP_FLAGS,                 //  int   AppFlags:4;
//  232   SAMPLEAPP_MAX_CLUSTERS,          //  uint8  AppNumInClusters;
//  233   (cId_t *)SampleApp_ClusterList,  //  uint8 *pAppInClusterList;
//  234   SAMPLEAPP_MAX_CLUSTERS,          //  uint8  AppNumInClusters;
//  235   (cId_t *)SampleApp_ClusterList   //  uint8 *pAppInClusterList;
//  236 };
//  237 

        RSEG XDATA_ROM_C:CONST:REORDER:NOROOT(0)
        DATA8
//  238 const SimpleDescriptionFormat_t SampleApp_SimpleDesc4 =
SampleApp_SimpleDesc4:
        DB 24
        DATA16
        DW 3848
        DW 1
        DATA8
        DB 0
        DB 13
        DATA16
        DW SampleApp_ClusterList
        DATA8
        DB 13
        DATA16
        DW SampleApp_ClusterList
//  239 {
//  240   SAMPLEAPP_ENDPOINT4,              //  int Endpoint;
//  241   SAMPLEAPP_PROFID,                //  uint16 AppProfId[2];/**/
//  242   SAMPLEAPP_DEVICEID,              //  uint16 AppDeviceId[2];
//  243   SAMPLEAPP_DEVICE_VERSION,        //  int   AppDevVer:4;
//  244   SAMPLEAPP_FLAGS,                 //  int   AppFlags:4;
//  245   SAMPLEAPP_MAX_CLUSTERS,          //  uint8  AppNumInClusters;
//  246   (cId_t *)SampleApp_ClusterList,  //  uint8 *pAppInClusterList;
//  247   SAMPLEAPP_MAX_CLUSTERS,          //  uint8  AppNumInClusters;
//  248   (cId_t *)SampleApp_ClusterList   //  uint8 *pAppInClusterList;
//  249 };
//  250 

        RSEG XDATA_ROM_C:CONST:REORDER:NOROOT(0)
        DATA8
//  251 const SimpleDescriptionFormat_t SampleApp_SimpleDesc5 =
SampleApp_SimpleDesc5:
        DB 25
        DATA16
        DW 3848
        DW 1
        DATA8
        DB 0
        DB 13
        DATA16
        DW SampleApp_ClusterList
        DATA8
        DB 13
        DATA16
        DW SampleApp_ClusterList
//  252 {
//  253   SAMPLEAPP_ENDPOINT5,              //  int Endpoint;
//  254   SAMPLEAPP_PROFID,                //  uint16 AppProfId[2];/**/
//  255   SAMPLEAPP_DEVICEID,              //  uint16 AppDeviceId[2];
//  256   SAMPLEAPP_DEVICE_VERSION,        //  int   AppDevVer:4;
//  257   SAMPLEAPP_FLAGS,                 //  int   AppFlags:4;
//  258   SAMPLEAPP_MAX_CLUSTERS,          //  uint8  AppNumInClusters;
//  259   (cId_t *)SampleApp_ClusterList,  //  uint8 *pAppInClusterList;
//  260   SAMPLEAPP_MAX_CLUSTERS,          //  uint8  AppNumInClusters;
//  261   (cId_t *)SampleApp_ClusterList   //  uint8 *pAppInClusterList;
//  262 };
//  263 

        RSEG XDATA_ROM_C:CONST:REORDER:NOROOT(0)
        DATA8
//  264 const SimpleDescriptionFormat_t SampleApp_SimpleDesc6 =
SampleApp_SimpleDesc6:
        DB 26
        DATA16
        DW 3848
        DW 1
        DATA8
        DB 0
        DB 13
        DATA16
        DW SampleApp_ClusterList
        DATA8
        DB 13
        DATA16
        DW SampleApp_ClusterList
//  265 {
//  266   SAMPLEAPP_ENDPOINT6,              //  int Endpoint;
//  267   SAMPLEAPP_PROFID,                //  uint16 AppProfId[2];/**/
//  268   SAMPLEAPP_DEVICEID,              //  uint16 AppDeviceId[2];
//  269   SAMPLEAPP_DEVICE_VERSION,        //  int   AppDevVer:4;
//  270   SAMPLEAPP_FLAGS,                 //  int   AppFlags:4;
//  271   SAMPLEAPP_MAX_CLUSTERS,          //  uint8  AppNumInClusters;
//  272   (cId_t *)SampleApp_ClusterList,  //  uint8 *pAppInClusterList;
//  273   SAMPLEAPP_MAX_CLUSTERS,          //  uint8  AppNumInClusters;
//  274   (cId_t *)SampleApp_ClusterList   //  uint8 *pAppInClusterList;
//  275 };
//  276 
//  277 
//  278 
//  279 
//  280 uint8 USER_APP_COMMAND(uint8 *user_app_data,uint8 *str); 
//  281 void USER_APP_JOIN_MSG(void);
//  282 void SampleApp_ProcessBINDINGMessage(afIncomingMSGPacket_t *pkt);
//  283 void SampleAPP_ProcessZDOMsgs( zdoIncomingMsg_t *inMsg );
//  284 
//  285 void User_APP_Drive_init(void);
//  286 void SampleApp_HandleKeys( uint8 shift, uint8 keys );//本用户应用按键函数
//  287 void USER_SET_RS_MSG(void);//设置RS数据
//  288 
//  289 void USER_AFTER_RS_MSG(void);
//  290 
//  291 void USER_ZDO_JOINING_MSG(void); //ZDO层入网的时候处理函数 就是闪烁灯
//  292 uint8 READ_NETKEY(void); //读取入网状态按键的状态传递到应用层
//  293 void LED_CHANGE(uint8 Position,uint8 Mode);// 设置LED函数
//  294 
//  295 void SampleAPP_send_delay_message(void);
//  296 
//  297 void changePollRate(void);
//  298 
//  299 
//  300 
//  301 
//  302 
//  303 
//  304 
//  305 

        RSEG BANKED_CODE:CODE:NOROOT(0)
//  306 void UserApp_Init( uint8 task_id )
UserApp_Init:
        CFI Block cfiBlock0 Using cfiCommon0
        CFI Function UserApp_Init
        CODE
//  307 {
        FUNCALL UserApp_Init, RegisterForKeys
        LOCFRAME ISTACK, 0, STACK
        LOCFRAME PSTACK, 0, STACK
        LOCFRAME XSTACK, 9, STACK
        LOCFRAME IOVERLAY, 0, STATIC
        LOCFRAME DOVERLAY, 0, STATIC
        ARGFRAME ISTACK, 0, STACK
        ARGFRAME PSTACK, 0, STACK
        ARGFRAME XSTACK, 9, STACK
        ARGFRAME IOVERLAY, 0, STATIC
        ARGFRAME DOVERLAY, 0, STATIC
        FUNCALL UserApp_Init, afRegister
        LOCFRAME ISTACK, 0, STACK
        LOCFRAME PSTACK, 0, STACK
        LOCFRAME XSTACK, 9, STACK
        LOCFRAME IOVERLAY, 0, STATIC
        LOCFRAME DOVERLAY, 0, STATIC
        ARGFRAME ISTACK, 0, STACK
        ARGFRAME PSTACK, 0, STACK
        ARGFRAME XSTACK, 9, STACK
        ARGFRAME IOVERLAY, 0, STATIC
        ARGFRAME DOVERLAY, 0, STATIC
        FUNCALL UserApp_Init, afRegister
        LOCFRAME ISTACK, 0, STACK
        LOCFRAME PSTACK, 0, STACK
        LOCFRAME XSTACK, 9, STACK
        LOCFRAME IOVERLAY, 0, STATIC
        LOCFRAME DOVERLAY, 0, STATIC
        ARGFRAME ISTACK, 0, STACK
        ARGFRAME PSTACK, 0, STACK
        ARGFRAME XSTACK, 9, STACK
        ARGFRAME IOVERLAY, 0, STATIC
        ARGFRAME DOVERLAY, 0, STATIC
        FUNCALL UserApp_Init, afRegister
        LOCFRAME ISTACK, 0, STACK
        LOCFRAME PSTACK, 0, STACK
        LOCFRAME XSTACK, 9, STACK
        LOCFRAME IOVERLAY, 0, STATIC
        LOCFRAME DOVERLAY, 0, STATIC
        ARGFRAME ISTACK, 0, STACK
        ARGFRAME PSTACK, 0, STACK
        ARGFRAME XSTACK, 9, STACK
        ARGFRAME IOVERLAY, 0, STATIC
        ARGFRAME DOVERLAY, 0, STATIC
        FUNCALL UserApp_Init, afRegister
        LOCFRAME ISTACK, 0, STACK
        LOCFRAME PSTACK, 0, STACK
        LOCFRAME XSTACK, 9, STACK
        LOCFRAME IOVERLAY, 0, STATIC
        LOCFRAME DOVERLAY, 0, STATIC
        ARGFRAME ISTACK, 0, STACK
        ARGFRAME PSTACK, 0, STACK
        ARGFRAME XSTACK, 9, STACK
        ARGFRAME IOVERLAY, 0, STATIC
        ARGFRAME DOVERLAY, 0, STATIC
        FUNCALL UserApp_Init, afRegister
        LOCFRAME ISTACK, 0, STACK
        LOCFRAME PSTACK, 0, STACK
        LOCFRAME XSTACK, 9, STACK
        LOCFRAME IOVERLAY, 0, STATIC
        LOCFRAME DOVERLAY, 0, STATIC
        ARGFRAME ISTACK, 0, STACK
        ARGFRAME PSTACK, 0, STACK
        ARGFRAME XSTACK, 9, STACK
        ARGFRAME IOVERLAY, 0, STATIC
        ARGFRAME DOVERLAY, 0, STATIC
        FUNCALL UserApp_Init, RegisterForKeys
        LOCFRAME ISTACK, 0, STACK
        LOCFRAME PSTACK, 0, STACK
        LOCFRAME XSTACK, 9, STACK
        LOCFRAME IOVERLAY, 0, STATIC
        LOCFRAME DOVERLAY, 0, STATIC
        ARGFRAME ISTACK, 0, STACK
        ARGFRAME PSTACK, 0, STACK
        ARGFRAME XSTACK, 9, STACK
        ARGFRAME IOVERLAY, 0, STATIC
        ARGFRAME DOVERLAY, 0, STATIC
        FUNCALL UserApp_Init, ZDO_RegisterForZDOMsg
        LOCFRAME ISTACK, 0, STACK
        LOCFRAME PSTACK, 0, STACK
        LOCFRAME XSTACK, 9, STACK
        LOCFRAME IOVERLAY, 0, STATIC
        LOCFRAME DOVERLAY, 0, STATIC
        ARGFRAME ISTACK, 0, STACK
        ARGFRAME PSTACK, 0, STACK
        ARGFRAME XSTACK, 9, STACK
        ARGFRAME IOVERLAY, 0, STATIC
        ARGFRAME DOVERLAY, 0, STATIC
        FUNCALL UserApp_Init, User_APP_Drive_init
        LOCFRAME ISTACK, 0, STACK
        LOCFRAME PSTACK, 0, STACK
        LOCFRAME XSTACK, 9, STACK
        LOCFRAME IOVERLAY, 0, STATIC
        LOCFRAME DOVERLAY, 0, STATIC
        ARGFRAME ISTACK, 0, STACK
        ARGFRAME PSTACK, 0, STACK
        ARGFRAME XSTACK, 9, STACK
        ARGFRAME IOVERLAY, 0, STATIC
        ARGFRAME DOVERLAY, 0, STATIC
        MOV     A,#-0x9
        LCALL   ?BANKED_ENTER_XDATA
        CFI DPH0 load(1, XDATA, add(CFA_XSP16, literal(-1)))
        CFI DPL0 load(1, XDATA, add(CFA_XSP16, literal(-2)))
        CFI ?BRET_EXT load(1, XDATA, add(CFA_XSP16, literal(-3)))
        CFI ?RET_HIGH load(1, XDATA, add(CFA_XSP16, literal(-4)))
        CFI ?RET_LOW load(1, XDATA, add(CFA_XSP16, literal(-5)))
        CFI R7 load(1, XDATA, add(CFA_XSP16, literal(-6)))
        CFI V0 load(1, XDATA, add(CFA_XSP16, literal(-7)))
        CFI VB load(1, XDATA, add(CFA_XSP16, literal(-8)))
        CFI R6 load(1, XDATA, add(CFA_XSP16, literal(-9)))
        CFI CFA_SP SP+0
        CFI CFA_XSP16 add(XSP16, 9)
        ; Saved register size: 9
        ; Auto size: 0
        MOV     A,R1
        MOV     R6,A
//  308 
//  309   UserApp_TaskID = task_id;
        MOV     A,R6
        MOV     DPTR,#UserApp_TaskID
        MOVX    @DPTR,A
//  310   
//  311   RegisterForKeys(task_id);
        ; Setup parameters for call to function RegisterForKeys
        MOV     A,R6
        MOV     R1,A
        LCALL   ??RegisterForKeys?relay
        MOV     A,R1
//  312 
//  313   // Fill out the endpoint description.
//  314   SampleApp_epDesc1.endPoint = SAMPLEAPP_ENDPOINT1;//SampleApp EP描述符的EP号：20
        MOV     DPTR,#SampleApp_epDesc1
        MOV     A,#0x15
        MOVX    @DPTR,A
//  315   SampleApp_epDesc1.task_id = &SampleApp_TaskID;//SampleApp EP描述符的任务ID：0
        MOV     DPTR,#SampleApp_epDesc1 + 1
        MOV     A,#SampleApp_TaskID & 0xff
        MOVX    @DPTR,A
        INC     DPTR
        MOV     A,#(SampleApp_TaskID >> 8) & 0xff
        MOVX    @DPTR,A
//  316   SampleApp_epDesc1.simpleDesc
//  317             = (SimpleDescriptionFormat_t *)&SampleApp_SimpleDesc1;//SampleApp EP简单描述符
        MOV     DPTR,#SampleApp_epDesc1 + 3
        MOV     A,#SampleApp_SimpleDesc1 & 0xff
        MOVX    @DPTR,A
        INC     DPTR
        MOV     A,#(SampleApp_SimpleDesc1 >> 8) & 0xff
        MOVX    @DPTR,A
//  318   SampleApp_epDesc1.latencyReq = noLatencyReqs;//延时策略
        MOV     DPTR,#SampleApp_epDesc1 + 5
        MOV     A,#0x0
        MOVX    @DPTR,A
//  319   
//  320     SampleApp_epDesc2.endPoint = SAMPLEAPP_ENDPOINT2;//SampleApp EP描述符的EP号：20
        MOV     DPTR,#SampleApp_epDesc2
        MOV     A,#0x16
        MOVX    @DPTR,A
//  321   SampleApp_epDesc2.task_id = &SampleApp_TaskID;//SampleApp E1P描述符的任务ID：0
        MOV     DPTR,#SampleApp_epDesc2 + 1
        MOV     A,#SampleApp_TaskID & 0xff
        MOVX    @DPTR,A
        INC     DPTR
        MOV     A,#(SampleApp_TaskID >> 8) & 0xff
        MOVX    @DPTR,A
//  322   SampleApp_epDesc2.simpleDesc
//  323             = (SimpleDescriptionFormat_t *)&SampleApp_SimpleDesc2;//SampleApp EP简单描述符
        MOV     DPTR,#SampleApp_epDesc2 + 3
        MOV     A,#SampleApp_SimpleDesc2 & 0xff
        MOVX    @DPTR,A
        INC     DPTR
        MOV     A,#(SampleApp_SimpleDesc2 >> 8) & 0xff
        MOVX    @DPTR,A
//  324   SampleApp_epDesc2.latencyReq = noLatencyReqs;//延时策略
        MOV     DPTR,#SampleApp_epDesc2 + 5
        MOV     A,#0x0
        MOVX    @DPTR,A
//  325   
//  326     SampleApp_epDesc3.endPoint = SAMPLEAPP_ENDPOINT3;//SampleApp EP描述符的EP号：20
        MOV     DPTR,#SampleApp_epDesc3
        MOV     A,#0x17
        MOVX    @DPTR,A
//  327   SampleApp_epDesc3.task_id = &SampleApp_TaskID;//SampleApp EP描述符的任务ID：0
        MOV     DPTR,#SampleApp_epDesc3 + 1
        MOV     A,#SampleApp_TaskID & 0xff
        MOVX    @DPTR,A
        INC     DPTR
        MOV     A,#(SampleApp_TaskID >> 8) & 0xff
        MOVX    @DPTR,A
//  328   SampleApp_epDesc3.simpleDesc
//  329             = (SimpleDescriptionFormat_t *)&SampleApp_SimpleDesc3;//SampleApp EP简单描述符
        MOV     DPTR,#SampleApp_epDesc3 + 3
        MOV     A,#SampleApp_SimpleDesc3 & 0xff
        MOVX    @DPTR,A
        INC     DPTR
        MOV     A,#(SampleApp_SimpleDesc3 >> 8) & 0xff
        MOVX    @DPTR,A
//  330   SampleApp_epDesc3.latencyReq = noLatencyReqs;//延时策略
        MOV     DPTR,#SampleApp_epDesc3 + 5
        MOV     A,#0x0
        MOVX    @DPTR,A
//  331   
//  332     SampleApp_epDesc4.endPoint = SAMPLEAPP_ENDPOINT4;//SampleApp EP描述符的EP号：20
        MOV     DPTR,#SampleApp_epDesc4
        MOV     A,#0x18
        MOVX    @DPTR,A
//  333   SampleApp_epDesc4.task_id = &SampleApp_TaskID;//SampleApp EP描述符的任务ID：0
        MOV     DPTR,#SampleApp_epDesc4 + 1
        MOV     A,#SampleApp_TaskID & 0xff
        MOVX    @DPTR,A
        INC     DPTR
        MOV     A,#(SampleApp_TaskID >> 8) & 0xff
        MOVX    @DPTR,A
//  334   SampleApp_epDesc4.simpleDesc
//  335             = (SimpleDescriptionFormat_t *)&SampleApp_SimpleDesc4;//SampleApp EP简单描述符
        MOV     DPTR,#SampleApp_epDesc4 + 3
        MOV     A,#SampleApp_SimpleDesc4 & 0xff
        MOVX    @DPTR,A
        INC     DPTR
        MOV     A,#(SampleApp_SimpleDesc4 >> 8) & 0xff
        MOVX    @DPTR,A
//  336   SampleApp_epDesc4.latencyReq = noLatencyReqs;//延时策略
        MOV     DPTR,#SampleApp_epDesc4 + 5
        MOV     A,#0x0
        MOVX    @DPTR,A
//  337   
//  338     SampleApp_epDesc5.endPoint = SAMPLEAPP_ENDPOINT5;//SampleApp EP描述符的EP号：20
        MOV     DPTR,#SampleApp_epDesc5
        MOV     A,#0x19
        MOVX    @DPTR,A
//  339   SampleApp_epDesc5.task_id = &SampleApp_TaskID;//SampleApp EP描述符的任务ID：0
        MOV     DPTR,#SampleApp_epDesc5 + 1
        MOV     A,#SampleApp_TaskID & 0xff
        MOVX    @DPTR,A
        INC     DPTR
        MOV     A,#(SampleApp_TaskID >> 8) & 0xff
        MOVX    @DPTR,A
//  340   SampleApp_epDesc5.simpleDesc
//  341             = (SimpleDescriptionFormat_t *)&SampleApp_SimpleDesc5;//SampleApp EP简单描述符
        MOV     DPTR,#SampleApp_epDesc5 + 3
        MOV     A,#SampleApp_SimpleDesc5 & 0xff
        MOVX    @DPTR,A
        INC     DPTR
        MOV     A,#(SampleApp_SimpleDesc5 >> 8) & 0xff
        MOVX    @DPTR,A
//  342   SampleApp_epDesc5.latencyReq = noLatencyReqs;//延时策略
        MOV     DPTR,#SampleApp_epDesc5 + 5
        MOV     A,#0x0
        MOVX    @DPTR,A
//  343   
//  344 
//  345   SampleApp_BIND_DstAddr.addrMode = (afAddrMode_t)AddrNotPresent;
        MOV     DPTR,#SampleApp_BIND_DstAddr + 8
        MOV     A,#0x0
        MOVX    @DPTR,A
//  346   SampleApp_BIND_DstAddr.endPoint = 0;
        MOV     DPTR,#SampleApp_BIND_DstAddr + 9
        MOV     A,#0x0
        MOVX    @DPTR,A
//  347   SampleApp_BIND_DstAddr.addr.shortAddr = 0;
        MOV     DPTR,#SampleApp_BIND_DstAddr
        MOV     A,#0x0
        MOVX    @DPTR,A
        INC     DPTR
        MOV     A,#0x0
        MOVX    @DPTR,A
//  348   
//  349   
//  350   // Register the endpoint description with the AF
//  351   afRegister( &SampleApp_epDesc1 );
        ; Setup parameters for call to function afRegister
        MOV     R2,#SampleApp_epDesc1 & 0xff
        MOV     R3,#(SampleApp_epDesc1 >> 8) & 0xff
        LCALL   ??afRegister?relay
        MOV     A,R1
//  352   afRegister( &SampleApp_epDesc2 );
        ; Setup parameters for call to function afRegister
        MOV     R2,#SampleApp_epDesc2 & 0xff
        MOV     R3,#(SampleApp_epDesc2 >> 8) & 0xff
        LCALL   ??afRegister?relay
        MOV     A,R1
//  353   afRegister( &SampleApp_epDesc3 );
        ; Setup parameters for call to function afRegister
        MOV     R2,#SampleApp_epDesc3 & 0xff
        MOV     R3,#(SampleApp_epDesc3 >> 8) & 0xff
        LCALL   ??afRegister?relay
        MOV     A,R1
//  354   afRegister( &SampleApp_epDesc4 );
        ; Setup parameters for call to function afRegister
        MOV     R2,#SampleApp_epDesc4 & 0xff
        MOV     R3,#(SampleApp_epDesc4 >> 8) & 0xff
        LCALL   ??afRegister?relay
        MOV     A,R1
//  355   afRegister( &SampleApp_epDesc5 );
        ; Setup parameters for call to function afRegister
        MOV     R2,#SampleApp_epDesc5 & 0xff
        MOV     R3,#(SampleApp_epDesc5 >> 8) & 0xff
        LCALL   ??afRegister?relay
        MOV     A,R1
//  356 
//  357 
//  358   RegisterForKeys( UserApp_TaskID ); 
        ; Setup parameters for call to function RegisterForKeys
        MOV     DPTR,#UserApp_TaskID
        MOVX    A,@DPTR
        MOV     R1,A
        LCALL   ??RegisterForKeys?relay
        MOV     A,R1
//  359   
//  360   ZDO_RegisterForZDOMsg( UserApp_TaskID, End_Device_Bind_rsp );
        ; Setup parameters for call to function ZDO_RegisterForZDOMsg
        MOV     R2,#0x20
        MOV     R3,#-0x80
        MOV     DPTR,#UserApp_TaskID
        MOVX    A,@DPTR
        MOV     R1,A
        LCALL   ??ZDO_RegisterForZDOMsg?relay
        MOV     A,R1
//  361 
//  362   
//  363   User_APP_Drive_init();
        ; Setup parameters for call to function User_APP_Drive_init
        LCALL   ??User_APP_Drive_init?relay
//  364 
//  365 }
        MOV     R7,#0x1
        LJMP    ?BANKED_LEAVE_XDATA
        CFI EndBlock cfiBlock0
//  366 
//  367 /*********************************************************************
//  368  * @fn      SampleApp_ProcessEvent
//  369  *
//  370  * @brief   Generic Application Task event processor.  This function
//  371  *          is called to process all events for the task.  Events
//  372  *          include timers, messages and any other user defined events.
//  373  *
//  374  * @param   task_id  - The OSAL assigned task ID.
//  375  * @param   events - events to process.  This is a bit map and can
//  376  *                   contain more than one event.
//  377  *
//  378  * @return  none
//  379  */

        RSEG BANKED_CODE:CODE:NOROOT(0)
//  380 uint16 UserApp_ProcessEvent( uint8 task_id, uint16 events )
UserApp_ProcessEvent:
        CFI Block cfiBlock1 Using cfiCommon0
        CFI Function UserApp_ProcessEvent
        CODE
//  381 {
        FUNCALL UserApp_ProcessEvent, osal_msg_receive
        LOCFRAME ISTACK, 0, STACK
        LOCFRAME PSTACK, 0, STACK
        LOCFRAME XSTACK, 14, STACK
        LOCFRAME IOVERLAY, 0, STATIC
        LOCFRAME DOVERLAY, 0, STATIC
        ARGFRAME ISTACK, 0, STACK
        ARGFRAME PSTACK, 0, STACK
        ARGFRAME XSTACK, 14, STACK
        ARGFRAME IOVERLAY, 0, STATIC
        ARGFRAME DOVERLAY, 0, STATIC
        FUNCALL UserApp_ProcessEvent, SampleAPP_ProcessZDOMsgs
        LOCFRAME ISTACK, 0, STACK
        LOCFRAME PSTACK, 0, STACK
        LOCFRAME XSTACK, 14, STACK
        LOCFRAME IOVERLAY, 0, STATIC
        LOCFRAME DOVERLAY, 0, STATIC
        ARGFRAME ISTACK, 0, STACK
        ARGFRAME PSTACK, 0, STACK
        ARGFRAME XSTACK, 14, STACK
        ARGFRAME IOVERLAY, 0, STATIC
        ARGFRAME DOVERLAY, 0, STATIC
        FUNCALL UserApp_ProcessEvent, SampleApp_HandleKeys
        LOCFRAME ISTACK, 0, STACK
        LOCFRAME PSTACK, 0, STACK
        LOCFRAME XSTACK, 14, STACK
        LOCFRAME IOVERLAY, 0, STATIC
        LOCFRAME DOVERLAY, 0, STATIC
        ARGFRAME ISTACK, 0, STACK
        ARGFRAME PSTACK, 0, STACK
        ARGFRAME XSTACK, 14, STACK
        ARGFRAME IOVERLAY, 0, STATIC
        ARGFRAME DOVERLAY, 0, STATIC
        FUNCALL UserApp_ProcessEvent, osal_msg_deallocate
        LOCFRAME ISTACK, 0, STACK
        LOCFRAME PSTACK, 0, STACK
        LOCFRAME XSTACK, 14, STACK
        LOCFRAME IOVERLAY, 0, STATIC
        LOCFRAME DOVERLAY, 0, STATIC
        ARGFRAME ISTACK, 0, STACK
        ARGFRAME PSTACK, 0, STACK
        ARGFRAME XSTACK, 14, STACK
        ARGFRAME IOVERLAY, 0, STATIC
        ARGFRAME DOVERLAY, 0, STATIC
        FUNCALL UserApp_ProcessEvent, osal_msg_receive
        LOCFRAME ISTACK, 0, STACK
        LOCFRAME PSTACK, 0, STACK
        LOCFRAME XSTACK, 14, STACK
        LOCFRAME IOVERLAY, 0, STATIC
        LOCFRAME DOVERLAY, 0, STATIC
        ARGFRAME ISTACK, 0, STACK
        ARGFRAME PSTACK, 0, STACK
        ARGFRAME XSTACK, 14, STACK
        ARGFRAME IOVERLAY, 0, STATIC
        ARGFRAME DOVERLAY, 0, STATIC
        FUNCALL UserApp_ProcessEvent, osal_start_timerEx
        LOCFRAME ISTACK, 0, STACK
        LOCFRAME PSTACK, 0, STACK
        LOCFRAME XSTACK, 14, STACK
        LOCFRAME IOVERLAY, 0, STATIC
        LOCFRAME DOVERLAY, 0, STATIC
        ARGFRAME ISTACK, 0, STACK
        ARGFRAME PSTACK, 0, STACK
        ARGFRAME XSTACK, 14, STACK
        ARGFRAME IOVERLAY, 0, STATIC
        ARGFRAME DOVERLAY, 0, STATIC
        FUNCALL UserApp_ProcessEvent, SampleApp_SendInMessage
        LOCFRAME ISTACK, 0, STACK
        LOCFRAME PSTACK, 0, STACK
        LOCFRAME XSTACK, 14, STACK
        LOCFRAME IOVERLAY, 0, STATIC
        LOCFRAME DOVERLAY, 0, STATIC
        ARGFRAME ISTACK, 0, STACK
        ARGFRAME PSTACK, 0, STACK
        ARGFRAME XSTACK, 14, STACK
        ARGFRAME IOVERLAY, 0, STATIC
        ARGFRAME DOVERLAY, 0, STATIC
        FUNCALL UserApp_ProcessEvent, myApp_ReadBattery
        LOCFRAME ISTACK, 0, STACK
        LOCFRAME PSTACK, 0, STACK
        LOCFRAME XSTACK, 14, STACK
        LOCFRAME IOVERLAY, 0, STATIC
        LOCFRAME DOVERLAY, 0, STATIC
        ARGFRAME ISTACK, 0, STACK
        ARGFRAME PSTACK, 0, STACK
        ARGFRAME XSTACK, 14, STACK
        ARGFRAME IOVERLAY, 0, STATIC
        ARGFRAME DOVERLAY, 0, STATIC
        FUNCALL UserApp_ProcessEvent, osal_start_timerEx
        LOCFRAME ISTACK, 0, STACK
        LOCFRAME PSTACK, 0, STACK
        LOCFRAME XSTACK, 14, STACK
        LOCFRAME IOVERLAY, 0, STATIC
        LOCFRAME DOVERLAY, 0, STATIC
        ARGFRAME ISTACK, 0, STACK
        ARGFRAME PSTACK, 0, STACK
        ARGFRAME XSTACK, 14, STACK
        ARGFRAME IOVERLAY, 0, STATIC
        ARGFRAME DOVERLAY, 0, STATIC
        FUNCALL UserApp_ProcessEvent, osal_stop_timerEx
        LOCFRAME ISTACK, 0, STACK
        LOCFRAME PSTACK, 0, STACK
        LOCFRAME XSTACK, 14, STACK
        LOCFRAME IOVERLAY, 0, STATIC
        LOCFRAME DOVERLAY, 0, STATIC
        ARGFRAME ISTACK, 0, STACK
        ARGFRAME PSTACK, 0, STACK
        ARGFRAME XSTACK, 14, STACK
        ARGFRAME IOVERLAY, 0, STATIC
        ARGFRAME DOVERLAY, 0, STATIC
        FUNCALL UserApp_ProcessEvent, osal_start_timerEx
        LOCFRAME ISTACK, 0, STACK
        LOCFRAME PSTACK, 0, STACK
        LOCFRAME XSTACK, 14, STACK
        LOCFRAME IOVERLAY, 0, STATIC
        LOCFRAME DOVERLAY, 0, STATIC
        ARGFRAME ISTACK, 0, STACK
        ARGFRAME PSTACK, 0, STACK
        ARGFRAME XSTACK, 14, STACK
        ARGFRAME IOVERLAY, 0, STATIC
        ARGFRAME DOVERLAY, 0, STATIC
        FUNCALL UserApp_ProcessEvent, osal_pwrmgr_device
        LOCFRAME ISTACK, 0, STACK
        LOCFRAME PSTACK, 0, STACK
        LOCFRAME XSTACK, 14, STACK
        LOCFRAME IOVERLAY, 0, STATIC
        LOCFRAME DOVERLAY, 0, STATIC
        ARGFRAME ISTACK, 0, STACK
        ARGFRAME PSTACK, 0, STACK
        ARGFRAME XSTACK, 14, STACK
        ARGFRAME IOVERLAY, 0, STATIC
        ARGFRAME DOVERLAY, 0, STATIC
        FUNCALL UserApp_ProcessEvent, SampleApp_SendInMessage
        LOCFRAME ISTACK, 0, STACK
        LOCFRAME PSTACK, 0, STACK
        LOCFRAME XSTACK, 14, STACK
        LOCFRAME IOVERLAY, 0, STATIC
        LOCFRAME DOVERLAY, 0, STATIC
        ARGFRAME ISTACK, 0, STACK
        ARGFRAME PSTACK, 0, STACK
        ARGFRAME XSTACK, 14, STACK
        ARGFRAME IOVERLAY, 0, STATIC
        ARGFRAME DOVERLAY, 0, STATIC
        FUNCALL UserApp_ProcessEvent, osal_start_timerEx
        LOCFRAME ISTACK, 0, STACK
        LOCFRAME PSTACK, 0, STACK
        LOCFRAME XSTACK, 14, STACK
        LOCFRAME IOVERLAY, 0, STATIC
        LOCFRAME DOVERLAY, 0, STATIC
        ARGFRAME ISTACK, 0, STACK
        ARGFRAME PSTACK, 0, STACK
        ARGFRAME XSTACK, 14, STACK
        ARGFRAME IOVERLAY, 0, STATIC
        ARGFRAME DOVERLAY, 0, STATIC
        FUNCALL UserApp_ProcessEvent, osal_start_timerEx
        LOCFRAME ISTACK, 0, STACK
        LOCFRAME PSTACK, 0, STACK
        LOCFRAME XSTACK, 14, STACK
        LOCFRAME IOVERLAY, 0, STATIC
        LOCFRAME DOVERLAY, 0, STATIC
        ARGFRAME ISTACK, 0, STACK
        ARGFRAME PSTACK, 0, STACK
        ARGFRAME XSTACK, 14, STACK
        ARGFRAME IOVERLAY, 0, STATIC
        ARGFRAME DOVERLAY, 0, STATIC
        MOV     A,#-0xe
        LCALL   ?BANKED_ENTER_XDATA
        CFI DPH0 load(1, XDATA, add(CFA_XSP16, literal(-1)))
        CFI DPL0 load(1, XDATA, add(CFA_XSP16, literal(-2)))
        CFI ?BRET_EXT load(1, XDATA, add(CFA_XSP16, literal(-3)))
        CFI ?RET_HIGH load(1, XDATA, add(CFA_XSP16, literal(-4)))
        CFI ?RET_LOW load(1, XDATA, add(CFA_XSP16, literal(-5)))
        CFI R7 load(1, XDATA, add(CFA_XSP16, literal(-6)))
        CFI V5 load(1, XDATA, add(CFA_XSP16, literal(-7)))
        CFI V4 load(1, XDATA, add(CFA_XSP16, literal(-8)))
        CFI V3 load(1, XDATA, add(CFA_XSP16, literal(-9)))
        CFI V2 load(1, XDATA, add(CFA_XSP16, literal(-10)))
        CFI V1 load(1, XDATA, add(CFA_XSP16, literal(-11)))
        CFI V0 load(1, XDATA, add(CFA_XSP16, literal(-12)))
        CFI VB load(1, XDATA, add(CFA_XSP16, literal(-13)))
        CFI R6 load(1, XDATA, add(CFA_XSP16, literal(-14)))
        CFI CFA_SP SP+0
        CFI CFA_XSP16 add(XSP16, 14)
        ; Saved register size: 14
        ; Auto size: 0
        MOV     ?V0 + 2,R1
        MOV     A,R2
        MOV     R6,A
        MOV     A,R3
        MOV     R7,A
//  382   afIncomingMSGPacket_t *MSGpkt;
//  383  
//  384   if ( events & SYS_EVENT_MSG )
        MOV     A,R6
        ANL     A,#0x0
        MOV     R0,A
        MOV     A,R7
        ANL     A,#0x80
        MOV     R1,A
        MOV     A,R0
        ORL     A,R1
        JZ      ??UserApp_ProcessEvent_0
//  385   {
//  386     MSGpkt = (afIncomingMSGPacket_t *)osal_msg_receive( UserApp_TaskID );
        ; Setup parameters for call to function osal_msg_receive
        MOV     DPTR,#UserApp_TaskID
        MOVX    A,@DPTR
        MOV     R1,A
        LCALL   ??osal_msg_receive?relay
        MOV     ?V0 + 4,R2
        MOV     ?V0 + 5,R3
        MOV     ?V0 + 0,?V0 + 4
        MOV     ?V0 + 1,?V0 + 5
//  387     while ( MSGpkt )                                           
??UserApp_ProcessEvent_1:
        MOV     A,?V0 + 0
        ORL     A,?V0 + 1
        JZ      ??UserApp_ProcessEvent_2
//  388     {                                                                     
//  389       switch ( MSGpkt->hdr.event )
        MOV     DPL,?V0 + 0
        MOV     DPH,?V0 + 1
        MOVX    A,@DPTR
        ADD     A,#0x40
        JZ      ??UserApp_ProcessEvent_3
        ADD     A,#-0x13
        JNZ     ??UserApp_ProcessEvent_4
//  390       {
//  391         
//  392          
//  393          case ZDO_CB_MSG:
//  394           SampleAPP_ProcessZDOMsgs( (zdoIncomingMsg_t *)MSGpkt );
        ; Setup parameters for call to function SampleAPP_ProcessZDOMsgs
        MOV     R2,?V0 + 0
        MOV     R3,?V0 + 1
        LCALL   ??SampleAPP_ProcessZDOMsgs?relay
//  395           break; 
        SJMP    ??UserApp_ProcessEvent_4
//  396           
//  397         case KEY_CHANGE:      
//  398           SampleApp_HandleKeys( ((keyChange_t *)MSGpkt)->state, ((keyChange_t *)MSGpkt)->keys );
??UserApp_ProcessEvent_3:
        ; Setup parameters for call to function SampleApp_HandleKeys
        MOV     DPL,?V0 + 0
        MOV     DPH,?V0 + 1
        INC     DPTR
        INC     DPTR
        INC     DPTR
        MOVX    A,@DPTR
        MOV     R2,A
        MOV     DPL,?V0 + 0
        MOV     DPH,?V0 + 1
        INC     DPTR
        INC     DPTR
        MOVX    A,@DPTR
        MOV     R1,A
        LCALL   ??SampleApp_HandleKeys?relay
//  399           break;                                             
//  400 
//  401         default:
//  402           break;
//  403       }
//  404 
//  405       // Release the memory
//  406       //释放消息占用的内存
//  407       osal_msg_deallocate( (uint8 *)MSGpkt );
??UserApp_ProcessEvent_4:
        ; Setup parameters for call to function osal_msg_deallocate
        MOV     R2,?V0 + 0
        MOV     R3,?V0 + 1
        LCALL   ??osal_msg_deallocate?relay
        MOV     A,R1
//  408 
//  409       // Next - if one is available
//  410       MSGpkt = (afIncomingMSGPacket_t *)osal_msg_receive( UserApp_TaskID );
        ; Setup parameters for call to function osal_msg_receive
        MOV     DPTR,#UserApp_TaskID
        MOVX    A,@DPTR
        MOV     R1,A
        LCALL   ??osal_msg_receive?relay
        MOV     ?V0 + 4,R2
        MOV     ?V0 + 5,R3
        MOV     ?V0 + 0,?V0 + 4
        MOV     ?V0 + 1,?V0 + 5
        SJMP    ??UserApp_ProcessEvent_1
//  411     }//end： while ( MSGpkt )
//  412 
//  413     return (events ^ SYS_EVENT_MSG);
??UserApp_ProcessEvent_2:
        MOV     A,R6
        XRL     A,#0x0
        MOV     R2,A
        MOV     A,R7
        XRL     A,#0x80
        MOV     R3,A
        LJMP    ??UserApp_ProcessEvent_5 & 0xFFFF
//  414   }
//  415   
//  416   
//  417  //用户自行添加事件
//  418  //test
//  419   if ( events & USER_TEST_EVT )
??UserApp_ProcessEvent_0:
        MOV     A,R6
        MOV     C,0xE0 /* A   */.0
        JNC     ??UserApp_ProcessEvent_6
//  420   {
//  421     HAL_TOGGLE_LED1();
        MOV     C,0x90.0
        JNC     ??UserApp_ProcessEvent_7
        CLR     0x90.0
        SJMP    ??UserApp_ProcessEvent_8
??UserApp_ProcessEvent_7:
        SETB    0x90.0
//  422       osal_start_timerEx( UserApp_TaskID, USER_TEST_EVT,10000);
??UserApp_ProcessEvent_8:
        ; Setup parameters for call to function osal_start_timerEx
        MOV     R4,#0x10
        MOV     R5,#0x27
        MOV     R2,#0x1
        MOV     R3,#0x0
        MOV     DPTR,#UserApp_TaskID
        MOVX    A,@DPTR
        MOV     R1,A
        LCALL   ??osal_start_timerEx?relay
        MOV     A,R1
//  423     
//  424      return (events ^ USER_TEST_EVT );
        MOV     A,R6
        XRL     A,#0x1
        MOV     R2,A
        MOV     A,R7
        XRL     A,#0x0
        MOV     R3,A
        LJMP    ??UserApp_ProcessEvent_5 & 0xFFFF
//  425   } 
//  426   
//  427   if ( events & SAMPLEAPP_SEND_LOWBUTTERY_EVT )
??UserApp_ProcessEvent_6:
        MOV     A,R6
        ANL     A,#0x4
        JZ      ??UserApp_ProcessEvent_9
//  428   {
//  429   
//  430     BUTTERY_LOW_FLAG =1;
        MOV     DPTR,#BUTTERY_LOW_FLAG
        MOV     A,#0x1
        MOVX    @DPTR,A
//  431     SampleApp_SendInMessage();
        ; Setup parameters for call to function SampleApp_SendInMessage
        LCALL   ??SampleApp_SendInMessage?relay
//  432     
//  433    return ( events ^ SAMPLEAPP_SEND_LOWBUTTERY_EVT);
        MOV     A,R6
        XRL     A,#0x4
        MOV     R2,A
        MOV     A,R7
        XRL     A,#0x0
        MOV     R3,A
        LJMP    ??UserApp_ProcessEvent_5 & 0xFFFF
//  434   }
//  435   
//  436    if ( events & SAMPLEAPP_SEND_NBJC_EVT )
??UserApp_ProcessEvent_9:
        MOV     A,R6
        ANL     A,#0x8
        JNZ     $+5
        LJMP    ??UserApp_ProcessEvent_10 & 0xFFFF
//  437   {
//  438         active_battery_voltage=myApp_ReadBattery();
        ; Setup parameters for call to function myApp_ReadBattery
        LCALL   ??myApp_ReadBattery?relay
        MOV     DPTR,#active_battery_voltage
        MOV     A,R2
        MOVX    @DPTR,A
        INC     DPTR
        MOV     A,R3
        MOVX    @DPTR,A
//  439       //  BUTTERY_LOW_FLAG =1;
//  440      //   SampleApp_SendInMessage();
//  441          if(active_battery_voltage<=245)
        MOV     DPTR,#active_battery_voltage
        CLR     C
        MOVX    A,@DPTR
        SUBB    A,#-0xa
        INC     DPTR
        MOVX    A,@DPTR
        SUBB    A,#0x0
        JNC     ??UserApp_ProcessEvent_11
//  442           {
//  443             P0IEN &=~BV(4);
        ANL     0xab,#0xef
//  444             P1IEN &=~BV(5);
        ANL     0x8d,#0xdf
//  445             forever_forbiten_flag=1;
        MOV     DPTR,#forever_forbiten_flag
        MOV     A,#0x1
        MOVX    @DPTR,A
//  446             
//  447        
//  448             more_detect_low_power_flag++;
        MOV     DPTR,#more_detect_low_power_flag
        MOVX    A,@DPTR
        ADD     A,#0x1
        MOVX    @DPTR,A
//  449             if(more_detect_low_power_flag>=3)
        MOV     DPTR,#more_detect_low_power_flag
        MOVX    A,@DPTR
        CLR     C
        SUBB    A,#0x3
        JC      ??UserApp_ProcessEvent_12
//  450             {
//  451             LOW_POWER_MODE=1;
        MOV     DPTR,#LOW_POWER_MODE
        MOV     A,#0x1
        MOVX    @DPTR,A
//  452             osal_start_timerEx( UserApp_TaskID, SAMPLEAPP_SEND_LOWBUTTERY_EVT,60000 );
        ; Setup parameters for call to function osal_start_timerEx
        MOV     R4,#0x60
        MOV     R5,#-0x16
        MOV     R2,#0x4
        MOV     R3,#0x0
        MOV     DPTR,#UserApp_TaskID
        MOVX    A,@DPTR
        MOV     R1,A
        LCALL   ??osal_start_timerEx?relay
        MOV     A,R1
//  453             osal_stop_timerEx( UserApp_TaskID, SAMPLEAPP_SEND_NBJC_EVT);   
        ; Setup parameters for call to function osal_stop_timerEx
        MOV     R2,#0x8
        MOV     R3,#0x0
        MOV     DPTR,#UserApp_TaskID
        MOVX    A,@DPTR
        MOV     R1,A
        LCALL   ??osal_stop_timerEx?relay
        MOV     A,R1
        SJMP    ??UserApp_ProcessEvent_13
//  454             }
//  455             else
//  456             {
//  457    
//  458 
//  459             osal_start_timerEx( UserApp_TaskID, SAMPLEAPP_SEND_NBJC_EVT,3000 );   
??UserApp_ProcessEvent_12:
        ; Setup parameters for call to function osal_start_timerEx
        MOV     R4,#-0x48
        MOV     R5,#0xb
        MOV     R2,#0x8
        MOV     R3,#0x0
        MOV     DPTR,#UserApp_TaskID
        MOVX    A,@DPTR
        MOV     R1,A
        LCALL   ??osal_start_timerEx?relay
        MOV     A,R1
        SJMP    ??UserApp_ProcessEvent_13
//  460             } 
//  461           }
//  462           else
//  463           {
//  464            more_detect_low_power_flag=0;
??UserApp_ProcessEvent_11:
        MOV     DPTR,#more_detect_low_power_flag
        MOV     A,#0x0
        MOVX    @DPTR,A
//  465            forever_forbiten_flag=0;  
        MOV     DPTR,#forever_forbiten_flag
        MOV     A,#0x0
        MOVX    @DPTR,A
//  466            osal_pwrmgr_device( PWRMGR_BATTERY );
        ; Setup parameters for call to function osal_pwrmgr_device
        MOV     R1,#0x1
        LCALL   ??osal_pwrmgr_device?relay
//  467 
//  468           }
//  469          
//  470    return ( events ^ SAMPLEAPP_SEND_NBJC_EVT);
??UserApp_ProcessEvent_13:
        MOV     A,R6
        XRL     A,#0x8
        MOV     R2,A
        MOV     A,R7
        XRL     A,#0x0
        MOV     R3,A
        LJMP    ??UserApp_ProcessEvent_5 & 0xFFFF
//  471   }
//  472   
//  473   
//  474   
//  475      if ( events & CR2_DATA_DETECT_EVT )
??UserApp_ProcessEvent_10:
        MOV     A,R6
        ANL     A,#0x2
        JZ      ??UserApp_ProcessEvent_14
//  476   {
//  477     
//  478     if( (PUSH4_SBIT==0) && (forever_forbiten_flag==0))
        MOV     C,0x90.6
        JC      ??UserApp_ProcessEvent_15
        MOV     DPTR,#forever_forbiten_flag
        MOVX    A,@DPTR
        JNZ     ??UserApp_ProcessEvent_15
//  479     // if(PUSH4_SBIT==0)
//  480     { 
//  481       if( (CASH_TIME_FLAG==1) ||(HIGH_BUTTERY_FLAG==1)) //消除警告后再过1S再打开，防止莫名的误报,如果电池大于2.9V则直接开启中断
        MOV     DPTR,#CASH_TIME_FLAG
        MOVX    A,@DPTR
        XRL     A,#0x1
        JZ      ??UserApp_ProcessEvent_16
        MOV     DPTR,#HIGH_BUTTERY_FLAG
        MOVX    A,@DPTR
        XRL     A,#0x1
        JNZ     ??UserApp_ProcessEvent_17
//  482       {
//  483         EA=0;
??UserApp_ProcessEvent_16:
        CLR     0xa8.7
//  484         P0IEN |=BV(4);
        ORL     0xab,#0x10
//  485         P1IEN |=BV(5);
        ORL     0x8d,#0x20
//  486         P0IFG=0;
        MOV     0x89,#0x0
//  487         P1IFG=0;
        MOV     0x8a,#0x0
//  488         EA=1;
        SETB    0xa8.7
//  489         
//  490         if(FRONT_ALARM_FLAG==1)//如果是因为报警导致的禁止中断
        MOV     DPTR,#FRONT_ALARM_FLAG
        MOVX    A,@DPTR
        XRL     A,#0x1
        JNZ     ??UserApp_ProcessEvent_18
//  491         {
//  492           FRONT_ALARM_FLAG=0;
        MOV     DPTR,#FRONT_ALARM_FLAG
        MOV     A,#0x0
        MOVX    @DPTR,A
//  493           SampleApp_SendInMessage();//补发消警消息上去
        ; Setup parameters for call to function SampleApp_SendInMessage
        LCALL   ??SampleApp_SendInMessage?relay
//  494         }
//  495         CASH_TIME_FLAG=0;
??UserApp_ProcessEvent_18:
        MOV     DPTR,#CASH_TIME_FLAG
        MOV     A,#0x0
        MOVX    @DPTR,A
        SJMP    ??UserApp_ProcessEvent_19
//  496       }
//  497       else
//  498       {
//  499         //刚刚消除警告，且电池有电，则再延迟1S，再打开中断
//  500         CASH_TIME_FLAG=1;
??UserApp_ProcessEvent_17:
        MOV     DPTR,#CASH_TIME_FLAG
        MOV     A,#0x1
        MOVX    @DPTR,A
//  501         osal_start_timerEx( UserApp_TaskID, CR2_DATA_DETECT_EVT,1000);
        ; Setup parameters for call to function osal_start_timerEx
        MOV     R4,#-0x18
        MOV     R5,#0x3
        MOV     R2,#0x2
        MOV     R3,#0x0
        MOV     DPTR,#UserApp_TaskID
        MOVX    A,@DPTR
        MOV     R1,A
        LCALL   ??osal_start_timerEx?relay
        MOV     A,R1
        SJMP    ??UserApp_ProcessEvent_19
//  502       }  
//  503     }
//  504     else
//  505     {
//  506      osal_start_timerEx( UserApp_TaskID, CR2_DATA_DETECT_EVT,500);
??UserApp_ProcessEvent_15:
        ; Setup parameters for call to function osal_start_timerEx
        MOV     R4,#-0xc
        MOV     R5,#0x1
        MOV     R2,#0x2
        MOV     R3,#0x0
        MOV     DPTR,#UserApp_TaskID
        MOVX    A,@DPTR
        MOV     R1,A
        LCALL   ??osal_start_timerEx?relay
        MOV     A,R1
//  507     }  
//  508       return (events ^ CR2_DATA_DETECT_EVT );
??UserApp_ProcessEvent_19:
        MOV     A,R6
        XRL     A,#0x2
        MOV     R2,A
        MOV     A,R7
        XRL     A,#0x0
        MOV     R3,A
        SJMP    ??UserApp_ProcessEvent_5
//  509   }
//  510   
//  511 
//  512   
//  513 if ( events & SCREEN_CURRENT_FLAG_EVT )
??UserApp_ProcessEvent_14:
        MOV     A,R6
        ANL     A,#0x20
        JZ      ??UserApp_ProcessEvent_20
//  514   {
//  515    screen_current_flag = 0;
        MOV     DPTR,#screen_current_flag
        MOV     A,#0x0
        MOVX    @DPTR,A
//  516     
//  517     return ( events ^ SCREEN_CURRENT_FLAG_EVT);
        MOV     A,R6
        XRL     A,#0x20
        MOV     R2,A
        MOV     A,R7
        XRL     A,#0x0
        MOV     R3,A
        SJMP    ??UserApp_ProcessEvent_5
//  518   }
//  519 
//  520 
//  521   return 0;
??UserApp_ProcessEvent_20:
        MOV     R2,#0x0
        MOV     R3,#0x0
??UserApp_ProcessEvent_5:
        MOV     R7,#0x6
        LJMP    ?BANKED_LEAVE_XDATA
        CFI EndBlock cfiBlock1
        REQUIRE _A_P1
        REQUIRE P0IEN
        REQUIRE P1IEN
        REQUIRE _A_IEN0
        REQUIRE P0IFG
        REQUIRE P1IFG
//  522 }
//  523 
//  524 // 按键命令传输到USER层，用户自行添加删除

        RSEG BANKED_CODE:CODE:NOROOT(0)
//  525 void SampleApp_HandleKeys( uint8 shift, uint8 keys )
SampleApp_HandleKeys:
        CFI Block cfiBlock2 Using cfiCommon0
        CFI Function SampleApp_HandleKeys
        CODE
//  526 {
        FUNCALL SampleApp_HandleKeys, HalLedBlink
        LOCFRAME ISTACK, 0, STACK
        LOCFRAME PSTACK, 0, STACK
        LOCFRAME XSTACK, 21, STACK
        LOCFRAME IOVERLAY, 0, STATIC
        LOCFRAME DOVERLAY, 0, STATIC
        ARGFRAME ISTACK, 0, STACK
        ARGFRAME PSTACK, 0, STACK
        ARGFRAME XSTACK, 21, STACK
        ARGFRAME IOVERLAY, 0, STATIC
        ARGFRAME DOVERLAY, 0, STATIC
        FUNCALL SampleApp_HandleKeys, NLME_GetShortAddr
        LOCFRAME ISTACK, 0, STACK
        LOCFRAME PSTACK, 0, STACK
        LOCFRAME XSTACK, 30, STACK
        LOCFRAME IOVERLAY, 0, STATIC
        LOCFRAME DOVERLAY, 0, STATIC
        ARGFRAME ISTACK, 0, STACK
        ARGFRAME PSTACK, 0, STACK
        ARGFRAME XSTACK, 30, STACK
        ARGFRAME IOVERLAY, 0, STATIC
        ARGFRAME DOVERLAY, 0, STATIC
        FUNCALL SampleApp_HandleKeys, ZDP_EndDeviceBindReq
        LOCFRAME ISTACK, 0, STACK
        LOCFRAME PSTACK, 0, STACK
        LOCFRAME XSTACK, 30, STACK
        LOCFRAME IOVERLAY, 0, STATIC
        LOCFRAME DOVERLAY, 0, STATIC
        ARGFRAME ISTACK, 0, STACK
        ARGFRAME PSTACK, 0, STACK
        ARGFRAME XSTACK, 30, STACK
        ARGFRAME IOVERLAY, 0, STATIC
        ARGFRAME DOVERLAY, 0, STATIC
        FUNCALL SampleApp_HandleKeys, HalLedBlink
        LOCFRAME ISTACK, 0, STACK
        LOCFRAME PSTACK, 0, STACK
        LOCFRAME XSTACK, 21, STACK
        LOCFRAME IOVERLAY, 0, STATIC
        LOCFRAME DOVERLAY, 0, STATIC
        ARGFRAME ISTACK, 0, STACK
        ARGFRAME PSTACK, 0, STACK
        ARGFRAME XSTACK, 21, STACK
        ARGFRAME IOVERLAY, 0, STATIC
        ARGFRAME DOVERLAY, 0, STATIC
        FUNCALL SampleApp_HandleKeys, NLME_GetShortAddr
        LOCFRAME ISTACK, 0, STACK
        LOCFRAME PSTACK, 0, STACK
        LOCFRAME XSTACK, 30, STACK
        LOCFRAME IOVERLAY, 0, STATIC
        LOCFRAME DOVERLAY, 0, STATIC
        ARGFRAME ISTACK, 0, STACK
        ARGFRAME PSTACK, 0, STACK
        ARGFRAME XSTACK, 30, STACK
        ARGFRAME IOVERLAY, 0, STATIC
        ARGFRAME DOVERLAY, 0, STATIC
        FUNCALL SampleApp_HandleKeys, ZDP_EndDeviceBindReq
        LOCFRAME ISTACK, 0, STACK
        LOCFRAME PSTACK, 0, STACK
        LOCFRAME XSTACK, 30, STACK
        LOCFRAME IOVERLAY, 0, STATIC
        LOCFRAME DOVERLAY, 0, STATIC
        ARGFRAME ISTACK, 0, STACK
        ARGFRAME PSTACK, 0, STACK
        ARGFRAME XSTACK, 30, STACK
        ARGFRAME IOVERLAY, 0, STATIC
        ARGFRAME DOVERLAY, 0, STATIC
        FUNCALL SampleApp_HandleKeys, HalLedBlink
        LOCFRAME ISTACK, 0, STACK
        LOCFRAME PSTACK, 0, STACK
        LOCFRAME XSTACK, 21, STACK
        LOCFRAME IOVERLAY, 0, STATIC
        LOCFRAME DOVERLAY, 0, STATIC
        ARGFRAME ISTACK, 0, STACK
        ARGFRAME PSTACK, 0, STACK
        ARGFRAME XSTACK, 21, STACK
        ARGFRAME IOVERLAY, 0, STATIC
        ARGFRAME DOVERLAY, 0, STATIC
        FUNCALL SampleApp_HandleKeys, NLME_GetShortAddr
        LOCFRAME ISTACK, 0, STACK
        LOCFRAME PSTACK, 0, STACK
        LOCFRAME XSTACK, 30, STACK
        LOCFRAME IOVERLAY, 0, STATIC
        LOCFRAME DOVERLAY, 0, STATIC
        ARGFRAME ISTACK, 0, STACK
        ARGFRAME PSTACK, 0, STACK
        ARGFRAME XSTACK, 30, STACK
        ARGFRAME IOVERLAY, 0, STATIC
        ARGFRAME DOVERLAY, 0, STATIC
        FUNCALL SampleApp_HandleKeys, ZDP_EndDeviceBindReq
        LOCFRAME ISTACK, 0, STACK
        LOCFRAME PSTACK, 0, STACK
        LOCFRAME XSTACK, 30, STACK
        LOCFRAME IOVERLAY, 0, STATIC
        LOCFRAME DOVERLAY, 0, STATIC
        ARGFRAME ISTACK, 0, STACK
        ARGFRAME PSTACK, 0, STACK
        ARGFRAME XSTACK, 30, STACK
        ARGFRAME IOVERLAY, 0, STATIC
        ARGFRAME DOVERLAY, 0, STATIC
        FUNCALL SampleApp_HandleKeys, HalLedBlink
        LOCFRAME ISTACK, 0, STACK
        LOCFRAME PSTACK, 0, STACK
        LOCFRAME XSTACK, 21, STACK
        LOCFRAME IOVERLAY, 0, STATIC
        LOCFRAME DOVERLAY, 0, STATIC
        ARGFRAME ISTACK, 0, STACK
        ARGFRAME PSTACK, 0, STACK
        ARGFRAME XSTACK, 21, STACK
        ARGFRAME IOVERLAY, 0, STATIC
        ARGFRAME DOVERLAY, 0, STATIC
        FUNCALL SampleApp_HandleKeys, NLME_GetShortAddr
        LOCFRAME ISTACK, 0, STACK
        LOCFRAME PSTACK, 0, STACK
        LOCFRAME XSTACK, 30, STACK
        LOCFRAME IOVERLAY, 0, STATIC
        LOCFRAME DOVERLAY, 0, STATIC
        ARGFRAME ISTACK, 0, STACK
        ARGFRAME PSTACK, 0, STACK
        ARGFRAME XSTACK, 30, STACK
        ARGFRAME IOVERLAY, 0, STATIC
        ARGFRAME DOVERLAY, 0, STATIC
        FUNCALL SampleApp_HandleKeys, ZDP_EndDeviceBindReq
        LOCFRAME ISTACK, 0, STACK
        LOCFRAME PSTACK, 0, STACK
        LOCFRAME XSTACK, 30, STACK
        LOCFRAME IOVERLAY, 0, STATIC
        LOCFRAME DOVERLAY, 0, STATIC
        ARGFRAME ISTACK, 0, STACK
        ARGFRAME PSTACK, 0, STACK
        ARGFRAME XSTACK, 30, STACK
        ARGFRAME IOVERLAY, 0, STATIC
        ARGFRAME DOVERLAY, 0, STATIC
        FUNCALL SampleApp_HandleKeys, APPLY_TO_JOIN_OF_KEY
        LOCFRAME ISTACK, 0, STACK
        LOCFRAME PSTACK, 0, STACK
        LOCFRAME XSTACK, 21, STACK
        LOCFRAME IOVERLAY, 0, STATIC
        LOCFRAME DOVERLAY, 0, STATIC
        ARGFRAME ISTACK, 0, STACK
        ARGFRAME PSTACK, 0, STACK
        ARGFRAME XSTACK, 21, STACK
        ARGFRAME IOVERLAY, 0, STATIC
        ARGFRAME DOVERLAY, 0, STATIC
        FUNCALL SampleApp_HandleKeys, HalLedBlink
        LOCFRAME ISTACK, 0, STACK
        LOCFRAME PSTACK, 0, STACK
        LOCFRAME XSTACK, 21, STACK
        LOCFRAME IOVERLAY, 0, STATIC
        LOCFRAME DOVERLAY, 0, STATIC
        ARGFRAME ISTACK, 0, STACK
        ARGFRAME PSTACK, 0, STACK
        ARGFRAME XSTACK, 21, STACK
        ARGFRAME IOVERLAY, 0, STATIC
        ARGFRAME DOVERLAY, 0, STATIC
        FUNCALL SampleApp_HandleKeys, NLME_PermitJoiningRequest
        LOCFRAME ISTACK, 0, STACK
        LOCFRAME PSTACK, 0, STACK
        LOCFRAME XSTACK, 21, STACK
        LOCFRAME IOVERLAY, 0, STATIC
        LOCFRAME DOVERLAY, 0, STATIC
        ARGFRAME ISTACK, 0, STACK
        ARGFRAME PSTACK, 0, STACK
        ARGFRAME XSTACK, 21, STACK
        ARGFRAME IOVERLAY, 0, STATIC
        ARGFRAME DOVERLAY, 0, STATIC
        FUNCALL SampleApp_HandleKeys, ZDP_MgmtPermitJoinReq
        LOCFRAME ISTACK, 0, STACK
        LOCFRAME PSTACK, 0, STACK
        LOCFRAME XSTACK, 21, STACK
        LOCFRAME IOVERLAY, 0, STATIC
        LOCFRAME DOVERLAY, 0, STATIC
        ARGFRAME ISTACK, 0, STACK
        ARGFRAME PSTACK, 0, STACK
        ARGFRAME XSTACK, 21, STACK
        ARGFRAME IOVERLAY, 0, STATIC
        ARGFRAME DOVERLAY, 0, STATIC
        FUNCALL SampleApp_HandleKeys, HalLedBlink
        LOCFRAME ISTACK, 0, STACK
        LOCFRAME PSTACK, 0, STACK
        LOCFRAME XSTACK, 21, STACK
        LOCFRAME IOVERLAY, 0, STATIC
        LOCFRAME DOVERLAY, 0, STATIC
        ARGFRAME ISTACK, 0, STACK
        ARGFRAME PSTACK, 0, STACK
        ARGFRAME XSTACK, 21, STACK
        ARGFRAME IOVERLAY, 0, STATIC
        ARGFRAME DOVERLAY, 0, STATIC
        FUNCALL SampleApp_HandleKeys, NLME_PermitJoiningRequest
        LOCFRAME ISTACK, 0, STACK
        LOCFRAME PSTACK, 0, STACK
        LOCFRAME XSTACK, 21, STACK
        LOCFRAME IOVERLAY, 0, STATIC
        LOCFRAME DOVERLAY, 0, STATIC
        ARGFRAME ISTACK, 0, STACK
        ARGFRAME PSTACK, 0, STACK
        ARGFRAME XSTACK, 21, STACK
        ARGFRAME IOVERLAY, 0, STATIC
        ARGFRAME DOVERLAY, 0, STATIC
        FUNCALL SampleApp_HandleKeys, ZDP_MgmtPermitJoinReq
        LOCFRAME ISTACK, 0, STACK
        LOCFRAME PSTACK, 0, STACK
        LOCFRAME XSTACK, 21, STACK
        LOCFRAME IOVERLAY, 0, STATIC
        LOCFRAME DOVERLAY, 0, STATIC
        ARGFRAME ISTACK, 0, STACK
        ARGFRAME PSTACK, 0, STACK
        ARGFRAME XSTACK, 21, STACK
        ARGFRAME IOVERLAY, 0, STATIC
        ARGFRAME DOVERLAY, 0, STATIC
        FUNCALL SampleApp_HandleKeys, HalLedBlink
        LOCFRAME ISTACK, 0, STACK
        LOCFRAME PSTACK, 0, STACK
        LOCFRAME XSTACK, 21, STACK
        LOCFRAME IOVERLAY, 0, STATIC
        LOCFRAME DOVERLAY, 0, STATIC
        ARGFRAME ISTACK, 0, STACK
        ARGFRAME PSTACK, 0, STACK
        ARGFRAME XSTACK, 21, STACK
        ARGFRAME IOVERLAY, 0, STATIC
        ARGFRAME DOVERLAY, 0, STATIC
        FUNCALL SampleApp_HandleKeys, RESTORE_TO_FACTORY
        LOCFRAME ISTACK, 0, STACK
        LOCFRAME PSTACK, 0, STACK
        LOCFRAME XSTACK, 21, STACK
        LOCFRAME IOVERLAY, 0, STATIC
        LOCFRAME DOVERLAY, 0, STATIC
        ARGFRAME ISTACK, 0, STACK
        ARGFRAME PSTACK, 0, STACK
        ARGFRAME XSTACK, 21, STACK
        ARGFRAME IOVERLAY, 0, STATIC
        ARGFRAME DOVERLAY, 0, STATIC
        FUNCALL SampleApp_HandleKeys, osal_start_timerEx
        LOCFRAME ISTACK, 0, STACK
        LOCFRAME PSTACK, 0, STACK
        LOCFRAME XSTACK, 21, STACK
        LOCFRAME IOVERLAY, 0, STATIC
        LOCFRAME DOVERLAY, 0, STATIC
        ARGFRAME ISTACK, 0, STACK
        ARGFRAME PSTACK, 0, STACK
        ARGFRAME XSTACK, 21, STACK
        ARGFRAME IOVERLAY, 0, STATIC
        ARGFRAME DOVERLAY, 0, STATIC
        MOV     A,#-0xc
        LCALL   ?BANKED_ENTER_XDATA
        CFI DPH0 load(1, XDATA, add(CFA_XSP16, literal(-1)))
        CFI DPL0 load(1, XDATA, add(CFA_XSP16, literal(-2)))
        CFI ?BRET_EXT load(1, XDATA, add(CFA_XSP16, literal(-3)))
        CFI ?RET_HIGH load(1, XDATA, add(CFA_XSP16, literal(-4)))
        CFI ?RET_LOW load(1, XDATA, add(CFA_XSP16, literal(-5)))
        CFI R7 load(1, XDATA, add(CFA_XSP16, literal(-6)))
        CFI V3 load(1, XDATA, add(CFA_XSP16, literal(-7)))
        CFI V2 load(1, XDATA, add(CFA_XSP16, literal(-8)))
        CFI V1 load(1, XDATA, add(CFA_XSP16, literal(-9)))
        CFI V0 load(1, XDATA, add(CFA_XSP16, literal(-10)))
        CFI VB load(1, XDATA, add(CFA_XSP16, literal(-11)))
        CFI R6 load(1, XDATA, add(CFA_XSP16, literal(-12)))
        CFI CFA_SP SP+0
        CFI CFA_XSP16 add(XSP16, 12)
        ; Saved register size: 12
        ; Auto size: 9
        MOV     A,#-0x9
        LCALL   ?ALLOC_XSTACK8
        CFI CFA_XSP16 add(XSP16, 21)
        MOV     ?V0 + 0,R1
        MOV     A,R2
        MOV     R7,A
//  527   uint8 startOptions;
//  528  // uint8 logicalType;
//  529   zAddrType_t dstAddr;
//  530   
//  531   if ( keys &  HAL_KEY_SW_9 ) // 对应竖着一排的第一个按钮
        MOV     A,R7
        MOV     C,0xE0 /* A   */.6
        JC      $+5
        LJMP    ??SampleApp_HandleKeys_0 & 0xFFFF
//  532   {
//  533     if(P1_2==0 )
        MOV     C,0x90.2
        JNC     $+5
        LJMP    ??SampleApp_HandleKeys_1 & 0xFFFF
//  534     {
//  535         HalLedBlink ( HAL_LED_2, 1, 50, 500 );
        ; Setup parameters for call to function HalLedBlink
        MOV     R4,#-0xc
        MOV     R5,#0x1
        MOV     R3,#0x32
        MOV     R2,#0x1
        MOV     R1,#0x2
        LCALL   ??HalLedBlink?relay
//  536         
//  537         dstAddr.addrMode = afAddr16Bit;
        MOV     A,#0x8
        LCALL   ?XSTACK_DISP0_8
        MOV     A,#0x2
        MOVX    @DPTR,A
//  538         dstAddr.addr.shortAddr = 0;   // Coordinator makes the match     
        MOV     DPL,?XSP + 0
        MOV     DPH,?XSP + 1
        MOV     A,#0x0
        MOVX    @DPTR,A
        INC     DPTR
        MOV     A,#0x0
        MOVX    @DPTR,A
//  539         ZDP_EndDeviceBindReq( &dstAddr, NLME_GetShortAddr(),
//  540                            SAMPLEAPP_ENDPOINT2,
//  541                            0x0F08,
//  542                            0, NULL,   // No incoming clusters to bind   0, NULL
//  543                            WALL_ONOFF_BINDOUTGLIST3, bindingOUTClusters3,
//  544                            FALSE );
        ; Setup parameters for call to function ZDP_EndDeviceBindReq
        MOV     ?V0 + 1,#0x0
        MOV     R0,#?V0 + 1
        LCALL   ?PUSH_XSTACK_I_ONE
        CFI CFA_XSP16 add(XSP16, 22)
        MOV     ?V0 + 2,#bindingOUTClusters3 & 0xff
        MOV     ?V0 + 3,#(bindingOUTClusters3 >> 8) & 0xff
        MOV     R0,#?V0 + 2
        LCALL   ?PUSH_XSTACK_I_TWO
        CFI CFA_XSP16 add(XSP16, 24)
        MOV     ?V0 + 1,#0x5
        MOV     R0,#?V0 + 1
        LCALL   ?PUSH_XSTACK_I_ONE
        CFI CFA_XSP16 add(XSP16, 25)
        CLR     A
        MOV     ?V0 + 2,A
        MOV     ?V0 + 3,A
        MOV     R0,#?V0 + 2
        LCALL   ?PUSH_XSTACK_I_TWO
        CFI CFA_XSP16 add(XSP16, 27)
        MOV     ?V0 + 1,#0x0
        MOV     R0,#?V0 + 1
        LCALL   ?PUSH_XSTACK_I_ONE
        CFI CFA_XSP16 add(XSP16, 28)
        MOV     ?V0 + 2,#0x8
        MOV     ?V0 + 3,#0xf
        MOV     R0,#?V0 + 2
        LCALL   ?PUSH_XSTACK_I_TWO
        CFI CFA_XSP16 add(XSP16, 30)
        MOV     R1,#0x16
        MOV     A,R1
        MOV     R6,A
        MOV     R1,A
        ; Setup parameters for call to function NLME_GetShortAddr
        LCALL   ??NLME_GetShortAddr?relay
        MOV     A,R2
        MOV     R4,A
        MOV     A,R3
        MOV     R5,A
        MOV     A,R6
        MOV     R1,A
        MOV     R6,A
        MOV     A,#0x9
        LCALL   ?XSTACK_DISP0_8
        MOV     R2,DPL
        MOV     R3,DPH
        LCALL   ??ZDP_EndDeviceBindReq?relay
        MOV     A,#0x9
        LCALL   ?DEALLOC_XSTACK8
        CFI CFA_XSP16 add(XSP16, 21)
        MOV     A,R1
        LJMP    ??SampleApp_HandleKeys_1 & 0xFFFF
//  545     
//  546     }
//  547     
//  548   }
//  549    else if ( keys &  HAL_KEY_SW_4 ) // 对应竖着一排的第二个按钮
??SampleApp_HandleKeys_0:
        MOV     A,R7
        MOV     C,0xE0 /* A   */.3
        JC      $+5
        LJMP    ??SampleApp_HandleKeys_2 & 0xFFFF
//  550   {
//  551     if(P1_2==0 )
        MOV     C,0x90.2
        JNC     $+5
        LJMP    ??SampleApp_HandleKeys_1 & 0xFFFF
//  552     {
//  553         HalLedBlink ( HAL_LED_2, 1, 50, 500 );
        ; Setup parameters for call to function HalLedBlink
        MOV     R4,#-0xc
        MOV     R5,#0x1
        MOV     R3,#0x32
        MOV     R2,#0x1
        MOV     R1,#0x2
        LCALL   ??HalLedBlink?relay
//  554         
//  555         dstAddr.addrMode = afAddr16Bit;
        MOV     A,#0x8
        LCALL   ?XSTACK_DISP0_8
        MOV     A,#0x2
        MOVX    @DPTR,A
//  556         dstAddr.addr.shortAddr = 0;   // Coordinator makes the match     
        MOV     DPL,?XSP + 0
        MOV     DPH,?XSP + 1
        MOV     A,#0x0
        MOVX    @DPTR,A
        INC     DPTR
        MOV     A,#0x0
        MOVX    @DPTR,A
//  557         ZDP_EndDeviceBindReq( &dstAddr, NLME_GetShortAddr(),
//  558                            SAMPLEAPP_ENDPOINT3,
//  559                            0x0F08,
//  560                            0, NULL,   // No incoming clusters to bind   0, NULL
//  561                            WALL_ONOFF_BINDOUTGLIST, bindingOUTClusters,
//  562                            FALSE );
        ; Setup parameters for call to function ZDP_EndDeviceBindReq
        MOV     ?V0 + 1,#0x0
        MOV     R0,#?V0 + 1
        LCALL   ?PUSH_XSTACK_I_ONE
        CFI CFA_XSP16 add(XSP16, 22)
        MOV     ?V0 + 2,#bindingOUTClusters & 0xff
        MOV     ?V0 + 3,#(bindingOUTClusters >> 8) & 0xff
        MOV     R0,#?V0 + 2
        LCALL   ?PUSH_XSTACK_I_TWO
        CFI CFA_XSP16 add(XSP16, 24)
        MOV     ?V0 + 1,#0x4
        MOV     R0,#?V0 + 1
        LCALL   ?PUSH_XSTACK_I_ONE
        CFI CFA_XSP16 add(XSP16, 25)
        CLR     A
        MOV     ?V0 + 2,A
        MOV     ?V0 + 3,A
        MOV     R0,#?V0 + 2
        LCALL   ?PUSH_XSTACK_I_TWO
        CFI CFA_XSP16 add(XSP16, 27)
        MOV     ?V0 + 1,#0x0
        MOV     R0,#?V0 + 1
        LCALL   ?PUSH_XSTACK_I_ONE
        CFI CFA_XSP16 add(XSP16, 28)
        MOV     ?V0 + 2,#0x8
        MOV     ?V0 + 3,#0xf
        MOV     R0,#?V0 + 2
        LCALL   ?PUSH_XSTACK_I_TWO
        CFI CFA_XSP16 add(XSP16, 30)
        MOV     R1,#0x17
        MOV     A,R1
        MOV     R6,A
        MOV     R1,A
        ; Setup parameters for call to function NLME_GetShortAddr
        LCALL   ??NLME_GetShortAddr?relay
        MOV     A,R2
        MOV     R4,A
        MOV     A,R3
        MOV     R5,A
        MOV     A,R6
        MOV     R1,A
        MOV     R6,A
        MOV     A,#0x9
        LCALL   ?XSTACK_DISP0_8
        MOV     R2,DPL
        MOV     R3,DPH
        LCALL   ??ZDP_EndDeviceBindReq?relay
        MOV     A,#0x9
        LCALL   ?DEALLOC_XSTACK8
        CFI CFA_XSP16 add(XSP16, 21)
        MOV     A,R1
        LJMP    ??SampleApp_HandleKeys_1 & 0xFFFF
//  563     
//  564     }
//  565     
//  566   }
//  567   else if ( keys &  HAL_KEY_SW_5 ) // 对应竖着一排的第二个按钮
??SampleApp_HandleKeys_2:
        MOV     A,R7
        MOV     C,0xE0 /* A   */.2
        JC      $+5
        LJMP    ??SampleApp_HandleKeys_3 & 0xFFFF
//  568   {
//  569     if(P1_2==0 )
        MOV     C,0x90.2
        JNC     $+5
        LJMP    ??SampleApp_HandleKeys_1 & 0xFFFF
//  570     {
//  571         HalLedBlink ( HAL_LED_2, 1, 50, 500 );
        ; Setup parameters for call to function HalLedBlink
        MOV     R4,#-0xc
        MOV     R5,#0x1
        MOV     R3,#0x32
        MOV     R2,#0x1
        MOV     R1,#0x2
        LCALL   ??HalLedBlink?relay
//  572         
//  573         dstAddr.addrMode = afAddr16Bit;
        MOV     A,#0x8
        LCALL   ?XSTACK_DISP0_8
        MOV     A,#0x2
        MOVX    @DPTR,A
//  574         dstAddr.addr.shortAddr = 0;   // Coordinator makes the match     
        MOV     DPL,?XSP + 0
        MOV     DPH,?XSP + 1
        MOV     A,#0x0
        MOVX    @DPTR,A
        INC     DPTR
        MOV     A,#0x0
        MOVX    @DPTR,A
//  575         ZDP_EndDeviceBindReq( &dstAddr, NLME_GetShortAddr(),
//  576                            SAMPLEAPP_ENDPOINT4,
//  577                            0x0F08,
//  578                            0, NULL,   // No incoming clusters to bind   0, NULL
//  579                            WALL_ONOFF_BINDOUTGLIST, bindingOUTClusters,
//  580                            FALSE );
        ; Setup parameters for call to function ZDP_EndDeviceBindReq
        MOV     ?V0 + 1,#0x0
        MOV     R0,#?V0 + 1
        LCALL   ?PUSH_XSTACK_I_ONE
        CFI CFA_XSP16 add(XSP16, 22)
        MOV     ?V0 + 2,#bindingOUTClusters & 0xff
        MOV     ?V0 + 3,#(bindingOUTClusters >> 8) & 0xff
        MOV     R0,#?V0 + 2
        LCALL   ?PUSH_XSTACK_I_TWO
        CFI CFA_XSP16 add(XSP16, 24)
        MOV     ?V0 + 1,#0x4
        MOV     R0,#?V0 + 1
        LCALL   ?PUSH_XSTACK_I_ONE
        CFI CFA_XSP16 add(XSP16, 25)
        CLR     A
        MOV     ?V0 + 2,A
        MOV     ?V0 + 3,A
        MOV     R0,#?V0 + 2
        LCALL   ?PUSH_XSTACK_I_TWO
        CFI CFA_XSP16 add(XSP16, 27)
        MOV     ?V0 + 1,#0x0
        MOV     R0,#?V0 + 1
        LCALL   ?PUSH_XSTACK_I_ONE
        CFI CFA_XSP16 add(XSP16, 28)
        MOV     ?V0 + 2,#0x8
        MOV     ?V0 + 3,#0xf
        MOV     R0,#?V0 + 2
        LCALL   ?PUSH_XSTACK_I_TWO
        CFI CFA_XSP16 add(XSP16, 30)
        MOV     R1,#0x18
        MOV     A,R1
        MOV     R6,A
        MOV     R1,A
        ; Setup parameters for call to function NLME_GetShortAddr
        LCALL   ??NLME_GetShortAddr?relay
        MOV     A,R2
        MOV     R4,A
        MOV     A,R3
        MOV     R5,A
        MOV     A,R6
        MOV     R1,A
        MOV     R6,A
        MOV     A,#0x9
        LCALL   ?XSTACK_DISP0_8
        MOV     R2,DPL
        MOV     R3,DPH
        LCALL   ??ZDP_EndDeviceBindReq?relay
        MOV     A,#0x9
        LCALL   ?DEALLOC_XSTACK8
        CFI CFA_XSP16 add(XSP16, 21)
        MOV     A,R1
        LJMP    ??SampleApp_HandleKeys_1 & 0xFFFF
//  581     
//  582     }
//  583     
//  584   }
//  585   else if ( keys &  HAL_KEY_SW_6 ) // 对应竖着一排的第二个按钮
??SampleApp_HandleKeys_3:
        MOV     A,R7
        MOV     C,0xE0 /* A   */.5
        JC      $+5
        LJMP    ??SampleApp_HandleKeys_4 & 0xFFFF
//  586   {
//  587     if(P1_2==0 )
        MOV     C,0x90.2
        JNC     $+5
        LJMP    ??SampleApp_HandleKeys_1 & 0xFFFF
//  588     {
//  589         HalLedBlink ( HAL_LED_2, 1, 50, 500 );
        ; Setup parameters for call to function HalLedBlink
        MOV     R4,#-0xc
        MOV     R5,#0x1
        MOV     R3,#0x32
        MOV     R2,#0x1
        MOV     R1,#0x2
        LCALL   ??HalLedBlink?relay
//  590         
//  591         dstAddr.addrMode = afAddr16Bit;
        MOV     A,#0x8
        LCALL   ?XSTACK_DISP0_8
        MOV     A,#0x2
        MOVX    @DPTR,A
//  592         dstAddr.addr.shortAddr = 0;   // Coordinator makes the match     
        MOV     DPL,?XSP + 0
        MOV     DPH,?XSP + 1
        MOV     A,#0x0
        MOVX    @DPTR,A
        INC     DPTR
        MOV     A,#0x0
        MOVX    @DPTR,A
//  593         ZDP_EndDeviceBindReq( &dstAddr, NLME_GetShortAddr(),
//  594                            SAMPLEAPP_ENDPOINT5,
//  595                            0x0F08,
//  596                            0, NULL,   // No incoming clusters to bind   0, NULL
//  597                            WALL_ONOFF_BINDOUTGLIST2, bindingOUTClusters2,
//  598                            FALSE );
        ; Setup parameters for call to function ZDP_EndDeviceBindReq
        MOV     ?V0 + 1,#0x0
        MOV     R0,#?V0 + 1
        LCALL   ?PUSH_XSTACK_I_ONE
        CFI CFA_XSP16 add(XSP16, 22)
        MOV     ?V0 + 2,#bindingOUTClusters2 & 0xff
        MOV     ?V0 + 3,#(bindingOUTClusters2 >> 8) & 0xff
        MOV     R0,#?V0 + 2
        LCALL   ?PUSH_XSTACK_I_TWO
        CFI CFA_XSP16 add(XSP16, 24)
        MOV     ?V0 + 1,#0x3
        MOV     R0,#?V0 + 1
        LCALL   ?PUSH_XSTACK_I_ONE
        CFI CFA_XSP16 add(XSP16, 25)
        CLR     A
        MOV     ?V0 + 2,A
        MOV     ?V0 + 3,A
        MOV     R0,#?V0 + 2
        LCALL   ?PUSH_XSTACK_I_TWO
        CFI CFA_XSP16 add(XSP16, 27)
        MOV     ?V0 + 1,#0x0
        MOV     R0,#?V0 + 1
        LCALL   ?PUSH_XSTACK_I_ONE
        CFI CFA_XSP16 add(XSP16, 28)
        MOV     ?V0 + 2,#0x8
        MOV     ?V0 + 3,#0xf
        MOV     R0,#?V0 + 2
        LCALL   ?PUSH_XSTACK_I_TWO
        CFI CFA_XSP16 add(XSP16, 30)
        MOV     R1,#0x19
        MOV     A,R1
        MOV     R6,A
        MOV     R1,A
        ; Setup parameters for call to function NLME_GetShortAddr
        LCALL   ??NLME_GetShortAddr?relay
        MOV     A,R2
        MOV     R4,A
        MOV     A,R3
        MOV     R5,A
        MOV     A,R6
        MOV     R1,A
        MOV     R6,A
        MOV     A,#0x9
        LCALL   ?XSTACK_DISP0_8
        MOV     R2,DPL
        MOV     R3,DPH
        LCALL   ??ZDP_EndDeviceBindReq?relay
        MOV     A,#0x9
        LCALL   ?DEALLOC_XSTACK8
        CFI CFA_XSP16 add(XSP16, 21)
        MOV     A,R1
        LJMP    ??SampleApp_HandleKeys_1 & 0xFFFF
//  599     
//  600     }
//  601     
//  602   }
//  603   
//  604   
//  605     //初定，2次按键为申请加入网络，3次按键为软复位，4次按键为恢复出厂设置（暂时还没想好如何实现）
//  606  else if ( keys &  HAL_KEY_SW_8 )
??SampleApp_HandleKeys_4:
        MOV     A,R7
        MOV     C,0xE0 /* A   */.7
        JC      $+5
        LJMP    ??SampleApp_HandleKeys_1 & 0xFFFF
//  607   {         
//  608      if(key_double_flag==1)
        MOV     DPTR,#key_double_flag
        MOVX    A,@DPTR
        XRL     A,#0x1
        JNZ     ??SampleApp_HandleKeys_5
//  609     {
//  610       //绑定
//  611       if(P1_3 == 0)
        MOV     A,0x90
        LJMP    ??SampleApp_HandleKeys_6 & 0xFFFF
//  612       {
//  613            
//  614       }
//  615  
//  616     }
//  617    
//  618     else if(key_double_flag==4)
??SampleApp_HandleKeys_5:
        MOV     DPTR,#key_double_flag
        MOVX    A,@DPTR
        XRL     A,#0x4
        JNZ     ??SampleApp_HandleKeys_7
//  619     {
//  620       APPLY_TO_JOIN_OF_KEY();
        ; Setup parameters for call to function APPLY_TO_JOIN_OF_KEY
        LCALL   ??APPLY_TO_JOIN_OF_KEY?relay
        LJMP    ??SampleApp_HandleKeys_6 & 0xFFFF
//  621     }
//  622     
//  623     else if(key_double_flag==6)
??SampleApp_HandleKeys_7:
        MOV     DPTR,#key_double_flag
        MOVX    A,@DPTR
        XRL     A,#0x6
        JNZ     ??SampleApp_HandleKeys_8
//  624     {
//  625       if(devState==DEV_END_DEVICE) 
        MOV     DPTR,#devState
        MOVX    A,@DPTR
        XRL     A,#0x6
        JZ      $+5
        LJMP    ??SampleApp_HandleKeys_6 & 0xFFFF
//  626       {
//  627         HalLedBlink ( HAL_LED_1, 1, 50, 600 );//应许
        ; Setup parameters for call to function HalLedBlink
        MOV     R4,#0x58
        MOV     R5,#0x2
        MOV     R3,#0x32
        MOV     R2,#0x1
        MOV     R1,#0x1
        LCALL   ??HalLedBlink?relay
//  628         NLME_PermitJoiningRequest(180);
        ; Setup parameters for call to function NLME_PermitJoiningRequest
        MOV     R1,#-0x4c
        LCALL   ??NLME_PermitJoiningRequest?relay
        MOV     A,R1
//  629         dstAddr.addrMode = AddrBroadcast;
        MOV     A,#0x8
        LCALL   ?XSTACK_DISP0_8
        MOV     A,#0xf
        MOVX    @DPTR,A
//  630         dstAddr.addr.shortAddr = 0XFFFC;   // Coordinator makes the match
        MOV     DPL,?XSP + 0
        MOV     DPH,?XSP + 1
        MOV     A,#-0x4
        MOVX    @DPTR,A
        INC     DPTR
        MOV     A,#-0x1
        MOVX    @DPTR,A
//  631         ZDP_MgmtPermitJoinReq( &dstAddr, 180, 1, 0);
        ; Setup parameters for call to function ZDP_MgmtPermitJoinReq
        MOV     R5,#0x0
        MOV     R4,#0x1
        MOV     R1,#-0x4c
        MOV     DPL,?XSP + 0
        MOV     DPH,?XSP + 1
        MOV     R2,DPL
        MOV     R3,DPH
        LCALL   ??ZDP_MgmtPermitJoinReq?relay
        MOV     A,R1
        SJMP    ??SampleApp_HandleKeys_6
//  632       }
//  633     }
//  634     
//  635     else if(key_double_flag==8)
??SampleApp_HandleKeys_8:
        MOV     DPTR,#key_double_flag
        MOVX    A,@DPTR
        XRL     A,#0x8
        JNZ     ??SampleApp_HandleKeys_6
//  636     {
//  637       if(devState==DEV_END_DEVICE) 
        MOV     DPTR,#devState
        MOVX    A,@DPTR
        XRL     A,#0x6
        JNZ     ??SampleApp_HandleKeys_6
//  638       {
//  639         HalLedBlink ( HAL_LED_1, 2, 50, 600 );//应许
        ; Setup parameters for call to function HalLedBlink
        MOV     R4,#0x58
        MOV     R5,#0x2
        MOV     R3,#0x32
        MOV     R2,#0x2
        MOV     R1,#0x1
        LCALL   ??HalLedBlink?relay
//  640         NLME_PermitJoiningRequest(0);
        ; Setup parameters for call to function NLME_PermitJoiningRequest
        MOV     R1,#0x0
        LCALL   ??NLME_PermitJoiningRequest?relay
        MOV     A,R1
//  641         dstAddr.addrMode = AddrBroadcast;
        MOV     A,#0x8
        LCALL   ?XSTACK_DISP0_8
        MOV     A,#0xf
        MOVX    @DPTR,A
//  642         dstAddr.addr.shortAddr = 0XFFFC;   // Coordinator makes the match
        MOV     DPL,?XSP + 0
        MOV     DPH,?XSP + 1
        MOV     A,#-0x4
        MOVX    @DPTR,A
        INC     DPTR
        MOV     A,#-0x1
        MOVX    @DPTR,A
//  643         ZDP_MgmtPermitJoinReq( &dstAddr, 0, 0, 0);
        ; Setup parameters for call to function ZDP_MgmtPermitJoinReq
        MOV     R5,#0x0
        MOV     R4,#0x0
        MOV     R1,#0x0
        MOV     DPL,?XSP + 0
        MOV     DPH,?XSP + 1
        MOV     R2,DPL
        MOV     R3,DPH
        LCALL   ??ZDP_MgmtPermitJoinReq?relay
        MOV     A,R1
//  644       }
//  645     }
//  646 
//  647      if(key_hold_flag==1) 
??SampleApp_HandleKeys_6:
        MOV     DPTR,#key_hold_flag
        MOVX    A,@DPTR
        XRL     A,#0x1
        JNZ     ??SampleApp_HandleKeys_1
//  648     {   
//  649       key_hold_flag=0;
        MOV     DPTR,#key_hold_flag
        MOV     A,#0x0
        MOVX    @DPTR,A
//  650        HalLedBlink ( HAL_LED_1, 4, 50, 1000 );
        ; Setup parameters for call to function HalLedBlink
        MOV     R4,#-0x18
        MOV     R5,#0x3
        MOV     R3,#0x32
        MOV     R2,#0x4
        MOV     R1,#0x1
        LCALL   ??HalLedBlink?relay
//  651       RESTORE_TO_FACTORY();
        ; Setup parameters for call to function RESTORE_TO_FACTORY
        LCALL   ??RESTORE_TO_FACTORY?relay
//  652       osal_start_timerEx( SampleApp_TaskID,SAMPLEAPP_RESTORE_EVT,5000);
        ; Setup parameters for call to function osal_start_timerEx
        MOV     R4,#-0x78
        MOV     R5,#0x13
        MOV     R2,#0x10
        MOV     R3,#0x0
        MOV     DPTR,#SampleApp_TaskID
        MOVX    A,@DPTR
        MOV     R1,A
        LCALL   ??osal_start_timerEx?relay
        MOV     A,R1
//  653      }
//  654   }
//  655   
//  656 }
??SampleApp_HandleKeys_1:
        MOV     A,#0x9
        LCALL   ?DEALLOC_XSTACK8
        CFI CFA_XSP16 add(XSP16, 12)
        MOV     R7,#0x4
        LJMP    ?BANKED_LEAVE_XDATA
        CFI EndBlock cfiBlock2
        REQUIRE _A_P1
//  657 
//  658 
//  659 

        RSEG BANKED_CODE:CODE:NOROOT(0)
//  660 void SampleApp_ProcessBINDINGMessage(afIncomingMSGPacket_t *pkt)
SampleApp_ProcessBINDINGMessage:
        CFI Block cfiBlock3 Using cfiCommon0
        CFI Function SampleApp_ProcessBINDINGMessage
        CODE
//  661 {
        ; Saved register size: 0
        ; Auto size: 0
//  662 
//  663   
//  664 }
        LJMP    ?BRET
        CFI EndBlock cfiBlock3
//  665 
//  666 
//  667 // 入网后添加函数

        RSEG BANKED_CODE:CODE:NOROOT(0)
//  668 void USER_APP_JOIN_MSG(void)
USER_APP_JOIN_MSG:
        CFI Block cfiBlock4 Using cfiCommon0
        CFI Function USER_APP_JOIN_MSG
        CODE
//  669 {
        FUNCALL USER_APP_JOIN_MSG, HalLedBlink
        LOCFRAME ISTACK, 0, STACK
        LOCFRAME PSTACK, 0, STACK
        LOCFRAME XSTACK, 10, STACK
        LOCFRAME IOVERLAY, 0, STATIC
        LOCFRAME DOVERLAY, 0, STATIC
        ARGFRAME ISTACK, 0, STACK
        ARGFRAME PSTACK, 0, STACK
        ARGFRAME XSTACK, 10, STACK
        ARGFRAME IOVERLAY, 0, STATIC
        ARGFRAME DOVERLAY, 0, STATIC
        FUNCALL USER_APP_JOIN_MSG, NLME_SetPollRate
        LOCFRAME ISTACK, 0, STACK
        LOCFRAME PSTACK, 0, STACK
        LOCFRAME XSTACK, 10, STACK
        LOCFRAME IOVERLAY, 0, STATIC
        LOCFRAME DOVERLAY, 0, STATIC
        ARGFRAME ISTACK, 0, STACK
        ARGFRAME PSTACK, 0, STACK
        ARGFRAME XSTACK, 10, STACK
        ARGFRAME IOVERLAY, 0, STATIC
        ARGFRAME DOVERLAY, 0, STATIC
        FUNCALL USER_APP_JOIN_MSG, SampleApp_GetShortAddr
        LOCFRAME ISTACK, 0, STACK
        LOCFRAME PSTACK, 0, STACK
        LOCFRAME XSTACK, 10, STACK
        LOCFRAME IOVERLAY, 0, STATIC
        LOCFRAME DOVERLAY, 0, STATIC
        ARGFRAME ISTACK, 0, STACK
        ARGFRAME PSTACK, 0, STACK
        ARGFRAME XSTACK, 10, STACK
        ARGFRAME IOVERLAY, 0, STATIC
        ARGFRAME DOVERLAY, 0, STATIC
        FUNCALL USER_APP_JOIN_MSG, osal_mem_free
        LOCFRAME ISTACK, 0, STACK
        LOCFRAME PSTACK, 0, STACK
        LOCFRAME XSTACK, 10, STACK
        LOCFRAME IOVERLAY, 0, STATIC
        LOCFRAME DOVERLAY, 0, STATIC
        ARGFRAME ISTACK, 0, STACK
        ARGFRAME PSTACK, 0, STACK
        ARGFRAME XSTACK, 10, STACK
        ARGFRAME IOVERLAY, 0, STATIC
        ARGFRAME DOVERLAY, 0, STATIC
        MOV     A,#-0xa
        LCALL   ?BANKED_ENTER_XDATA
        CFI DPH0 load(1, XDATA, add(CFA_XSP16, literal(-1)))
        CFI DPL0 load(1, XDATA, add(CFA_XSP16, literal(-2)))
        CFI ?BRET_EXT load(1, XDATA, add(CFA_XSP16, literal(-3)))
        CFI ?RET_HIGH load(1, XDATA, add(CFA_XSP16, literal(-4)))
        CFI ?RET_LOW load(1, XDATA, add(CFA_XSP16, literal(-5)))
        CFI R7 load(1, XDATA, add(CFA_XSP16, literal(-6)))
        CFI V1 load(1, XDATA, add(CFA_XSP16, literal(-7)))
        CFI V0 load(1, XDATA, add(CFA_XSP16, literal(-8)))
        CFI VB load(1, XDATA, add(CFA_XSP16, literal(-9)))
        CFI R6 load(1, XDATA, add(CFA_XSP16, literal(-10)))
        CFI CFA_SP SP+0
        CFI CFA_XSP16 add(XSP16, 10)
        ; Saved register size: 10
        ; Auto size: 0
//  670     HalLedBlink ( HAL_LED_1, 1, 99, 2500 );//用BLINK模拟灯亮两秒后熄灭
        ; Setup parameters for call to function HalLedBlink
        MOV     R4,#-0x3c
        MOV     R5,#0x9
        MOV     R3,#0x63
        MOV     R2,#0x1
        MOV     R1,#0x1
        LCALL   ??HalLedBlink?relay
//  671     //NLME_SetPollRate( 2000 );//set the poll rate to quick ,and   
//  672     NLME_SetPollRate( 5000 );//set the poll rate to quick ,and       
        ; Setup parameters for call to function NLME_SetPollRate
        MOV     R2,#-0x78
        MOV     R3,#0x13
        LCALL   ??NLME_SetPollRate?relay
//  673  
//  674     DEEP_POLL_FLAG =0; 
        MOV     DPTR,#DEEP_POLL_FLAG
        MOV     A,#0x0
        MOVX    @DPTR,A
//  675     HEART_NEED_ACK_FLAG =0;
        MOV     DPTR,#HEART_NEED_ACK_FLAG
        MOV     A,#0x0
        MOVX    @DPTR,A
//  676     Heart_mesg_count=0;
        MOV     DPTR,#Heart_mesg_count
        MOV     A,#0x0
        MOVX    @DPTR,A
        INC     DPTR
        MOV     A,#0x0
        MOVX    @DPTR,A
//  677     
//  678     
//  679   
//  680     
//  681     uint8 *Sample_Cmd_shorAddr;
//  682     Sample_Cmd_shorAddr=SampleApp_GetShortAddr();
        ; Setup parameters for call to function SampleApp_GetShortAddr
        LCALL   ??SampleApp_GetShortAddr?relay
        MOV     ?V0 + 0,R2
        MOV     ?V0 + 1,R3
        MOV     R6,?V0 + 0
        MOV     R7,?V0 + 1
//  683     SHORT_ADRESS[0]=*Sample_Cmd_shorAddr++;
        MOV     DPL,R6
        MOV     DPH,R7
        MOVX    A,@DPTR
        MOV     DPTR,#SHORT_ADRESS
        MOVX    @DPTR,A
        MOV     DPL,R6
        MOV     DPH,R7
        INC     DPTR
        MOV     R6,DPL
        MOV     R7,DPH
//  684     SHORT_ADRESS[1]=*Sample_Cmd_shorAddr++;
        MOV     DPL,R6
        MOV     DPH,R7
        MOVX    A,@DPTR
        MOV     DPTR,#SHORT_ADRESS + 1
        MOVX    @DPTR,A
        MOV     DPL,R6
        MOV     DPH,R7
        INC     DPTR
        MOV     R6,DPL
        MOV     R7,DPH
//  685     SHORT_ADRESS[2]=*Sample_Cmd_shorAddr++;
        MOV     DPL,R6
        MOV     DPH,R7
        MOVX    A,@DPTR
        MOV     DPTR,#SHORT_ADRESS + 2
        MOVX    @DPTR,A
        MOV     DPL,R6
        MOV     DPH,R7
        INC     DPTR
        MOV     R6,DPL
        MOV     R7,DPH
//  686     SHORT_ADRESS[3]=*Sample_Cmd_shorAddr;
        MOV     DPL,R6
        MOV     DPH,R7
        MOVX    A,@DPTR
        MOV     DPTR,#SHORT_ADRESS + 3
        MOVX    @DPTR,A
//  687     osal_mem_free( shortddr_mem );
        ; Setup parameters for call to function osal_mem_free
        MOV     DPTR,#shortddr_mem
        MOVX    A,@DPTR
        MOV     R2,A
        INC     DPTR
        MOVX    A,@DPTR
        MOV     R3,A
        LCALL   ??osal_mem_free?relay
//  688     
//  689 
//  690   // USER自行添加入网后的操作代码
//  691  
//  692 }
        MOV     R7,#0x2
        LJMP    ?BANKED_LEAVE_XDATA
        CFI EndBlock cfiBlock4
//  693 
//  694 
//  695 // 收到命令后添加函数
//  696 // user_app_data 上位机发过来的有效数据 字母后面开始 13开始
//  697 //user_rf_data 需要填入的返回数据数组

        RSEG BANKED_CODE:CODE:NOROOT(0)
//  698 uint8 USER_APP_COMMAND(uint8 *user_app_data,uint8 *str)
USER_APP_COMMAND:
        CFI Block cfiBlock5 Using cfiCommon0
        CFI Function USER_APP_COMMAND
        CODE
//  699 {
        MOV     A,#-0xa
        LCALL   ?BANKED_ENTER_XDATA
        CFI DPH0 load(1, XDATA, add(CFA_XSP16, literal(-1)))
        CFI DPL0 load(1, XDATA, add(CFA_XSP16, literal(-2)))
        CFI ?BRET_EXT load(1, XDATA, add(CFA_XSP16, literal(-3)))
        CFI ?RET_HIGH load(1, XDATA, add(CFA_XSP16, literal(-4)))
        CFI ?RET_LOW load(1, XDATA, add(CFA_XSP16, literal(-5)))
        CFI R7 load(1, XDATA, add(CFA_XSP16, literal(-6)))
        CFI V1 load(1, XDATA, add(CFA_XSP16, literal(-7)))
        CFI V0 load(1, XDATA, add(CFA_XSP16, literal(-8)))
        CFI VB load(1, XDATA, add(CFA_XSP16, literal(-9)))
        CFI R6 load(1, XDATA, add(CFA_XSP16, literal(-10)))
        CFI CFA_SP SP+0
        CFI CFA_XSP16 add(XSP16, 10)
        ; Saved register size: 10
        ; Auto size: 0
//  700   uint8 active_len=0;
        MOV     R1,#0x0
//  701   
//  702     str[0] = '/';
        MOV     DPL,R4
        MOV     DPH,R5
        MOV     A,#0x2f
        MOVX    @DPTR,A
//  703 
//  704    CmdType = user_app_data[0];//窗帘设备命令类型 学习 使用
        MOV     DPL,R2
        MOV     DPH,R3
        MOVX    A,@DPTR
        MOV     DPTR,#CmdType
        MOVX    @DPTR,A
//  705    IRCodeIndex = (user_app_data[1]- '0')*100 +
//  706                  (user_app_data[2]- '0')*10 +
//  707                  (user_app_data[3]- '0');      //编码序号
        MOV     DPL,R2
        MOV     DPH,R3
        INC     DPTR
        MOVX    A,@DPTR
        MOV     R6,A
        MOV     R7,#0x0
        MOV     A,R6
        MOV     B,#0x64
        MUL     AB
        XCH     A,R6
        MOV     R0,B
        MOV     B,#0x0
        MUL     AB
        ADD     A,R0
        MOV     R0,A
        MOV     B,#0x64
        MOV     A,R7
        MUL     AB
        ADD     A,R0
        MOV     R7,A
        MOV     DPL,R2
        MOV     DPH,R3
        INC     DPTR
        INC     DPTR
        MOVX    A,@DPTR
        MOV     ?V0 + 0,A
        MOV     ?V0 + 1,#0x0
        MOV     A,?V0 + 0
        MOV     B,#0xa
        MUL     AB
        XCH     A,?V0 + 0
        MOV     R0,B
        MOV     B,#0x0
        MUL     AB
        ADD     A,R0
        MOV     R0,A
        MOV     B,#0xa
        MOV     A,?V0 + 1
        MUL     AB
        ADD     A,R0
        MOV     ?V0 + 1,A
        MOV     A,R6
        ADD     A,?V0 + 0
        MOV     R6,A
        MOV     A,R7
        ADDC    A,?V0 + 1
        MOV     R7,A
        MOV     DPL,R2
        MOV     DPH,R3
        INC     DPTR
        INC     DPTR
        INC     DPTR
        MOVX    A,@DPTR
        MOV     ?V0 + 0,A
        MOV     ?V0 + 1,#0x0
        MOV     A,R6
        ADD     A,?V0 + 0
        MOV     R6,A
        MOV     A,R7
        ADDC    A,?V0 + 1
        MOV     R7,A
        MOV     A,R6
        ADD     A,#0x30
        MOV     R6,A
        MOV     A,R7
        ADDC    A,#-0x15
        MOV     R7,A
        MOV     DPTR,#IRCodeIndex
        MOV     A,R6
        MOVX    @DPTR,A
        INC     DPTR
        MOV     A,R7
        MOVX    @DPTR,A
//  708 
//  709 
//  710    if('1' == CmdType)		//'1' 表示学习
        MOV     DPTR,#CmdType
        MOVX    A,@DPTR
        XRL     A,#0x31
//  711    {
//  712     
//  713      
//  714    }
//  715    else if('2' == CmdType)	//'2' 表示使用
//  716    {   
//  717      
//  718      
//  719    }
//  720    str[1] = CmdType - '0';//数据回填
        MOV     DPTR,#CmdType
        MOVX    A,@DPTR
        ADD     A,#-0x30
        MOV     DPL,R4
        MOV     DPH,R5
        INC     DPTR
        MOVX    @DPTR,A
//  721    str[3] = IRCodeIndex;//数据回填
        MOV     DPTR,#IRCodeIndex
        MOVX    A,@DPTR
        MOV     R6,A
        INC     DPTR
        MOVX    A,@DPTR
        MOV     R7,A
        MOV     A,R6
        MOV     DPL,R4
        MOV     DPH,R5
        INC     DPTR
        INC     DPTR
        INC     DPTR
        MOVX    @DPTR,A
//  722    str[2] = IRCodeIndex >> 8;
        MOV     DPTR,#IRCodeIndex
        MOVX    A,@DPTR
        MOV     R6,A
        INC     DPTR
        MOVX    A,@DPTR
        MOV     R7,A
        CLR     A
        MOV     A,R7
        MOV     R6,A
        MOV     DPL,R4
        MOV     DPH,R5
        INC     DPTR
        INC     DPTR
        MOVX    @DPTR,A
//  723    active_len=13;
        MOV     R1,#0xd
//  724    return active_len;
        MOV     R7,#0x2
        LJMP    ?BANKED_LEAVE_XDATA
        CFI EndBlock cfiBlock5
//  725 }
//  726 
//  727 

        RSEG BANKED_CODE:CODE:NOROOT(0)
//  728 void USER_SET_RS_MSG(void)//用户自行设置RS数据
USER_SET_RS_MSG:
        CFI Block cfiBlock6 Using cfiCommon0
        CFI Function USER_SET_RS_MSG
        CODE
//  729 {
        FUNCALL USER_SET_RS_MSG, myApp_ReadBattery
        LOCFRAME ISTACK, 2, STACK
        LOCFRAME PSTACK, 0, STACK
        LOCFRAME XSTACK, 0, STACK
        LOCFRAME IOVERLAY, 0, STATIC
        LOCFRAME DOVERLAY, 0, STATIC
        ARGFRAME ISTACK, 2, STACK
        ARGFRAME PSTACK, 0, STACK
        ARGFRAME XSTACK, 0, STACK
        ARGFRAME IOVERLAY, 0, STATIC
        ARGFRAME DOVERLAY, 0, STATIC
        FUNCALL USER_SET_RS_MSG, osal_start_timerEx
        LOCFRAME ISTACK, 2, STACK
        LOCFRAME PSTACK, 0, STACK
        LOCFRAME XSTACK, 0, STACK
        LOCFRAME IOVERLAY, 0, STATIC
        LOCFRAME DOVERLAY, 0, STATIC
        ARGFRAME ISTACK, 2, STACK
        ARGFRAME PSTACK, 0, STACK
        ARGFRAME XSTACK, 0, STACK
        ARGFRAME IOVERLAY, 0, STATIC
        ARGFRAME DOVERLAY, 0, STATIC
        PUSH    DPL
        CFI DPL0 Frame(CFA_SP, 4)
        CFI CFA_SP SP+-4
        PUSH    DPH
        CFI DPH0 Frame(CFA_SP, 5)
        CFI CFA_SP SP+-5
        ; Saved register size: 2
        ; Auto size: 0
//  730     DEVICE_ID=34;
        MOV     DPTR,#DEVICE_ID
        MOV     A,#0x22
        MOVX    @DPTR,A
//  731     DEFINED_CONTROL_CHAR='/';
        MOV     DPTR,#DEFINED_CONTROL_CHAR
        MOV     A,#0x2f
        MOVX    @DPTR,A
//  732     JOIN_ROLE=Send_Endvice;
        MOV     DPTR,#JOIN_ROLE
        MOV     A,#0x1
        MOVX    @DPTR,A
//  733     
//  734     RS_LEN = 4;
        MOV     DPTR,#RS_LEN
        MOV     A,#0x4
        MOVX    @DPTR,A
//  735     RS_STR[0]=0;// ;
        MOV     DPTR,#RS_STR
        MOV     A,#0x0
        MOVX    @DPTR,A
//  736     RS_STR[1]=0;// ;
        MOV     DPTR,#RS_STR + 1
        MOV     A,#0x0
        MOVX    @DPTR,A
//  737     RS_STR[2]=0;// ;
        MOV     DPTR,#RS_STR + 2
        MOV     A,#0x0
        MOVX    @DPTR,A
//  738     RS_STR[3]=0;// ;
        MOV     DPTR,#RS_STR + 3
        MOV     A,#0x0
        MOVX    @DPTR,A
//  739     
//  740     // 对于电池设备每次RS后面可以跟一个电池有电的标记，如果是有电的话
//  741     
//  742     active_battery_voltage=myApp_ReadBattery();
        ; Setup parameters for call to function myApp_ReadBattery
        LCALL   ??myApp_ReadBattery?relay
        MOV     DPTR,#active_battery_voltage
        MOV     A,R2
        MOVX    @DPTR,A
        INC     DPTR
        MOV     A,R3
        MOVX    @DPTR,A
//  743     
//  744     if(active_battery_voltage>265)
        MOV     DPTR,#active_battery_voltage
        CLR     C
        MOVX    A,@DPTR
        SUBB    A,#0xa
        INC     DPTR
        MOVX    A,@DPTR
        SUBB    A,#0x1
        JC      ??USER_SET_RS_MSG_0
//  745     {
//  746       BUTTERY_ALARM_BIT=0;
        MOV     DPTR,#BUTTERY_ALARM_BIT
        MOV     A,#0x0
        MOVX    @DPTR,A
//  747       osal_start_timerEx( UserApp_TaskID, SAMPLEAPP_SEND_LOWBUTTERY_EVT,20000 );
        ; Setup parameters for call to function osal_start_timerEx
        MOV     R4,#0x20
        MOV     R5,#0x4e
        MOV     R2,#0x4
        MOV     R3,#0x0
        MOV     DPTR,#UserApp_TaskID
        MOVX    A,@DPTR
        MOV     R1,A
        LCALL   ??osal_start_timerEx?relay
        MOV     A,R1
//  748     }
//  749 }
??USER_SET_RS_MSG_0:
        POP     DPH
        CFI DPH0 SameValue
        CFI CFA_SP SP+-4
        POP     DPL
        CFI DPL0 SameValue
        CFI CFA_SP SP+-3
        LJMP    ?BRET
        CFI EndBlock cfiBlock6
//  750 
//  751 
//  752 /*
//  753  用户自行规划主动上报数据的格式。
//  754 */

        RSEG BANKED_CODE:CODE:NOROOT(0)
//  755 void SampleApp_SendInMessage(void)
SampleApp_SendInMessage:
        CFI Block cfiBlock7 Using cfiCommon0
        CFI Function SampleApp_SendInMessage
        CODE
//  756 { 
        FUNCALL SampleApp_SendInMessage, osal_mem_alloc
        LOCFRAME ISTACK, 0, STACK
        LOCFRAME PSTACK, 0, STACK
        LOCFRAME XSTACK, 11, STACK
        LOCFRAME IOVERLAY, 0, STATIC
        LOCFRAME DOVERLAY, 0, STATIC
        ARGFRAME ISTACK, 0, STACK
        ARGFRAME PSTACK, 0, STACK
        ARGFRAME XSTACK, 11, STACK
        ARGFRAME IOVERLAY, 0, STATIC
        ARGFRAME DOVERLAY, 0, STATIC
        FUNCALL SampleApp_SendInMessage, USER_SEND_ADD_STR
        LOCFRAME ISTACK, 0, STACK
        LOCFRAME PSTACK, 0, STACK
        LOCFRAME XSTACK, 11, STACK
        LOCFRAME IOVERLAY, 0, STATIC
        LOCFRAME DOVERLAY, 0, STATIC
        ARGFRAME ISTACK, 0, STACK
        ARGFRAME PSTACK, 0, STACK
        ARGFRAME XSTACK, 11, STACK
        ARGFRAME IOVERLAY, 0, STATIC
        ARGFRAME DOVERLAY, 0, STATIC
        FUNCALL SampleApp_SendInMessage, USER_APP_SEND_IN
        LOCFRAME ISTACK, 0, STACK
        LOCFRAME PSTACK, 0, STACK
        LOCFRAME XSTACK, 11, STACK
        LOCFRAME IOVERLAY, 0, STATIC
        LOCFRAME DOVERLAY, 0, STATIC
        ARGFRAME ISTACK, 0, STACK
        ARGFRAME PSTACK, 0, STACK
        ARGFRAME XSTACK, 11, STACK
        ARGFRAME IOVERLAY, 0, STATIC
        ARGFRAME DOVERLAY, 0, STATIC
        FUNCALL SampleApp_SendInMessage, USER_APP_SEND_IN
        LOCFRAME ISTACK, 0, STACK
        LOCFRAME PSTACK, 0, STACK
        LOCFRAME XSTACK, 11, STACK
        LOCFRAME IOVERLAY, 0, STATIC
        LOCFRAME DOVERLAY, 0, STATIC
        ARGFRAME ISTACK, 0, STACK
        ARGFRAME PSTACK, 0, STACK
        ARGFRAME XSTACK, 11, STACK
        ARGFRAME IOVERLAY, 0, STATIC
        ARGFRAME DOVERLAY, 0, STATIC
        FUNCALL SampleApp_SendInMessage, osal_mem_free
        LOCFRAME ISTACK, 0, STACK
        LOCFRAME PSTACK, 0, STACK
        LOCFRAME XSTACK, 11, STACK
        LOCFRAME IOVERLAY, 0, STATIC
        LOCFRAME DOVERLAY, 0, STATIC
        ARGFRAME ISTACK, 0, STACK
        ARGFRAME PSTACK, 0, STACK
        ARGFRAME XSTACK, 11, STACK
        ARGFRAME IOVERLAY, 0, STATIC
        ARGFRAME DOVERLAY, 0, STATIC
        MOV     A,#-0xb
        LCALL   ?BANKED_ENTER_XDATA
        CFI DPH0 load(1, XDATA, add(CFA_XSP16, literal(-1)))
        CFI DPL0 load(1, XDATA, add(CFA_XSP16, literal(-2)))
        CFI ?BRET_EXT load(1, XDATA, add(CFA_XSP16, literal(-3)))
        CFI ?RET_HIGH load(1, XDATA, add(CFA_XSP16, literal(-4)))
        CFI ?RET_LOW load(1, XDATA, add(CFA_XSP16, literal(-5)))
        CFI R7 load(1, XDATA, add(CFA_XSP16, literal(-6)))
        CFI V2 load(1, XDATA, add(CFA_XSP16, literal(-7)))
        CFI V1 load(1, XDATA, add(CFA_XSP16, literal(-8)))
        CFI V0 load(1, XDATA, add(CFA_XSP16, literal(-9)))
        CFI VB load(1, XDATA, add(CFA_XSP16, literal(-10)))
        CFI R6 load(1, XDATA, add(CFA_XSP16, literal(-11)))
        CFI CFA_SP SP+0
        CFI CFA_XSP16 add(XSP16, 11)
        ; Saved register size: 11
        ; Auto size: 0
//  757   uint8 *send_str;
//  758   uint8 send_count=0;
        MOV     ?V0 + 2,#0x0
//  759   send_count = 10+5;
        MOV     ?V0 + 2,#0xf
//  760   send_str = osal_mem_alloc(send_count);
        ; Setup parameters for call to function osal_mem_alloc
        MOV     ?V0 + 0,?V0 + 2
        MOV     ?V0 + 1,#0x0
        MOV     R2,?V0 + 0
        MOV     R3,?V0 + 1
        LCALL   ??osal_mem_alloc?relay
        MOV     ?V0 + 0,R2
        MOV     ?V0 + 1,R3
        MOV     R6,?V0 + 0
        MOV     R7,?V0 + 1
//  761   
//  762   USER_SEND_ADD_STR(send_str);  //\添加固定帧头
        ; Setup parameters for call to function USER_SEND_ADD_STR
        MOV     A,R6
        MOV     R2,A
        MOV     A,R7
        MOV     R3,A
        LCALL   ??USER_SEND_ADD_STR?relay
//  763 
//  764    if(BUTTERY_LOW_FLAG==1)
        MOV     DPTR,#BUTTERY_LOW_FLAG
        MOVX    A,@DPTR
        XRL     A,#0x1
        JNZ     ??SampleApp_SendInMessage_0
//  765    {  
//  766     send_str[9]=0xA1; 
        MOV     DPL,R6
        MOV     DPH,R7
        INC     DPTR
        INC     DPTR
        INC     DPTR
        INC     DPTR
        INC     DPTR
        INC     DPTR
        INC     DPTR
        INC     DPTR
        INC     DPTR
        MOV     A,#-0x5f
        MOVX    @DPTR,A
//  767     send_str[10]=1;//1代表 电池告警标记位
        MOV     DPL,R6
        MOV     DPH,R7
        INC     DPTR
        INC     DPTR
        INC     DPTR
        INC     DPTR
        INC     DPTR
        INC     DPTR
        INC     DPTR
        INC     DPTR
        INC     DPTR
        INC     DPTR
        MOV     A,#0x1
        MOVX    @DPTR,A
//  768     send_str[11]=BUTTERY_ALARM_BIT;//active_battery_voltage;//1; //代表 电池告警事件
        MOV     DPTR,#BUTTERY_ALARM_BIT
        MOVX    A,@DPTR
        PUSH    A
        CFI CFA_SP SP+-1
        MOV     A,R6
        ADD     A,#0xb
        MOV     DPL,A
        MOV     A,R7
        ADDC    A,#0x0
        MOV     DPH,A
        POP     A
        CFI CFA_SP SP+0
        MOVX    @DPTR,A
//  769     BUTTERY_LOW_FLAG = 0;
        MOV     DPTR,#BUTTERY_LOW_FLAG
        MOV     A,#0x0
        MOVX    @DPTR,A
//  770     USER_APP_SEND_IN(12,send_str);//发送出数据
        ; Setup parameters for call to function USER_APP_SEND_IN
        MOV     A,R6
        MOV     R2,A
        MOV     A,R7
        MOV     R3,A
        MOV     R1,#0xc
        LCALL   ??USER_APP_SEND_IN?relay
        LJMP    ??SampleApp_SendInMessage_1 & 0xFFFF
//  771    }
//  772    else
//  773    {
//  774      send_str[9]='/';
??SampleApp_SendInMessage_0:
        MOV     DPL,R6
        MOV     DPH,R7
        INC     DPTR
        INC     DPTR
        INC     DPTR
        INC     DPTR
        INC     DPTR
        INC     DPTR
        INC     DPTR
        INC     DPTR
        INC     DPTR
        MOV     A,#0x2f
        MOVX    @DPTR,A
//  775      if(screen_flag == 1)
        MOV     DPTR,#screen_flag
        MOVX    A,@DPTR
        XRL     A,#0x1
        JNZ     ??SampleApp_SendInMessage_2
//  776      {
//  777        send_str[10]= 1;
        MOV     DPL,R6
        MOV     DPH,R7
        INC     DPTR
        INC     DPTR
        INC     DPTR
        INC     DPTR
        INC     DPTR
        INC     DPTR
        INC     DPTR
        INC     DPTR
        INC     DPTR
        INC     DPTR
        MOV     A,#0x1
        MOVX    @DPTR,A
//  778        send_str[11]= 0;
        MOV     A,R6
        ADD     A,#0xb
        MOV     DPL,A
        MOV     A,R7
        ADDC    A,#0x0
        MOV     DPH,A
        MOV     A,#0x0
        MOVX    @DPTR,A
//  779        send_str[12]= 0;
        MOV     A,R6
        ADD     A,#0xc
        MOV     DPL,A
        MOV     A,R7
        ADDC    A,#0x0
        MOV     DPH,A
        MOV     A,#0x0
        MOVX    @DPTR,A
//  780        send_str[13]= 0;
        MOV     A,R6
        ADD     A,#0xd
        MOV     DPL,A
        MOV     A,R7
        ADDC    A,#0x0
        MOV     DPH,A
        MOV     A,#0x0
        MOVX    @DPTR,A
        LJMP    ??SampleApp_SendInMessage_3 & 0xFFFF
//  781        
//  782      }
//  783      else if(screen_flag == 2)
??SampleApp_SendInMessage_2:
        MOV     DPTR,#screen_flag
        MOVX    A,@DPTR
        XRL     A,#0x2
        JNZ     ??SampleApp_SendInMessage_4
//  784      {
//  785        send_str[10]= 0;
        MOV     DPL,R6
        MOV     DPH,R7
        INC     DPTR
        INC     DPTR
        INC     DPTR
        INC     DPTR
        INC     DPTR
        INC     DPTR
        INC     DPTR
        INC     DPTR
        INC     DPTR
        INC     DPTR
        MOV     A,#0x0
        MOVX    @DPTR,A
//  786        send_str[11]= 1;
        MOV     A,R6
        ADD     A,#0xb
        MOV     DPL,A
        MOV     A,R7
        ADDC    A,#0x0
        MOV     DPH,A
        MOV     A,#0x1
        MOVX    @DPTR,A
//  787        send_str[12]= 0;
        MOV     A,R6
        ADD     A,#0xc
        MOV     DPL,A
        MOV     A,R7
        ADDC    A,#0x0
        MOV     DPH,A
        MOV     A,#0x0
        MOVX    @DPTR,A
//  788        send_str[13]= 0;
        MOV     A,R6
        ADD     A,#0xd
        MOV     DPL,A
        MOV     A,R7
        ADDC    A,#0x0
        MOV     DPH,A
        MOV     A,#0x0
        MOVX    @DPTR,A
        LJMP    ??SampleApp_SendInMessage_3 & 0xFFFF
//  789      }
//  790      else if(screen_flag == 3)
??SampleApp_SendInMessage_4:
        MOV     DPTR,#screen_flag
        MOVX    A,@DPTR
        XRL     A,#0x3
        JNZ     ??SampleApp_SendInMessage_5
//  791      {
//  792        send_str[10]= 0;
        MOV     DPL,R6
        MOV     DPH,R7
        INC     DPTR
        INC     DPTR
        INC     DPTR
        INC     DPTR
        INC     DPTR
        INC     DPTR
        INC     DPTR
        INC     DPTR
        INC     DPTR
        INC     DPTR
        MOV     A,#0x0
        MOVX    @DPTR,A
//  793        send_str[11]= 0;
        MOV     A,R6
        ADD     A,#0xb
        MOV     DPL,A
        MOV     A,R7
        ADDC    A,#0x0
        MOV     DPH,A
        MOV     A,#0x0
        MOVX    @DPTR,A
//  794        send_str[12]= 1;
        MOV     A,R6
        ADD     A,#0xc
        MOV     DPL,A
        MOV     A,R7
        ADDC    A,#0x0
        MOV     DPH,A
        MOV     A,#0x1
        MOVX    @DPTR,A
//  795        send_str[13]= 0;
        MOV     A,R6
        ADD     A,#0xd
        MOV     DPL,A
        MOV     A,R7
        ADDC    A,#0x0
        MOV     DPH,A
        MOV     A,#0x0
        MOVX    @DPTR,A
        SJMP    ??SampleApp_SendInMessage_3
//  796        
//  797      }
//  798      else if(screen_flag == 4)
??SampleApp_SendInMessage_5:
        MOV     DPTR,#screen_flag
        MOVX    A,@DPTR
        XRL     A,#0x4
        JNZ     ??SampleApp_SendInMessage_3
//  799      {
//  800        send_str[10]= 0;
        MOV     DPL,R6
        MOV     DPH,R7
        INC     DPTR
        INC     DPTR
        INC     DPTR
        INC     DPTR
        INC     DPTR
        INC     DPTR
        INC     DPTR
        INC     DPTR
        INC     DPTR
        INC     DPTR
        MOV     A,#0x0
        MOVX    @DPTR,A
//  801        send_str[11]= 0;
        MOV     A,R6
        ADD     A,#0xb
        MOV     DPL,A
        MOV     A,R7
        ADDC    A,#0x0
        MOV     DPH,A
        MOV     A,#0x0
        MOVX    @DPTR,A
//  802        send_str[12]= 0;
        MOV     A,R6
        ADD     A,#0xc
        MOV     DPL,A
        MOV     A,R7
        ADDC    A,#0x0
        MOV     DPH,A
        MOV     A,#0x0
        MOVX    @DPTR,A
//  803        send_str[13]= 1;
        MOV     A,R6
        ADD     A,#0xd
        MOV     DPL,A
        MOV     A,R7
        ADDC    A,#0x0
        MOV     DPH,A
        MOV     A,#0x1
        MOVX    @DPTR,A
//  804      }
//  805      //ACK_FLAG = 1;
//  806      USER_APP_SEND_IN(14,send_str);//发送出数据
??SampleApp_SendInMessage_3:
        ; Setup parameters for call to function USER_APP_SEND_IN
        MOV     A,R6
        MOV     R2,A
        MOV     A,R7
        MOV     R3,A
        MOV     R1,#0xe
        LCALL   ??USER_APP_SEND_IN?relay
//  807      //NLME_SetPollRate( 1000 );
//  808    }   
//  809   osal_mem_free( send_str );
??SampleApp_SendInMessage_1:
        ; Setup parameters for call to function osal_mem_free
        MOV     A,R6
        MOV     R2,A
        MOV     A,R7
        MOV     R3,A
        LCALL   ??osal_mem_free?relay
//  810 }
        MOV     R7,#0x3
        LJMP    ?BANKED_LEAVE_XDATA
        CFI EndBlock cfiBlock7
//  811 
//  812 

        RSEG BANKED_CODE:CODE:NOROOT(0)
//  813 void User_APP_Drive_init(void)
User_APP_Drive_init:
        CFI Block cfiBlock8 Using cfiCommon0
        CFI Function User_APP_Drive_init
        CODE
//  814 {
        ; Saved register size: 0
        ; Auto size: 0
//  815   HAL_IO_CONFIG_INIT();
        ORL     0xfe,#0x1
        ORL     0xfd,#0x40
        SETB    0x90.0
        SETB    0x80.6
//  816   
//  817 }
        LJMP    ?BRET
        CFI EndBlock cfiBlock8
        REQUIRE P1DIR
        REQUIRE P0DIR
        REQUIRE _A_P1
        REQUIRE _A_P0
//  818 

        RSEG BANKED_CODE:CODE:NOROOT(0)
//  819 uint8 READ_NETKEY() //读取入网状态按键的状态传递到应用层
READ_NETKEY:
        CFI Block cfiBlock9 Using cfiCommon0
        CFI Function READ_NETKEY
        CODE
//  820 {
        ; Saved register size: 0
        ; Auto size: 0
//  821 
//  822   return HAL_PUSH_BUTTON1();
        MOV     C,0x90.2
        CLR     A
        RLC     A
        MOV     R1,A
        LJMP    ?BRET
        CFI EndBlock cfiBlock9
        REQUIRE _A_P1
//  823 }
//  824 
//  825 
//  826 
//  827 /*
//  828 mode 0 关
//  829 1 开
//  830 2 切换
//  831 */

        RSEG BANKED_CODE:CODE:NOROOT(0)
//  832 void LED_CHANGE(uint8 Position,uint8 Mode)// 设置LED函数
LED_CHANGE:
        CFI Block cfiBlock10 Using cfiCommon0
        CFI Function LED_CHANGE
        CODE
//  833 {
        ; Saved register size: 0
        ; Auto size: 0
//  834  switch (Position )
        MOV     A,R1
        DEC     A
        JZ      ??LED_CHANGE_0
        DEC     A
        JZ      ??LED_CHANGE_1
        ADD     A,#-0x2
        JZ      ??LED_CHANGE_2
        ADD     A,#-0x4
        JNZ     $+5
        LJMP    ??LED_CHANGE_3 & 0xFFFF
        ADD     A,#-0x8
        JNZ     $+5
        LJMP    ??LED_CHANGE_4 & 0xFFFF
        LJMP    ??LED_CHANGE_5 & 0xFFFF
//  835     {
//  836       case HAL_LED_1:      
//  837         {
//  838          if(Mode==0 || Mode==1)
??LED_CHANGE_0:
        MOV     A,R2
        JZ      ??LED_CHANGE_6
        MOV     A,#0x1
        XRL     A,R2
        JNZ     ??LED_CHANGE_7
//  839          {
//  840           LED1_SBIT = LED1_POLARITY(Mode);
??LED_CHANGE_6:
        MOV     A,R2
        JNZ     ??LED_CHANGE_8
        MOV     R0,#0x1
        SJMP    ??LED_CHANGE_9
??LED_CHANGE_8:
        MOV     R0,#0x0
??LED_CHANGE_9:
        MOV     A,R0
        MOV     C,0xE0 /* A   */.0
        MOV     0x90.0,C
        SJMP    ??LED_CHANGE_10
//  841          }
//  842          else if(Mode==2)
??LED_CHANGE_7:
        MOV     A,#0x2
        XRL     A,R2
        JNZ     ??LED_CHANGE_10
//  843          {
//  844           if (LED1_SBIT) 
        MOV     C,0x90.0
        JNC     ??LED_CHANGE_11
//  845           { 
//  846             LED1_SBIT = 0; 
        CLR     0x90.0
        SJMP    ??LED_CHANGE_10
//  847           } 
//  848           else 
//  849           { 
//  850             LED1_SBIT = 1;
??LED_CHANGE_11:
        SETB    0x90.0
//  851           } 
//  852          }
//  853         }   
//  854         break;     
??LED_CHANGE_10:
        LJMP    ??LED_CHANGE_5 & 0xFFFF
//  855         
//  856         case HAL_LED_2:      
//  857         {
//  858          if(Mode==0||Mode==1)
??LED_CHANGE_1:
        MOV     A,R2
        JZ      ??LED_CHANGE_12
        MOV     A,#0x1
        XRL     A,R2
        JNZ     ??LED_CHANGE_13
//  859          {
//  860           LED2_SBIT = LED2_POLARITY(Mode);
??LED_CHANGE_12:
        MOV     A,R2
        JNZ     ??LED_CHANGE_14
        MOV     R0,#0x1
        SJMP    ??LED_CHANGE_15
??LED_CHANGE_14:
        MOV     R0,#0x0
??LED_CHANGE_15:
        MOV     A,R0
        MOV     C,0xE0 /* A   */.0
        MOV     0x80.6,C
        SJMP    ??LED_CHANGE_16
//  861          }
//  862          else if(Mode==2)
??LED_CHANGE_13:
        MOV     A,#0x2
        XRL     A,R2
        JNZ     ??LED_CHANGE_16
//  863          {
//  864           if (LED1_SBIT) 
        MOV     C,0x90.0
        JNC     ??LED_CHANGE_17
//  865           { 
//  866             LED2_SBIT = 0; 
        CLR     0x80.6
        SJMP    ??LED_CHANGE_5
//  867           } 
//  868           else 
//  869           { 
//  870             LED2_SBIT = 1;
??LED_CHANGE_17:
        SETB    0x80.6
//  871           } 
//  872          }
//  873         }   
//  874         break;     
??LED_CHANGE_16:
        SJMP    ??LED_CHANGE_5
//  875         
//  876         case HAL_LED_3:      
//  877         {
//  878          if(Mode==0 || Mode==1)
??LED_CHANGE_2:
        MOV     A,R2
        JZ      ??LED_CHANGE_18
        MOV     A,#0x1
        XRL     A,R2
        JNZ     ??LED_CHANGE_19
//  879          {
//  880           LED3_SBIT = LED3_POLARITY(Mode);
??LED_CHANGE_18:
        MOV     A,R2
        JNZ     ??LED_CHANGE_20
        MOV     R0,#0x1
        SJMP    ??LED_CHANGE_21
??LED_CHANGE_20:
        MOV     R0,#0x0
??LED_CHANGE_21:
        MOV     A,R0
        MOV     C,0xE0 /* A   */.0
        MOV     0x80.6,C
        SJMP    ??LED_CHANGE_5
//  881          }
//  882          else if(Mode==2)
??LED_CHANGE_19:
        MOV     A,#0x2
        XRL     A,R2
        JNZ     ??LED_CHANGE_5
//  883          {
//  884           if (LED3_SBIT) 
        MOV     C,0x80.6
        JNC     ??LED_CHANGE_22
//  885           { 
//  886             LED3_SBIT = 0; 
        CLR     0x80.6
        SJMP    ??LED_CHANGE_5
//  887           } 
//  888           else 
//  889           { 
//  890             LED3_SBIT = 1;
??LED_CHANGE_22:
        SETB    0x80.6
//  891           } 
//  892          }
//  893         }   
//  894         break;  
        SJMP    ??LED_CHANGE_5
//  895         
//  896           case HAL_LED_4:      
//  897         {
//  898          if(Mode==0 || Mode==1)
??LED_CHANGE_3:
        MOV     A,R2
        JZ      ??LED_CHANGE_23
        MOV     A,#0x1
        XRL     A,R2
        JNZ     ??LED_CHANGE_24
//  899          {
//  900           LED4_SBIT = LED4_POLARITY(Mode);
??LED_CHANGE_23:
        MOV     A,R2
        JNZ     ??LED_CHANGE_25
        MOV     R0,#0x1
        SJMP    ??LED_CHANGE_26
??LED_CHANGE_25:
        MOV     R0,#0x0
??LED_CHANGE_26:
        MOV     A,R0
        MOV     C,0xE0 /* A   */.0
        MOV     0x80.6,C
        SJMP    ??LED_CHANGE_5
//  901          }
//  902          else if(Mode==2)
??LED_CHANGE_24:
        MOV     A,#0x2
        XRL     A,R2
        JNZ     ??LED_CHANGE_5
//  903          {
//  904           if (LED4_SBIT) 
        MOV     C,0x80.6
        JNC     ??LED_CHANGE_27
//  905           { 
//  906             LED4_SBIT = 0; 
        CLR     0x80.6
        SJMP    ??LED_CHANGE_5
//  907           } 
//  908           else 
//  909           { 
//  910             LED4_SBIT = 1;
??LED_CHANGE_27:
        SETB    0x80.6
//  911           } 
//  912          }
//  913         }   
//  914         break;
        SJMP    ??LED_CHANGE_5
//  915         
//  916           case HAL_LED_5:      
//  917         {
//  918          if(Mode==0 || Mode==1)
??LED_CHANGE_4:
        MOV     A,R2
        JZ      ??LED_CHANGE_28
        MOV     A,#0x1
        XRL     A,R2
        JNZ     ??LED_CHANGE_29
//  919          {
//  920           LED5_SBIT = LED5_POLARITY(Mode);
??LED_CHANGE_28:
        MOV     A,R2
        JNZ     ??LED_CHANGE_30
        MOV     R0,#0x1
        SJMP    ??LED_CHANGE_31
??LED_CHANGE_30:
        MOV     R0,#0x0
??LED_CHANGE_31:
        MOV     A,R0
        MOV     C,0xE0 /* A   */.0
        MOV     0x80.6,C
        SJMP    ??LED_CHANGE_5
//  921          }
//  922          else if(Mode==2)
??LED_CHANGE_29:
        MOV     A,#0x2
        XRL     A,R2
        JNZ     ??LED_CHANGE_5
//  923          {
//  924           if (LED5_SBIT) 
        MOV     C,0x80.6
        JNC     ??LED_CHANGE_32
//  925           { 
//  926             LED5_SBIT = 0; 
        CLR     0x80.6
        SJMP    ??LED_CHANGE_5
//  927           } 
//  928           else 
//  929           { 
//  930             LED5_SBIT = 1;
??LED_CHANGE_32:
        SETB    0x80.6
//  931           } 
//  932          }
//  933         }   
//  934         break;
//  935 
//  936     default:
//  937       break;
//  938     }
//  939 }
??LED_CHANGE_5:
        LJMP    ?BRET
        CFI EndBlock cfiBlock10
        REQUIRE _A_P1
        REQUIRE _A_P0
//  940 
//  941 

        RSEG BANKED_CODE:CODE:NOROOT(0)
//  942 void USER_ZDO_JOINING_MSG(void)
USER_ZDO_JOINING_MSG:
        CFI Block cfiBlock11 Using cfiCommon0
        CFI Function USER_ZDO_JOINING_MSG
        CODE
//  943 {
        FUNCALL USER_ZDO_JOINING_MSG, HalLedBlink
        LOCFRAME ISTACK, 2, STACK
        LOCFRAME PSTACK, 0, STACK
        LOCFRAME XSTACK, 0, STACK
        LOCFRAME IOVERLAY, 0, STATIC
        LOCFRAME DOVERLAY, 0, STATIC
        ARGFRAME ISTACK, 2, STACK
        ARGFRAME PSTACK, 0, STACK
        ARGFRAME XSTACK, 0, STACK
        ARGFRAME IOVERLAY, 0, STATIC
        ARGFRAME DOVERLAY, 0, STATIC
        PUSH    DPL
        CFI DPL0 Frame(CFA_SP, 4)
        CFI CFA_SP SP+-4
        PUSH    DPH
        CFI DPH0 Frame(CFA_SP, 5)
        CFI CFA_SP SP+-5
        ; Saved register size: 2
        ; Auto size: 0
//  944  HalLedBlink ( HAL_LED_1, 1, 30, 500 );
        ; Setup parameters for call to function HalLedBlink
        MOV     R4,#-0xc
        MOV     R5,#0x1
        MOV     R3,#0x1e
        MOV     R2,#0x1
        MOV     R1,#0x1
        LCALL   ??HalLedBlink?relay
//  945 }
        POP     DPH
        CFI DPH0 SameValue
        CFI CFA_SP SP+-4
        POP     DPL
        CFI DPL0 SameValue
        CFI CFA_SP SP+-3
        LJMP    ?BRET
        CFI EndBlock cfiBlock11
//  946 //RS后面是否要处理相关事件或者应用，在此进行处理

        RSEG BANKED_CODE:CODE:NOROOT(0)
//  947 void USER_AFTER_RS_MSG(void)
USER_AFTER_RS_MSG:
        CFI Block cfiBlock12 Using cfiCommon0
        CFI Function USER_AFTER_RS_MSG
        CODE
//  948 {
        ; Saved register size: 0
        ; Auto size: 0
//  949 
//  950 
//  951 }
        LJMP    ?BRET
        CFI EndBlock cfiBlock12
//  952 
//  953 
//  954 //跟随心跳1分钟一次，可以用来做电池检测，如果需要的话

        RSEG BANKED_CODE:CODE:NOROOT(0)
//  955 void USER_MAYBE_BUTTERY_MSG(void)
USER_MAYBE_BUTTERY_MSG:
        CFI Block cfiBlock13 Using cfiCommon0
        CFI Function USER_MAYBE_BUTTERY_MSG
        CODE
//  956 {
        FUNCALL USER_MAYBE_BUTTERY_MSG, myApp_ReadBattery
        LOCFRAME ISTACK, 0, STACK
        LOCFRAME PSTACK, 0, STACK
        LOCFRAME XSTACK, 10, STACK
        LOCFRAME IOVERLAY, 0, STATIC
        LOCFRAME DOVERLAY, 0, STATIC
        ARGFRAME ISTACK, 0, STACK
        ARGFRAME PSTACK, 0, STACK
        ARGFRAME XSTACK, 10, STACK
        ARGFRAME IOVERLAY, 0, STATIC
        ARGFRAME DOVERLAY, 0, STATIC
        FUNCALL USER_MAYBE_BUTTERY_MSG, osal_start_timerEx
        LOCFRAME ISTACK, 0, STACK
        LOCFRAME PSTACK, 0, STACK
        LOCFRAME XSTACK, 10, STACK
        LOCFRAME IOVERLAY, 0, STATIC
        LOCFRAME DOVERLAY, 0, STATIC
        ARGFRAME ISTACK, 0, STACK
        ARGFRAME PSTACK, 0, STACK
        ARGFRAME XSTACK, 10, STACK
        ARGFRAME IOVERLAY, 0, STATIC
        ARGFRAME DOVERLAY, 0, STATIC
        MOV     A,#-0xa
        LCALL   ?BANKED_ENTER_XDATA
        CFI DPH0 load(1, XDATA, add(CFA_XSP16, literal(-1)))
        CFI DPL0 load(1, XDATA, add(CFA_XSP16, literal(-2)))
        CFI ?BRET_EXT load(1, XDATA, add(CFA_XSP16, literal(-3)))
        CFI ?RET_HIGH load(1, XDATA, add(CFA_XSP16, literal(-4)))
        CFI ?RET_LOW load(1, XDATA, add(CFA_XSP16, literal(-5)))
        CFI R7 load(1, XDATA, add(CFA_XSP16, literal(-6)))
        CFI V1 load(1, XDATA, add(CFA_XSP16, literal(-7)))
        CFI V0 load(1, XDATA, add(CFA_XSP16, literal(-8)))
        CFI VB load(1, XDATA, add(CFA_XSP16, literal(-9)))
        CFI R6 load(1, XDATA, add(CFA_XSP16, literal(-10)))
        CFI CFA_SP SP+0
        CFI CFA_XSP16 add(XSP16, 10)
        ; Saved register size: 10
        ; Auto size: 0
//  957        if(Heart_mesg_count%60==0) //暂定半小时使用ACK一次，如果失败了则重新入网 gai 30
        MOV     DPTR,#Heart_mesg_count
        MOVX    A,@DPTR
        MOV     R0,A
        INC     DPTR
        MOVX    A,@DPTR
        MOV     R1,A
        MOV     R2,#0x3c
        MOV     R3,#0x0
        LCALL   ?US_DIV_MOD
        MOV     ?V0 + 0,R2
        MOV     ?V0 + 1,R3
        MOV     A,?V0 + 0
        ORL     A,?V0 + 1
        JNZ     ??USER_MAYBE_BUTTERY_MSG_0
//  958       {
//  959           HEART_NEED_ACK_FLAG =1;
        MOV     DPTR,#HEART_NEED_ACK_FLAG
        MOV     A,#0x1
        MOVX    @DPTR,A
//  960           active_battery_voltage=myApp_ReadBattery();
        ; Setup parameters for call to function myApp_ReadBattery
        LCALL   ??myApp_ReadBattery?relay
        MOV     DPTR,#active_battery_voltage
        MOV     A,R2
        MOVX    @DPTR,A
        INC     DPTR
        MOV     A,R3
        MOVX    @DPTR,A
//  961           
//  962           if(active_battery_voltage<=265)
        MOV     DPTR,#active_battery_voltage
        CLR     C
        MOVX    A,@DPTR
        SUBB    A,#0xa
        INC     DPTR
        MOVX    A,@DPTR
        SUBB    A,#0x1
        JNC     ??USER_MAYBE_BUTTERY_MSG_1
//  963           {
//  964             if( (devState==DEV_END_DEVICE) || (devState==DEV_ROUTER) )
        MOV     DPTR,#devState
        MOVX    A,@DPTR
        XRL     A,#0x6
        JZ      ??USER_MAYBE_BUTTERY_MSG_2
        MOV     DPTR,#devState
        MOVX    A,@DPTR
        XRL     A,#0x7
        JNZ     ??USER_MAYBE_BUTTERY_MSG_0
//  965             {
//  966             BUTTERY_ALARM_BIT=1;
??USER_MAYBE_BUTTERY_MSG_2:
        MOV     DPTR,#BUTTERY_ALARM_BIT
        MOV     A,#0x1
        MOVX    @DPTR,A
//  967             osal_start_timerEx( UserApp_TaskID, SAMPLEAPP_SEND_LOWBUTTERY_EVT,
//  968                               20000 );
        ; Setup parameters for call to function osal_start_timerEx
        MOV     R4,#0x20
        MOV     R5,#0x4e
        MOV     R2,#0x4
        MOV     R3,#0x0
        MOV     DPTR,#UserApp_TaskID
        MOVX    A,@DPTR
        MOV     R1,A
        LCALL   ??osal_start_timerEx?relay
        MOV     A,R1
        SJMP    ??USER_MAYBE_BUTTERY_MSG_0
//  969             }
//  970             
//  971           }
//  972           else
//  973           {
//  974             BUTTERY_ALARM_BIT=0;
??USER_MAYBE_BUTTERY_MSG_1:
        MOV     DPTR,#BUTTERY_ALARM_BIT
        MOV     A,#0x0
        MOVX    @DPTR,A
//  975           }
//  976          
//  977     }
//  978       Heart_mesg_count++;
??USER_MAYBE_BUTTERY_MSG_0:
        MOV     DPTR,#Heart_mesg_count
        MOVX    A,@DPTR
        ADD     A,#0x1
        MOVX    @DPTR,A
        INC     DPTR
        MOVX    A,@DPTR
        ADDC    A,#0x0
        MOVX    @DPTR,A
//  979  
//  980 }
        MOV     R7,#0x2
        LJMP    ?BANKED_LEAVE_XDATA
        CFI EndBlock cfiBlock13
//  981 
//  982 
//  983 // 入网成功后，进入正常模式后设置设备的POLL RATE时间,红外人体修改为10S，维持半分钟

        RSEG BANKED_CODE:CODE:NOROOT(0)
//  984 void USER_SET_NOMAL_POLL_TIME(void)
USER_SET_NOMAL_POLL_TIME:
        CFI Block cfiBlock14 Using cfiCommon0
        CFI Function USER_SET_NOMAL_POLL_TIME
        CODE
//  985 {
        PUSH    DPL
        CFI DPL0 Frame(CFA_SP, 4)
        CFI CFA_SP SP+-4
        PUSH    DPH
        CFI DPH0 Frame(CFA_SP, 5)
        CFI CFA_SP SP+-5
        ; Saved register size: 2
        ; Auto size: 0
//  986   NORMAL_POLL_TIME=18000;
        MOV     DPTR,#NORMAL_POLL_TIME
        MOV     A,#0x50
        MOVX    @DPTR,A
        INC     DPTR
        MOV     A,#0x46
        MOVX    @DPTR,A
//  987  
//  988   //poll_count=0;
//  989   //osal_start_timerEx( UserApp_TaskID, RE_SET_POLL_EVT,60000);//10分钟
//  990 } 
        POP     DPH
        CFI DPH0 SameValue
        CFI CFA_SP SP+-4
        POP     DPL
        CFI DPL0 SameValue
        CFI CFA_SP SP+-3
        LJMP    ?BRET
        CFI EndBlock cfiBlock14
//  991 
//  992 
//  993 

        RSEG BANKED_CODE:CODE:NOROOT(0)
//  994 void SampleAPP_ProcessZDOMsgs( zdoIncomingMsg_t *inMsg )
SampleAPP_ProcessZDOMsgs:
        CFI Block cfiBlock15 Using cfiCommon0
        CFI Function SampleAPP_ProcessZDOMsgs
        CODE
//  995 {
        FUNCALL SampleAPP_ProcessZDOMsgs, HalLedBlink
        LOCFRAME ISTACK, 0, STACK
        LOCFRAME PSTACK, 0, STACK
        LOCFRAME XSTACK, 9, STACK
        LOCFRAME IOVERLAY, 0, STATIC
        LOCFRAME DOVERLAY, 0, STATIC
        ARGFRAME ISTACK, 0, STACK
        ARGFRAME PSTACK, 0, STACK
        ARGFRAME XSTACK, 9, STACK
        ARGFRAME IOVERLAY, 0, STATIC
        ARGFRAME DOVERLAY, 0, STATIC
        FUNCALL SampleAPP_ProcessZDOMsgs, HalLedBlink
        LOCFRAME ISTACK, 0, STACK
        LOCFRAME PSTACK, 0, STACK
        LOCFRAME XSTACK, 9, STACK
        LOCFRAME IOVERLAY, 0, STATIC
        LOCFRAME DOVERLAY, 0, STATIC
        ARGFRAME ISTACK, 0, STACK
        ARGFRAME PSTACK, 0, STACK
        ARGFRAME XSTACK, 9, STACK
        ARGFRAME IOVERLAY, 0, STATIC
        ARGFRAME DOVERLAY, 0, STATIC
        MOV     A,#-0x9
        LCALL   ?BANKED_ENTER_XDATA
        CFI DPH0 load(1, XDATA, add(CFA_XSP16, literal(-1)))
        CFI DPL0 load(1, XDATA, add(CFA_XSP16, literal(-2)))
        CFI ?BRET_EXT load(1, XDATA, add(CFA_XSP16, literal(-3)))
        CFI ?RET_HIGH load(1, XDATA, add(CFA_XSP16, literal(-4)))
        CFI ?RET_LOW load(1, XDATA, add(CFA_XSP16, literal(-5)))
        CFI R7 load(1, XDATA, add(CFA_XSP16, literal(-6)))
        CFI V0 load(1, XDATA, add(CFA_XSP16, literal(-7)))
        CFI VB load(1, XDATA, add(CFA_XSP16, literal(-8)))
        CFI R6 load(1, XDATA, add(CFA_XSP16, literal(-9)))
        CFI CFA_SP SP+0
        CFI CFA_XSP16 add(XSP16, 9)
        ; Saved register size: 9
        ; Auto size: 0
        MOV     A,R2
        MOV     R6,A
        MOV     A,R3
        MOV     R7,A
//  996   switch ( inMsg->clusterID )
        MOV     A,R6
        ADD     A,#0xc
        MOV     DPL,A
        MOV     A,R7
        ADDC    A,#0x0
        MOV     DPH,A
        MOVX    A,@DPTR
        XRL     A,#0x20
        JNZ     ??SampleAPP_ProcessZDOMsgs_0
        INC     DPTR
        MOVX    A,@DPTR
        XRL     A,#0x80
??SampleAPP_ProcessZDOMsgs_0:
        JNZ     ??SampleAPP_ProcessZDOMsgs_1
//  997   {
//  998     case End_Device_Bind_rsp:
//  999       if ( ZDO_ParseBindRsp( inMsg ) == ZSuccess )
        MOV     A,R6
        ADD     A,#0x13
        MOV     DPL,A
        MOV     A,R7
        ADDC    A,#0x0
        MOV     DPH,A
        MOVX    A,@DPTR
        MOV     R0,A
        INC     DPTR
        MOVX    A,@DPTR
        MOV     DPH,A
        MOV     DPL,R0
        MOVX    A,@DPTR
        JNZ     ??SampleAPP_ProcessZDOMsgs_2
// 1000       {
// 1001        HalLedBlink ( HAL_LED_2, 3, 50, 1000 );
        ; Setup parameters for call to function HalLedBlink
        MOV     R4,#-0x18
        MOV     R5,#0x3
        MOV     R3,#0x32
        MOV     R2,#0x3
        MOV     R1,#0x2
        LCALL   ??HalLedBlink?relay
        SJMP    ??SampleAPP_ProcessZDOMsgs_1
// 1002       }
// 1003 
// 1004       else
// 1005       {
// 1006         HalLedBlink ( HAL_LED_2, 6, 50, 500 );
??SampleAPP_ProcessZDOMsgs_2:
        ; Setup parameters for call to function HalLedBlink
        MOV     R4,#-0xc
        MOV     R5,#0x1
        MOV     R3,#0x32
        MOV     R2,#0x6
        MOV     R1,#0x2
        LCALL   ??HalLedBlink?relay
// 1007       }
// 1008       break;
// 1009   }
// 1010  
// 1011 }
??SampleAPP_ProcessZDOMsgs_1:
        MOV     R7,#0x1
        LJMP    ?BANKED_LEAVE_XDATA
        CFI EndBlock cfiBlock15
// 1012 

        RSEG BANKED_CODE:CODE:NOROOT(0)
// 1013 void SampleAPP_send_delay_message(void)
SampleAPP_send_delay_message:
        CFI Block cfiBlock16 Using cfiCommon0
        CFI Function SampleAPP_send_delay_message
        CODE
// 1014 {
        FUNCALL SampleAPP_send_delay_message, bindNumReflections
        LOCFRAME ISTACK, 0, STACK
        LOCFRAME PSTACK, 0, STACK
        LOCFRAME XSTACK, 10, STACK
        LOCFRAME IOVERLAY, 0, STATIC
        LOCFRAME DOVERLAY, 0, STATIC
        ARGFRAME ISTACK, 0, STACK
        ARGFRAME PSTACK, 0, STACK
        ARGFRAME XSTACK, 10, STACK
        ARGFRAME IOVERLAY, 0, STATIC
        ARGFRAME DOVERLAY, 0, STATIC
        FUNCALL SampleAPP_send_delay_message, HalLedBlink
        LOCFRAME ISTACK, 0, STACK
        LOCFRAME PSTACK, 0, STACK
        LOCFRAME XSTACK, 10, STACK
        LOCFRAME IOVERLAY, 0, STATIC
        LOCFRAME DOVERLAY, 0, STATIC
        ARGFRAME ISTACK, 0, STACK
        ARGFRAME PSTACK, 0, STACK
        ARGFRAME XSTACK, 10, STACK
        ARGFRAME IOVERLAY, 0, STATIC
        ARGFRAME DOVERLAY, 0, STATIC
        FUNCALL SampleAPP_send_delay_message, AF_DataRequest
        LOCFRAME ISTACK, 0, STACK
        LOCFRAME PSTACK, 0, STACK
        LOCFRAME XSTACK, 19, STACK
        LOCFRAME IOVERLAY, 0, STATIC
        LOCFRAME DOVERLAY, 0, STATIC
        ARGFRAME ISTACK, 0, STACK
        ARGFRAME PSTACK, 0, STACK
        ARGFRAME XSTACK, 19, STACK
        ARGFRAME IOVERLAY, 0, STATIC
        ARGFRAME DOVERLAY, 0, STATIC
        FUNCALL SampleAPP_send_delay_message, bindNumReflections
        LOCFRAME ISTACK, 0, STACK
        LOCFRAME PSTACK, 0, STACK
        LOCFRAME XSTACK, 10, STACK
        LOCFRAME IOVERLAY, 0, STATIC
        LOCFRAME DOVERLAY, 0, STATIC
        ARGFRAME ISTACK, 0, STACK
        ARGFRAME PSTACK, 0, STACK
        ARGFRAME XSTACK, 10, STACK
        ARGFRAME IOVERLAY, 0, STATIC
        ARGFRAME DOVERLAY, 0, STATIC
        FUNCALL SampleAPP_send_delay_message, HalLedBlink
        LOCFRAME ISTACK, 0, STACK
        LOCFRAME PSTACK, 0, STACK
        LOCFRAME XSTACK, 10, STACK
        LOCFRAME IOVERLAY, 0, STATIC
        LOCFRAME DOVERLAY, 0, STATIC
        ARGFRAME ISTACK, 0, STACK
        ARGFRAME PSTACK, 0, STACK
        ARGFRAME XSTACK, 10, STACK
        ARGFRAME IOVERLAY, 0, STATIC
        ARGFRAME DOVERLAY, 0, STATIC
        FUNCALL SampleAPP_send_delay_message, AF_DataRequest
        LOCFRAME ISTACK, 0, STACK
        LOCFRAME PSTACK, 0, STACK
        LOCFRAME XSTACK, 19, STACK
        LOCFRAME IOVERLAY, 0, STATIC
        LOCFRAME DOVERLAY, 0, STATIC
        ARGFRAME ISTACK, 0, STACK
        ARGFRAME PSTACK, 0, STACK
        ARGFRAME XSTACK, 19, STACK
        ARGFRAME IOVERLAY, 0, STATIC
        ARGFRAME DOVERLAY, 0, STATIC
        FUNCALL SampleAPP_send_delay_message, bindNumReflections
        LOCFRAME ISTACK, 0, STACK
        LOCFRAME PSTACK, 0, STACK
        LOCFRAME XSTACK, 10, STACK
        LOCFRAME IOVERLAY, 0, STATIC
        LOCFRAME DOVERLAY, 0, STATIC
        ARGFRAME ISTACK, 0, STACK
        ARGFRAME PSTACK, 0, STACK
        ARGFRAME XSTACK, 10, STACK
        ARGFRAME IOVERLAY, 0, STATIC
        ARGFRAME DOVERLAY, 0, STATIC
        FUNCALL SampleAPP_send_delay_message, HalLedBlink
        LOCFRAME ISTACK, 0, STACK
        LOCFRAME PSTACK, 0, STACK
        LOCFRAME XSTACK, 10, STACK
        LOCFRAME IOVERLAY, 0, STATIC
        LOCFRAME DOVERLAY, 0, STATIC
        ARGFRAME ISTACK, 0, STACK
        ARGFRAME PSTACK, 0, STACK
        ARGFRAME XSTACK, 10, STACK
        ARGFRAME IOVERLAY, 0, STATIC
        ARGFRAME DOVERLAY, 0, STATIC
        FUNCALL SampleAPP_send_delay_message, AF_DataRequest
        LOCFRAME ISTACK, 0, STACK
        LOCFRAME PSTACK, 0, STACK
        LOCFRAME XSTACK, 19, STACK
        LOCFRAME IOVERLAY, 0, STATIC
        LOCFRAME DOVERLAY, 0, STATIC
        ARGFRAME ISTACK, 0, STACK
        ARGFRAME PSTACK, 0, STACK
        ARGFRAME XSTACK, 19, STACK
        ARGFRAME IOVERLAY, 0, STATIC
        ARGFRAME DOVERLAY, 0, STATIC
        FUNCALL SampleAPP_send_delay_message, bindNumReflections
        LOCFRAME ISTACK, 0, STACK
        LOCFRAME PSTACK, 0, STACK
        LOCFRAME XSTACK, 10, STACK
        LOCFRAME IOVERLAY, 0, STATIC
        LOCFRAME DOVERLAY, 0, STATIC
        ARGFRAME ISTACK, 0, STACK
        ARGFRAME PSTACK, 0, STACK
        ARGFRAME XSTACK, 10, STACK
        ARGFRAME IOVERLAY, 0, STATIC
        ARGFRAME DOVERLAY, 0, STATIC
        FUNCALL SampleAPP_send_delay_message, HalLedBlink
        LOCFRAME ISTACK, 0, STACK
        LOCFRAME PSTACK, 0, STACK
        LOCFRAME XSTACK, 10, STACK
        LOCFRAME IOVERLAY, 0, STATIC
        LOCFRAME DOVERLAY, 0, STATIC
        ARGFRAME ISTACK, 0, STACK
        ARGFRAME PSTACK, 0, STACK
        ARGFRAME XSTACK, 10, STACK
        ARGFRAME IOVERLAY, 0, STATIC
        ARGFRAME DOVERLAY, 0, STATIC
        FUNCALL SampleAPP_send_delay_message, AF_DataRequest
        LOCFRAME ISTACK, 0, STACK
        LOCFRAME PSTACK, 0, STACK
        LOCFRAME XSTACK, 19, STACK
        LOCFRAME IOVERLAY, 0, STATIC
        LOCFRAME DOVERLAY, 0, STATIC
        ARGFRAME ISTACK, 0, STACK
        ARGFRAME PSTACK, 0, STACK
        ARGFRAME XSTACK, 19, STACK
        ARGFRAME IOVERLAY, 0, STATIC
        ARGFRAME DOVERLAY, 0, STATIC
        FUNCALL SampleAPP_send_delay_message, bindNumReflections
        LOCFRAME ISTACK, 0, STACK
        LOCFRAME PSTACK, 0, STACK
        LOCFRAME XSTACK, 10, STACK
        LOCFRAME IOVERLAY, 0, STATIC
        LOCFRAME DOVERLAY, 0, STATIC
        ARGFRAME ISTACK, 0, STACK
        ARGFRAME PSTACK, 0, STACK
        ARGFRAME XSTACK, 10, STACK
        ARGFRAME IOVERLAY, 0, STATIC
        ARGFRAME DOVERLAY, 0, STATIC
        FUNCALL SampleAPP_send_delay_message, HalLedBlink
        LOCFRAME ISTACK, 0, STACK
        LOCFRAME PSTACK, 0, STACK
        LOCFRAME XSTACK, 10, STACK
        LOCFRAME IOVERLAY, 0, STATIC
        LOCFRAME DOVERLAY, 0, STATIC
        ARGFRAME ISTACK, 0, STACK
        ARGFRAME PSTACK, 0, STACK
        ARGFRAME XSTACK, 10, STACK
        ARGFRAME IOVERLAY, 0, STATIC
        ARGFRAME DOVERLAY, 0, STATIC
        FUNCALL SampleAPP_send_delay_message, AF_DataRequest
        LOCFRAME ISTACK, 0, STACK
        LOCFRAME PSTACK, 0, STACK
        LOCFRAME XSTACK, 19, STACK
        LOCFRAME IOVERLAY, 0, STATIC
        LOCFRAME DOVERLAY, 0, STATIC
        ARGFRAME ISTACK, 0, STACK
        ARGFRAME PSTACK, 0, STACK
        ARGFRAME XSTACK, 19, STACK
        ARGFRAME IOVERLAY, 0, STATIC
        ARGFRAME DOVERLAY, 0, STATIC
        FUNCALL SampleAPP_send_delay_message, HalLedBlink
        LOCFRAME ISTACK, 0, STACK
        LOCFRAME PSTACK, 0, STACK
        LOCFRAME XSTACK, 10, STACK
        LOCFRAME IOVERLAY, 0, STATIC
        LOCFRAME DOVERLAY, 0, STATIC
        ARGFRAME ISTACK, 0, STACK
        ARGFRAME PSTACK, 0, STACK
        ARGFRAME XSTACK, 10, STACK
        ARGFRAME IOVERLAY, 0, STATIC
        ARGFRAME DOVERLAY, 0, STATIC
        FUNCALL SampleAPP_send_delay_message, osal_start_timerEx
        LOCFRAME ISTACK, 0, STACK
        LOCFRAME PSTACK, 0, STACK
        LOCFRAME XSTACK, 10, STACK
        LOCFRAME IOVERLAY, 0, STATIC
        LOCFRAME DOVERLAY, 0, STATIC
        ARGFRAME ISTACK, 0, STACK
        ARGFRAME PSTACK, 0, STACK
        ARGFRAME XSTACK, 10, STACK
        ARGFRAME IOVERLAY, 0, STATIC
        ARGFRAME DOVERLAY, 0, STATIC
        FUNCALL SampleAPP_send_delay_message, SampleApp_SendInMessage
        LOCFRAME ISTACK, 0, STACK
        LOCFRAME PSTACK, 0, STACK
        LOCFRAME XSTACK, 10, STACK
        LOCFRAME IOVERLAY, 0, STATIC
        LOCFRAME DOVERLAY, 0, STATIC
        ARGFRAME ISTACK, 0, STACK
        ARGFRAME PSTACK, 0, STACK
        ARGFRAME XSTACK, 10, STACK
        ARGFRAME IOVERLAY, 0, STATIC
        ARGFRAME DOVERLAY, 0, STATIC
        FUNCALL SampleAPP_send_delay_message, bindNumReflections
        LOCFRAME ISTACK, 0, STACK
        LOCFRAME PSTACK, 0, STACK
        LOCFRAME XSTACK, 10, STACK
        LOCFRAME IOVERLAY, 0, STATIC
        LOCFRAME DOVERLAY, 0, STATIC
        ARGFRAME ISTACK, 0, STACK
        ARGFRAME PSTACK, 0, STACK
        ARGFRAME XSTACK, 10, STACK
        ARGFRAME IOVERLAY, 0, STATIC
        ARGFRAME DOVERLAY, 0, STATIC
        FUNCALL SampleAPP_send_delay_message, HalLedBlink
        LOCFRAME ISTACK, 0, STACK
        LOCFRAME PSTACK, 0, STACK
        LOCFRAME XSTACK, 10, STACK
        LOCFRAME IOVERLAY, 0, STATIC
        LOCFRAME DOVERLAY, 0, STATIC
        ARGFRAME ISTACK, 0, STACK
        ARGFRAME PSTACK, 0, STACK
        ARGFRAME XSTACK, 10, STACK
        ARGFRAME IOVERLAY, 0, STATIC
        ARGFRAME DOVERLAY, 0, STATIC
        FUNCALL SampleAPP_send_delay_message, AF_DataRequest
        LOCFRAME ISTACK, 0, STACK
        LOCFRAME PSTACK, 0, STACK
        LOCFRAME XSTACK, 19, STACK
        LOCFRAME IOVERLAY, 0, STATIC
        LOCFRAME DOVERLAY, 0, STATIC
        ARGFRAME ISTACK, 0, STACK
        ARGFRAME PSTACK, 0, STACK
        ARGFRAME XSTACK, 19, STACK
        ARGFRAME IOVERLAY, 0, STATIC
        ARGFRAME DOVERLAY, 0, STATIC
        FUNCALL SampleAPP_send_delay_message, bindNumReflections
        LOCFRAME ISTACK, 0, STACK
        LOCFRAME PSTACK, 0, STACK
        LOCFRAME XSTACK, 10, STACK
        LOCFRAME IOVERLAY, 0, STATIC
        LOCFRAME DOVERLAY, 0, STATIC
        ARGFRAME ISTACK, 0, STACK
        ARGFRAME PSTACK, 0, STACK
        ARGFRAME XSTACK, 10, STACK
        ARGFRAME IOVERLAY, 0, STATIC
        ARGFRAME DOVERLAY, 0, STATIC
        FUNCALL SampleAPP_send_delay_message, HalLedBlink
        LOCFRAME ISTACK, 0, STACK
        LOCFRAME PSTACK, 0, STACK
        LOCFRAME XSTACK, 10, STACK
        LOCFRAME IOVERLAY, 0, STATIC
        LOCFRAME DOVERLAY, 0, STATIC
        ARGFRAME ISTACK, 0, STACK
        ARGFRAME PSTACK, 0, STACK
        ARGFRAME XSTACK, 10, STACK
        ARGFRAME IOVERLAY, 0, STATIC
        ARGFRAME DOVERLAY, 0, STATIC
        FUNCALL SampleAPP_send_delay_message, AF_DataRequest
        LOCFRAME ISTACK, 0, STACK
        LOCFRAME PSTACK, 0, STACK
        LOCFRAME XSTACK, 19, STACK
        LOCFRAME IOVERLAY, 0, STATIC
        LOCFRAME DOVERLAY, 0, STATIC
        ARGFRAME ISTACK, 0, STACK
        ARGFRAME PSTACK, 0, STACK
        ARGFRAME XSTACK, 19, STACK
        ARGFRAME IOVERLAY, 0, STATIC
        ARGFRAME DOVERLAY, 0, STATIC
        FUNCALL SampleAPP_send_delay_message, bindNumReflections
        LOCFRAME ISTACK, 0, STACK
        LOCFRAME PSTACK, 0, STACK
        LOCFRAME XSTACK, 10, STACK
        LOCFRAME IOVERLAY, 0, STATIC
        LOCFRAME DOVERLAY, 0, STATIC
        ARGFRAME ISTACK, 0, STACK
        ARGFRAME PSTACK, 0, STACK
        ARGFRAME XSTACK, 10, STACK
        ARGFRAME IOVERLAY, 0, STATIC
        ARGFRAME DOVERLAY, 0, STATIC
        FUNCALL SampleAPP_send_delay_message, HalLedBlink
        LOCFRAME ISTACK, 0, STACK
        LOCFRAME PSTACK, 0, STACK
        LOCFRAME XSTACK, 10, STACK
        LOCFRAME IOVERLAY, 0, STATIC
        LOCFRAME DOVERLAY, 0, STATIC
        ARGFRAME ISTACK, 0, STACK
        ARGFRAME PSTACK, 0, STACK
        ARGFRAME XSTACK, 10, STACK
        ARGFRAME IOVERLAY, 0, STATIC
        ARGFRAME DOVERLAY, 0, STATIC
        FUNCALL SampleAPP_send_delay_message, AF_DataRequest
        LOCFRAME ISTACK, 0, STACK
        LOCFRAME PSTACK, 0, STACK
        LOCFRAME XSTACK, 19, STACK
        LOCFRAME IOVERLAY, 0, STATIC
        LOCFRAME DOVERLAY, 0, STATIC
        ARGFRAME ISTACK, 0, STACK
        ARGFRAME PSTACK, 0, STACK
        ARGFRAME XSTACK, 19, STACK
        ARGFRAME IOVERLAY, 0, STATIC
        ARGFRAME DOVERLAY, 0, STATIC
        FUNCALL SampleAPP_send_delay_message, bindNumReflections
        LOCFRAME ISTACK, 0, STACK
        LOCFRAME PSTACK, 0, STACK
        LOCFRAME XSTACK, 10, STACK
        LOCFRAME IOVERLAY, 0, STATIC
        LOCFRAME DOVERLAY, 0, STATIC
        ARGFRAME ISTACK, 0, STACK
        ARGFRAME PSTACK, 0, STACK
        ARGFRAME XSTACK, 10, STACK
        ARGFRAME IOVERLAY, 0, STATIC
        ARGFRAME DOVERLAY, 0, STATIC
        FUNCALL SampleAPP_send_delay_message, HalLedBlink
        LOCFRAME ISTACK, 0, STACK
        LOCFRAME PSTACK, 0, STACK
        LOCFRAME XSTACK, 10, STACK
        LOCFRAME IOVERLAY, 0, STATIC
        LOCFRAME DOVERLAY, 0, STATIC
        ARGFRAME ISTACK, 0, STACK
        ARGFRAME PSTACK, 0, STACK
        ARGFRAME XSTACK, 10, STACK
        ARGFRAME IOVERLAY, 0, STATIC
        ARGFRAME DOVERLAY, 0, STATIC
        FUNCALL SampleAPP_send_delay_message, AF_DataRequest
        LOCFRAME ISTACK, 0, STACK
        LOCFRAME PSTACK, 0, STACK
        LOCFRAME XSTACK, 19, STACK
        LOCFRAME IOVERLAY, 0, STATIC
        LOCFRAME DOVERLAY, 0, STATIC
        ARGFRAME ISTACK, 0, STACK
        ARGFRAME PSTACK, 0, STACK
        ARGFRAME XSTACK, 19, STACK
        ARGFRAME IOVERLAY, 0, STATIC
        ARGFRAME DOVERLAY, 0, STATIC
        FUNCALL SampleAPP_send_delay_message, bindNumReflections
        LOCFRAME ISTACK, 0, STACK
        LOCFRAME PSTACK, 0, STACK
        LOCFRAME XSTACK, 10, STACK
        LOCFRAME IOVERLAY, 0, STATIC
        LOCFRAME DOVERLAY, 0, STATIC
        ARGFRAME ISTACK, 0, STACK
        ARGFRAME PSTACK, 0, STACK
        ARGFRAME XSTACK, 10, STACK
        ARGFRAME IOVERLAY, 0, STATIC
        ARGFRAME DOVERLAY, 0, STATIC
        FUNCALL SampleAPP_send_delay_message, HalLedBlink
        LOCFRAME ISTACK, 0, STACK
        LOCFRAME PSTACK, 0, STACK
        LOCFRAME XSTACK, 10, STACK
        LOCFRAME IOVERLAY, 0, STATIC
        LOCFRAME DOVERLAY, 0, STATIC
        ARGFRAME ISTACK, 0, STACK
        ARGFRAME PSTACK, 0, STACK
        ARGFRAME XSTACK, 10, STACK
        ARGFRAME IOVERLAY, 0, STATIC
        ARGFRAME DOVERLAY, 0, STATIC
        FUNCALL SampleAPP_send_delay_message, AF_DataRequest
        LOCFRAME ISTACK, 0, STACK
        LOCFRAME PSTACK, 0, STACK
        LOCFRAME XSTACK, 19, STACK
        LOCFRAME IOVERLAY, 0, STATIC
        LOCFRAME DOVERLAY, 0, STATIC
        ARGFRAME ISTACK, 0, STACK
        ARGFRAME PSTACK, 0, STACK
        ARGFRAME XSTACK, 19, STACK
        ARGFRAME IOVERLAY, 0, STATIC
        ARGFRAME DOVERLAY, 0, STATIC
        FUNCALL SampleAPP_send_delay_message, HalLedBlink
        LOCFRAME ISTACK, 0, STACK
        LOCFRAME PSTACK, 0, STACK
        LOCFRAME XSTACK, 10, STACK
        LOCFRAME IOVERLAY, 0, STATIC
        LOCFRAME DOVERLAY, 0, STATIC
        ARGFRAME ISTACK, 0, STACK
        ARGFRAME PSTACK, 0, STACK
        ARGFRAME XSTACK, 10, STACK
        ARGFRAME IOVERLAY, 0, STATIC
        ARGFRAME DOVERLAY, 0, STATIC
        FUNCALL SampleAPP_send_delay_message, osal_start_timerEx
        LOCFRAME ISTACK, 0, STACK
        LOCFRAME PSTACK, 0, STACK
        LOCFRAME XSTACK, 10, STACK
        LOCFRAME IOVERLAY, 0, STATIC
        LOCFRAME DOVERLAY, 0, STATIC
        ARGFRAME ISTACK, 0, STACK
        ARGFRAME PSTACK, 0, STACK
        ARGFRAME XSTACK, 10, STACK
        ARGFRAME IOVERLAY, 0, STATIC
        ARGFRAME DOVERLAY, 0, STATIC
        FUNCALL SampleAPP_send_delay_message, SampleApp_SendInMessage
        LOCFRAME ISTACK, 0, STACK
        LOCFRAME PSTACK, 0, STACK
        LOCFRAME XSTACK, 10, STACK
        LOCFRAME IOVERLAY, 0, STATIC
        LOCFRAME DOVERLAY, 0, STATIC
        ARGFRAME ISTACK, 0, STACK
        ARGFRAME PSTACK, 0, STACK
        ARGFRAME XSTACK, 10, STACK
        ARGFRAME IOVERLAY, 0, STATIC
        ARGFRAME DOVERLAY, 0, STATIC
        FUNCALL SampleAPP_send_delay_message, bindNumReflections
        LOCFRAME ISTACK, 0, STACK
        LOCFRAME PSTACK, 0, STACK
        LOCFRAME XSTACK, 10, STACK
        LOCFRAME IOVERLAY, 0, STATIC
        LOCFRAME DOVERLAY, 0, STATIC
        ARGFRAME ISTACK, 0, STACK
        ARGFRAME PSTACK, 0, STACK
        ARGFRAME XSTACK, 10, STACK
        ARGFRAME IOVERLAY, 0, STATIC
        ARGFRAME DOVERLAY, 0, STATIC
        FUNCALL SampleAPP_send_delay_message, HalLedBlink
        LOCFRAME ISTACK, 0, STACK
        LOCFRAME PSTACK, 0, STACK
        LOCFRAME XSTACK, 10, STACK
        LOCFRAME IOVERLAY, 0, STATIC
        LOCFRAME DOVERLAY, 0, STATIC
        ARGFRAME ISTACK, 0, STACK
        ARGFRAME PSTACK, 0, STACK
        ARGFRAME XSTACK, 10, STACK
        ARGFRAME IOVERLAY, 0, STATIC
        ARGFRAME DOVERLAY, 0, STATIC
        FUNCALL SampleAPP_send_delay_message, AF_DataRequest
        LOCFRAME ISTACK, 0, STACK
        LOCFRAME PSTACK, 0, STACK
        LOCFRAME XSTACK, 19, STACK
        LOCFRAME IOVERLAY, 0, STATIC
        LOCFRAME DOVERLAY, 0, STATIC
        ARGFRAME ISTACK, 0, STACK
        ARGFRAME PSTACK, 0, STACK
        ARGFRAME XSTACK, 19, STACK
        ARGFRAME IOVERLAY, 0, STATIC
        ARGFRAME DOVERLAY, 0, STATIC
        FUNCALL SampleAPP_send_delay_message, bindNumReflections
        LOCFRAME ISTACK, 0, STACK
        LOCFRAME PSTACK, 0, STACK
        LOCFRAME XSTACK, 10, STACK
        LOCFRAME IOVERLAY, 0, STATIC
        LOCFRAME DOVERLAY, 0, STATIC
        ARGFRAME ISTACK, 0, STACK
        ARGFRAME PSTACK, 0, STACK
        ARGFRAME XSTACK, 10, STACK
        ARGFRAME IOVERLAY, 0, STATIC
        ARGFRAME DOVERLAY, 0, STATIC
        FUNCALL SampleAPP_send_delay_message, HalLedBlink
        LOCFRAME ISTACK, 0, STACK
        LOCFRAME PSTACK, 0, STACK
        LOCFRAME XSTACK, 10, STACK
        LOCFRAME IOVERLAY, 0, STATIC
        LOCFRAME DOVERLAY, 0, STATIC
        ARGFRAME ISTACK, 0, STACK
        ARGFRAME PSTACK, 0, STACK
        ARGFRAME XSTACK, 10, STACK
        ARGFRAME IOVERLAY, 0, STATIC
        ARGFRAME DOVERLAY, 0, STATIC
        FUNCALL SampleAPP_send_delay_message, AF_DataRequest
        LOCFRAME ISTACK, 0, STACK
        LOCFRAME PSTACK, 0, STACK
        LOCFRAME XSTACK, 19, STACK
        LOCFRAME IOVERLAY, 0, STATIC
        LOCFRAME DOVERLAY, 0, STATIC
        ARGFRAME ISTACK, 0, STACK
        ARGFRAME PSTACK, 0, STACK
        ARGFRAME XSTACK, 19, STACK
        ARGFRAME IOVERLAY, 0, STATIC
        ARGFRAME DOVERLAY, 0, STATIC
        FUNCALL SampleAPP_send_delay_message, bindNumReflections
        LOCFRAME ISTACK, 0, STACK
        LOCFRAME PSTACK, 0, STACK
        LOCFRAME XSTACK, 10, STACK
        LOCFRAME IOVERLAY, 0, STATIC
        LOCFRAME DOVERLAY, 0, STATIC
        ARGFRAME ISTACK, 0, STACK
        ARGFRAME PSTACK, 0, STACK
        ARGFRAME XSTACK, 10, STACK
        ARGFRAME IOVERLAY, 0, STATIC
        ARGFRAME DOVERLAY, 0, STATIC
        FUNCALL SampleAPP_send_delay_message, HalLedBlink
        LOCFRAME ISTACK, 0, STACK
        LOCFRAME PSTACK, 0, STACK
        LOCFRAME XSTACK, 10, STACK
        LOCFRAME IOVERLAY, 0, STATIC
        LOCFRAME DOVERLAY, 0, STATIC
        ARGFRAME ISTACK, 0, STACK
        ARGFRAME PSTACK, 0, STACK
        ARGFRAME XSTACK, 10, STACK
        ARGFRAME IOVERLAY, 0, STATIC
        ARGFRAME DOVERLAY, 0, STATIC
        FUNCALL SampleAPP_send_delay_message, AF_DataRequest
        LOCFRAME ISTACK, 0, STACK
        LOCFRAME PSTACK, 0, STACK
        LOCFRAME XSTACK, 19, STACK
        LOCFRAME IOVERLAY, 0, STATIC
        LOCFRAME DOVERLAY, 0, STATIC
        ARGFRAME ISTACK, 0, STACK
        ARGFRAME PSTACK, 0, STACK
        ARGFRAME XSTACK, 19, STACK
        ARGFRAME IOVERLAY, 0, STATIC
        ARGFRAME DOVERLAY, 0, STATIC
        FUNCALL SampleAPP_send_delay_message, bindNumReflections
        LOCFRAME ISTACK, 0, STACK
        LOCFRAME PSTACK, 0, STACK
        LOCFRAME XSTACK, 10, STACK
        LOCFRAME IOVERLAY, 0, STATIC
        LOCFRAME DOVERLAY, 0, STATIC
        ARGFRAME ISTACK, 0, STACK
        ARGFRAME PSTACK, 0, STACK
        ARGFRAME XSTACK, 10, STACK
        ARGFRAME IOVERLAY, 0, STATIC
        ARGFRAME DOVERLAY, 0, STATIC
        FUNCALL SampleAPP_send_delay_message, HalLedBlink
        LOCFRAME ISTACK, 0, STACK
        LOCFRAME PSTACK, 0, STACK
        LOCFRAME XSTACK, 10, STACK
        LOCFRAME IOVERLAY, 0, STATIC
        LOCFRAME DOVERLAY, 0, STATIC
        ARGFRAME ISTACK, 0, STACK
        ARGFRAME PSTACK, 0, STACK
        ARGFRAME XSTACK, 10, STACK
        ARGFRAME IOVERLAY, 0, STATIC
        ARGFRAME DOVERLAY, 0, STATIC
        FUNCALL SampleAPP_send_delay_message, AF_DataRequest
        LOCFRAME ISTACK, 0, STACK
        LOCFRAME PSTACK, 0, STACK
        LOCFRAME XSTACK, 19, STACK
        LOCFRAME IOVERLAY, 0, STATIC
        LOCFRAME DOVERLAY, 0, STATIC
        ARGFRAME ISTACK, 0, STACK
        ARGFRAME PSTACK, 0, STACK
        ARGFRAME XSTACK, 19, STACK
        ARGFRAME IOVERLAY, 0, STATIC
        ARGFRAME DOVERLAY, 0, STATIC
        FUNCALL SampleAPP_send_delay_message, bindNumReflections
        LOCFRAME ISTACK, 0, STACK
        LOCFRAME PSTACK, 0, STACK
        LOCFRAME XSTACK, 10, STACK
        LOCFRAME IOVERLAY, 0, STATIC
        LOCFRAME DOVERLAY, 0, STATIC
        ARGFRAME ISTACK, 0, STACK
        ARGFRAME PSTACK, 0, STACK
        ARGFRAME XSTACK, 10, STACK
        ARGFRAME IOVERLAY, 0, STATIC
        ARGFRAME DOVERLAY, 0, STATIC
        FUNCALL SampleAPP_send_delay_message, HalLedBlink
        LOCFRAME ISTACK, 0, STACK
        LOCFRAME PSTACK, 0, STACK
        LOCFRAME XSTACK, 10, STACK
        LOCFRAME IOVERLAY, 0, STATIC
        LOCFRAME DOVERLAY, 0, STATIC
        ARGFRAME ISTACK, 0, STACK
        ARGFRAME PSTACK, 0, STACK
        ARGFRAME XSTACK, 10, STACK
        ARGFRAME IOVERLAY, 0, STATIC
        ARGFRAME DOVERLAY, 0, STATIC
        FUNCALL SampleAPP_send_delay_message, AF_DataRequest
        LOCFRAME ISTACK, 0, STACK
        LOCFRAME PSTACK, 0, STACK
        LOCFRAME XSTACK, 19, STACK
        LOCFRAME IOVERLAY, 0, STATIC
        LOCFRAME DOVERLAY, 0, STATIC
        ARGFRAME ISTACK, 0, STACK
        ARGFRAME PSTACK, 0, STACK
        ARGFRAME XSTACK, 19, STACK
        ARGFRAME IOVERLAY, 0, STATIC
        ARGFRAME DOVERLAY, 0, STATIC
        FUNCALL SampleAPP_send_delay_message, HalLedBlink
        LOCFRAME ISTACK, 0, STACK
        LOCFRAME PSTACK, 0, STACK
        LOCFRAME XSTACK, 10, STACK
        LOCFRAME IOVERLAY, 0, STATIC
        LOCFRAME DOVERLAY, 0, STATIC
        ARGFRAME ISTACK, 0, STACK
        ARGFRAME PSTACK, 0, STACK
        ARGFRAME XSTACK, 10, STACK
        ARGFRAME IOVERLAY, 0, STATIC
        ARGFRAME DOVERLAY, 0, STATIC
        FUNCALL SampleAPP_send_delay_message, osal_start_timerEx
        LOCFRAME ISTACK, 0, STACK
        LOCFRAME PSTACK, 0, STACK
        LOCFRAME XSTACK, 10, STACK
        LOCFRAME IOVERLAY, 0, STATIC
        LOCFRAME DOVERLAY, 0, STATIC
        ARGFRAME ISTACK, 0, STACK
        ARGFRAME PSTACK, 0, STACK
        ARGFRAME XSTACK, 10, STACK
        ARGFRAME IOVERLAY, 0, STATIC
        ARGFRAME DOVERLAY, 0, STATIC
        FUNCALL SampleAPP_send_delay_message, SampleApp_SendInMessage
        LOCFRAME ISTACK, 0, STACK
        LOCFRAME PSTACK, 0, STACK
        LOCFRAME XSTACK, 10, STACK
        LOCFRAME IOVERLAY, 0, STATIC
        LOCFRAME DOVERLAY, 0, STATIC
        ARGFRAME ISTACK, 0, STACK
        ARGFRAME PSTACK, 0, STACK
        ARGFRAME XSTACK, 10, STACK
        ARGFRAME IOVERLAY, 0, STATIC
        ARGFRAME DOVERLAY, 0, STATIC
        FUNCALL SampleAPP_send_delay_message, bindNumReflections
        LOCFRAME ISTACK, 0, STACK
        LOCFRAME PSTACK, 0, STACK
        LOCFRAME XSTACK, 10, STACK
        LOCFRAME IOVERLAY, 0, STATIC
        LOCFRAME DOVERLAY, 0, STATIC
        ARGFRAME ISTACK, 0, STACK
        ARGFRAME PSTACK, 0, STACK
        ARGFRAME XSTACK, 10, STACK
        ARGFRAME IOVERLAY, 0, STATIC
        ARGFRAME DOVERLAY, 0, STATIC
        FUNCALL SampleAPP_send_delay_message, HalLedBlink
        LOCFRAME ISTACK, 0, STACK
        LOCFRAME PSTACK, 0, STACK
        LOCFRAME XSTACK, 10, STACK
        LOCFRAME IOVERLAY, 0, STATIC
        LOCFRAME DOVERLAY, 0, STATIC
        ARGFRAME ISTACK, 0, STACK
        ARGFRAME PSTACK, 0, STACK
        ARGFRAME XSTACK, 10, STACK
        ARGFRAME IOVERLAY, 0, STATIC
        ARGFRAME DOVERLAY, 0, STATIC
        FUNCALL SampleAPP_send_delay_message, AF_DataRequest
        LOCFRAME ISTACK, 0, STACK
        LOCFRAME PSTACK, 0, STACK
        LOCFRAME XSTACK, 19, STACK
        LOCFRAME IOVERLAY, 0, STATIC
        LOCFRAME DOVERLAY, 0, STATIC
        ARGFRAME ISTACK, 0, STACK
        ARGFRAME PSTACK, 0, STACK
        ARGFRAME XSTACK, 19, STACK
        ARGFRAME IOVERLAY, 0, STATIC
        ARGFRAME DOVERLAY, 0, STATIC
        FUNCALL SampleAPP_send_delay_message, bindNumReflections
        LOCFRAME ISTACK, 0, STACK
        LOCFRAME PSTACK, 0, STACK
        LOCFRAME XSTACK, 10, STACK
        LOCFRAME IOVERLAY, 0, STATIC
        LOCFRAME DOVERLAY, 0, STATIC
        ARGFRAME ISTACK, 0, STACK
        ARGFRAME PSTACK, 0, STACK
        ARGFRAME XSTACK, 10, STACK
        ARGFRAME IOVERLAY, 0, STATIC
        ARGFRAME DOVERLAY, 0, STATIC
        FUNCALL SampleAPP_send_delay_message, HalLedBlink
        LOCFRAME ISTACK, 0, STACK
        LOCFRAME PSTACK, 0, STACK
        LOCFRAME XSTACK, 10, STACK
        LOCFRAME IOVERLAY, 0, STATIC
        LOCFRAME DOVERLAY, 0, STATIC
        ARGFRAME ISTACK, 0, STACK
        ARGFRAME PSTACK, 0, STACK
        ARGFRAME XSTACK, 10, STACK
        ARGFRAME IOVERLAY, 0, STATIC
        ARGFRAME DOVERLAY, 0, STATIC
        FUNCALL SampleAPP_send_delay_message, AF_DataRequest
        LOCFRAME ISTACK, 0, STACK
        LOCFRAME PSTACK, 0, STACK
        LOCFRAME XSTACK, 19, STACK
        LOCFRAME IOVERLAY, 0, STATIC
        LOCFRAME DOVERLAY, 0, STATIC
        ARGFRAME ISTACK, 0, STACK
        ARGFRAME PSTACK, 0, STACK
        ARGFRAME XSTACK, 19, STACK
        ARGFRAME IOVERLAY, 0, STATIC
        ARGFRAME DOVERLAY, 0, STATIC
        FUNCALL SampleAPP_send_delay_message, bindNumReflections
        LOCFRAME ISTACK, 0, STACK
        LOCFRAME PSTACK, 0, STACK
        LOCFRAME XSTACK, 10, STACK
        LOCFRAME IOVERLAY, 0, STATIC
        LOCFRAME DOVERLAY, 0, STATIC
        ARGFRAME ISTACK, 0, STACK
        ARGFRAME PSTACK, 0, STACK
        ARGFRAME XSTACK, 10, STACK
        ARGFRAME IOVERLAY, 0, STATIC
        ARGFRAME DOVERLAY, 0, STATIC
        FUNCALL SampleAPP_send_delay_message, HalLedBlink
        LOCFRAME ISTACK, 0, STACK
        LOCFRAME PSTACK, 0, STACK
        LOCFRAME XSTACK, 10, STACK
        LOCFRAME IOVERLAY, 0, STATIC
        LOCFRAME DOVERLAY, 0, STATIC
        ARGFRAME ISTACK, 0, STACK
        ARGFRAME PSTACK, 0, STACK
        ARGFRAME XSTACK, 10, STACK
        ARGFRAME IOVERLAY, 0, STATIC
        ARGFRAME DOVERLAY, 0, STATIC
        FUNCALL SampleAPP_send_delay_message, AF_DataRequest
        LOCFRAME ISTACK, 0, STACK
        LOCFRAME PSTACK, 0, STACK
        LOCFRAME XSTACK, 19, STACK
        LOCFRAME IOVERLAY, 0, STATIC
        LOCFRAME DOVERLAY, 0, STATIC
        ARGFRAME ISTACK, 0, STACK
        ARGFRAME PSTACK, 0, STACK
        ARGFRAME XSTACK, 19, STACK
        ARGFRAME IOVERLAY, 0, STATIC
        ARGFRAME DOVERLAY, 0, STATIC
        FUNCALL SampleAPP_send_delay_message, bindNumReflections
        LOCFRAME ISTACK, 0, STACK
        LOCFRAME PSTACK, 0, STACK
        LOCFRAME XSTACK, 10, STACK
        LOCFRAME IOVERLAY, 0, STATIC
        LOCFRAME DOVERLAY, 0, STATIC
        ARGFRAME ISTACK, 0, STACK
        ARGFRAME PSTACK, 0, STACK
        ARGFRAME XSTACK, 10, STACK
        ARGFRAME IOVERLAY, 0, STATIC
        ARGFRAME DOVERLAY, 0, STATIC
        FUNCALL SampleAPP_send_delay_message, HalLedBlink
        LOCFRAME ISTACK, 0, STACK
        LOCFRAME PSTACK, 0, STACK
        LOCFRAME XSTACK, 10, STACK
        LOCFRAME IOVERLAY, 0, STATIC
        LOCFRAME DOVERLAY, 0, STATIC
        ARGFRAME ISTACK, 0, STACK
        ARGFRAME PSTACK, 0, STACK
        ARGFRAME XSTACK, 10, STACK
        ARGFRAME IOVERLAY, 0, STATIC
        ARGFRAME DOVERLAY, 0, STATIC
        FUNCALL SampleAPP_send_delay_message, AF_DataRequest
        LOCFRAME ISTACK, 0, STACK
        LOCFRAME PSTACK, 0, STACK
        LOCFRAME XSTACK, 19, STACK
        LOCFRAME IOVERLAY, 0, STATIC
        LOCFRAME DOVERLAY, 0, STATIC
        ARGFRAME ISTACK, 0, STACK
        ARGFRAME PSTACK, 0, STACK
        ARGFRAME XSTACK, 19, STACK
        ARGFRAME IOVERLAY, 0, STATIC
        ARGFRAME DOVERLAY, 0, STATIC
        FUNCALL SampleAPP_send_delay_message, HalLedBlink
        LOCFRAME ISTACK, 0, STACK
        LOCFRAME PSTACK, 0, STACK
        LOCFRAME XSTACK, 10, STACK
        LOCFRAME IOVERLAY, 0, STATIC
        LOCFRAME DOVERLAY, 0, STATIC
        ARGFRAME ISTACK, 0, STACK
        ARGFRAME PSTACK, 0, STACK
        ARGFRAME XSTACK, 10, STACK
        ARGFRAME IOVERLAY, 0, STATIC
        ARGFRAME DOVERLAY, 0, STATIC
        FUNCALL SampleAPP_send_delay_message, osal_start_timerEx
        LOCFRAME ISTACK, 0, STACK
        LOCFRAME PSTACK, 0, STACK
        LOCFRAME XSTACK, 10, STACK
        LOCFRAME IOVERLAY, 0, STATIC
        LOCFRAME DOVERLAY, 0, STATIC
        ARGFRAME ISTACK, 0, STACK
        ARGFRAME PSTACK, 0, STACK
        ARGFRAME XSTACK, 10, STACK
        ARGFRAME IOVERLAY, 0, STATIC
        ARGFRAME DOVERLAY, 0, STATIC
        FUNCALL SampleAPP_send_delay_message, SampleApp_SendInMessage
        LOCFRAME ISTACK, 0, STACK
        LOCFRAME PSTACK, 0, STACK
        LOCFRAME XSTACK, 10, STACK
        LOCFRAME IOVERLAY, 0, STATIC
        LOCFRAME DOVERLAY, 0, STATIC
        ARGFRAME ISTACK, 0, STACK
        ARGFRAME PSTACK, 0, STACK
        ARGFRAME XSTACK, 10, STACK
        ARGFRAME IOVERLAY, 0, STATIC
        ARGFRAME DOVERLAY, 0, STATIC
        MOV     A,#-0xa
        LCALL   ?BANKED_ENTER_XDATA
        CFI DPH0 load(1, XDATA, add(CFA_XSP16, literal(-1)))
        CFI DPL0 load(1, XDATA, add(CFA_XSP16, literal(-2)))
        CFI ?BRET_EXT load(1, XDATA, add(CFA_XSP16, literal(-3)))
        CFI ?RET_HIGH load(1, XDATA, add(CFA_XSP16, literal(-4)))
        CFI ?RET_LOW load(1, XDATA, add(CFA_XSP16, literal(-5)))
        CFI R7 load(1, XDATA, add(CFA_XSP16, literal(-6)))
        CFI V1 load(1, XDATA, add(CFA_XSP16, literal(-7)))
        CFI V0 load(1, XDATA, add(CFA_XSP16, literal(-8)))
        CFI VB load(1, XDATA, add(CFA_XSP16, literal(-9)))
        CFI R6 load(1, XDATA, add(CFA_XSP16, literal(-10)))
        CFI CFA_SP SP+0
        CFI CFA_XSP16 add(XSP16, 10)
        ; Saved register size: 10
        ; Auto size: 0
// 1015 
// 1016    if (screen_flag == 1)
        MOV     DPTR,#screen_flag
        MOVX    A,@DPTR
        XRL     A,#0x1
        JZ      $+5
        LJMP    ??SampleAPP_send_delay_message_0 & 0xFFFF
// 1017   { 
// 1018        if(bindNumReflections(SAMPLEAPP_ENDPOINT2,SAMPLEAPP_HUE_CLUSTERID)>0)//有绑定项目 hue up
        ; Setup parameters for call to function bindNumReflections
        MOV     R2,#0xf
        MOV     R3,#0x0
        MOV     R1,#0x16
        LCALL   ??bindNumReflections?relay
        MOV     ?V0 + 0,R2
        MOV     ?V0 + 1,R3
        MOV     A,?V0 + 0
        ORL     A,?V0 + 1
        JZ      ??SampleAPP_send_delay_message_1
// 1019        {
// 1020            HalLedBlink ( HAL_LED_2, 1, 25, 200 );
        ; Setup parameters for call to function HalLedBlink
        MOV     R4,#-0x38
        MOV     R5,#0x0
        MOV     R3,#0x19
        MOV     R2,#0x1
        MOV     R1,#0x2
        LCALL   ??HalLedBlink?relay
// 1021             huePara[0] =3;  //开         
        MOV     DPTR,#huePara
        MOV     A,#0x3
        MOVX    @DPTR,A
// 1022             huePara[1] =100;  //开         
        MOV     DPTR,#huePara + 1
        MOV     A,#0x64
        MOVX    @DPTR,A
// 1023          if ( AF_DataRequest( &SampleApp_BIND_DstAddr, &SampleApp_epDesc2,
// 1024                                SAMPLEAPP_HUE_CLUSTERID,
// 1025                                2,  //数据长度
// 1026                                (uint8 *)&huePara,//###添加的发送数据        
// 1027                                &SampleApp_TransID,
// 1028                                AF_DISCV_ROUTE,
// 1029                                AF_DEFAULT_RADIUS ) == afStatus_SUCCESS )
        ; Setup parameters for call to function AF_DataRequest
        MOV     ?V0 + 0,#0xf
        MOV     R0,#?V0 + 0
        LCALL   ?PUSH_XSTACK_I_ONE
        CFI CFA_XSP16 add(XSP16, 11)
        MOV     ?V0 + 0,#SampleApp_TransID & 0xff
        MOV     ?V0 + 1,#(SampleApp_TransID >> 8) & 0xff
        MOV     R0,#?V0 + 0
        LCALL   ?PUSH_XSTACK_I_TWO
        CFI CFA_XSP16 add(XSP16, 13)
        MOV     ?V0 + 0,#huePara & 0xff
        MOV     ?V0 + 1,#(huePara >> 8) & 0xff
        MOV     R0,#?V0 + 0
        LCALL   ?PUSH_XSTACK_I_TWO
        CFI CFA_XSP16 add(XSP16, 15)
        MOV     ?V0 + 0,#0x2
        MOV     ?V0 + 1,#0x0
        MOV     R0,#?V0 + 0
        LCALL   ?PUSH_XSTACK_I_TWO
        CFI CFA_XSP16 add(XSP16, 17)
        MOV     ?V0 + 0,#0xf
        MOV     ?V0 + 1,#0x0
        MOV     R0,#?V0 + 0
        LCALL   ?PUSH_XSTACK_I_TWO
        CFI CFA_XSP16 add(XSP16, 19)
        MOV     R1,#0x20
        MOV     R4,#SampleApp_epDesc2 & 0xff
        MOV     R5,#(SampleApp_epDesc2 >> 8) & 0xff
        MOV     R2,#SampleApp_BIND_DstAddr & 0xff
        MOV     R3,#(SampleApp_BIND_DstAddr >> 8) & 0xff
        LCALL   ??AF_DataRequest?relay
        MOV     A,#0x9
        LCALL   ?DEALLOC_XSTACK8
        CFI CFA_XSP16 add(XSP16, 10)
        MOV     A,R1
        LJMP    ??SampleAPP_send_delay_message_2 & 0xFFFF
// 1030           {
// 1031             
// 1032           }
// 1033        }
// 1034        else if(bindNumReflections(SAMPLEAPP_ENDPOINT2,SAMPLEAPP_ONOFF_CLUSTERID)>0)//有绑定项目
??SampleAPP_send_delay_message_1:
        ; Setup parameters for call to function bindNumReflections
        MOV     R2,#0x1
        MOV     R3,#0x0
        MOV     R1,#0x16
        LCALL   ??bindNumReflections?relay
        MOV     ?V0 + 0,R2
        MOV     ?V0 + 1,R3
        MOV     A,?V0 + 0
        ORL     A,?V0 + 1
        JZ      ??SampleAPP_send_delay_message_3
// 1035        {
// 1036            HalLedBlink ( HAL_LED_2, 1, 25, 200 );
        ; Setup parameters for call to function HalLedBlink
        MOV     R4,#-0x38
        MOV     R5,#0x0
        MOV     R3,#0x19
        MOV     R2,#0x1
        MOV     R1,#0x2
        LCALL   ??HalLedBlink?relay
// 1037             ONOROFF2 =2;  //开         
        MOV     DPTR,#ONOROFF2
        MOV     A,#0x2
        MOVX    @DPTR,A
// 1038          if ( AF_DataRequest( &SampleApp_BIND_DstAddr, &SampleApp_epDesc2,
// 1039                                SAMPLEAPP_ONOFF_CLUSTERID,
// 1040                                1,  //数据长度
// 1041                                &ONOROFF2,//###添加的发送数据        
// 1042                                &SampleApp_TransID,
// 1043                                AF_DISCV_ROUTE,
// 1044                                AF_DEFAULT_RADIUS ) == afStatus_SUCCESS )
        ; Setup parameters for call to function AF_DataRequest
        MOV     ?V0 + 0,#0xf
        MOV     R0,#?V0 + 0
        LCALL   ?PUSH_XSTACK_I_ONE
        CFI CFA_XSP16 add(XSP16, 11)
        MOV     ?V0 + 0,#SampleApp_TransID & 0xff
        MOV     ?V0 + 1,#(SampleApp_TransID >> 8) & 0xff
        MOV     R0,#?V0 + 0
        LCALL   ?PUSH_XSTACK_I_TWO
        CFI CFA_XSP16 add(XSP16, 13)
        MOV     ?V0 + 0,#ONOROFF2 & 0xff
        MOV     ?V0 + 1,#(ONOROFF2 >> 8) & 0xff
        MOV     R0,#?V0 + 0
        LCALL   ?PUSH_XSTACK_I_TWO
        CFI CFA_XSP16 add(XSP16, 15)
        MOV     ?V0 + 0,#0x1
        MOV     ?V0 + 1,#0x0
        MOV     R0,#?V0 + 0
        LCALL   ?PUSH_XSTACK_I_TWO
        CFI CFA_XSP16 add(XSP16, 17)
        MOV     ?V0 + 0,#0x1
        MOV     ?V0 + 1,#0x0
        MOV     R0,#?V0 + 0
        LCALL   ?PUSH_XSTACK_I_TWO
        CFI CFA_XSP16 add(XSP16, 19)
        MOV     R1,#0x20
        MOV     R4,#SampleApp_epDesc2 & 0xff
        MOV     R5,#(SampleApp_epDesc2 >> 8) & 0xff
        MOV     R2,#SampleApp_BIND_DstAddr & 0xff
        MOV     R3,#(SampleApp_BIND_DstAddr >> 8) & 0xff
        LCALL   ??AF_DataRequest?relay
        MOV     A,#0x9
        LCALL   ?DEALLOC_XSTACK8
        CFI CFA_XSP16 add(XSP16, 10)
        MOV     A,R1
        LJMP    ??SampleAPP_send_delay_message_2 & 0xFFFF
// 1045           {
// 1046             
// 1047           }
// 1048        }
// 1049        
// 1050         else if(bindNumReflections(SAMPLEAPP_ENDPOINT2,SAMPLEAPP_DIMMER_CLUSTERID)>0)//有绑定项目
??SampleAPP_send_delay_message_3:
        ; Setup parameters for call to function bindNumReflections
        MOV     R2,#0xb
        MOV     R3,#0x0
        MOV     R1,#0x16
        LCALL   ??bindNumReflections?relay
        MOV     ?V0 + 0,R2
        MOV     ?V0 + 1,R3
        MOV     A,?V0 + 0
        ORL     A,?V0 + 1
        JZ      ??SampleAPP_send_delay_message_4
// 1051        {
// 1052            HalLedBlink ( HAL_LED_2, 1, 25, 200 );
        ; Setup parameters for call to function HalLedBlink
        MOV     R4,#-0x38
        MOV     R5,#0x0
        MOV     R3,#0x19
        MOV     R2,#0x1
        MOV     R1,#0x2
        LCALL   ??HalLedBlink?relay
// 1053             ONOROFF2 = 100;
        MOV     DPTR,#ONOROFF2
        MOV     A,#0x64
        MOVX    @DPTR,A
// 1054               
// 1055          if ( AF_DataRequest( &SampleApp_BIND_DstAddr, &SampleApp_epDesc2,
// 1056                                SAMPLEAPP_DIMMER_CLUSTERID,
// 1057                                1,  //数据长度
// 1058                                &ONOROFF2,//###添加的发送数据        
// 1059                                &SampleApp_TransID,
// 1060                                AF_DISCV_ROUTE,
// 1061                                AF_DEFAULT_RADIUS ) == afStatus_SUCCESS )
        ; Setup parameters for call to function AF_DataRequest
        MOV     ?V0 + 0,#0xf
        MOV     R0,#?V0 + 0
        LCALL   ?PUSH_XSTACK_I_ONE
        CFI CFA_XSP16 add(XSP16, 11)
        MOV     ?V0 + 0,#SampleApp_TransID & 0xff
        MOV     ?V0 + 1,#(SampleApp_TransID >> 8) & 0xff
        MOV     R0,#?V0 + 0
        LCALL   ?PUSH_XSTACK_I_TWO
        CFI CFA_XSP16 add(XSP16, 13)
        MOV     ?V0 + 0,#ONOROFF2 & 0xff
        MOV     ?V0 + 1,#(ONOROFF2 >> 8) & 0xff
        MOV     R0,#?V0 + 0
        LCALL   ?PUSH_XSTACK_I_TWO
        CFI CFA_XSP16 add(XSP16, 15)
        MOV     ?V0 + 0,#0x1
        MOV     ?V0 + 1,#0x0
        MOV     R0,#?V0 + 0
        LCALL   ?PUSH_XSTACK_I_TWO
        CFI CFA_XSP16 add(XSP16, 17)
        MOV     ?V0 + 0,#0xb
        MOV     ?V0 + 1,#0x0
        MOV     R0,#?V0 + 0
        LCALL   ?PUSH_XSTACK_I_TWO
        CFI CFA_XSP16 add(XSP16, 19)
        MOV     R1,#0x20
        MOV     R4,#SampleApp_epDesc2 & 0xff
        MOV     R5,#(SampleApp_epDesc2 >> 8) & 0xff
        MOV     R2,#SampleApp_BIND_DstAddr & 0xff
        MOV     R3,#(SampleApp_BIND_DstAddr >> 8) & 0xff
        LCALL   ??AF_DataRequest?relay
        MOV     A,#0x9
        LCALL   ?DEALLOC_XSTACK8
        CFI CFA_XSP16 add(XSP16, 10)
        MOV     A,R1
        LJMP    ??SampleAPP_send_delay_message_2 & 0xFFFF
// 1062           {
// 1063             
// 1064           }
// 1065        }
// 1066        
// 1067         else if(bindNumReflections(SAMPLEAPP_ENDPOINT2,SAMPLEAPP_CERTAIN_CONTROL_CLUSTERID)>0)//有绑定项目
??SampleAPP_send_delay_message_4:
        ; Setup parameters for call to function bindNumReflections
        MOV     R2,#0xd
        MOV     R3,#0x0
        MOV     R1,#0x16
        LCALL   ??bindNumReflections?relay
        MOV     ?V0 + 0,R2
        MOV     ?V0 + 1,R3
        MOV     A,?V0 + 0
        ORL     A,?V0 + 1
        JZ      ??SampleAPP_send_delay_message_5
// 1068        {
// 1069            HalLedBlink ( HAL_LED_2, 1, 25, 200 );
        ; Setup parameters for call to function HalLedBlink
        MOV     R4,#-0x38
        MOV     R5,#0x0
        MOV     R3,#0x19
        MOV     R2,#0x1
        MOV     R1,#0x2
        LCALL   ??HalLedBlink?relay
// 1070             ONOROFF2 = 2;//对应电机开
        MOV     DPTR,#ONOROFF2
        MOV     A,#0x2
        MOVX    @DPTR,A
// 1071               
// 1072          if ( AF_DataRequest( &SampleApp_BIND_DstAddr, &SampleApp_epDesc2,
// 1073                                SAMPLEAPP_CERTAIN_CONTROL_CLUSTERID,
// 1074                                1,  //数据长度
// 1075                                &ONOROFF2,//###添加的发送数据        
// 1076                                &SampleApp_TransID,
// 1077                                AF_DISCV_ROUTE,
// 1078                                AF_DEFAULT_RADIUS ) == afStatus_SUCCESS )
        ; Setup parameters for call to function AF_DataRequest
        MOV     ?V0 + 0,#0xf
        MOV     R0,#?V0 + 0
        LCALL   ?PUSH_XSTACK_I_ONE
        CFI CFA_XSP16 add(XSP16, 11)
        MOV     ?V0 + 0,#SampleApp_TransID & 0xff
        MOV     ?V0 + 1,#(SampleApp_TransID >> 8) & 0xff
        MOV     R0,#?V0 + 0
        LCALL   ?PUSH_XSTACK_I_TWO
        CFI CFA_XSP16 add(XSP16, 13)
        MOV     ?V0 + 0,#ONOROFF2 & 0xff
        MOV     ?V0 + 1,#(ONOROFF2 >> 8) & 0xff
        MOV     R0,#?V0 + 0
        LCALL   ?PUSH_XSTACK_I_TWO
        CFI CFA_XSP16 add(XSP16, 15)
        MOV     ?V0 + 0,#0x1
        MOV     ?V0 + 1,#0x0
        MOV     R0,#?V0 + 0
        LCALL   ?PUSH_XSTACK_I_TWO
        CFI CFA_XSP16 add(XSP16, 17)
        MOV     ?V0 + 0,#0xd
        MOV     ?V0 + 1,#0x0
        MOV     R0,#?V0 + 0
        LCALL   ?PUSH_XSTACK_I_TWO
        CFI CFA_XSP16 add(XSP16, 19)
        MOV     R1,#0x20
        MOV     R4,#SampleApp_epDesc2 & 0xff
        MOV     R5,#(SampleApp_epDesc2 >> 8) & 0xff
        MOV     R2,#SampleApp_BIND_DstAddr & 0xff
        MOV     R3,#(SampleApp_BIND_DstAddr >> 8) & 0xff
        LCALL   ??AF_DataRequest?relay
        MOV     A,#0x9
        LCALL   ?DEALLOC_XSTACK8
        CFI CFA_XSP16 add(XSP16, 10)
        MOV     A,R1
        LJMP    ??SampleAPP_send_delay_message_2 & 0xFFFF
// 1079           {
// 1080             
// 1081           }
// 1082        }
// 1083        
// 1084         else if(bindNumReflections(SAMPLEAPP_ENDPOINT2,SAMPLEAPP_ELOCK_CLUSTERID)>0)//有绑定项目
??SampleAPP_send_delay_message_5:
        ; Setup parameters for call to function bindNumReflections
        MOV     R2,#0xe
        MOV     R3,#0x0
        MOV     R1,#0x16
        LCALL   ??bindNumReflections?relay
        MOV     ?V0 + 0,R2
        MOV     ?V0 + 1,R3
        MOV     A,?V0 + 0
        ORL     A,?V0 + 1
        JZ      ??SampleAPP_send_delay_message_6
// 1085        {
// 1086           HalLedBlink ( HAL_LED_2, 1, 25, 200 );
        ; Setup parameters for call to function HalLedBlink
        MOV     R4,#-0x38
        MOV     R5,#0x0
        MOV     R3,#0x19
        MOV     R2,#0x1
        MOV     R1,#0x2
        LCALL   ??HalLedBlink?relay
// 1087             ONOROFF2 = 3;//切换
        MOV     DPTR,#ONOROFF2
        MOV     A,#0x3
        MOVX    @DPTR,A
// 1088               
// 1089          if ( AF_DataRequest( &SampleApp_BIND_DstAddr, &SampleApp_epDesc2,
// 1090                                SAMPLEAPP_ELOCK_CLUSTERID,
// 1091                                1,  //数据长度
// 1092                                &ONOROFF2,//###添加的发送数据        
// 1093                                &SampleApp_TransID,
// 1094                                AF_DISCV_ROUTE,
// 1095                                AF_DEFAULT_RADIUS ) == afStatus_SUCCESS )
        ; Setup parameters for call to function AF_DataRequest
        MOV     ?V0 + 0,#0xf
        MOV     R0,#?V0 + 0
        LCALL   ?PUSH_XSTACK_I_ONE
        CFI CFA_XSP16 add(XSP16, 11)
        MOV     ?V0 + 0,#SampleApp_TransID & 0xff
        MOV     ?V0 + 1,#(SampleApp_TransID >> 8) & 0xff
        MOV     R0,#?V0 + 0
        LCALL   ?PUSH_XSTACK_I_TWO
        CFI CFA_XSP16 add(XSP16, 13)
        MOV     ?V0 + 0,#ONOROFF2 & 0xff
        MOV     ?V0 + 1,#(ONOROFF2 >> 8) & 0xff
        MOV     R0,#?V0 + 0
        LCALL   ?PUSH_XSTACK_I_TWO
        CFI CFA_XSP16 add(XSP16, 15)
        MOV     ?V0 + 0,#0x1
        MOV     ?V0 + 1,#0x0
        MOV     R0,#?V0 + 0
        LCALL   ?PUSH_XSTACK_I_TWO
        CFI CFA_XSP16 add(XSP16, 17)
        MOV     ?V0 + 0,#0xe
        MOV     ?V0 + 1,#0x0
        MOV     R0,#?V0 + 0
        LCALL   ?PUSH_XSTACK_I_TWO
        CFI CFA_XSP16 add(XSP16, 19)
        MOV     R1,#0x20
        MOV     R4,#SampleApp_epDesc2 & 0xff
        MOV     R5,#(SampleApp_epDesc2 >> 8) & 0xff
        MOV     R2,#SampleApp_BIND_DstAddr & 0xff
        MOV     R3,#(SampleApp_BIND_DstAddr >> 8) & 0xff
        LCALL   ??AF_DataRequest?relay
        MOV     A,#0x9
        LCALL   ?DEALLOC_XSTACK8
        CFI CFA_XSP16 add(XSP16, 10)
        MOV     A,R1
        LJMP    ??SampleAPP_send_delay_message_2 & 0xFFFF
// 1096           {
// 1097             
// 1098           }
// 1099        }
// 1100        else
// 1101        {  
// 1102 
// 1103            if(screen_current_flag==0)//2012 9 15 添加每次操作之间间隔10S才能操作下一个。以防场景切换太快，影响系统
??SampleAPP_send_delay_message_6:
        MOV     DPTR,#screen_current_flag
        MOVX    A,@DPTR
        JZ      $+5
        LJMP    ??SampleAPP_send_delay_message_2 & 0xFFFF
// 1104            {  
// 1105            HalLedBlink ( HAL_LED_2, 1, 25, 200 );
        ; Setup parameters for call to function HalLedBlink
        MOV     R4,#-0x38
        MOV     R5,#0x0
        MOV     R3,#0x19
        MOV     R2,#0x1
        MOV     R1,#0x2
        LCALL   ??HalLedBlink?relay
// 1106             screen_current_flag=1;
        MOV     DPTR,#screen_current_flag
        MOV     A,#0x1
        MOVX    @DPTR,A
// 1107             osal_start_timerEx( UserApp_TaskID,SCREEN_CURRENT_FLAG_EVT,1000 );
        ; Setup parameters for call to function osal_start_timerEx
        MOV     R4,#-0x18
        MOV     R5,#0x3
        MOV     R2,#0x20
        MOV     R3,#0x0
        MOV     DPTR,#UserApp_TaskID
        MOVX    A,@DPTR
        MOV     R1,A
        LCALL   ??osal_start_timerEx?relay
        MOV     A,R1
// 1108             SampleApp_SendInMessage();
        ; Setup parameters for call to function SampleApp_SendInMessage
        LCALL   ??SampleApp_SendInMessage?relay
        LJMP    ??SampleAPP_send_delay_message_2 & 0xFFFF
// 1109            }
// 1110        }
// 1111      
// 1112    }
// 1113   
// 1114     else if (screen_flag == 2)
??SampleAPP_send_delay_message_0:
        MOV     DPTR,#screen_flag
        MOVX    A,@DPTR
        XRL     A,#0x2
        JZ      $+5
        LJMP    ??SampleAPP_send_delay_message_7 & 0xFFFF
// 1115   { 
// 1116 
// 1117        if(bindNumReflections(SAMPLEAPP_ENDPOINT2,SAMPLEAPP_HUE_CLUSTERID)>0)//有绑定项目 hue up
        ; Setup parameters for call to function bindNumReflections
        MOV     R2,#0xf
        MOV     R3,#0x0
        MOV     R1,#0x16
        LCALL   ??bindNumReflections?relay
        MOV     ?V0 + 0,R2
        MOV     ?V0 + 1,R3
        MOV     A,?V0 + 0
        ORL     A,?V0 + 1
        JZ      ??SampleAPP_send_delay_message_8
// 1118        {
// 1119            HalLedBlink ( HAL_LED_2, 1, 25, 200 );
        ; Setup parameters for call to function HalLedBlink
        MOV     R4,#-0x38
        MOV     R5,#0x0
        MOV     R3,#0x19
        MOV     R2,#0x1
        MOV     R1,#0x2
        LCALL   ??HalLedBlink?relay
// 1120             huePara[0] =3;  //开         
        MOV     DPTR,#huePara
        MOV     A,#0x3
        MOVX    @DPTR,A
// 1121             huePara[1] =0;  //开         
        MOV     DPTR,#huePara + 1
        MOV     A,#0x0
        MOVX    @DPTR,A
// 1122          if ( AF_DataRequest( &SampleApp_BIND_DstAddr, &SampleApp_epDesc2,
// 1123                                SAMPLEAPP_HUE_CLUSTERID,
// 1124                                2,  //数据长度
// 1125                                (uint8 *)&huePara,//###添加的发送数据        
// 1126                                &SampleApp_TransID,
// 1127                                AF_DISCV_ROUTE,
// 1128                                AF_DEFAULT_RADIUS ) == afStatus_SUCCESS )
        ; Setup parameters for call to function AF_DataRequest
        MOV     ?V0 + 0,#0xf
        MOV     R0,#?V0 + 0
        LCALL   ?PUSH_XSTACK_I_ONE
        CFI CFA_XSP16 add(XSP16, 11)
        MOV     ?V0 + 0,#SampleApp_TransID & 0xff
        MOV     ?V0 + 1,#(SampleApp_TransID >> 8) & 0xff
        MOV     R0,#?V0 + 0
        LCALL   ?PUSH_XSTACK_I_TWO
        CFI CFA_XSP16 add(XSP16, 13)
        MOV     ?V0 + 0,#huePara & 0xff
        MOV     ?V0 + 1,#(huePara >> 8) & 0xff
        MOV     R0,#?V0 + 0
        LCALL   ?PUSH_XSTACK_I_TWO
        CFI CFA_XSP16 add(XSP16, 15)
        MOV     ?V0 + 0,#0x2
        MOV     ?V0 + 1,#0x0
        MOV     R0,#?V0 + 0
        LCALL   ?PUSH_XSTACK_I_TWO
        CFI CFA_XSP16 add(XSP16, 17)
        MOV     ?V0 + 0,#0xf
        MOV     ?V0 + 1,#0x0
        MOV     R0,#?V0 + 0
        LCALL   ?PUSH_XSTACK_I_TWO
        CFI CFA_XSP16 add(XSP16, 19)
        MOV     R1,#0x20
        MOV     R4,#SampleApp_epDesc2 & 0xff
        MOV     R5,#(SampleApp_epDesc2 >> 8) & 0xff
        MOV     R2,#SampleApp_BIND_DstAddr & 0xff
        MOV     R3,#(SampleApp_BIND_DstAddr >> 8) & 0xff
        LCALL   ??AF_DataRequest?relay
        MOV     A,#0x9
        LCALL   ?DEALLOC_XSTACK8
        CFI CFA_XSP16 add(XSP16, 10)
        MOV     A,R1
        LJMP    ??SampleAPP_send_delay_message_2 & 0xFFFF
// 1129           {
// 1130             
// 1131           }
// 1132        }
// 1133        else if(bindNumReflections(SAMPLEAPP_ENDPOINT3,SAMPLEAPP_ONOFF_CLUSTERID)>0)//有绑定项目
??SampleAPP_send_delay_message_8:
        ; Setup parameters for call to function bindNumReflections
        MOV     R2,#0x1
        MOV     R3,#0x0
        MOV     R1,#0x17
        LCALL   ??bindNumReflections?relay
        MOV     ?V0 + 0,R2
        MOV     ?V0 + 1,R3
        MOV     A,?V0 + 0
        ORL     A,?V0 + 1
        JZ      ??SampleAPP_send_delay_message_9
// 1134        {
// 1135        HalLedBlink ( HAL_LED_2, 1, 25, 200 );
        ; Setup parameters for call to function HalLedBlink
        MOV     R4,#-0x38
        MOV     R5,#0x0
        MOV     R3,#0x19
        MOV     R2,#0x1
        MOV     R1,#0x2
        LCALL   ??HalLedBlink?relay
// 1136             ONOROFF3 = 2;  //开         
        MOV     DPTR,#ONOROFF3
        MOV     A,#0x2
        MOVX    @DPTR,A
// 1137          if ( AF_DataRequest( &SampleApp_BIND_DstAddr, &SampleApp_epDesc3,
// 1138                                SAMPLEAPP_ONOFF_CLUSTERID,
// 1139                                1,  //数据长度
// 1140                                &ONOROFF3,//###添加的发送数据        
// 1141                                &SampleApp_TransID,
// 1142                                AF_DISCV_ROUTE,
// 1143                                AF_DEFAULT_RADIUS ) == afStatus_SUCCESS )
        ; Setup parameters for call to function AF_DataRequest
        MOV     ?V0 + 0,#0xf
        MOV     R0,#?V0 + 0
        LCALL   ?PUSH_XSTACK_I_ONE
        CFI CFA_XSP16 add(XSP16, 11)
        MOV     ?V0 + 0,#SampleApp_TransID & 0xff
        MOV     ?V0 + 1,#(SampleApp_TransID >> 8) & 0xff
        MOV     R0,#?V0 + 0
        LCALL   ?PUSH_XSTACK_I_TWO
        CFI CFA_XSP16 add(XSP16, 13)
        MOV     ?V0 + 0,#ONOROFF3 & 0xff
        MOV     ?V0 + 1,#(ONOROFF3 >> 8) & 0xff
        MOV     R0,#?V0 + 0
        LCALL   ?PUSH_XSTACK_I_TWO
        CFI CFA_XSP16 add(XSP16, 15)
        MOV     ?V0 + 0,#0x1
        MOV     ?V0 + 1,#0x0
        MOV     R0,#?V0 + 0
        LCALL   ?PUSH_XSTACK_I_TWO
        CFI CFA_XSP16 add(XSP16, 17)
        MOV     ?V0 + 0,#0x1
        MOV     ?V0 + 1,#0x0
        MOV     R0,#?V0 + 0
        LCALL   ?PUSH_XSTACK_I_TWO
        CFI CFA_XSP16 add(XSP16, 19)
        MOV     R1,#0x20
        MOV     R4,#SampleApp_epDesc3 & 0xff
        MOV     R5,#(SampleApp_epDesc3 >> 8) & 0xff
        MOV     R2,#SampleApp_BIND_DstAddr & 0xff
        MOV     R3,#(SampleApp_BIND_DstAddr >> 8) & 0xff
        LCALL   ??AF_DataRequest?relay
        MOV     A,#0x9
        LCALL   ?DEALLOC_XSTACK8
        CFI CFA_XSP16 add(XSP16, 10)
        MOV     A,R1
        LJMP    ??SampleAPP_send_delay_message_2 & 0xFFFF
// 1144           {
// 1145             
// 1146           }
// 1147        }
// 1148        
// 1149         else if(bindNumReflections(SAMPLEAPP_ENDPOINT3,SAMPLEAPP_DIMMER_CLUSTERID)>0)//有绑定项目
??SampleAPP_send_delay_message_9:
        ; Setup parameters for call to function bindNumReflections
        MOV     R2,#0xb
        MOV     R3,#0x0
        MOV     R1,#0x17
        LCALL   ??bindNumReflections?relay
        MOV     ?V0 + 0,R2
        MOV     ?V0 + 1,R3
        MOV     A,?V0 + 0
        ORL     A,?V0 + 1
        JZ      ??SampleAPP_send_delay_message_10
// 1150        {
// 1151           HalLedBlink ( HAL_LED_2, 1, 25, 200 );
        ; Setup parameters for call to function HalLedBlink
        MOV     R4,#-0x38
        MOV     R5,#0x0
        MOV     R3,#0x19
        MOV     R2,#0x1
        MOV     R1,#0x2
        LCALL   ??HalLedBlink?relay
// 1152             ONOROFF3 = 0;
        MOV     DPTR,#ONOROFF3
        MOV     A,#0x0
        MOVX    @DPTR,A
// 1153               
// 1154          if ( AF_DataRequest( &SampleApp_BIND_DstAddr, &SampleApp_epDesc3,
// 1155                                SAMPLEAPP_DIMMER_CLUSTERID,
// 1156                                1,  //数据长度
// 1157                                &ONOROFF3,//###添加的发送数据        
// 1158                                &SampleApp_TransID,
// 1159                                AF_DISCV_ROUTE,
// 1160                                AF_DEFAULT_RADIUS ) == afStatus_SUCCESS )
        ; Setup parameters for call to function AF_DataRequest
        MOV     ?V0 + 0,#0xf
        MOV     R0,#?V0 + 0
        LCALL   ?PUSH_XSTACK_I_ONE
        CFI CFA_XSP16 add(XSP16, 11)
        MOV     ?V0 + 0,#SampleApp_TransID & 0xff
        MOV     ?V0 + 1,#(SampleApp_TransID >> 8) & 0xff
        MOV     R0,#?V0 + 0
        LCALL   ?PUSH_XSTACK_I_TWO
        CFI CFA_XSP16 add(XSP16, 13)
        MOV     ?V0 + 0,#ONOROFF3 & 0xff
        MOV     ?V0 + 1,#(ONOROFF3 >> 8) & 0xff
        MOV     R0,#?V0 + 0
        LCALL   ?PUSH_XSTACK_I_TWO
        CFI CFA_XSP16 add(XSP16, 15)
        MOV     ?V0 + 0,#0x1
        MOV     ?V0 + 1,#0x0
        MOV     R0,#?V0 + 0
        LCALL   ?PUSH_XSTACK_I_TWO
        CFI CFA_XSP16 add(XSP16, 17)
        MOV     ?V0 + 0,#0xb
        MOV     ?V0 + 1,#0x0
        MOV     R0,#?V0 + 0
        LCALL   ?PUSH_XSTACK_I_TWO
        CFI CFA_XSP16 add(XSP16, 19)
        MOV     R1,#0x20
        MOV     R4,#SampleApp_epDesc3 & 0xff
        MOV     R5,#(SampleApp_epDesc3 >> 8) & 0xff
        MOV     R2,#SampleApp_BIND_DstAddr & 0xff
        MOV     R3,#(SampleApp_BIND_DstAddr >> 8) & 0xff
        LCALL   ??AF_DataRequest?relay
        MOV     A,#0x9
        LCALL   ?DEALLOC_XSTACK8
        CFI CFA_XSP16 add(XSP16, 10)
        MOV     A,R1
        LJMP    ??SampleAPP_send_delay_message_2 & 0xFFFF
// 1161           {
// 1162             
// 1163           }
// 1164        }
// 1165        
// 1166         else if(bindNumReflections(SAMPLEAPP_ENDPOINT3,SAMPLEAPP_CERTAIN_CONTROL_CLUSTERID)>0)//有绑定项目
??SampleAPP_send_delay_message_10:
        ; Setup parameters for call to function bindNumReflections
        MOV     R2,#0xd
        MOV     R3,#0x0
        MOV     R1,#0x17
        LCALL   ??bindNumReflections?relay
        MOV     ?V0 + 0,R2
        MOV     ?V0 + 1,R3
        MOV     A,?V0 + 0
        ORL     A,?V0 + 1
        JZ      ??SampleAPP_send_delay_message_11
// 1167        {
// 1168          HalLedBlink ( HAL_LED_2, 1, 25, 200 );
        ; Setup parameters for call to function HalLedBlink
        MOV     R4,#-0x38
        MOV     R5,#0x0
        MOV     R3,#0x19
        MOV     R2,#0x1
        MOV     R1,#0x2
        LCALL   ??HalLedBlink?relay
// 1169             ONOROFF3 = 1;//对应电机停
        MOV     DPTR,#ONOROFF3
        MOV     A,#0x1
        MOVX    @DPTR,A
// 1170               
// 1171          if ( AF_DataRequest( &SampleApp_BIND_DstAddr, &SampleApp_epDesc3,
// 1172                                SAMPLEAPP_CERTAIN_CONTROL_CLUSTERID,
// 1173                                1,  //数据长度
// 1174                                &ONOROFF3,//###添加的发送数据        
// 1175                                &SampleApp_TransID,
// 1176                                AF_DISCV_ROUTE,
// 1177                                AF_DEFAULT_RADIUS ) == afStatus_SUCCESS )
        ; Setup parameters for call to function AF_DataRequest
        MOV     ?V0 + 0,#0xf
        MOV     R0,#?V0 + 0
        LCALL   ?PUSH_XSTACK_I_ONE
        CFI CFA_XSP16 add(XSP16, 11)
        MOV     ?V0 + 0,#SampleApp_TransID & 0xff
        MOV     ?V0 + 1,#(SampleApp_TransID >> 8) & 0xff
        MOV     R0,#?V0 + 0
        LCALL   ?PUSH_XSTACK_I_TWO
        CFI CFA_XSP16 add(XSP16, 13)
        MOV     ?V0 + 0,#ONOROFF3 & 0xff
        MOV     ?V0 + 1,#(ONOROFF3 >> 8) & 0xff
        MOV     R0,#?V0 + 0
        LCALL   ?PUSH_XSTACK_I_TWO
        CFI CFA_XSP16 add(XSP16, 15)
        MOV     ?V0 + 0,#0x1
        MOV     ?V0 + 1,#0x0
        MOV     R0,#?V0 + 0
        LCALL   ?PUSH_XSTACK_I_TWO
        CFI CFA_XSP16 add(XSP16, 17)
        MOV     ?V0 + 0,#0xd
        MOV     ?V0 + 1,#0x0
        MOV     R0,#?V0 + 0
        LCALL   ?PUSH_XSTACK_I_TWO
        CFI CFA_XSP16 add(XSP16, 19)
        MOV     R1,#0x20
        MOV     R4,#SampleApp_epDesc3 & 0xff
        MOV     R5,#(SampleApp_epDesc3 >> 8) & 0xff
        MOV     R2,#SampleApp_BIND_DstAddr & 0xff
        MOV     R3,#(SampleApp_BIND_DstAddr >> 8) & 0xff
        LCALL   ??AF_DataRequest?relay
        MOV     A,#0x9
        LCALL   ?DEALLOC_XSTACK8
        CFI CFA_XSP16 add(XSP16, 10)
        MOV     A,R1
        LJMP    ??SampleAPP_send_delay_message_2 & 0xFFFF
// 1178           {
// 1179             
// 1180           }
// 1181        }
// 1182        
// 1183         else if(bindNumReflections(SAMPLEAPP_ENDPOINT3,SAMPLEAPP_ELOCK_CLUSTERID)>0)//有绑定项目
??SampleAPP_send_delay_message_11:
        ; Setup parameters for call to function bindNumReflections
        MOV     R2,#0xe
        MOV     R3,#0x0
        MOV     R1,#0x17
        LCALL   ??bindNumReflections?relay
        MOV     ?V0 + 0,R2
        MOV     ?V0 + 1,R3
        MOV     A,?V0 + 0
        ORL     A,?V0 + 1
        JZ      ??SampleAPP_send_delay_message_12
// 1184        {
// 1185          HalLedBlink ( HAL_LED_2, 1, 25, 200 );
        ; Setup parameters for call to function HalLedBlink
        MOV     R4,#-0x38
        MOV     R5,#0x0
        MOV     R3,#0x19
        MOV     R2,#0x1
        MOV     R1,#0x2
        LCALL   ??HalLedBlink?relay
// 1186             ONOROFF3 =3;//切换
        MOV     DPTR,#ONOROFF3
        MOV     A,#0x3
        MOVX    @DPTR,A
// 1187               
// 1188          if ( AF_DataRequest( &SampleApp_BIND_DstAddr, &SampleApp_epDesc3,
// 1189                                SAMPLEAPP_ELOCK_CLUSTERID,
// 1190                                1,  //数据长度
// 1191                                &ONOROFF3,//###添加的发送数据        
// 1192                                &SampleApp_TransID,
// 1193                                AF_DISCV_ROUTE,
// 1194                                AF_DEFAULT_RADIUS ) == afStatus_SUCCESS )
        ; Setup parameters for call to function AF_DataRequest
        MOV     ?V0 + 0,#0xf
        MOV     R0,#?V0 + 0
        LCALL   ?PUSH_XSTACK_I_ONE
        CFI CFA_XSP16 add(XSP16, 11)
        MOV     ?V0 + 0,#SampleApp_TransID & 0xff
        MOV     ?V0 + 1,#(SampleApp_TransID >> 8) & 0xff
        MOV     R0,#?V0 + 0
        LCALL   ?PUSH_XSTACK_I_TWO
        CFI CFA_XSP16 add(XSP16, 13)
        MOV     ?V0 + 0,#ONOROFF3 & 0xff
        MOV     ?V0 + 1,#(ONOROFF3 >> 8) & 0xff
        MOV     R0,#?V0 + 0
        LCALL   ?PUSH_XSTACK_I_TWO
        CFI CFA_XSP16 add(XSP16, 15)
        MOV     ?V0 + 0,#0x1
        MOV     ?V0 + 1,#0x0
        MOV     R0,#?V0 + 0
        LCALL   ?PUSH_XSTACK_I_TWO
        CFI CFA_XSP16 add(XSP16, 17)
        MOV     ?V0 + 0,#0xe
        MOV     ?V0 + 1,#0x0
        MOV     R0,#?V0 + 0
        LCALL   ?PUSH_XSTACK_I_TWO
        CFI CFA_XSP16 add(XSP16, 19)
        MOV     R1,#0x20
        MOV     R4,#SampleApp_epDesc3 & 0xff
        MOV     R5,#(SampleApp_epDesc3 >> 8) & 0xff
        MOV     R2,#SampleApp_BIND_DstAddr & 0xff
        MOV     R3,#(SampleApp_BIND_DstAddr >> 8) & 0xff
        LCALL   ??AF_DataRequest?relay
        MOV     A,#0x9
        LCALL   ?DEALLOC_XSTACK8
        CFI CFA_XSP16 add(XSP16, 10)
        MOV     A,R1
        LJMP    ??SampleAPP_send_delay_message_2 & 0xFFFF
// 1195           {
// 1196             
// 1197           }
// 1198        }
// 1199 
// 1200        else
// 1201        {  
// 1202            
// 1203           if(screen_current_flag==0)//2012 9 15 添加每次操作之间间隔10S才能操作下一个。以防场景切换太快，影响系统
??SampleAPP_send_delay_message_12:
        MOV     DPTR,#screen_current_flag
        MOVX    A,@DPTR
        JZ      $+5
        LJMP    ??SampleAPP_send_delay_message_2 & 0xFFFF
// 1204            {  
// 1205           HalLedBlink ( HAL_LED_2, 1, 25, 200 );
        ; Setup parameters for call to function HalLedBlink
        MOV     R4,#-0x38
        MOV     R5,#0x0
        MOV     R3,#0x19
        MOV     R2,#0x1
        MOV     R1,#0x2
        LCALL   ??HalLedBlink?relay
// 1206             screen_current_flag=1;
        MOV     DPTR,#screen_current_flag
        MOV     A,#0x1
        MOVX    @DPTR,A
// 1207             osal_start_timerEx( UserApp_TaskID,SCREEN_CURRENT_FLAG_EVT,1000 );
        ; Setup parameters for call to function osal_start_timerEx
        MOV     R4,#-0x18
        MOV     R5,#0x3
        MOV     R2,#0x20
        MOV     R3,#0x0
        MOV     DPTR,#UserApp_TaskID
        MOVX    A,@DPTR
        MOV     R1,A
        LCALL   ??osal_start_timerEx?relay
        MOV     A,R1
// 1208             SampleApp_SendInMessage();
        ; Setup parameters for call to function SampleApp_SendInMessage
        LCALL   ??SampleApp_SendInMessage?relay
        LJMP    ??SampleAPP_send_delay_message_2 & 0xFFFF
// 1209            }
// 1210        }
// 1211 
// 1212    }
// 1213   // 第三个按键
// 1214       else if (screen_flag == 3)
??SampleAPP_send_delay_message_7:
        MOV     DPTR,#screen_flag
        MOVX    A,@DPTR
        XRL     A,#0x3
        JZ      $+5
        LJMP    ??SampleAPP_send_delay_message_13 & 0xFFFF
// 1215   { 
// 1216 
// 1217               if(bindNumReflections(SAMPLEAPP_ENDPOINT2,SAMPLEAPP_HUE_CLUSTERID)>0)//有绑定项目 hue up
        ; Setup parameters for call to function bindNumReflections
        MOV     R2,#0xf
        MOV     R3,#0x0
        MOV     R1,#0x16
        LCALL   ??bindNumReflections?relay
        MOV     ?V0 + 0,R2
        MOV     ?V0 + 1,R3
        MOV     A,?V0 + 0
        ORL     A,?V0 + 1
        JZ      ??SampleAPP_send_delay_message_14
// 1218        {
// 1219            HalLedBlink ( HAL_LED_2, 1, 25, 200 );
        ; Setup parameters for call to function HalLedBlink
        MOV     R4,#-0x38
        MOV     R5,#0x0
        MOV     R3,#0x19
        MOV     R2,#0x1
        MOV     R1,#0x2
        LCALL   ??HalLedBlink?relay
// 1220             huePara[0] =1;  //开         
        MOV     DPTR,#huePara
        MOV     A,#0x1
        MOVX    @DPTR,A
// 1221             //huePara[1] =100;  //开         
// 1222          if ( AF_DataRequest( &SampleApp_BIND_DstAddr, &SampleApp_epDesc2,
// 1223                                SAMPLEAPP_HUE_CLUSTERID,
// 1224                                1,  //数据长度
// 1225                                (uint8 *)&huePara,//###添加的发送数据        
// 1226                                &SampleApp_TransID,
// 1227                                AF_DISCV_ROUTE,
// 1228                                AF_DEFAULT_RADIUS ) == afStatus_SUCCESS )
        ; Setup parameters for call to function AF_DataRequest
        MOV     ?V0 + 0,#0xf
        MOV     R0,#?V0 + 0
        LCALL   ?PUSH_XSTACK_I_ONE
        CFI CFA_XSP16 add(XSP16, 11)
        MOV     ?V0 + 0,#SampleApp_TransID & 0xff
        MOV     ?V0 + 1,#(SampleApp_TransID >> 8) & 0xff
        MOV     R0,#?V0 + 0
        LCALL   ?PUSH_XSTACK_I_TWO
        CFI CFA_XSP16 add(XSP16, 13)
        MOV     ?V0 + 0,#huePara & 0xff
        MOV     ?V0 + 1,#(huePara >> 8) & 0xff
        MOV     R0,#?V0 + 0
        LCALL   ?PUSH_XSTACK_I_TWO
        CFI CFA_XSP16 add(XSP16, 15)
        MOV     ?V0 + 0,#0x1
        MOV     ?V0 + 1,#0x0
        MOV     R0,#?V0 + 0
        LCALL   ?PUSH_XSTACK_I_TWO
        CFI CFA_XSP16 add(XSP16, 17)
        MOV     ?V0 + 0,#0xf
        MOV     ?V0 + 1,#0x0
        MOV     R0,#?V0 + 0
        LCALL   ?PUSH_XSTACK_I_TWO
        CFI CFA_XSP16 add(XSP16, 19)
        MOV     R1,#0x20
        MOV     R4,#SampleApp_epDesc2 & 0xff
        MOV     R5,#(SampleApp_epDesc2 >> 8) & 0xff
        MOV     R2,#SampleApp_BIND_DstAddr & 0xff
        MOV     R3,#(SampleApp_BIND_DstAddr >> 8) & 0xff
        LCALL   ??AF_DataRequest?relay
        MOV     A,#0x9
        LCALL   ?DEALLOC_XSTACK8
        CFI CFA_XSP16 add(XSP16, 10)
        MOV     A,R1
        LJMP    ??SampleAPP_send_delay_message_2 & 0xFFFF
// 1229           {
// 1230             
// 1231           }
// 1232        }
// 1233        else if(bindNumReflections(SAMPLEAPP_ENDPOINT4,SAMPLEAPP_ONOFF_CLUSTERID)>0)//有绑定项目
??SampleAPP_send_delay_message_14:
        ; Setup parameters for call to function bindNumReflections
        MOV     R2,#0x1
        MOV     R3,#0x0
        MOV     R1,#0x18
        LCALL   ??bindNumReflections?relay
        MOV     ?V0 + 0,R2
        MOV     ?V0 + 1,R3
        MOV     A,?V0 + 0
        ORL     A,?V0 + 1
        JZ      ??SampleAPP_send_delay_message_15
// 1234        {
// 1235         HalLedBlink ( HAL_LED_2, 1, 25, 200 );
        ; Setup parameters for call to function HalLedBlink
        MOV     R4,#-0x38
        MOV     R5,#0x0
        MOV     R3,#0x19
        MOV     R2,#0x1
        MOV     R1,#0x2
        LCALL   ??HalLedBlink?relay
// 1236             ONOROFF4 = 2;  //开         
        MOV     DPTR,#ONOROFF4
        MOV     A,#0x2
        MOVX    @DPTR,A
// 1237          if ( AF_DataRequest( &SampleApp_BIND_DstAddr, &SampleApp_epDesc4,
// 1238                                SAMPLEAPP_ONOFF_CLUSTERID,
// 1239                                1,  //数据长度
// 1240                                &ONOROFF4,//###添加的发送数据        
// 1241                                &SampleApp_TransID,
// 1242                                AF_DISCV_ROUTE,
// 1243                                AF_DEFAULT_RADIUS ) == afStatus_SUCCESS )
        ; Setup parameters for call to function AF_DataRequest
        MOV     ?V0 + 0,#0xf
        MOV     R0,#?V0 + 0
        LCALL   ?PUSH_XSTACK_I_ONE
        CFI CFA_XSP16 add(XSP16, 11)
        MOV     ?V0 + 0,#SampleApp_TransID & 0xff
        MOV     ?V0 + 1,#(SampleApp_TransID >> 8) & 0xff
        MOV     R0,#?V0 + 0
        LCALL   ?PUSH_XSTACK_I_TWO
        CFI CFA_XSP16 add(XSP16, 13)
        MOV     ?V0 + 0,#ONOROFF4 & 0xff
        MOV     ?V0 + 1,#(ONOROFF4 >> 8) & 0xff
        MOV     R0,#?V0 + 0
        LCALL   ?PUSH_XSTACK_I_TWO
        CFI CFA_XSP16 add(XSP16, 15)
        MOV     ?V0 + 0,#0x1
        MOV     ?V0 + 1,#0x0
        MOV     R0,#?V0 + 0
        LCALL   ?PUSH_XSTACK_I_TWO
        CFI CFA_XSP16 add(XSP16, 17)
        MOV     ?V0 + 0,#0x1
        MOV     ?V0 + 1,#0x0
        MOV     R0,#?V0 + 0
        LCALL   ?PUSH_XSTACK_I_TWO
        CFI CFA_XSP16 add(XSP16, 19)
        MOV     R1,#0x20
        MOV     R4,#SampleApp_epDesc4 & 0xff
        MOV     R5,#(SampleApp_epDesc4 >> 8) & 0xff
        MOV     R2,#SampleApp_BIND_DstAddr & 0xff
        MOV     R3,#(SampleApp_BIND_DstAddr >> 8) & 0xff
        LCALL   ??AF_DataRequest?relay
        MOV     A,#0x9
        LCALL   ?DEALLOC_XSTACK8
        CFI CFA_XSP16 add(XSP16, 10)
        MOV     A,R1
        LJMP    ??SampleAPP_send_delay_message_2 & 0xFFFF
// 1244           {
// 1245             
// 1246           }
// 1247        }
// 1248        
// 1249         else if(bindNumReflections(SAMPLEAPP_ENDPOINT4,SAMPLEAPP_DIMMER_CLUSTERID)>0)//有绑定项目
??SampleAPP_send_delay_message_15:
        ; Setup parameters for call to function bindNumReflections
        MOV     R2,#0xb
        MOV     R3,#0x0
        MOV     R1,#0x18
        LCALL   ??bindNumReflections?relay
        MOV     ?V0 + 0,R2
        MOV     ?V0 + 1,R3
        MOV     A,?V0 + 0
        ORL     A,?V0 + 1
        JZ      ??SampleAPP_send_delay_message_16
// 1250        {
// 1251         HalLedBlink ( HAL_LED_2, 1, 25, 200 );
        ; Setup parameters for call to function HalLedBlink
        MOV     R4,#-0x38
        MOV     R5,#0x0
        MOV     R3,#0x19
        MOV     R2,#0x1
        MOV     R1,#0x2
        LCALL   ??HalLedBlink?relay
// 1252             ONOROFF4 = 100;
        MOV     DPTR,#ONOROFF4
        MOV     A,#0x64
        MOVX    @DPTR,A
// 1253               
// 1254          if ( AF_DataRequest( &SampleApp_BIND_DstAddr, &SampleApp_epDesc4,
// 1255                                SAMPLEAPP_DIMMER_CLUSTERID,
// 1256                                1,  //数据长度
// 1257                                &ONOROFF4,//###添加的发送数据        
// 1258                                &SampleApp_TransID,
// 1259                                AF_DISCV_ROUTE,
// 1260                                AF_DEFAULT_RADIUS ) == afStatus_SUCCESS )
        ; Setup parameters for call to function AF_DataRequest
        MOV     ?V0 + 0,#0xf
        MOV     R0,#?V0 + 0
        LCALL   ?PUSH_XSTACK_I_ONE
        CFI CFA_XSP16 add(XSP16, 11)
        MOV     ?V0 + 0,#SampleApp_TransID & 0xff
        MOV     ?V0 + 1,#(SampleApp_TransID >> 8) & 0xff
        MOV     R0,#?V0 + 0
        LCALL   ?PUSH_XSTACK_I_TWO
        CFI CFA_XSP16 add(XSP16, 13)
        MOV     ?V0 + 0,#ONOROFF4 & 0xff
        MOV     ?V0 + 1,#(ONOROFF4 >> 8) & 0xff
        MOV     R0,#?V0 + 0
        LCALL   ?PUSH_XSTACK_I_TWO
        CFI CFA_XSP16 add(XSP16, 15)
        MOV     ?V0 + 0,#0x1
        MOV     ?V0 + 1,#0x0
        MOV     R0,#?V0 + 0
        LCALL   ?PUSH_XSTACK_I_TWO
        CFI CFA_XSP16 add(XSP16, 17)
        MOV     ?V0 + 0,#0xb
        MOV     ?V0 + 1,#0x0
        MOV     R0,#?V0 + 0
        LCALL   ?PUSH_XSTACK_I_TWO
        CFI CFA_XSP16 add(XSP16, 19)
        MOV     R1,#0x20
        MOV     R4,#SampleApp_epDesc4 & 0xff
        MOV     R5,#(SampleApp_epDesc4 >> 8) & 0xff
        MOV     R2,#SampleApp_BIND_DstAddr & 0xff
        MOV     R3,#(SampleApp_BIND_DstAddr >> 8) & 0xff
        LCALL   ??AF_DataRequest?relay
        MOV     A,#0x9
        LCALL   ?DEALLOC_XSTACK8
        CFI CFA_XSP16 add(XSP16, 10)
        MOV     A,R1
        LJMP    ??SampleAPP_send_delay_message_2 & 0xFFFF
// 1261           {
// 1262             
// 1263           }
// 1264        }
// 1265        
// 1266         else if(bindNumReflections(SAMPLEAPP_ENDPOINT4,SAMPLEAPP_CERTAIN_CONTROL_CLUSTERID)>0)//有绑定项目
??SampleAPP_send_delay_message_16:
        ; Setup parameters for call to function bindNumReflections
        MOV     R2,#0xd
        MOV     R3,#0x0
        MOV     R1,#0x18
        LCALL   ??bindNumReflections?relay
        MOV     ?V0 + 0,R2
        MOV     ?V0 + 1,R3
        MOV     A,?V0 + 0
        ORL     A,?V0 + 1
        JZ      ??SampleAPP_send_delay_message_17
// 1267        {
// 1268           HalLedBlink ( HAL_LED_2, 1, 25, 200 );
        ; Setup parameters for call to function HalLedBlink
        MOV     R4,#-0x38
        MOV     R5,#0x0
        MOV     R3,#0x19
        MOV     R2,#0x1
        MOV     R1,#0x2
        LCALL   ??HalLedBlink?relay
// 1269             ONOROFF4 = 3;//对应电机停
        MOV     DPTR,#ONOROFF4
        MOV     A,#0x3
        MOVX    @DPTR,A
// 1270               
// 1271          if ( AF_DataRequest( &SampleApp_BIND_DstAddr, &SampleApp_epDesc4,
// 1272                                SAMPLEAPP_CERTAIN_CONTROL_CLUSTERID,
// 1273                                1,  //数据长度
// 1274                                &ONOROFF4,//###添加的发送数据        
// 1275                                &SampleApp_TransID,
// 1276                                AF_DISCV_ROUTE,
// 1277                                AF_DEFAULT_RADIUS ) == afStatus_SUCCESS )
        ; Setup parameters for call to function AF_DataRequest
        MOV     ?V0 + 0,#0xf
        MOV     R0,#?V0 + 0
        LCALL   ?PUSH_XSTACK_I_ONE
        CFI CFA_XSP16 add(XSP16, 11)
        MOV     ?V0 + 0,#SampleApp_TransID & 0xff
        MOV     ?V0 + 1,#(SampleApp_TransID >> 8) & 0xff
        MOV     R0,#?V0 + 0
        LCALL   ?PUSH_XSTACK_I_TWO
        CFI CFA_XSP16 add(XSP16, 13)
        MOV     ?V0 + 0,#ONOROFF4 & 0xff
        MOV     ?V0 + 1,#(ONOROFF4 >> 8) & 0xff
        MOV     R0,#?V0 + 0
        LCALL   ?PUSH_XSTACK_I_TWO
        CFI CFA_XSP16 add(XSP16, 15)
        MOV     ?V0 + 0,#0x1
        MOV     ?V0 + 1,#0x0
        MOV     R0,#?V0 + 0
        LCALL   ?PUSH_XSTACK_I_TWO
        CFI CFA_XSP16 add(XSP16, 17)
        MOV     ?V0 + 0,#0xd
        MOV     ?V0 + 1,#0x0
        MOV     R0,#?V0 + 0
        LCALL   ?PUSH_XSTACK_I_TWO
        CFI CFA_XSP16 add(XSP16, 19)
        MOV     R1,#0x20
        MOV     R4,#SampleApp_epDesc4 & 0xff
        MOV     R5,#(SampleApp_epDesc4 >> 8) & 0xff
        MOV     R2,#SampleApp_BIND_DstAddr & 0xff
        MOV     R3,#(SampleApp_BIND_DstAddr >> 8) & 0xff
        LCALL   ??AF_DataRequest?relay
        MOV     A,#0x9
        LCALL   ?DEALLOC_XSTACK8
        CFI CFA_XSP16 add(XSP16, 10)
        MOV     A,R1
        LJMP    ??SampleAPP_send_delay_message_2 & 0xFFFF
// 1278           {
// 1279             
// 1280           }
// 1281        }
// 1282        
// 1283         else if(bindNumReflections(SAMPLEAPP_ENDPOINT4,SAMPLEAPP_ELOCK_CLUSTERID)>0)//有绑定项目
??SampleAPP_send_delay_message_17:
        ; Setup parameters for call to function bindNumReflections
        MOV     R2,#0xe
        MOV     R3,#0x0
        MOV     R1,#0x18
        LCALL   ??bindNumReflections?relay
        MOV     ?V0 + 0,R2
        MOV     ?V0 + 1,R3
        MOV     A,?V0 + 0
        ORL     A,?V0 + 1
        JZ      ??SampleAPP_send_delay_message_18
// 1284        {
// 1285             HalLedBlink ( HAL_LED_2, 1, 25, 200 );
        ; Setup parameters for call to function HalLedBlink
        MOV     R4,#-0x38
        MOV     R5,#0x0
        MOV     R3,#0x19
        MOV     R2,#0x1
        MOV     R1,#0x2
        LCALL   ??HalLedBlink?relay
// 1286             ONOROFF4 = 3;//切换
        MOV     DPTR,#ONOROFF4
        MOV     A,#0x3
        MOVX    @DPTR,A
// 1287               
// 1288          if ( AF_DataRequest( &SampleApp_BIND_DstAddr, &SampleApp_epDesc4,
// 1289                                SAMPLEAPP_ELOCK_CLUSTERID,
// 1290                                1,  //数据长度
// 1291                                &ONOROFF4,//###添加的发送数据        
// 1292                                &SampleApp_TransID,
// 1293                                AF_DISCV_ROUTE,
// 1294                                AF_DEFAULT_RADIUS ) == afStatus_SUCCESS )
        ; Setup parameters for call to function AF_DataRequest
        MOV     ?V0 + 0,#0xf
        MOV     R0,#?V0 + 0
        LCALL   ?PUSH_XSTACK_I_ONE
        CFI CFA_XSP16 add(XSP16, 11)
        MOV     ?V0 + 0,#SampleApp_TransID & 0xff
        MOV     ?V0 + 1,#(SampleApp_TransID >> 8) & 0xff
        MOV     R0,#?V0 + 0
        LCALL   ?PUSH_XSTACK_I_TWO
        CFI CFA_XSP16 add(XSP16, 13)
        MOV     ?V0 + 0,#ONOROFF4 & 0xff
        MOV     ?V0 + 1,#(ONOROFF4 >> 8) & 0xff
        MOV     R0,#?V0 + 0
        LCALL   ?PUSH_XSTACK_I_TWO
        CFI CFA_XSP16 add(XSP16, 15)
        MOV     ?V0 + 0,#0x1
        MOV     ?V0 + 1,#0x0
        MOV     R0,#?V0 + 0
        LCALL   ?PUSH_XSTACK_I_TWO
        CFI CFA_XSP16 add(XSP16, 17)
        MOV     ?V0 + 0,#0xe
        MOV     ?V0 + 1,#0x0
        MOV     R0,#?V0 + 0
        LCALL   ?PUSH_XSTACK_I_TWO
        CFI CFA_XSP16 add(XSP16, 19)
        MOV     R1,#0x20
        MOV     R4,#SampleApp_epDesc4 & 0xff
        MOV     R5,#(SampleApp_epDesc4 >> 8) & 0xff
        MOV     R2,#SampleApp_BIND_DstAddr & 0xff
        MOV     R3,#(SampleApp_BIND_DstAddr >> 8) & 0xff
        LCALL   ??AF_DataRequest?relay
        MOV     A,#0x9
        LCALL   ?DEALLOC_XSTACK8
        CFI CFA_XSP16 add(XSP16, 10)
        MOV     A,R1
        LJMP    ??SampleAPP_send_delay_message_2 & 0xFFFF
// 1295           {
// 1296             
// 1297           }
// 1298        }
// 1299 
// 1300        else
// 1301        {  
// 1302           
// 1303            if(screen_current_flag==0)//2012 9 15 添加每次操作之间间隔10S才能操作下一个。以防场景切换太快，影响系统
??SampleAPP_send_delay_message_18:
        MOV     DPTR,#screen_current_flag
        MOVX    A,@DPTR
        JZ      $+5
        LJMP    ??SampleAPP_send_delay_message_2 & 0xFFFF
// 1304            {  
// 1305               HalLedBlink ( HAL_LED_2, 1, 25, 200 );;
        ; Setup parameters for call to function HalLedBlink
        MOV     R4,#-0x38
        MOV     R5,#0x0
        MOV     R3,#0x19
        MOV     R2,#0x1
        MOV     R1,#0x2
        LCALL   ??HalLedBlink?relay
// 1306            screen_current_flag=1;
        MOV     DPTR,#screen_current_flag
        MOV     A,#0x1
        MOVX    @DPTR,A
// 1307             osal_start_timerEx( UserApp_TaskID,SCREEN_CURRENT_FLAG_EVT,1000 );
        ; Setup parameters for call to function osal_start_timerEx
        MOV     R4,#-0x18
        MOV     R5,#0x3
        MOV     R2,#0x20
        MOV     R3,#0x0
        MOV     DPTR,#UserApp_TaskID
        MOVX    A,@DPTR
        MOV     R1,A
        LCALL   ??osal_start_timerEx?relay
        MOV     A,R1
// 1308               SampleApp_SendInMessage();
        ; Setup parameters for call to function SampleApp_SendInMessage
        LCALL   ??SampleApp_SendInMessage?relay
        LJMP    ??SampleAPP_send_delay_message_2 & 0xFFFF
// 1309            }
// 1310        }
// 1311    }
// 1312   
// 1313         else if (screen_flag == 4)
??SampleAPP_send_delay_message_13:
        MOV     DPTR,#screen_flag
        MOVX    A,@DPTR
        XRL     A,#0x4
        JZ      $+5
        LJMP    ??SampleAPP_send_delay_message_2 & 0xFFFF
// 1314   { 
// 1315 
// 1316               if(bindNumReflections(SAMPLEAPP_ENDPOINT2,SAMPLEAPP_HUE_CLUSTERID)>0)//有绑定项目 hue up
        ; Setup parameters for call to function bindNumReflections
        MOV     R2,#0xf
        MOV     R3,#0x0
        MOV     R1,#0x16
        LCALL   ??bindNumReflections?relay
        MOV     ?V0 + 0,R2
        MOV     ?V0 + 1,R3
        MOV     A,?V0 + 0
        ORL     A,?V0 + 1
        JZ      ??SampleAPP_send_delay_message_19
// 1317        {
// 1318            HalLedBlink ( HAL_LED_2, 1, 25, 200 );
        ; Setup parameters for call to function HalLedBlink
        MOV     R4,#-0x38
        MOV     R5,#0x0
        MOV     R3,#0x19
        MOV     R2,#0x1
        MOV     R1,#0x2
        LCALL   ??HalLedBlink?relay
// 1319             huePara[0] =4;  //开         
        MOV     DPTR,#huePara
        MOV     A,#0x4
        MOVX    @DPTR,A
// 1320             huePara[1] =0;  //开         
        MOV     DPTR,#huePara + 1
        MOV     A,#0x0
        MOVX    @DPTR,A
// 1321          if ( AF_DataRequest( &SampleApp_BIND_DstAddr, &SampleApp_epDesc2,
// 1322                                SAMPLEAPP_HUE_CLUSTERID,
// 1323                                2,  //数据长度
// 1324                                (uint8 *)&huePara,//###添加的发送数据        
// 1325                                &SampleApp_TransID,
// 1326                                AF_DISCV_ROUTE,
// 1327                                AF_DEFAULT_RADIUS ) == afStatus_SUCCESS )
        ; Setup parameters for call to function AF_DataRequest
        MOV     ?V0 + 0,#0xf
        MOV     R0,#?V0 + 0
        LCALL   ?PUSH_XSTACK_I_ONE
        CFI CFA_XSP16 add(XSP16, 11)
        MOV     ?V0 + 0,#SampleApp_TransID & 0xff
        MOV     ?V0 + 1,#(SampleApp_TransID >> 8) & 0xff
        MOV     R0,#?V0 + 0
        LCALL   ?PUSH_XSTACK_I_TWO
        CFI CFA_XSP16 add(XSP16, 13)
        MOV     ?V0 + 0,#huePara & 0xff
        MOV     ?V0 + 1,#(huePara >> 8) & 0xff
        MOV     R0,#?V0 + 0
        LCALL   ?PUSH_XSTACK_I_TWO
        CFI CFA_XSP16 add(XSP16, 15)
        MOV     ?V0 + 0,#0x2
        MOV     ?V0 + 1,#0x0
        MOV     R0,#?V0 + 0
        LCALL   ?PUSH_XSTACK_I_TWO
        CFI CFA_XSP16 add(XSP16, 17)
        MOV     ?V0 + 0,#0xf
        MOV     ?V0 + 1,#0x0
        MOV     R0,#?V0 + 0
        LCALL   ?PUSH_XSTACK_I_TWO
        CFI CFA_XSP16 add(XSP16, 19)
        MOV     R1,#0x20
        MOV     R4,#SampleApp_epDesc2 & 0xff
        MOV     R5,#(SampleApp_epDesc2 >> 8) & 0xff
        MOV     R2,#SampleApp_BIND_DstAddr & 0xff
        MOV     R3,#(SampleApp_BIND_DstAddr >> 8) & 0xff
        LCALL   ??AF_DataRequest?relay
        MOV     A,#0x9
        LCALL   ?DEALLOC_XSTACK8
        CFI CFA_XSP16 add(XSP16, 10)
        MOV     A,R1
        LJMP    ??SampleAPP_send_delay_message_2 & 0xFFFF
// 1328           {
// 1329             
// 1330           }
// 1331        }
// 1332        else if(bindNumReflections(SAMPLEAPP_ENDPOINT5,SAMPLEAPP_ONOFF_CLUSTERID)>0)//有绑定项目
??SampleAPP_send_delay_message_19:
        ; Setup parameters for call to function bindNumReflections
        MOV     R2,#0x1
        MOV     R3,#0x0
        MOV     R1,#0x19
        LCALL   ??bindNumReflections?relay
        MOV     ?V0 + 0,R2
        MOV     ?V0 + 1,R3
        MOV     A,?V0 + 0
        ORL     A,?V0 + 1
        JZ      ??SampleAPP_send_delay_message_20
// 1333        {
// 1334        HalLedBlink ( HAL_LED_2, 1, 25, 200 );
        ; Setup parameters for call to function HalLedBlink
        MOV     R4,#-0x38
        MOV     R5,#0x0
        MOV     R3,#0x19
        MOV     R2,#0x1
        MOV     R1,#0x2
        LCALL   ??HalLedBlink?relay
// 1335             ONOROFF5 = 2;  //开         
        MOV     DPTR,#ONOROFF5
        MOV     A,#0x2
        MOVX    @DPTR,A
// 1336          if ( AF_DataRequest( &SampleApp_BIND_DstAddr, &SampleApp_epDesc5,
// 1337                                SAMPLEAPP_ONOFF_CLUSTERID,
// 1338                                1,  //数据长度
// 1339                                &ONOROFF5,//###添加的发送数据        
// 1340                                &SampleApp_TransID,
// 1341                                AF_DISCV_ROUTE,
// 1342                                AF_DEFAULT_RADIUS ) == afStatus_SUCCESS )
        ; Setup parameters for call to function AF_DataRequest
        MOV     ?V0 + 0,#0xf
        MOV     R0,#?V0 + 0
        LCALL   ?PUSH_XSTACK_I_ONE
        CFI CFA_XSP16 add(XSP16, 11)
        MOV     ?V0 + 0,#SampleApp_TransID & 0xff
        MOV     ?V0 + 1,#(SampleApp_TransID >> 8) & 0xff
        MOV     R0,#?V0 + 0
        LCALL   ?PUSH_XSTACK_I_TWO
        CFI CFA_XSP16 add(XSP16, 13)
        MOV     ?V0 + 0,#ONOROFF5 & 0xff
        MOV     ?V0 + 1,#(ONOROFF5 >> 8) & 0xff
        MOV     R0,#?V0 + 0
        LCALL   ?PUSH_XSTACK_I_TWO
        CFI CFA_XSP16 add(XSP16, 15)
        MOV     ?V0 + 0,#0x1
        MOV     ?V0 + 1,#0x0
        MOV     R0,#?V0 + 0
        LCALL   ?PUSH_XSTACK_I_TWO
        CFI CFA_XSP16 add(XSP16, 17)
        MOV     ?V0 + 0,#0x1
        MOV     ?V0 + 1,#0x0
        MOV     R0,#?V0 + 0
        LCALL   ?PUSH_XSTACK_I_TWO
        CFI CFA_XSP16 add(XSP16, 19)
        MOV     R1,#0x20
        MOV     R4,#SampleApp_epDesc5 & 0xff
        MOV     R5,#(SampleApp_epDesc5 >> 8) & 0xff
        MOV     R2,#SampleApp_BIND_DstAddr & 0xff
        MOV     R3,#(SampleApp_BIND_DstAddr >> 8) & 0xff
        LCALL   ??AF_DataRequest?relay
        MOV     A,#0x9
        LCALL   ?DEALLOC_XSTACK8
        CFI CFA_XSP16 add(XSP16, 10)
        MOV     A,R1
        LJMP    ??SampleAPP_send_delay_message_2 & 0xFFFF
// 1343           {
// 1344             
// 1345           }
// 1346        }
// 1347        
// 1348         else if(bindNumReflections(SAMPLEAPP_ENDPOINT5,SAMPLEAPP_DIMMER_CLUSTERID)>0)//有绑定项目
??SampleAPP_send_delay_message_20:
        ; Setup parameters for call to function bindNumReflections
        MOV     R2,#0xb
        MOV     R3,#0x0
        MOV     R1,#0x19
        LCALL   ??bindNumReflections?relay
        MOV     ?V0 + 0,R2
        MOV     ?V0 + 1,R3
        MOV     A,?V0 + 0
        ORL     A,?V0 + 1
        JZ      ??SampleAPP_send_delay_message_21
// 1349        {
// 1350            HalLedBlink ( HAL_LED_2, 1, 25, 200 );
        ; Setup parameters for call to function HalLedBlink
        MOV     R4,#-0x38
        MOV     R5,#0x0
        MOV     R3,#0x19
        MOV     R2,#0x1
        MOV     R1,#0x2
        LCALL   ??HalLedBlink?relay
// 1351             ONOROFF5= 0;
        MOV     DPTR,#ONOROFF5
        MOV     A,#0x0
        MOVX    @DPTR,A
// 1352               
// 1353          if ( AF_DataRequest( &SampleApp_BIND_DstAddr, &SampleApp_epDesc5,
// 1354                                SAMPLEAPP_DIMMER_CLUSTERID,
// 1355                                1,  //数据长度
// 1356                                &ONOROFF5,//###添加的发送数据        
// 1357                                &SampleApp_TransID,
// 1358                                AF_DISCV_ROUTE,
// 1359                                AF_DEFAULT_RADIUS ) == afStatus_SUCCESS )
        ; Setup parameters for call to function AF_DataRequest
        MOV     ?V0 + 0,#0xf
        MOV     R0,#?V0 + 0
        LCALL   ?PUSH_XSTACK_I_ONE
        CFI CFA_XSP16 add(XSP16, 11)
        MOV     ?V0 + 0,#SampleApp_TransID & 0xff
        MOV     ?V0 + 1,#(SampleApp_TransID >> 8) & 0xff
        MOV     R0,#?V0 + 0
        LCALL   ?PUSH_XSTACK_I_TWO
        CFI CFA_XSP16 add(XSP16, 13)
        MOV     ?V0 + 0,#ONOROFF5 & 0xff
        MOV     ?V0 + 1,#(ONOROFF5 >> 8) & 0xff
        MOV     R0,#?V0 + 0
        LCALL   ?PUSH_XSTACK_I_TWO
        CFI CFA_XSP16 add(XSP16, 15)
        MOV     ?V0 + 0,#0x1
        MOV     ?V0 + 1,#0x0
        MOV     R0,#?V0 + 0
        LCALL   ?PUSH_XSTACK_I_TWO
        CFI CFA_XSP16 add(XSP16, 17)
        MOV     ?V0 + 0,#0xb
        MOV     ?V0 + 1,#0x0
        MOV     R0,#?V0 + 0
        LCALL   ?PUSH_XSTACK_I_TWO
        CFI CFA_XSP16 add(XSP16, 19)
        MOV     R1,#0x20
        MOV     R4,#SampleApp_epDesc5 & 0xff
        MOV     R5,#(SampleApp_epDesc5 >> 8) & 0xff
        MOV     R2,#SampleApp_BIND_DstAddr & 0xff
        MOV     R3,#(SampleApp_BIND_DstAddr >> 8) & 0xff
