///////////////////////////////////////////////////////////////////////////////
//                                                                            /
// IAR C/C++ Compiler V8.10.1.10194/W32 for 8051        05/Nov/2015  09:29:40 /
// Copyright 2004-2011 IAR Systems AB.                                        /
//                                                                            /
//    Core               =  plain                                             /
//    Code model         =  banked                                            /
//    Data model         =  large                                             /
//    Calling convention =  xdata reentrant                                   /
//    Constant location  =  data_rom                                          /
//    Dptr setup         =  1,16                                              /
//    Source file        =  F:\2015\公司产品管理\志富\RE_1_2_0_FORMAL_APP(251 /
//                          )-14-12-8\Projects\zstack\Samples\SampleApp\Sourc /
//                          e\DOOR_BELL_BUTTON\DOOR_BELL_BUTTON_device.c      /
//    Command line       =  -f "F:\2015\公司产品管理\志富\RE_1_2_0_FORMAL_APP /
//                          (251)-14-12-8\Projects\zstack\Samples\SampleApp\C /
//                          C2530DB\..\..\..\Tools\CC2530DB\f8wEndev.cfg"     /
//                          (-DCPU32MHZ -DROOT=__near_func                    /
//                          -DMAC_CFG_TX_DATA_MAX=3 -DMAC_CFG_TX_MAX=6        /
//                          -DMAC_CFG_RX_MAX=3) -f "F:\2015\公司产品管理\志富 /
//                          \RE_1_2_0_FORMAL_APP(251)-14-12-8\Projects\zstack /
//                          \Samples\SampleApp\CC2530DB\..\..\..\Tools\CC2530 /
//                          DB\f8wConfig.cfg" (-DZIGBEEPRO -DSECURE=1         /
//                          -DZG_SECURE_DYNAMIC=0 -DREFLECTOR                 /
//                          -DZDAPP_CONFIG_PAN_ID=0xFFFF                      /
//                          -DNWK_START_DELAY=100 -DEXTENDED_JOINING_RANDOM_M /
//                          ASK=0x007F -DBEACON_REQUEST_DELAY=100             /
//                          -DBEACON_REQ_DELAY_MASK=0x00FF                    /
//                          -DLINK_STATUS_JITTER_MASK=0x007F                  /
//                          -DROUTE_EXPIRY_TIME=30 -DAPSC_ACK_WAIT_DURATION_P /
//                          OLLED=3000 -DNWK_INDIRECT_MSG_TIMEOUT=60          /
//                          -DMAX_RREQ_ENTRIES=8 -DAPSC_MAX_FRAME_RETRIES=3   /
//                          -DNWK_MAX_DATA_RETRIES=2                          /
//                          -DMAX_POLL_FAILURE_RETRIES=2 -DMAX_BCAST=9        /
//                          -DAPS_MAX_GROUPS=16 -DMAX_RTG_ENTRIES=30          /
//                          -DNWK_MAX_BINDING_ENTRIES=10                      /
//                          -DMAX_BINDING_CLUSTER_IDS=4 -DASSERT_RESET        /
//                          -DMAC_MAX_FRAME_SIZE=116                          /
//                          -DZDNWKMGR_MIN_TRANSMISSIONS=20 "-DCONST=const    /
//                          __code" -DGENERIC=__generic                       /
//                          -DRFD_RCVC_ALWAYS_ON=FALSE -DPOLL_RATE=8000       /
//                          -DQUEUED_POLL_RATE=100 -DRESPONSE_POLL_RATE=1000) /
//                           -DREJOIN_POLL_RATE=440                           /
//                          "F:\2015\公司产品管理\志富\RE_1_2_0_FORMAL_APP(25 /
//                          1)-14-12-8\Projects\zstack\Samples\SampleApp\Sour /
//                          ce\DOOR_BELL_BUTTON\DOOR_BELL_BUTTON_device.c"    /
//                          -D NV_INIT -D NV_RESTORE -D HOLD_AUTO_START -D    /
//                          MT_TASK -D xMT_APP_FUNC -D MT_SYS_FUNC -D         /
//                          MT_ZDO_FUNC -D xMT_ZDO_MGMT -D ISR_KEYINTERRUPT   /
//                          -D POWER_SAVING -D xLONG_POLL_TIMES -D            /
//                          xHAVE_TEST_FUN -D RESUME_TIME_TEST -D             /
//                          xDOOR_BELL_BUTTON -D BELL -D xM_V332 -D           /
//                          ASSERT_RESET -D WDT_IN_PM1 -lC                    /
//                          "F:\2015\公司产品管理\志富\RE_1_2_0_FORMAL_APP(25 /
//                          1)-14-12-8\Projects\zstack\Samples\SampleApp\CC25 /
//                          30DB\DOOR_BELL_BUTTON\List\" -lA                  /
//                          "F:\2015\公司产品管理\志富\RE_1_2_0_FORMAL_APP(25 /
//                          1)-14-12-8\Projects\zstack\Samples\SampleApp\CC25 /
//                          30DB\DOOR_BELL_BUTTON\List\" --diag_suppress      /
//                          Pe001,Pa010 -o "F:\2015\公司产品管理\志富\RE_1_2_ /
//                          0_FORMAL_APP(251)-14-12-8\Projects\zstack\Samples /
//                          \SampleApp\CC2530DB\DOOR_BELL_BUTTON\Obj\" -e     /
//                          --no_cse --no_unroll --no_inline                  /
//                          --no_code_motion --no_tbaa --debug --core=plain   /
//                          --dptr=16,1 --data_model=large                    /
//                          --code_model=banked --calling_convention=xdata_re /
//                          entrant --place_constants=data_rom                /
//                          --nr_virtual_regs 16 -I                           /
//                          "F:\2015\公司产品管理\志富\RE_1_2_0_FORMAL_APP(25 /
//                          1)-14-12-8\Projects\zstack\Samples\SampleApp\CC25 /
//                          30DB\" -I "F:\2015\公司产品管理\志富\RE_1_2_0_FOR /
//                          MAL_APP(251)-14-12-8\Projects\zstack\Samples\Samp /
//                          leApp\CC2530DB\..\Source\" -I                     /
//                          "F:\2015\公司产品管理\志富\RE_1_2_0_FORMAL_APP(25 /
//                          1)-14-12-8\Projects\zstack\Samples\SampleApp\CC25 /
//                          30DB\..\Source\rssi_test\h\" -I                   /
//                          "F:\2015\公司产品管理\志富\RE_1_2_0_FORMAL_APP(25 /
//                          1)-14-12-8\Projects\zstack\Samples\SampleApp\CC25 /
//                          30DB\..\Source\DOOR_BELL_BUTTON\" -I              /
//                          "F:\2015\公司产品管理\志富\RE_1_2_0_FORMAL_APP(25 /
//                          1)-14-12-8\Projects\zstack\Samples\SampleApp\CC25 /
//                          30DB\..\..\..\ZMain\TI2530DB\" -I                 /
//                          "F:\2015\公司产品管理\志富\RE_1_2_0_FORMAL_APP(25 /
//                          1)-14-12-8\Projects\zstack\Samples\SampleApp\CC25 /
//                          30DB\..\..\..\..\..\Components\hal\include\" -I   /
//                          "F:\2015\公司产品管理\志富\RE_1_2_0_FORMAL_APP(25 /
//                          1)-14-12-8\Projects\zstack\Samples\SampleApp\CC25 /
//                          30DB\..\..\..\..\..\Components\hal\target\CC2530E /
//                          B\" -I "F:\2015\公司产品管理\志富\RE_1_2_0_FORMAL /
//                          _APP(251)-14-12-8\Projects\zstack\Samples\SampleA /
//                          pp\CC2530DB\..\..\..\..\..\Components\mac\include /
//                          \" -I "F:\2015\公司产品管理\志富\RE_1_2_0_FORMAL_ /
//                          APP(251)-14-12-8\Projects\zstack\Samples\SampleAp /
//                          p\CC2530DB\..\..\..\..\..\Components\mac\high_lev /
//                          el\" -I "F:\2015\公司产品管理\志富\RE_1_2_0_FORMA /
//                          L_APP(251)-14-12-8\Projects\zstack\Samples\Sample /
//                          App\CC2530DB\..\..\..\..\..\Components\mac\low_le /
//                          vel\srf04\" -I "F:\2015\公司产品管理\志富\RE_1_2_ /
//                          0_FORMAL_APP(251)-14-12-8\Projects\zstack\Samples /
//                          \SampleApp\CC2530DB\..\..\..\..\..\Components\mac /
//                          \low_level\srf04\single_chip\" -I                 /
//                          "F:\2015\公司产品管理\志富\RE_1_2_0_FORMAL_APP(25 /
//                          1)-14-12-8\Projects\zstack\Samples\SampleApp\CC25 /
//                          30DB\..\..\..\..\..\Components\mt\" -I            /
//                          "F:\2015\公司产品管理\志富\RE_1_2_0_FORMAL_APP(25 /
//                          1)-14-12-8\Projects\zstack\Samples\SampleApp\CC25 /
//                          30DB\..\..\..\..\..\Components\osal\include\" -I  /
//                          "F:\2015\公司产品管理\志富\RE_1_2_0_FORMAL_APP(25 /
//                          1)-14-12-8\Projects\zstack\Samples\SampleApp\CC25 /
//                          30DB\..\..\..\..\..\Components\services\saddr\"   /
//                          -I "F:\2015\公司产品管理\志富\RE_1_2_0_FORMAL_APP /
//                          (251)-14-12-8\Projects\zstack\Samples\SampleApp\C /
//                          C2530DB\..\..\..\..\..\Components\services\sdata\ /
//                          " -I "F:\2015\公司产品管理\志富\RE_1_2_0_FORMAL_A /
//                          PP(251)-14-12-8\Projects\zstack\Samples\SampleApp /
//                          \CC2530DB\..\..\..\..\..\Components\stack\af\"    /
//                          -I "F:\2015\公司产品管理\志富\RE_1_2_0_FORMAL_APP /
//                          (251)-14-12-8\Projects\zstack\Samples\SampleApp\C /
//                          C2530DB\..\..\..\..\..\Components\stack\nwk\" -I  /
//                          "F:\2015\公司产品管理\志富\RE_1_2_0_FORMAL_APP(25 /
//                          1)-14-12-8\Projects\zstack\Samples\SampleApp\CC25 /
//                          30DB\..\..\..\..\..\Components\stack\sapi\" -I    /
//                          "F:\2015\公司产品管理\志富\RE_1_2_0_FORMAL_APP(25 /
//                          1)-14-12-8\Projects\zstack\Samples\SampleApp\CC25 /
//                          30DB\..\..\..\..\..\Components\stack\sec\" -I     /
//                          "F:\2015\公司产品管理\志富\RE_1_2_0_FORMAL_APP(25 /
//                          1)-14-12-8\Projects\zstack\Samples\SampleApp\CC25 /
//                          30DB\..\..\..\..\..\Components\stack\sys\" -I     /
//                          "F:\2015\公司产品管理\志富\RE_1_2_0_FORMAL_APP(25 /
//                          1)-14-12-8\Projects\zstack\Samples\SampleApp\CC25 /
//                          30DB\..\..\..\..\..\Components\stack\zdo\" -I     /
//                          "F:\2015\公司产品管理\志富\RE_1_2_0_FORMAL_APP(25 /
//                          1)-14-12-8\Projects\zstack\Samples\SampleApp\CC25 /
//                          30DB\..\..\..\..\..\Components\zmac\" -I          /
//                          "F:\2015\公司产品管理\志富\RE_1_2_0_FORMAL_APP(25 /
//                          1)-14-12-8\Projects\zstack\Samples\SampleApp\CC25 /
//                          30DB\..\..\..\..\..\Components\zmac\f8w\" -On     /
//                          --require_prototypes                              /
//    List file          =  F:\2015\公司产品管理\志富\RE_1_2_0_FORMAL_APP(251 /
//                          )-14-12-8\Projects\zstack\Samples\SampleApp\CC253 /
//                          0DB\DOOR_BELL_BUTTON\List\DOOR_BELL_BUTTON_device /
//                          .s51                                              /
//                                                                            /
//                                                                            /
///////////////////////////////////////////////////////////////////////////////

        NAME DOOR_BELL_BUTTON_device

        RTMODEL "__SystemLibrary", "CLib"
        RTMODEL "__calling_convention", "xdata_reentrant"
        RTMODEL "__code_model", "banked"
        RTMODEL "__core", "plain"
        RTMODEL "__data_model", "large"
        RTMODEL "__dptr_size", "16"
        RTMODEL "__extended_stack", "disabled"
        RTMODEL "__location_for_constants", "data"
        RTMODEL "__number_of_dptrs", "1"
        RTMODEL "__rt_version", "1"

        RSEG DOVERLAY:DATA:NOROOT(0)
        RSEG IOVERLAY:IDATA:NOROOT(0)
        RSEG ISTACK:IDATA:NOROOT(0)
        RSEG PSTACK:XDATA:NOROOT(0)
        RSEG XSTACK:XDATA:NOROOT(0)

        EXTERN ?ALLOC_XSTACK8
        EXTERN ?BANKED_ENTER_XDATA
        EXTERN ?BANKED_LEAVE_XDATA
        EXTERN ?BDISPATCH
        EXTERN ?CALL_IND
        EXTERN ?DEALLOC_XSTACK8
        EXTERN ?L_IOR
        EXTERN ?L_MOV_X
        EXTERN ?L_MUL
        EXTERN ?PUSH_XSTACK_I_ONE
        EXTERN ?PUSH_XSTACK_I_TWO
        EXTERN ?UL_SHR
        EXTERN ?US_DIV_MOD
        EXTERN ?US_SWITCH_DENSE
        EXTERN ?V0
        EXTERN ?XSP
        EXTERN ?XSTACK_DISP0_8
        EXTERN __INIT_XDATA_Z

        PUBLIC ??HalKeyHoldCheck?relay
        FUNCTION ??HalKeyHoldCheck?relay,0203H
        PUBLIC ??HalKeyMultiClickCheck?relay
        FUNCTION ??HalKeyMultiClickCheck?relay,0203H
        PUBLIC ??SampleApp_Init?relay
        FUNCTION ??SampleApp_Init?relay,0203H
        PUBLIC ??SampleApp_MessageMSGCB?relay
        FUNCTION ??SampleApp_MessageMSGCB?relay,0203H
        PUBLIC ??SampleApp_PermitJoin?relay
        FUNCTION ??SampleApp_PermitJoin?relay,0203H
        PUBLIC ??SampleApp_ProcessCommandMessage?relay
        FUNCTION ??SampleApp_ProcessCommandMessage?relay,0203H
        PUBLIC ??SampleApp_ProcessEvent?relay
        FUNCTION ??SampleApp_ProcessEvent?relay,0203H
        PUBLIC ??SampleApp_send_in_binding_req?relay
        FUNCTION ??SampleApp_send_in_binding_req?relay,0203H
        PUBLIC ??SampleApp_send_out_binding_req?relay
        FUNCTION ??SampleApp_send_out_binding_req?relay,0203H
        PUBLIC ??USER_APP_SEND_IN?relay
        FUNCTION ??USER_APP_SEND_IN?relay,0203H
        PUBLIC ??USER_SEND_ADD_STR?relay
        FUNCTION ??USER_SEND_ADD_STR?relay,0203H
        PUBLIC ??myApp_ReadBattery?relay
        FUNCTION ??myApp_ReadBattery?relay,0203H
        PUBWEAK ADCCON3
        PUBWEAK ADCH
        PUBWEAK ADCL
        PUBLIC Command_t
        PUBLIC ERROR_COUNT
        PUBLIC HalKeyHoldCheck
        FUNCTION HalKeyHoldCheck,021203H
        ARGFRAME XSTACK, 0, STACK
        LOCFRAME XSTACK, 9, STACK
        PUBLIC HalKeyMultiClickCheck
        FUNCTION HalKeyMultiClickCheck,021203H
        ARGFRAME XSTACK, 0, STACK
        LOCFRAME XSTACK, 9, STACK
        PUBLIC SampleApp_Addr_SendData_DstAddr
        PUBLIC SampleApp_ClusterList
        PUBLIC SampleApp_Flash_DstAddr
        PUBLIC SampleApp_Init
        FUNCTION SampleApp_Init,021203H
        ARGFRAME XSTACK, 0, STACK
        LOCFRAME XSTACK, 9, STACK
        PUBLIC SampleApp_MessageMSGCB
        FUNCTION SampleApp_MessageMSGCB,0a1203H
        ARGFRAME XSTACK, 16, STACK
        ARGFRAME IOVERLAY, 0, STATIC
        ARGFRAME DOVERLAY, 0, STATIC
        LOCFRAME XSTACK, 10, STACK
        PUBLIC SampleApp_NwkState
        PUBLIC SampleApp_Periodic_DstAddr
        PUBLIC SampleApp_PermitJoin
        FUNCTION SampleApp_PermitJoin,021203H
        ARGFRAME XSTACK, 0, STACK
        LOCFRAME XSTACK, 18, STACK
        PUBLIC SampleApp_ProcessCommandMessage
        FUNCTION SampleApp_ProcessCommandMessage,021203H
        ARGFRAME XSTACK, 10, STACK
        ARGFRAME IOVERLAY, 0, STATIC
        ARGFRAME DOVERLAY, 0, STATIC
        LOCFRAME ISTACK, 2, STACK
        LOCFRAME XSTACK, 64, STACK
        PUBLIC SampleApp_ProcessEvent
        FUNCTION SampleApp_ProcessEvent,021203H
        ARGFRAME XSTACK, 0, STACK
        LOCFRAME XSTACK, 16, STACK
        PUBLIC SampleApp_SPI_SendCommand_DstAddr
        PUBLIC SampleApp_SPI_SendData_DstAddr
        PUBLIC SampleApp_SimpleDesc
        PUBLIC SampleApp_annce_req_DstAddr
        PUBLIC SampleApp_send_in_binding_req
        FUNCTION SampleApp_send_in_binding_req,021203H
        ARGFRAME XSTACK, 0, STACK
        LOCFRAME XSTACK, 30, STACK
        PUBLIC SampleApp_send_out_binding_req
        FUNCTION SampleApp_send_out_binding_req,021203H
        ARGFRAME XSTACK, 0, STACK
        LOCFRAME XSTACK, 30, STACK
        PUBLIC Sent_t
        PUBLIC USER_APP_SEND_IN
        FUNCTION USER_APP_SEND_IN,021203H
        ARGFRAME XSTACK, 0, STACK
        LOCFRAME XSTACK, 21, STACK
        PUBLIC USER_SEND_ADD_STR
        FUNCTION USER_SEND_ADD_STR,0203H
        ARGFRAME XSTACK, 0, STACK
        LOCFRAME ISTACK, 1, STACK
        LOCFRAME XSTACK, 10, STACK
        PUBWEAK _A_TCON
        PUBWEAK __Constant_159
        PUBLIC myApp_ReadBattery
        FUNCTION myApp_ReadBattery,0203H
        ARGFRAME XSTACK, 0, STACK
        LOCFRAME XSTACK, 16, STACK
        PUBLIC pollrate_time
        
        CFI Names cfiNames0
        CFI StackFrame CFA_SP SP IDATA
        CFI StackFrame CFA_PSP16 PSP16 XDATA
        CFI StackFrame CFA_XSP16 XSP16 XDATA
        CFI StaticOverlayFrame CFA_IOVERLAY IOVERLAY
        CFI StaticOverlayFrame CFA_DOVERLAY DOVERLAY
        CFI Resource `PSW.CY`:1, `B.BR0`:1, `B.BR1`:1, `B.BR2`:1, `B.BR3`:1
        CFI Resource `B.BR4`:1, `B.BR5`:1, `B.BR6`:1, `B.BR7`:1, `VB.BR8`:1
        CFI Resource `VB.BR9`:1, `VB.BR10`:1, `VB.BR11`:1, `VB.BR12`:1
        CFI Resource `VB.BR13`:1, `VB.BR14`:1, `VB.BR15`:1, VB:8, B:8, A:8
        CFI Resource PSW:8, DPL0:8, DPH0:8, R0:8, R1:8, R2:8, R3:8, R4:8, R5:8
        CFI Resource R6:8, R7:8, V0:8, V1:8, V2:8, V3:8, V4:8, V5:8, V6:8, V7:8
        CFI Resource V8:8, V9:8, V10:8, V11:8, V12:8, V13:8, V14:8, V15:8, SP:8
        CFI Resource PSPH:8, PSPL:8, PSP16:16, XSPH:8, XSPL:8, XSP16:16
        CFI VirtualResource ?RET:24
        CFI Resource ?BRET_EXT:8
        CFI VirtualResource ?RET_HIGH:8, ?RET_LOW:8
        CFI ResourceParts PSP16 PSPH, PSPL
        CFI ResourceParts XSP16 XSPH, XSPL
        CFI ResourceParts ?RET ?BRET_EXT, ?RET_HIGH, ?RET_LOW
        CFI EndNames cfiNames0
        
        CFI Common cfiCommon0 Using cfiNames0
        CFI CodeAlign 1
        CFI DataAlign -1
        CFI ReturnAddress ?RET CODE
        CFI CFA_DOVERLAY Used
        CFI CFA_IOVERLAY Used
        CFI CFA_SP SP+-3
        CFI CFA_PSP16 PSP16+0
        CFI CFA_XSP16 XSP16+0
        CFI `PSW.CY` SameValue
        CFI `B.BR0` SameValue
        CFI `B.BR1` SameValue
        CFI `B.BR2` SameValue
        CFI `B.BR3` SameValue
        CFI `B.BR4` SameValue
        CFI `B.BR5` SameValue
        CFI `B.BR6` SameValue
        CFI `B.BR7` SameValue
        CFI `VB.BR8` SameValue
        CFI `VB.BR9` SameValue
        CFI `VB.BR10` SameValue
        CFI `VB.BR11` SameValue
        CFI `VB.BR12` SameValue
        CFI `VB.BR13` SameValue
        CFI `VB.BR14` SameValue
        CFI `VB.BR15` SameValue
        CFI VB SameValue
        CFI B Undefined
        CFI A Undefined
        CFI PSW SameValue
        CFI DPL0 SameValue
        CFI DPH0 SameValue
        CFI R0 Undefined
        CFI R1 Undefined
        CFI R2 Undefined
        CFI R3 Undefined
        CFI R4 Undefined
        CFI R5 Undefined
        CFI R6 SameValue
        CFI R7 SameValue
        CFI V0 SameValue
        CFI V1 SameValue
        CFI V2 SameValue
        CFI V3 SameValue
        CFI V4 SameValue
        CFI V5 SameValue
        CFI V6 SameValue
        CFI V7 SameValue
        CFI V8 SameValue
        CFI V9 SameValue
        CFI V10 SameValue
        CFI V11 SameValue
        CFI V12 SameValue
        CFI V13 SameValue
        CFI V14 SameValue
        CFI V15 SameValue
        CFI PSPH Undefined
        CFI PSPL Undefined
        CFI XSPH Undefined
        CFI XSPL Undefined
        CFI ?RET Concat
        CFI ?BRET_EXT Frame(CFA_SP, 3)
        CFI ?RET_HIGH Frame(CFA_SP, 2)
        CFI ?RET_LOW Frame(CFA_SP, 1)
        CFI EndCommon cfiCommon0
        
afRegister          SYMBOL "afRegister"
APP_JOIN_INIT       SYMBOL "APP_JOIN_INIT"
osal_msg_receive    SYMBOL "osal_msg_receive"
ZDO_ACK_DEAL_WITH   SYMBOL "ZDO_ACK_DEAL_WITH"
APP_JOIN_DEAL_WITH  SYMBOL "APP_JOIN_DEAL_WITH"
USER_APP_JOIN_MSG   SYMBOL "USER_APP_JOIN_MSG"
osal_msg_deallocate SYMBOL "osal_msg_deallocate"
USER_MAYBE_BUTTERY_MSG SYMBOL "USER_MAYBE_BUTTERY_MSG"
SampleApp_SendPeriodicMessage SYMBOL "SampleApp_SendPeriodicMessage"
osal_rand           SYMBOL "osal_rand"
osal_start_timerEx  SYMBOL "osal_start_timerEx"
SampleApp_SendNwkaddrMessage SYMBOL "SampleApp_SendNwkaddrMessage"
USER_SET_NOMAL_POLL_TIME SYMBOL "USER_SET_NOMAL_POLL_TIME"
APP_OS_DEAL_WITH    SYMBOL "APP_OS_DEAL_WITH"
USER_SET_RS_MSG     SYMBOL "USER_SET_RS_MSG"
sampleAPP_sendRS_periodMessage SYMBOL "sampleAPP_sendRS_periodMessage"
APP_JOIN_START_EVT  SYMBOL "APP_JOIN_START_EVT"
Change_Net_Set      SYMBOL "Change_Net_Set"
APP_ENDDEVICE_ACK   SYMBOL "APP_ENDDEVICE_ACK"
APP_NORMAL_COMMAND  SYMBOL "APP_NORMAL_COMMAND"
USER_APP_COMMAND    SYMBOL "USER_APP_COMMAND"
AF_DataRequest      SYMBOL "AF_DataRequest"
HalLedBlink         SYMBOL "HalLedBlink"
osal_nv_write       SYMBOL "osal_nv_write"
NLME_SetPollRate    SYMBOL "NLME_SetPollRate"
osal_mem_alloc      SYMBOL "osal_mem_alloc"
osal_mem_free       SYMBOL "osal_mem_free"
NLME_PermitJoiningRequest SYMBOL "NLME_PermitJoiningRequest"
ZDP_MgmtPermitJoinReq SYMBOL "ZDP_MgmtPermitJoinReq"
NLME_GetShortAddr   SYMBOL "NLME_GetShortAddr"
ZDP_EndDeviceBindReq SYMBOL "ZDP_EndDeviceBindReq"
READ_NETKEY         SYMBOL "READ_NETKEY"
??AF_DataRequest?relay SYMBOL "?relay", AF_DataRequest
??APP_ENDDEVICE_ACK?relay SYMBOL "?relay", APP_ENDDEVICE_ACK
??APP_JOIN_DEAL_WITH?relay SYMBOL "?relay", APP_JOIN_DEAL_WITH
??APP_JOIN_INIT?relay SYMBOL "?relay", APP_JOIN_INIT
??APP_JOIN_START_EVT?relay SYMBOL "?relay", APP_JOIN_START_EVT
??APP_NORMAL_COMMAND?relay SYMBOL "?relay", APP_NORMAL_COMMAND
??APP_OS_DEAL_WITH?relay SYMBOL "?relay", APP_OS_DEAL_WITH
??Change_Net_Set?relay SYMBOL "?relay", Change_Net_Set
??HalLedBlink?relay SYMBOL "?relay", HalLedBlink
??NLME_GetShortAddr?relay SYMBOL "?relay", NLME_GetShortAddr
??NLME_PermitJoiningRequest?relay SYMBOL "?relay", NLME_PermitJoiningRequest
??NLME_SetPollRate?relay SYMBOL "?relay", NLME_SetPollRate
??READ_NETKEY?relay SYMBOL "?relay", READ_NETKEY
??SampleApp_SendNwkaddrMessage?relay SYMBOL "?relay", SampleApp_SendNwkaddrMessage
??SampleApp_SendPeriodicMessage?relay SYMBOL "?relay", SampleApp_SendPeriodicMessage
??USER_APP_COMMAND?relay SYMBOL "?relay", USER_APP_COMMAND
??USER_APP_JOIN_MSG?relay SYMBOL "?relay", USER_APP_JOIN_MSG
??USER_MAYBE_BUTTERY_MSG?relay SYMBOL "?relay", USER_MAYBE_BUTTERY_MSG
??USER_SET_NOMAL_POLL_TIME?relay SYMBOL "?relay", USER_SET_NOMAL_POLL_TIME
??USER_SET_RS_MSG?relay SYMBOL "?relay", USER_SET_RS_MSG
??ZDO_ACK_DEAL_WITH?relay SYMBOL "?relay", ZDO_ACK_DEAL_WITH
??ZDP_EndDeviceBindReq?relay SYMBOL "?relay", ZDP_EndDeviceBindReq
??ZDP_MgmtPermitJoinReq?relay SYMBOL "?relay", ZDP_MgmtPermitJoinReq
??afRegister?relay  SYMBOL "?relay", afRegister
??osal_mem_alloc?relay SYMBOL "?relay", osal_mem_alloc
??osal_mem_free?relay SYMBOL "?relay", osal_mem_free
??osal_msg_deallocate?relay SYMBOL "?relay", osal_msg_deallocate
??osal_msg_receive?relay SYMBOL "?relay", osal_msg_receive
??osal_nv_write?relay SYMBOL "?relay", osal_nv_write
??osal_rand?relay   SYMBOL "?relay", osal_rand
??osal_start_timerEx?relay SYMBOL "?relay", osal_start_timerEx
??sampleAPP_sendRS_periodMessage?relay SYMBOL "?relay", sampleAPP_sendRS_periodMessage
HalKeyHoldCheck     SYMBOL "HalKeyHoldCheck"
??HalKeyHoldCheck?relay SYMBOL "?relay", HalKeyHoldCheck
HalKeyMultiClickCheck SYMBOL "HalKeyMultiClickCheck"
??HalKeyMultiClickCheck?relay SYMBOL "?relay", HalKeyMultiClickCheck
SampleApp_Init      SYMBOL "SampleApp_Init"
??SampleApp_Init?relay SYMBOL "?relay", SampleApp_Init
SampleApp_MessageMSGCB SYMBOL "SampleApp_MessageMSGCB"
??SampleApp_MessageMSGCB?relay SYMBOL "?relay", SampleApp_MessageMSGCB
SampleApp_PermitJoin SYMBOL "SampleApp_PermitJoin"
??SampleApp_PermitJoin?relay SYMBOL "?relay", SampleApp_PermitJoin
SampleApp_ProcessCommandMessage SYMBOL "SampleApp_ProcessCommandMessage"
??SampleApp_ProcessCommandMessage?relay SYMBOL "?relay", SampleApp_ProcessCommandMessage
SampleApp_ProcessEvent SYMBOL "SampleApp_ProcessEvent"
??SampleApp_ProcessEvent?relay SYMBOL "?relay", SampleApp_ProcessEvent
SampleApp_send_in_binding_req SYMBOL "SampleApp_send_in_binding_req"
??SampleApp_send_in_binding_req?relay SYMBOL "?relay", SampleApp_send_in_binding_req
SampleApp_send_out_binding_req SYMBOL "SampleApp_send_out_binding_req"
??SampleApp_send_out_binding_req?relay SYMBOL "?relay", SampleApp_send_out_binding_req
USER_APP_SEND_IN    SYMBOL "USER_APP_SEND_IN"
??USER_APP_SEND_IN?relay SYMBOL "?relay", USER_APP_SEND_IN
USER_SEND_ADD_STR   SYMBOL "USER_SEND_ADD_STR"
??USER_SEND_ADD_STR?relay SYMBOL "?relay", USER_SEND_ADD_STR
myApp_ReadBattery   SYMBOL "myApp_ReadBattery"
??myApp_ReadBattery?relay SYMBOL "?relay", myApp_ReadBattery

        EXTERN afRegister
        FUNCTION afRegister,0202H
        ARGFRAME ISTACK, 0, STACK
        ARGFRAME PSTACK, 0, STACK
        ARGFRAME XSTACK, 9, STACK
        ARGFRAME IOVERLAY, 0, STATIC
        ARGFRAME DOVERLAY, 0, STATIC
        EXTERN APP_JOIN_INIT
        FUNCTION APP_JOIN_INIT,0202H
        ARGFRAME ISTACK, 0, STACK
        ARGFRAME PSTACK, 0, STACK
        ARGFRAME XSTACK, 9, STACK
        ARGFRAME IOVERLAY, 0, STATIC
        ARGFRAME DOVERLAY, 0, STATIC
        EXTERN osal_msg_receive
        FUNCTION osal_msg_receive,0202H
        ARGFRAME ISTACK, 0, STACK
        ARGFRAME PSTACK, 0, STACK
        ARGFRAME XSTACK, 16, STACK
        ARGFRAME IOVERLAY, 0, STATIC
        ARGFRAME DOVERLAY, 0, STATIC
        EXTERN ZDO_ACK_DEAL_WITH
        FUNCTION ZDO_ACK_DEAL_WITH,0202H
        ARGFRAME ISTACK, 0, STACK
        ARGFRAME PSTACK, 0, STACK
        ARGFRAME XSTACK, 16, STACK
        ARGFRAME IOVERLAY, 0, STATIC
        ARGFRAME DOVERLAY, 0, STATIC
        EXTERN APP_JOIN_DEAL_WITH
        FUNCTION APP_JOIN_DEAL_WITH,0202H
        ARGFRAME ISTACK, 0, STACK
        ARGFRAME PSTACK, 0, STACK
        ARGFRAME XSTACK, 16, STACK
        ARGFRAME IOVERLAY, 0, STATIC
        ARGFRAME DOVERLAY, 0, STATIC
        EXTERN USER_APP_JOIN_MSG
        FUNCTION USER_APP_JOIN_MSG,0202H
        ARGFRAME ISTACK, 0, STACK
        ARGFRAME PSTACK, 0, STACK
        ARGFRAME XSTACK, 16, STACK
        ARGFRAME IOVERLAY, 0, STATIC
        ARGFRAME DOVERLAY, 0, STATIC
        EXTERN osal_msg_deallocate
        FUNCTION osal_msg_deallocate,0202H
        ARGFRAME ISTACK, 0, STACK
        ARGFRAME PSTACK, 0, STACK
        ARGFRAME XSTACK, 16, STACK
        ARGFRAME IOVERLAY, 0, STATIC
        ARGFRAME DOVERLAY, 0, STATIC
        EXTERN USER_MAYBE_BUTTERY_MSG
        FUNCTION USER_MAYBE_BUTTERY_MSG,0202H
        ARGFRAME ISTACK, 0, STACK
        ARGFRAME PSTACK, 0, STACK
        ARGFRAME XSTACK, 16, STACK
        ARGFRAME IOVERLAY, 0, STATIC
        ARGFRAME DOVERLAY, 0, STATIC
        EXTERN SampleApp_SendPeriodicMessage
        FUNCTION SampleApp_SendPeriodicMessage,0202H
        ARGFRAME ISTACK, 0, STACK
        ARGFRAME PSTACK, 0, STACK
        ARGFRAME XSTACK, 16, STACK
        ARGFRAME IOVERLAY, 0, STATIC
        ARGFRAME DOVERLAY, 0, STATIC
        EXTERN osal_rand
        FUNCTION osal_rand,0202H
        ARGFRAME ISTACK, 0, STACK
        ARGFRAME PSTACK, 0, STACK
        ARGFRAME XSTACK, 16, STACK
        ARGFRAME IOVERLAY, 0, STATIC
        ARGFRAME DOVERLAY, 0, STATIC
        EXTERN osal_start_timerEx
        FUNCTION osal_start_timerEx,0202H
        ARGFRAME ISTACK, 0, STACK
        ARGFRAME PSTACK, 0, STACK
        ARGFRAME XSTACK, 55, STACK
        ARGFRAME IOVERLAY, 0, STATIC
        ARGFRAME DOVERLAY, 0, STATIC
        EXTERN SampleApp_SendNwkaddrMessage
        FUNCTION SampleApp_SendNwkaddrMessage,0202H
        ARGFRAME ISTACK, 0, STACK
        ARGFRAME PSTACK, 0, STACK
        ARGFRAME XSTACK, 16, STACK
        ARGFRAME IOVERLAY, 0, STATIC
        ARGFRAME DOVERLAY, 0, STATIC
        EXTERN USER_SET_NOMAL_POLL_TIME
        FUNCTION USER_SET_NOMAL_POLL_TIME,0202H
        ARGFRAME ISTACK, 0, STACK
        ARGFRAME PSTACK, 0, STACK
        ARGFRAME XSTACK, 16, STACK
        ARGFRAME IOVERLAY, 0, STATIC
        ARGFRAME DOVERLAY, 0, STATIC
        EXTERN APP_OS_DEAL_WITH
        FUNCTION APP_OS_DEAL_WITH,0202H
        ARGFRAME ISTACK, 0, STACK
        ARGFRAME PSTACK, 0, STACK
        ARGFRAME XSTACK, 16, STACK
        ARGFRAME IOVERLAY, 0, STATIC
        ARGFRAME DOVERLAY, 0, STATIC
        EXTERN USER_SET_RS_MSG
        FUNCTION USER_SET_RS_MSG,0202H
        ARGFRAME ISTACK, 0, STACK
        ARGFRAME PSTACK, 0, STACK
        ARGFRAME XSTACK, 16, STACK
        ARGFRAME IOVERLAY, 0, STATIC
        ARGFRAME DOVERLAY, 0, STATIC
        EXTERN sampleAPP_sendRS_periodMessage
        FUNCTION sampleAPP_sendRS_periodMessage,0202H
        ARGFRAME ISTACK, 0, STACK
        ARGFRAME PSTACK, 0, STACK
        ARGFRAME XSTACK, 16, STACK
        ARGFRAME IOVERLAY, 0, STATIC
        ARGFRAME DOVERLAY, 0, STATIC
        EXTERN APP_JOIN_START_EVT
        FUNCTION APP_JOIN_START_EVT,0202H
        ARGFRAME ISTACK, 0, STACK
        ARGFRAME PSTACK, 0, STACK
        ARGFRAME XSTACK, 16, STACK
        ARGFRAME IOVERLAY, 0, STATIC
        ARGFRAME DOVERLAY, 0, STATIC
        EXTERN Change_Net_Set
        FUNCTION Change_Net_Set,0202H
        ARGFRAME ISTACK, 0, STACK
        ARGFRAME PSTACK, 0, STACK
        ARGFRAME XSTACK, 16, STACK
        ARGFRAME IOVERLAY, 0, STATIC
        ARGFRAME DOVERLAY, 0, STATIC
        EXTERN APP_ENDDEVICE_ACK
        FUNCTION APP_ENDDEVICE_ACK,0202H
        ARGFRAME ISTACK, 0, STACK
        ARGFRAME PSTACK, 0, STACK
        ARGFRAME XSTACK, 10, STACK
        ARGFRAME IOVERLAY, 0, STATIC
        ARGFRAME DOVERLAY, 0, STATIC
        EXTERN APP_NORMAL_COMMAND
        FUNCTION APP_NORMAL_COMMAND,0202H
        ARGFRAME ISTACK, 0, STACK
        ARGFRAME PSTACK, 0, STACK
        ARGFRAME XSTACK, 55, STACK
        ARGFRAME IOVERLAY, 0, STATIC
        ARGFRAME DOVERLAY, 0, STATIC
        EXTERN USER_APP_COMMAND
        FUNCTION USER_APP_COMMAND,0202H
        ARGFRAME ISTACK, 0, STACK
        ARGFRAME PSTACK, 0, STACK
        ARGFRAME XSTACK, 55, STACK
        ARGFRAME IOVERLAY, 0, STATIC
        ARGFRAME DOVERLAY, 0, STATIC
        EXTERN AF_DataRequest
        FUNCTION AF_DataRequest,0202H
        ARGFRAME ISTACK, 0, STACK
        ARGFRAME PSTACK, 0, STACK
        ARGFRAME XSTACK, 64, STACK
        ARGFRAME IOVERLAY, 0, STATIC
        ARGFRAME DOVERLAY, 0, STATIC
        EXTERN HalLedBlink
        FUNCTION HalLedBlink,0202H
        ARGFRAME ISTACK, 0, STACK
        ARGFRAME PSTACK, 0, STACK
        ARGFRAME XSTACK, 55, STACK
        ARGFRAME IOVERLAY, 0, STATIC
        ARGFRAME DOVERLAY, 0, STATIC
        EXTERN osal_nv_write
        FUNCTION osal_nv_write,0202H
        ARGFRAME ISTACK, 0, STACK
        ARGFRAME PSTACK, 0, STACK
        ARGFRAME XSTACK, 59, STACK
        ARGFRAME IOVERLAY, 0, STATIC
        ARGFRAME DOVERLAY, 0, STATIC
        EXTERN NLME_SetPollRate
        FUNCTION NLME_SetPollRate,0202H
        ARGFRAME ISTACK, 0, STACK
        ARGFRAME PSTACK, 0, STACK
        ARGFRAME XSTACK, 55, STACK
        ARGFRAME IOVERLAY, 0, STATIC
        ARGFRAME DOVERLAY, 0, STATIC
        EXTERN osal_mem_alloc
        FUNCTION osal_mem_alloc,0202H
        ARGFRAME ISTACK, 0, STACK
        ARGFRAME PSTACK, 0, STACK
        ARGFRAME XSTACK, 55, STACK
        ARGFRAME IOVERLAY, 0, STATIC
        ARGFRAME DOVERLAY, 0, STATIC
        EXTERN osal_mem_free
        FUNCTION osal_mem_free,0202H
        ARGFRAME ISTACK, 0, STACK
        ARGFRAME PSTACK, 0, STACK
        ARGFRAME XSTACK, 55, STACK
        ARGFRAME IOVERLAY, 0, STATIC
        ARGFRAME DOVERLAY, 0, STATIC
        EXTERN NLME_PermitJoiningRequest
        FUNCTION NLME_PermitJoiningRequest,0202H
        ARGFRAME ISTACK, 0, STACK
        ARGFRAME PSTACK, 0, STACK
        ARGFRAME XSTACK, 18, STACK
        ARGFRAME IOVERLAY, 0, STATIC
        ARGFRAME DOVERLAY, 0, STATIC
        EXTERN ZDP_MgmtPermitJoinReq
        FUNCTION ZDP_MgmtPermitJoinReq,0202H
        ARGFRAME ISTACK, 0, STACK
        ARGFRAME PSTACK, 0, STACK
        ARGFRAME XSTACK, 18, STACK
        ARGFRAME IOVERLAY, 0, STATIC
        ARGFRAME DOVERLAY, 0, STATIC
        EXTERN NLME_GetShortAddr
        FUNCTION NLME_GetShortAddr,0202H
        ARGFRAME ISTACK, 0, STACK
        ARGFRAME PSTACK, 0, STACK
        ARGFRAME XSTACK, 30, STACK
        ARGFRAME IOVERLAY, 0, STATIC
        ARGFRAME DOVERLAY, 0, STATIC
        EXTERN ZDP_EndDeviceBindReq
        FUNCTION ZDP_EndDeviceBindReq,0202H
        ARGFRAME ISTACK, 0, STACK
        ARGFRAME PSTACK, 0, STACK
        ARGFRAME XSTACK, 30, STACK
        ARGFRAME IOVERLAY, 0, STATIC
        ARGFRAME DOVERLAY, 0, STATIC
        EXTERN READ_NETKEY
        FUNCTION READ_NETKEY,0202H
        ARGFRAME ISTACK, 0, STACK
        ARGFRAME PSTACK, 0, STACK
        ARGFRAME XSTACK, 9, STACK
        ARGFRAME IOVERLAY, 0, STATIC
        ARGFRAME DOVERLAY, 0, STATIC
        EXTERN ??AF_DataRequest?relay
        FUNCTION ??AF_DataRequest?relay,00H
        EXTERN ??APP_ENDDEVICE_ACK?relay
        FUNCTION ??APP_ENDDEVICE_ACK?relay,00H
        EXTERN ??APP_JOIN_DEAL_WITH?relay
        FUNCTION ??APP_JOIN_DEAL_WITH?relay,00H
        EXTERN ??APP_JOIN_INIT?relay
        FUNCTION ??APP_JOIN_INIT?relay,00H
        EXTERN ??APP_JOIN_START_EVT?relay
        FUNCTION ??APP_JOIN_START_EVT?relay,00H
        EXTERN ??APP_NORMAL_COMMAND?relay
        FUNCTION ??APP_NORMAL_COMMAND?relay,00H
        EXTERN ??APP_OS_DEAL_WITH?relay
        FUNCTION ??APP_OS_DEAL_WITH?relay,00H
        EXTERN ??Change_Net_Set?relay
        FUNCTION ??Change_Net_Set?relay,00H
        EXTERN ??HalLedBlink?relay
        FUNCTION ??HalLedBlink?relay,00H
        EXTERN ??NLME_GetShortAddr?relay
        FUNCTION ??NLME_GetShortAddr?relay,00H
        EXTERN ??NLME_PermitJoiningRequest?relay
        FUNCTION ??NLME_PermitJoiningRequest?relay,00H
        EXTERN ??NLME_SetPollRate?relay
        FUNCTION ??NLME_SetPollRate?relay,00H
        EXTERN ??READ_NETKEY?relay
        FUNCTION ??READ_NETKEY?relay,00H
        EXTERN ??SampleApp_SendNwkaddrMessage?relay
        FUNCTION ??SampleApp_SendNwkaddrMessage?relay,00H
        EXTERN ??SampleApp_SendPeriodicMessage?relay
        FUNCTION ??SampleApp_SendPeriodicMessage?relay,00H
        EXTERN ??USER_APP_COMMAND?relay
        FUNCTION ??USER_APP_COMMAND?relay,00H
        EXTERN ??USER_APP_JOIN_MSG?relay
        FUNCTION ??USER_APP_JOIN_MSG?relay,00H
        EXTERN ??USER_MAYBE_BUTTERY_MSG?relay
        FUNCTION ??USER_MAYBE_BUTTERY_MSG?relay,00H
        EXTERN ??USER_SET_NOMAL_POLL_TIME?relay
        FUNCTION ??USER_SET_NOMAL_POLL_TIME?relay,00H
        EXTERN ??USER_SET_RS_MSG?relay
        FUNCTION ??USER_SET_RS_MSG?relay,00H
        EXTERN ??ZDO_ACK_DEAL_WITH?relay
        FUNCTION ??ZDO_ACK_DEAL_WITH?relay,00H
        EXTERN ??ZDP_EndDeviceBindReq?relay
        FUNCTION ??ZDP_EndDeviceBindReq?relay,00H
        EXTERN ??ZDP_MgmtPermitJoinReq?relay
        FUNCTION ??ZDP_MgmtPermitJoinReq?relay,00H
        EXTERN ??afRegister?relay
        FUNCTION ??afRegister?relay,00H
        EXTERN ??osal_mem_alloc?relay
        FUNCTION ??osal_mem_alloc?relay,00H
        EXTERN ??osal_mem_free?relay
        FUNCTION ??osal_mem_free?relay,00H
        EXTERN ??osal_msg_deallocate?relay
        FUNCTION ??osal_msg_deallocate?relay,00H
        EXTERN ??osal_msg_receive?relay
        FUNCTION ??osal_msg_receive?relay,00H
        EXTERN ??osal_nv_write?relay
        FUNCTION ??osal_nv_write?relay,00H
        EXTERN ??osal_rand?relay
        FUNCTION ??osal_rand?relay,00H
        EXTERN ??osal_start_timerEx?relay
        FUNCTION ??osal_start_timerEx?relay,00H
        EXTERN ??sampleAPP_sendRS_periodMessage?relay
        FUNCTION ??sampleAPP_sendRS_periodMessage?relay,00H
        EXTERN DEFINED_CONTROL_CHAR
        EXTERN DEVICE_ID
        EXTERN Hal_TaskID
        EXTERN JOIN_ROLE
        EXTERN KEY_NET_ISR_FLAG
        EXTERN LEAVE_NET_SET_FLAG
        EXTERN NORMAL_POLL_TIME
        EXTERN OS_FLAG
        EXTERN POLLRATE_TIME_VALUE
        EXTERN POWER_PA_FLAG
        EXTERN POWER_SAVING_FLAG
        EXTERN RS_LEN
        EXTERN RS_STR
        EXTERN RTR_NWK_FLAG
        EXTERN SHORT_ADRESS
        EXTERN SampleApp_TaskID
        EXTERN SampleApp_TransID
        EXTERN SampleApp_epDesc
        EXTERN devState
        EXTERN key_double_flag
        EXTERN key_hold_flag
        EXTERN key_holdtime_waiting_flag
        EXTERN pHalKeyProcessFunction

// F:\2015\公司产品管理\志富\RE_1_2_0_FORMAL_APP(251)-14-12-8\Projects\zstack\Samples\SampleApp\Source\DOOR_BELL_BUTTON\DOOR_BELL_BUTTON_device.c
//    1 /**************************************************************************************************
//    2   Filename:       SampleApp.c
//    3   Revised:        $Date: 2007-10-27 17:16:54 -0700 (Sat, 27 Oct 2007) $
//    4   Revision:       $Revision: 15793 $
//    5 
//    6   Description:    Sample Application (no Profile).
//    7 
//    8 
//    9   Copyright 2007 Texas Instruments Incorporated. All rights reserved.
//   10 
//   11   IMPORTANT: Your use of this Software is limited to those specific rights
//   12   granted under the terms of a software license agreement between the user
//   13   who downloaded the software, his/her employer (which must be your employer)
//   14   and Texas Instruments Incorporated (the "License").  You may not use this
//   15   Software unless you agree to abide by the terms of the License. The License
//   16   limits your use, and you acknowledge, that the Software may not be modified,
//   17   copied or distributed unless embedded on a Texas Instruments microcontroller
//   18   or used solely and exclusively in conjunction with a Texas Instruments radio
//   19   frequency transceiver, which is integrated into your product.  Other than for
//   20   the foregoing purpose, you may not use, reproduce, copy, prepare derivative
//   21   works of, modify, distribute, perform, display or sell this Software and/or
//   22   its documentation for any purpose.
//   23 
//   24   YOU FURTHER ACKNOWLEDGE AND AGREE THAT THE SOFTWARE AND DOCUMENTATION ARE
//   25   PROVIDED AS IS?WITHOUT WARRANTY OF ANY KIND, EITHER EXPRESS OR IMPLIED,
//   26   INCLUDING WITHOUT LIMITATION, ANY WARRANTY OF MERCHANTABILITY, TITLE,
//   27   NON-INFRINGEMENT AND FITNESS FOR A PARTICULAR PURPOSE. IN NO EVENT SHALL
//   28   TEXAS INSTRUMENTS OR ITS LICENSORS BE LIABLE OR OBLIGATED UNDER CONTRACT,
//   29   NEGLIGENCE, STRICT LIABILITY, CONTRIBUTION, BREACH OF WARRANTY, OR OTHER
//   30   LEGAL EQUITABLE THEORY ANY DIRECT OR INDIRECT DAMAGES OR EXPENSES
//   31   INCLUDING BUT NOT LIMITED TO ANY INCIDENTAL, SPECIAL, INDIRECT, PUNITIVE
//   32   OR CONSEQUENTIAL DAMAGES, LOST PROFITS OR LOST DATA, COST OF PROCUREMENT
//   33   OF SUBSTITUTE GOODS, TECHNOLOGY, SERVICES, OR ANY CLAIMS BY THIRD PARTIES
//   34   (INCLUDING BUT NOT LIMITED TO ANY DEFENSE THEREOF), OR OTHER SIMILAR COSTS.
//   35 
//   36   Should you have any questions regarding your right to use this Software,
//   37   contact Texas Instruments Incorporated at www.TI.com.
//   38 **************************************************************************************************/
//   39 
//   40 /*********************************************************************
//   41   This application isn't intended to do anything useful, it is
//   42   intended to be a simple example of an application's structure.
//   43 
//   44   This application sends it's messages either as broadcast or
//   45   broadcast filtered group messages.  The other (more normal)
//   46   message addressing is unicast.  Most of the other sample
//   47   applications are written to support the unicast message model.
//   48 
//   49   Key control:
//   50     SW1:  Sends a flash command to all devices in Group 1.
//   51     SW2:  Adds/Removes (toggles) this device in and out
//   52           of Group 1.  This will enable and disable the
//   53           reception of the flash command.
//   54 *********************************************************************/
//   55 
//   56 /*********************************************************************
//   57  * INCLUDES
//   58  */
//   59 
//   60 
//   61 
//   62 //#define COMMUNICATION
//   63 #include "OSAL.h"
//   64 #include "ZGlobals.h"
//   65 #include "AF.h"
//   66 #include "aps_groups.h"
//   67 #include "ZDApp.h"
//   68 //#include "device.h"
//   69 #include "OnBoard.h"

        ASEGN SFR_AN:DATA:NOROOT,088H
// union <unnamed> volatile __sfr _A_TCON
_A_TCON:
        DATA8
        DS 1

        ASEGN SFR_AN:DATA:NOROOT,0b6H
// unsigned char volatile __sfr ADCCON3
ADCCON3:
        DATA8
        DS 1

        ASEGN SFR_AN:DATA:NOROOT,0baH
// unsigned char volatile __sfr ADCL
ADCL:
        DATA8
        DS 1

        ASEGN SFR_AN:DATA:NOROOT,0bbH
// unsigned char volatile __sfr ADCH
ADCH:
        DATA8
        DS 1
//   70 #include "MT_UART.h"//2430 是 SPIMGR  2530叫 MT_UART  换了个名字
//   71 #include "mac_rx.h"
//   72 
//   73 /* HAL */
//   74 #include "hal_led.h"
//   75 #include "hal_key.h"
//   76 #include "OSAL_Nv.h"
//   77 //#include "my_time.h"
//   78 
//   79 #include "AddrMgr.h"
//   80 #include "nwk_util.h"
//   81 #include "ZDObject.h"
//   82 #include "ZDO_LIB.h"
//   83 #include "common_device.h"
//   84 #include "hal_drivers.h"
//   85 #include "hal_key.h"
//   86 #include "OSAL_PwrMgr.h"
//   87 
//   88 /*********************************************************************
//   89  * MACROS
//   90  */
//   91 
//   92 /*********************************************************************
//   93  * CONSTANTS
//   94  */
//   95 
//   96 

        RSEG XDATA_Z:XDATA:NOROOT(0)
        DATA8
//   97 uint8 Command_t,Sent_t;
Command_t:
        DS 1
        REQUIRE __INIT_XDATA_Z

        RSEG XDATA_Z:XDATA:NOROOT(0)
        DATA8
Sent_t:
        DS 1
        REQUIRE __INIT_XDATA_Z
//   98     

        RSEG XDATA_Z:XDATA:NOROOT(0)
        DATA8
//   99 devStates_t SampleApp_NwkState;
SampleApp_NwkState:
        DS 1
        REQUIRE __INIT_XDATA_Z
//  100     
//  101 /*********************************************************************
//  102  * TYPEDEFS
//  103  */
//  104 
//  105 /*********************************************************************
//  106  * GLOBAL VARIABLES―全局变量
//  107  */
//  108 

        RSEG XDATA_ROM_C:CONST:REORDER:NOROOT(0)
        DATA8
//  109 const cId_t SampleApp_ClusterList[SAMPLEAPP_MAX_CLUSTERS] =
SampleApp_ClusterList:
        DATA16
        DW 1
        DW 2
        DW 3
        DW 4
        DW 5
        DW 6
        DW 7
        DW 0
        DW 0
        DW 0
        DW 0
        DW 0
        DW 0
//  110 {
//  111   SAMPLEAPP_ONOFF_CLUSTERID, //周期信息簇ID=1
//  112   SAMPLEAPP_FLASH_CLUSTERID,    //闪烁信息簇ID=2
//  113   SAMPLEAPP_ADDR_CLUSTERID,
//  114   SAMPLEAPP_COMMAND_CLUSTERID,
//  115   SAMPLEAPP_PERIODIC_CLUSTERID,
//  116   SAMPLEAPP_ANNCE_REQ_CLUSTERID,
//  117   SAMPLEAPP_PERIODIC_COORDINATOR_CLUSTERID,
//  118 };
//  119 
//  120 

        RSEG XDATA_ROM_C:CONST:REORDER:NOROOT(0)
        DATA8
//  121 const SimpleDescriptionFormat_t SampleApp_SimpleDesc =
SampleApp_SimpleDesc:
        DB 20
        DATA16
        DW 3848
        DW 1
        DATA8
        DB 0
        DB 13
        DATA16
        DW SampleApp_ClusterList
        DATA8
        DB 13
        DATA16
        DW SampleApp_ClusterList
//  122 {
//  123   SAMPLEAPP_ENDPOINT,              //  int Endpoint;
//  124   SAMPLEAPP_PROFID,                //  uint16 AppProfId[2];/**/
//  125   SAMPLEAPP_DEVICEID,              //  uint16 AppDeviceId[2];
//  126   SAMPLEAPP_DEVICE_VERSION,        //  int   AppDevVer:4;
//  127   SAMPLEAPP_FLAGS,                 //  int   AppFlags:4;
//  128   SAMPLEAPP_MAX_CLUSTERS,          //  uint8  AppNumInClusters;
//  129   (cId_t *)SampleApp_ClusterList,  //  uint8 *pAppInClusterList;
//  130   SAMPLEAPP_MAX_CLUSTERS,          //  uint8  AppNumInClusters;
//  131   (cId_t *)SampleApp_ClusterList   //  uint8 *pAppInClusterList;
//  132 };
//  133 
//  134 
//  135 
//  136 

        RSEG XDATA_Z:XDATA:NOROOT(0)
        DATA8
//  137 afAddrType_t SampleApp_Periodic_DstAddr;       //周期事件寻址模式
SampleApp_Periodic_DstAddr:
        DS 12
        REQUIRE __INIT_XDATA_Z

        RSEG XDATA_Z:XDATA:NOROOT(0)
        DATA8
//  138 afAddrType_t SampleApp_Flash_DstAddr;          //闪烁事件寻址模式
SampleApp_Flash_DstAddr:
        DS 12
        REQUIRE __INIT_XDATA_Z

        RSEG XDATA_Z:XDATA:NOROOT(0)
        DATA8
//  139 afAddrType_t SampleApp_SPI_SendData_DstAddr;   //串口数据信息
SampleApp_SPI_SendData_DstAddr:
        DS 12
        REQUIRE __INIT_XDATA_Z

        RSEG XDATA_Z:XDATA:NOROOT(0)
        DATA8
//  140 afAddrType_t SampleApp_SPI_SendCommand_DstAddr;//串口命令信息
SampleApp_SPI_SendCommand_DstAddr:
        DS 12
        REQUIRE __INIT_XDATA_Z

        RSEG XDATA_Z:XDATA:NOROOT(0)
        DATA8
//  141 afAddrType_t SampleApp_Addr_SendData_DstAddr;  //入网报告
SampleApp_Addr_SendData_DstAddr:
        DS 12
        REQUIRE __INIT_XDATA_Z

        RSEG XDATA_Z:XDATA:NOROOT(0)
        DATA8
//  142 afAddrType_t SampleApp_annce_req_DstAddr;    //annce 关联表对比清楚信息
SampleApp_annce_req_DstAddr:
        DS 12
        REQUIRE __INIT_XDATA_Z
//  143 //afAddrType_t SampleApp_BIND_DstAddr;
//  144 
//  145 
//  146 
//  147 

        RSEG XDATA_Z:XDATA:NOROOT(0)
        DATA16
//  148 uint16 pollrate_time =0 ;
pollrate_time:
        DS 2
        REQUIRE __INIT_XDATA_Z
//  149 extern uint8 POLLRATE_TIME_VALUE;
//  150 

        RSEG XDATA_Z:XDATA:NOROOT(0)
        DATA8
//  151 uint8 ERROR_COUNT=0;
ERROR_COUNT:
        DS 1
        REQUIRE __INIT_XDATA_Z
//  152   
//  153 uint16 myApp_ReadBattery( void );
//  154 
//  155 extern void CR2_DATA_NODETECT_MSG(void);
//  156 /*********************************************************************
//  157  * LOCAL FUNCTIONS
//  158  */
//  159 //void SampleApp_HandleKeys( uint8 shift, uint8 keys );//本用户应用按键函数
//  160 void SampleApp_MessageMSGCB( afIncomingMSGPacket_t *pckt );//本用户应用信息回调函数
//  161 void SampleApp_SendPeriodicMessage( void );         //本用户应用发送周期消息函数
//  162 void SampleApp_ProcessCommandMessage(afIncomingMSGPacket_t *pkt);
//  163 void SampleApp_SendInMessage(void);
//  164 void SampleApp_ProcessBINDINGMessage(afIncomingMSGPacket_t *pkt);
//  165 //void  Delay_1u(uint32 microSecs);
//  166 
//  167 
//  168 
//  169 
//  170 extern    	uint8 CmdType;  //命令类型： '1' 学习，'2' 使用
//  171 	extern uint16 IRCodeIndex;   //
//  172 //extern uint8 longPollRateFlag;
//  173 extern void changePollRate(void);
//  174 /*********************************************************************
//  175  * @fn      SampleApp_Init
//  176  *
//  177  * @brief   Initialization function for the Generic App Task.
//  178  *          This is called during initialization and should contain
//  179  *          any application specific initialization (ie. hardware
//  180  *          initialization/setup, table initialization, power up
//  181  *          notificaiton ... ).
//  182  *
//  183  * @param   task_id - the ID assigned by OSAL.  This ID should be
//  184  *                    used to send messages and set timers.
//  185  *
//  186  * @return  none
//  187  */

        RSEG BANKED_CODE:CODE:NOROOT(0)
//  188 void SampleApp_Init( uint8 task_id )
SampleApp_Init:
        CFI Block cfiBlock0 Using cfiCommon0
        CFI Function SampleApp_Init
        CODE
//  189 {
        FUNCALL SampleApp_Init, afRegister
        LOCFRAME ISTACK, 0, STACK
        LOCFRAME PSTACK, 0, STACK
        LOCFRAME XSTACK, 9, STACK
        LOCFRAME IOVERLAY, 0, STATIC
        LOCFRAME DOVERLAY, 0, STATIC
        ARGFRAME ISTACK, 0, STACK
        ARGFRAME PSTACK, 0, STACK
        ARGFRAME XSTACK, 9, STACK
        ARGFRAME IOVERLAY, 0, STATIC
        ARGFRAME DOVERLAY, 0, STATIC
        FUNCALL SampleApp_Init, APP_JOIN_INIT
        LOCFRAME ISTACK, 0, STACK
        LOCFRAME PSTACK, 0, STACK
        LOCFRAME XSTACK, 9, STACK
        LOCFRAME IOVERLAY, 0, STATIC
        LOCFRAME DOVERLAY, 0, STATIC
        ARGFRAME ISTACK, 0, STACK
        ARGFRAME PSTACK, 0, STACK
        ARGFRAME XSTACK, 9, STACK
        ARGFRAME IOVERLAY, 0, STATIC
        ARGFRAME DOVERLAY, 0, STATIC
        MOV     A,#-0x9
        LCALL   ?BANKED_ENTER_XDATA
        CFI DPH0 load(1, XDATA, add(CFA_XSP16, literal(-1)))
        CFI DPL0 load(1, XDATA, add(CFA_XSP16, literal(-2)))
        CFI ?BRET_EXT load(1, XDATA, add(CFA_XSP16, literal(-3)))
        CFI ?RET_HIGH load(1, XDATA, add(CFA_XSP16, literal(-4)))
        CFI ?RET_LOW load(1, XDATA, add(CFA_XSP16, literal(-5)))
        CFI R7 load(1, XDATA, add(CFA_XSP16, literal(-6)))
        CFI V0 load(1, XDATA, add(CFA_XSP16, literal(-7)))
        CFI VB load(1, XDATA, add(CFA_XSP16, literal(-8)))
        CFI R6 load(1, XDATA, add(CFA_XSP16, literal(-9)))
        CFI CFA_SP SP+0
        CFI CFA_XSP16 add(XSP16, 9)
        ; Saved register size: 9
        ; Auto size: 0
        MOV     A,R1
        MOV     R6,A
//  190    #if defined ( LEAVE_NET_SET )
//  191     LEAVE_NET_SET_FLAG =1;
//  192   #else
//  193     LEAVE_NET_SET_FLAG =0;
        MOV     DPTR,#LEAVE_NET_SET_FLAG
        MOV     A,#0x0
        MOVX    @DPTR,A
//  194   #endif
//  195     
//  196   #if defined ( RTR_NWK )
//  197     RTR_NWK_FLAG =1;
//  198   #else
//  199     RTR_NWK_FLAG =0;
        MOV     DPTR,#RTR_NWK_FLAG
        MOV     A,#0x0
        MOVX    @DPTR,A
//  200   #endif
//  201   
//  202   #if defined ( POWER_SAVING )
//  203     POWER_SAVING_FLAG =1;
        MOV     DPTR,#POWER_SAVING_FLAG
        MOV     A,#0x1
        MOVX    @DPTR,A
//  204   #else
//  205     POWER_SAVING_FLAG =0;
//  206   #endif
//  207   
//  208   #if defined ( POWER_PA )
//  209     POWER_PA_FLAG =1;
//  210   #else
//  211     POWER_PA_FLAG =0;
        MOV     DPTR,#POWER_PA_FLAG
        MOV     A,#0x0
        MOVX    @DPTR,A
//  212   #endif
//  213   
//  214   
//  215   SampleApp_TaskID = task_id;
        MOV     A,R6
        MOV     DPTR,#SampleApp_TaskID
        MOVX    @DPTR,A
//  216   SampleApp_NwkState = DEV_INIT;
        MOV     DPTR,#SampleApp_NwkState
        MOV     A,#0x1
        MOVX    @DPTR,A
//  217   SampleApp_TransID = 0;
        MOV     DPTR,#SampleApp_TransID
        MOV     A,#0x0
        MOVX    @DPTR,A
//  218 
//  219   
//  220   SampleApp_epDesc.endPoint = SAMPLEAPP_ENDPOINT;//SampleApp EP描述符的EP号：20
        MOV     DPTR,#SampleApp_epDesc
        MOV     A,#0x14
        MOVX    @DPTR,A
//  221   SampleApp_epDesc.task_id = &SampleApp_TaskID;//SampleApp EP描述符的任务ID：0
        MOV     DPTR,#SampleApp_epDesc + 1
        MOV     A,#SampleApp_TaskID & 0xff
        MOVX    @DPTR,A
        INC     DPTR
        MOV     A,#(SampleApp_TaskID >> 8) & 0xff
        MOVX    @DPTR,A
//  222   SampleApp_epDesc.simpleDesc
//  223             = (SimpleDescriptionFormat_t *)&SampleApp_SimpleDesc;//SampleApp EP简单描述符
        MOV     DPTR,#SampleApp_epDesc + 3
        MOV     A,#SampleApp_SimpleDesc & 0xff
        MOVX    @DPTR,A
        INC     DPTR
        MOV     A,#(SampleApp_SimpleDesc >> 8) & 0xff
        MOVX    @DPTR,A
//  224   SampleApp_epDesc.latencyReq = noLatencyReqs;//延时策略
        MOV     DPTR,#SampleApp_epDesc + 5
        MOV     A,#0x0
        MOVX    @DPTR,A
//  225 
//  226   // Register the endpoint description with the AF
//  227   afRegister( &SampleApp_epDesc );
        ; Setup parameters for call to function afRegister
        MOV     R2,#SampleApp_epDesc & 0xff
        MOV     R3,#(SampleApp_epDesc >> 8) & 0xff
        LCALL   ??afRegister?relay
        MOV     A,R1
//  228   
//  229   APP_JOIN_INIT();
        ; Setup parameters for call to function APP_JOIN_INIT
        LCALL   ??APP_JOIN_INIT?relay
//  230 
//  231 }
        MOV     R7,#0x1
        LJMP    ?BANKED_LEAVE_XDATA
        CFI EndBlock cfiBlock0
//  232 
//  233 /*********************************************************************
//  234  * @fn      SampleApp_ProcessEvent
//  235  *
//  236  * @brief   Generic Application Task event processor.  This function
//  237  *          is called to process all events for the task.  Events
//  238  *          include timers, messages and any other user defined events.
//  239  *
//  240  * @param   task_id  - The OSAL assigned task ID.
//  241  * @param   events - events to process.  This is a bit map and can
//  242  *                   contain more than one event.
//  243  *
//  244  * @return  none
//  245  */

        RSEG BANKED_CODE:CODE:NOROOT(0)
//  246 uint16 SampleApp_ProcessEvent( uint8 task_id, uint16 events )
SampleApp_ProcessEvent:
        CFI Block cfiBlock1 Using cfiCommon0
        CFI Function SampleApp_ProcessEvent
        CODE
//  247 {
        FUNCALL SampleApp_ProcessEvent, osal_msg_receive
        LOCFRAME ISTACK, 0, STACK
        LOCFRAME PSTACK, 0, STACK
        LOCFRAME XSTACK, 16, STACK
        LOCFRAME IOVERLAY, 0, STATIC
        LOCFRAME DOVERLAY, 0, STATIC
        ARGFRAME ISTACK, 0, STACK
        ARGFRAME PSTACK, 0, STACK
        ARGFRAME XSTACK, 16, STACK
        ARGFRAME IOVERLAY, 0, STATIC
        ARGFRAME DOVERLAY, 0, STATIC
        FUNCALL SampleApp_ProcessEvent, SampleApp_MessageMSGCB
        LOCFRAME ISTACK, 0, STACK
        LOCFRAME PSTACK, 0, STACK
        LOCFRAME XSTACK, 16, STACK
        LOCFRAME IOVERLAY, 0, STATIC
        LOCFRAME DOVERLAY, 0, STATIC
        ARGFRAME ISTACK, 0, STACK
        ARGFRAME PSTACK, 0, STACK
        ARGFRAME XSTACK, 16, STACK
        ARGFRAME IOVERLAY, 0, STATIC
        ARGFRAME DOVERLAY, 0, STATIC
        FUNCALL SampleApp_ProcessEvent, ZDO_ACK_DEAL_WITH
        LOCFRAME ISTACK, 0, STACK
        LOCFRAME PSTACK, 0, STACK
        LOCFRAME XSTACK, 16, STACK
        LOCFRAME IOVERLAY, 0, STATIC
        LOCFRAME DOVERLAY, 0, STATIC
        ARGFRAME ISTACK, 0, STACK
        ARGFRAME PSTACK, 0, STACK
        ARGFRAME XSTACK, 16, STACK
        ARGFRAME IOVERLAY, 0, STATIC
        ARGFRAME DOVERLAY, 0, STATIC
        FUNCALL SampleApp_ProcessEvent, APP_JOIN_DEAL_WITH
        LOCFRAME ISTACK, 0, STACK
        LOCFRAME PSTACK, 0, STACK
        LOCFRAME XSTACK, 16, STACK
        LOCFRAME IOVERLAY, 0, STATIC
        LOCFRAME DOVERLAY, 0, STATIC
        ARGFRAME ISTACK, 0, STACK
        ARGFRAME PSTACK, 0, STACK
        ARGFRAME XSTACK, 16, STACK
        ARGFRAME IOVERLAY, 0, STATIC
        ARGFRAME DOVERLAY, 0, STATIC
        FUNCALL SampleApp_ProcessEvent, USER_APP_JOIN_MSG
        LOCFRAME ISTACK, 0, STACK
        LOCFRAME PSTACK, 0, STACK
        LOCFRAME XSTACK, 16, STACK
        LOCFRAME IOVERLAY, 0, STATIC
        LOCFRAME DOVERLAY, 0, STATIC
        ARGFRAME ISTACK, 0, STACK
        ARGFRAME PSTACK, 0, STACK
        ARGFRAME XSTACK, 16, STACK
        ARGFRAME IOVERLAY, 0, STATIC
        ARGFRAME DOVERLAY, 0, STATIC
        FUNCALL SampleApp_ProcessEvent, osal_msg_deallocate
        LOCFRAME ISTACK, 0, STACK
        LOCFRAME PSTACK, 0, STACK
        LOCFRAME XSTACK, 16, STACK
        LOCFRAME IOVERLAY, 0, STATIC
        LOCFRAME DOVERLAY, 0, STATIC
        ARGFRAME ISTACK, 0, STACK
        ARGFRAME PSTACK, 0, STACK
        ARGFRAME XSTACK, 16, STACK
        ARGFRAME IOVERLAY, 0, STATIC
        ARGFRAME DOVERLAY, 0, STATIC
        FUNCALL SampleApp_ProcessEvent, osal_msg_receive
        LOCFRAME ISTACK, 0, STACK
        LOCFRAME PSTACK, 0, STACK
        LOCFRAME XSTACK, 16, STACK
        LOCFRAME IOVERLAY, 0, STATIC
        LOCFRAME DOVERLAY, 0, STATIC
        ARGFRAME ISTACK, 0, STACK
        ARGFRAME PSTACK, 0, STACK
        ARGFRAME XSTACK, 16, STACK
        ARGFRAME IOVERLAY, 0, STATIC
        ARGFRAME DOVERLAY, 0, STATIC
        FUNCALL SampleApp_ProcessEvent, USER_MAYBE_BUTTERY_MSG
        LOCFRAME ISTACK, 0, STACK
        LOCFRAME PSTACK, 0, STACK
        LOCFRAME XSTACK, 16, STACK
        LOCFRAME IOVERLAY, 0, STATIC
        LOCFRAME DOVERLAY, 0, STATIC
        ARGFRAME ISTACK, 0, STACK
        ARGFRAME PSTACK, 0, STACK
        ARGFRAME XSTACK, 16, STACK
        ARGFRAME IOVERLAY, 0, STATIC
        ARGFRAME DOVERLAY, 0, STATIC
        FUNCALL SampleApp_ProcessEvent, SampleApp_SendPeriodicMessage
        LOCFRAME ISTACK, 0, STACK
        LOCFRAME PSTACK, 0, STACK
        LOCFRAME XSTACK, 16, STACK
        LOCFRAME IOVERLAY, 0, STATIC
        LOCFRAME DOVERLAY, 0, STATIC
        ARGFRAME ISTACK, 0, STACK
        ARGFRAME PSTACK, 0, STACK
        ARGFRAME XSTACK, 16, STACK
        ARGFRAME IOVERLAY, 0, STATIC
        ARGFRAME DOVERLAY, 0, STATIC
        FUNCALL SampleApp_ProcessEvent, osal_rand
        LOCFRAME ISTACK, 0, STACK
        LOCFRAME PSTACK, 0, STACK
        LOCFRAME XSTACK, 16, STACK
        LOCFRAME IOVERLAY, 0, STATIC
        LOCFRAME DOVERLAY, 0, STATIC
        ARGFRAME ISTACK, 0, STACK
        ARGFRAME PSTACK, 0, STACK
        ARGFRAME XSTACK, 16, STACK
        ARGFRAME IOVERLAY, 0, STATIC
        ARGFRAME DOVERLAY, 0, STATIC
        FUNCALL SampleApp_ProcessEvent, osal_start_timerEx
        LOCFRAME ISTACK, 0, STACK
        LOCFRAME PSTACK, 0, STACK
        LOCFRAME XSTACK, 16, STACK
        LOCFRAME IOVERLAY, 0, STATIC
        LOCFRAME DOVERLAY, 0, STATIC
        ARGFRAME ISTACK, 0, STACK
        ARGFRAME PSTACK, 0, STACK
        ARGFRAME XSTACK, 16, STACK
        ARGFRAME IOVERLAY, 0, STATIC
        ARGFRAME DOVERLAY, 0, STATIC
        FUNCALL SampleApp_ProcessEvent, SampleApp_SendNwkaddrMessage
        LOCFRAME ISTACK, 0, STACK
        LOCFRAME PSTACK, 0, STACK
        LOCFRAME XSTACK, 16, STACK
        LOCFRAME IOVERLAY, 0, STATIC
        LOCFRAME DOVERLAY, 0, STATIC
        ARGFRAME ISTACK, 0, STACK
        ARGFRAME PSTACK, 0, STACK
        ARGFRAME XSTACK, 16, STACK
        ARGFRAME IOVERLAY, 0, STATIC
        ARGFRAME DOVERLAY, 0, STATIC
        FUNCALL SampleApp_ProcessEvent, osal_start_timerEx
        LOCFRAME ISTACK, 0, STACK
        LOCFRAME PSTACK, 0, STACK
        LOCFRAME XSTACK, 16, STACK
        LOCFRAME IOVERLAY, 0, STATIC
        LOCFRAME DOVERLAY, 0, STATIC
        ARGFRAME ISTACK, 0, STACK
        ARGFRAME PSTACK, 0, STACK
        ARGFRAME XSTACK, 16, STACK
        ARGFRAME IOVERLAY, 0, STATIC
        ARGFRAME DOVERLAY, 0, STATIC
        FUNCALL SampleApp_ProcessEvent, USER_SET_NOMAL_POLL_TIME
        LOCFRAME ISTACK, 0, STACK
        LOCFRAME PSTACK, 0, STACK
        LOCFRAME XSTACK, 16, STACK
        LOCFRAME IOVERLAY, 0, STATIC
        LOCFRAME DOVERLAY, 0, STATIC
        ARGFRAME ISTACK, 0, STACK
        ARGFRAME PSTACK, 0, STACK
        ARGFRAME XSTACK, 16, STACK
        ARGFRAME IOVERLAY, 0, STATIC
        ARGFRAME DOVERLAY, 0, STATIC
        FUNCALL SampleApp_ProcessEvent, APP_OS_DEAL_WITH
        LOCFRAME ISTACK, 0, STACK
        LOCFRAME PSTACK, 0, STACK
        LOCFRAME XSTACK, 16, STACK
        LOCFRAME IOVERLAY, 0, STATIC
        LOCFRAME DOVERLAY, 0, STATIC
        ARGFRAME ISTACK, 0, STACK
        ARGFRAME PSTACK, 0, STACK
        ARGFRAME XSTACK, 16, STACK
        ARGFRAME IOVERLAY, 0, STATIC
        ARGFRAME DOVERLAY, 0, STATIC
        FUNCALL SampleApp_ProcessEvent, USER_SET_RS_MSG
        LOCFRAME ISTACK, 0, STACK
        LOCFRAME PSTACK, 0, STACK
        LOCFRAME XSTACK, 16, STACK
        LOCFRAME IOVERLAY, 0, STATIC
        LOCFRAME DOVERLAY, 0, STATIC
        ARGFRAME ISTACK, 0, STACK
        ARGFRAME PSTACK, 0, STACK
        ARGFRAME XSTACK, 16, STACK
        ARGFRAME IOVERLAY, 0, STATIC
        ARGFRAME DOVERLAY, 0, STATIC
        FUNCALL SampleApp_ProcessEvent, sampleAPP_sendRS_periodMessage
        LOCFRAME ISTACK, 0, STACK
        LOCFRAME PSTACK, 0, STACK
        LOCFRAME XSTACK, 16, STACK
        LOCFRAME IOVERLAY, 0, STATIC
        LOCFRAME DOVERLAY, 0, STATIC
        ARGFRAME ISTACK, 0, STACK
        ARGFRAME PSTACK, 0, STACK
        ARGFRAME XSTACK, 16, STACK
        ARGFRAME IOVERLAY, 0, STATIC
        ARGFRAME DOVERLAY, 0, STATIC
        FUNCALL SampleApp_ProcessEvent, APP_JOIN_START_EVT
        LOCFRAME ISTACK, 0, STACK
        LOCFRAME PSTACK, 0, STACK
        LOCFRAME XSTACK, 16, STACK
        LOCFRAME IOVERLAY, 0, STATIC
        LOCFRAME DOVERLAY, 0, STATIC
        ARGFRAME ISTACK, 0, STACK
        ARGFRAME PSTACK, 0, STACK
        ARGFRAME XSTACK, 16, STACK
        ARGFRAME IOVERLAY, 0, STATIC
        ARGFRAME DOVERLAY, 0, STATIC
        FUNCALL SampleApp_ProcessEvent, Change_Net_Set
        LOCFRAME ISTACK, 0, STACK
        LOCFRAME PSTACK, 0, STACK
        LOCFRAME XSTACK, 16, STACK
        LOCFRAME IOVERLAY, 0, STATIC
        LOCFRAME DOVERLAY, 0, STATIC
        ARGFRAME ISTACK, 0, STACK
        ARGFRAME PSTACK, 0, STACK
        ARGFRAME XSTACK, 16, STACK
        ARGFRAME IOVERLAY, 0, STATIC
        ARGFRAME DOVERLAY, 0, STATIC
        MOV     A,#-0x10
        LCALL   ?BANKED_ENTER_XDATA
        CFI DPH0 load(1, XDATA, add(CFA_XSP16, literal(-1)))
        CFI DPL0 load(1, XDATA, add(CFA_XSP16, literal(-2)))
        CFI ?BRET_EXT load(1, XDATA, add(CFA_XSP16, literal(-3)))
        CFI ?RET_HIGH load(1, XDATA, add(CFA_XSP16, literal(-4)))
        CFI ?RET_LOW load(1, XDATA, add(CFA_XSP16, literal(-5)))
        CFI R7 load(1, XDATA, add(CFA_XSP16, literal(-6)))
        CFI V7 load(1, XDATA, add(CFA_XSP16, literal(-7)))
        CFI V6 load(1, XDATA, add(CFA_XSP16, literal(-8)))
        CFI V5 load(1, XDATA, add(CFA_XSP16, literal(-9)))
        CFI V4 load(1, XDATA, add(CFA_XSP16, literal(-10)))
        CFI V3 load(1, XDATA, add(CFA_XSP16, literal(-11)))
        CFI V2 load(1, XDATA, add(CFA_XSP16, literal(-12)))
        CFI V1 load(1, XDATA, add(CFA_XSP16, literal(-13)))
        CFI V0 load(1, XDATA, add(CFA_XSP16, literal(-14)))
        CFI VB load(1, XDATA, add(CFA_XSP16, literal(-15)))
        CFI R6 load(1, XDATA, add(CFA_XSP16, literal(-16)))
        CFI CFA_SP SP+0
        CFI CFA_XSP16 add(XSP16, 16)
        ; Saved register size: 16
        ; Auto size: 0
        MOV     ?V0 + 3,R1
        MOV     A,R2
        MOV     R6,A
        MOV     A,R3
        MOV     R7,A
//  248   afIncomingMSGPacket_t *MSGpkt;
//  249  
//  250   
//  251     afDataConfirm_t *afDataConfirm;
//  252    uint8 sentStatus;
//  253   
//  254   if ( events & SYS_EVENT_MSG )
        MOV     A,R6
        ANL     A,#0x0
        MOV     R0,A
        MOV     A,R7
        ANL     A,#0x80
        MOV     R1,A
        MOV     A,R0
        ORL     A,R1
        JNZ     $+5
        LJMP    ??SampleApp_ProcessEvent_0 & 0xFFFF
//  255   {
//  256     MSGpkt = (afIncomingMSGPacket_t *)osal_msg_receive( SampleApp_TaskID );
        ; Setup parameters for call to function osal_msg_receive
        MOV     DPTR,#SampleApp_TaskID
        MOVX    A,@DPTR
        MOV     R1,A
        LCALL   ??osal_msg_receive?relay
        MOV     ?V0 + 6,R2
        MOV     ?V0 + 7,R3
        MOV     ?V0 + 0,?V0 + 6
        MOV     ?V0 + 1,?V0 + 7
//  257     while ( MSGpkt )                                           
??SampleApp_ProcessEvent_1:
        MOV     A,?V0 + 0
        ORL     A,?V0 + 1
        JZ      ??SampleApp_ProcessEvent_2
//  258     {                                                                     
//  259       switch ( MSGpkt->hdr.event )
        MOV     DPL,?V0 + 0
        MOV     DPH,?V0 + 1
        MOVX    A,@DPTR
        ADD     A,#-0x1a
        JZ      ??SampleApp_ProcessEvent_3
        ADD     A,#0x49
        JZ      ??SampleApp_ProcessEvent_4
        ADD     A,#-0x2c
        JZ      ??SampleApp_ProcessEvent_5
        SJMP    ??SampleApp_ProcessEvent_6
//  260       {
//  261         case AF_INCOMING_MSG_CMD:
//  262           SampleApp_MessageMSGCB( MSGpkt );
??SampleApp_ProcessEvent_3:
        ; Setup parameters for call to function SampleApp_MessageMSGCB
        MOV     R2,?V0 + 0
        MOV     R3,?V0 + 1
        LCALL   ??SampleApp_MessageMSGCB?relay
//  263           break;
        SJMP    ??SampleApp_ProcessEvent_6
//  264 
//  265           
//  266           case AF_DATA_CONFIRM_CMD:
//  267           afDataConfirm = (afDataConfirm_t *)MSGpkt;
??SampleApp_ProcessEvent_5:
        MOV     ?V0 + 4,?V0 + 0
        MOV     ?V0 + 5,?V0 + 1
//  268           sentStatus = afDataConfirm->hdr.status;
        MOV     DPL,?V0 + 4
        MOV     DPH,?V0 + 5
        INC     DPTR
        MOVX    A,@DPTR
        MOV     ?V0 + 2,A
//  269           if ( sentStatus != ZSuccess )
        MOV     A,?V0 + 2
        JZ      ??SampleApp_ProcessEvent_6
//  270           {
//  271               ZDO_ACK_DEAL_WITH(); 
        ; Setup parameters for call to function ZDO_ACK_DEAL_WITH
        LCALL   ??ZDO_ACK_DEAL_WITH?relay
//  272           }
//  273           break; 
        SJMP    ??SampleApp_ProcessEvent_6
//  274           
//  275         case ZDO_STATE_CHANGE:  
//  276           SampleApp_NwkState = (devStates_t)(MSGpkt->hdr.status);
??SampleApp_ProcessEvent_4:
        MOV     DPL,?V0 + 0
        MOV     DPH,?V0 + 1
        INC     DPTR
        MOVX    A,@DPTR
        MOV     DPTR,#SampleApp_NwkState
        MOVX    @DPTR,A
//  277           if ( (SampleApp_NwkState == DEV_ZB_COORD)
//  278               || (SampleApp_NwkState == DEV_ROUTER)
//  279               || (SampleApp_NwkState == DEV_END_DEVICE) )
        MOV     DPTR,#SampleApp_NwkState
        MOVX    A,@DPTR
        XRL     A,#0x9
        JZ      ??SampleApp_ProcessEvent_7
        MOV     DPTR,#SampleApp_NwkState
        MOVX    A,@DPTR
        XRL     A,#0x7
        JZ      ??SampleApp_ProcessEvent_7
        MOV     DPTR,#SampleApp_NwkState
        MOVX    A,@DPTR
        XRL     A,#0x6
        JNZ     ??SampleApp_ProcessEvent_6
//  280           {
//  281            APP_JOIN_DEAL_WITH();
??SampleApp_ProcessEvent_7:
        ; Setup parameters for call to function APP_JOIN_DEAL_WITH
        LCALL   ??APP_JOIN_DEAL_WITH?relay
//  282            USER_APP_JOIN_MSG(); // 处理入网后应用的内容 
        ; Setup parameters for call to function USER_APP_JOIN_MSG
        LCALL   ??USER_APP_JOIN_MSG?relay
//  283           }
//  284           else
//  285           {
//  286    
//  287           }
//  288           break;
//  289 
//  290         default:
//  291           break;
//  292       }
//  293 
//  294       // Release the memory
//  295 
//  296       osal_msg_deallocate( (uint8 *)MSGpkt );
??SampleApp_ProcessEvent_6:
        ; Setup parameters for call to function osal_msg_deallocate
        MOV     R2,?V0 + 0
        MOV     R3,?V0 + 1
        LCALL   ??osal_msg_deallocate?relay
        MOV     A,R1
//  297 
//  298       // Next - if one is available
//  299       MSGpkt = (afIncomingMSGPacket_t *)osal_msg_receive( SampleApp_TaskID );
        ; Setup parameters for call to function osal_msg_receive
        MOV     DPTR,#SampleApp_TaskID
        MOVX    A,@DPTR
        MOV     R1,A
        LCALL   ??osal_msg_receive?relay
        MOV     ?V0 + 6,R2
        MOV     ?V0 + 7,R3
        MOV     ?V0 + 0,?V0 + 6
        MOV     ?V0 + 1,?V0 + 7
        LJMP    ??SampleApp_ProcessEvent_1 & 0xFFFF
//  300     }//end： while ( MSGpkt )
//  301 
//  302     return (events ^ SYS_EVENT_MSG);
??SampleApp_ProcessEvent_2:
        MOV     A,R6
        XRL     A,#0x0
        MOV     R2,A
        MOV     A,R7
        XRL     A,#0x80
        MOV     R3,A
        LJMP    ??SampleApp_ProcessEvent_8 & 0xFFFF
//  303   }
//  304   
//  305   if ( events & SAMPLEAPP_SEND_PERIODIC_MSG_EVT )//发送周期消息事件
??SampleApp_ProcessEvent_0:
        MOV     A,R6
        MOV     C,0xE0 /* A   */.0
        JNC     ??SampleApp_ProcessEvent_9
//  306   {
//  307       USER_MAYBE_BUTTERY_MSG();
        ; Setup parameters for call to function USER_MAYBE_BUTTERY_MSG
        LCALL   ??USER_MAYBE_BUTTERY_MSG?relay
//  308       SampleApp_SendPeriodicMessage();
        ; Setup parameters for call to function SampleApp_SendPeriodicMessage
        LCALL   ??SampleApp_SendPeriodicMessage?relay
//  309 
//  310       osal_start_timerEx( SampleApp_TaskID, SAMPLEAPP_SEND_PERIODIC_MSG_EVT,
//  311                               (55000+ 30*(osal_rand() & 0x00FF)) );
        ; Setup parameters for call to function osal_rand
        LCALL   ??osal_rand?relay
        MOV     ?V0 + 6,R2
        MOV     ?V0 + 7,R3
        MOV     R0,?V0 + 6
        MOV     R1,?V0 + 7
        ; Setup parameters for call to function osal_start_timerEx
        MOV     A,?V0 + 6
        ANL     A,#0xff
        MOV     R0,A
        MOV     A,?V0 + 7
        ANL     A,#0x0
        MOV     R1,A
        MOV     A,R0
        MOV     B,#0x1e
        MUL     AB
        XCH     A,R0
        MOV     R2,B
        MOV     B,#0x0
        MUL     AB
        ADD     A,R2
        MOV     R2,A
        MOV     B,#0x1e
        MOV     A,R1
        MUL     AB
        ADD     A,R2
        MOV     R1,A
        MOV     A,R0
        ADD     A,#-0x28
        MOV     R4,A
        MOV     A,R1
        ADDC    A,#-0x2a
        MOV     R5,A
        MOV     R2,#0x1
        MOV     R3,#0x0
        MOV     DPTR,#SampleApp_TaskID
        MOVX    A,@DPTR
        MOV     R1,A
        LCALL   ??osal_start_timerEx?relay
        MOV     A,R1
//  312    
//  313     return (events ^ SAMPLEAPP_SEND_PERIODIC_MSG_EVT);
        MOV     A,R6
        XRL     A,#0x1
        MOV     R2,A
        MOV     A,R7
        XRL     A,#0x0
        MOV     R3,A
        LJMP    ??SampleApp_ProcessEvent_8 & 0xFFFF
//  314   }
//  315   
//  316   if ( events & SAMPLEAPP_SEND_NWKADDR_EVT )
??SampleApp_ProcessEvent_9:
        MOV     A,R6
        ANL     A,#0x4
        JZ      ??SampleApp_ProcessEvent_10
//  317   {
//  318      SampleApp_SendNwkaddrMessage(JOIN_ROLE,DEVICE_ID);//OS
        ; Setup parameters for call to function SampleApp_SendNwkaddrMessage
        MOV     DPTR,#DEVICE_ID
        MOVX    A,@DPTR
        MOV     R2,A
        MOV     DPTR,#JOIN_ROLE
        MOVX    A,@DPTR
        MOV     R1,A
        LCALL   ??SampleApp_SendNwkaddrMessage?relay
//  319      osal_start_timerEx( SampleApp_TaskID, OS_TEST_EVT,20000); 
        ; Setup parameters for call to function osal_start_timerEx
        MOV     R4,#0x20
        MOV     R5,#0x4e
        MOV     R2,#0x8
        MOV     R3,#0x0
        MOV     DPTR,#SampleApp_TaskID
        MOVX    A,@DPTR
        MOV     R1,A
        LCALL   ??osal_start_timerEx?relay
        MOV     A,R1
//  320 
//  321     return ( events ^ SAMPLEAPP_SEND_NWKADDR_EVT);
        MOV     A,R6
        XRL     A,#0x4
        MOV     R2,A
        MOV     A,R7
        XRL     A,#0x0
        MOV     R3,A
        SJMP    ??SampleApp_ProcessEvent_8
//  322   }
//  323   
//  324    if ( events & OS_TEST_EVT )
??SampleApp_ProcessEvent_10:
        MOV     A,R6
        ANL     A,#0x8
        JZ      ??SampleApp_ProcessEvent_11
//  325   {
//  326       USER_SET_NOMAL_POLL_TIME();  
        ; Setup parameters for call to function USER_SET_NOMAL_POLL_TIME
        LCALL   ??USER_SET_NOMAL_POLL_TIME?relay
//  327       APP_OS_DEAL_WITH(NORMAL_POLL_TIME); 
        ; Setup parameters for call to function APP_OS_DEAL_WITH
        MOV     DPTR,#NORMAL_POLL_TIME
        MOVX    A,@DPTR
        MOV     R2,A
        INC     DPTR
        MOVX    A,@DPTR
        MOV     R3,A
        LCALL   ??APP_OS_DEAL_WITH?relay
//  328       return ( events ^ OS_TEST_EVT);
        MOV     A,R6
        XRL     A,#0x8
        MOV     R2,A
        MOV     A,R7
        XRL     A,#0x0
        MOV     R3,A
        SJMP    ??SampleApp_ProcessEvent_8
//  329   }
//  330      
//  331   
//  332 
//  333     if ( events & SAMPLEAPP_SEND_RS_EVT )
??SampleApp_ProcessEvent_11:
        MOV     A,R6
        ANL     A,#0x0
        MOV     R0,A
        MOV     A,R7
        ANL     A,#0x40
        MOV     R1,A
        MOV     A,R0
        ORL     A,R1
        JZ      ??SampleApp_ProcessEvent_12
//  334   {
//  335 
//  336     USER_SET_RS_MSG();//设置RS数据
        ; Setup parameters for call to function USER_SET_RS_MSG
        LCALL   ??USER_SET_RS_MSG?relay
//  337     sampleAPP_sendRS_periodMessage(JOIN_ROLE,DEVICE_ID,RS_LEN,RS_STR);
        ; Setup parameters for call to function sampleAPP_sendRS_periodMessage
        MOV     R4,#RS_STR & 0xff
        MOV     R5,#(RS_STR >> 8) & 0xff
        MOV     DPTR,#RS_LEN
        MOVX    A,@DPTR
        MOV     R3,A
        MOV     DPTR,#DEVICE_ID
        MOVX    A,@DPTR
        MOV     R2,A
        MOV     DPTR,#JOIN_ROLE
        MOVX    A,@DPTR
        MOV     R1,A
        LCALL   ??sampleAPP_sendRS_periodMessage?relay
//  338     return ( events ^ SAMPLEAPP_SEND_RS_EVT);
        MOV     A,R6
        XRL     A,#0x0
        MOV     R2,A
        MOV     A,R7
        XRL     A,#0x40
        MOV     R3,A
        SJMP    ??SampleApp_ProcessEvent_8
//  339   }
//  340   
//  341    
//  342   
//  343       if ( events & NEW_JOIN_ROLE_EVT )
??SampleApp_ProcessEvent_12:
        MOV     A,R6
        ANL     A,#0x20
        JZ      ??SampleApp_ProcessEvent_13
//  344   {
//  345        APP_JOIN_START_EVT();
        ; Setup parameters for call to function APP_JOIN_START_EVT
        LCALL   ??APP_JOIN_START_EVT?relay
//  346      return ( events ^ NEW_JOIN_ROLE_EVT);
        MOV     A,R6
        XRL     A,#0x20
        MOV     R2,A
        MOV     A,R7
        XRL     A,#0x0
        MOV     R3,A
        SJMP    ??SampleApp_ProcessEvent_8
//  347     
//  348   }
//  349   
//  350 
//  351 if ( events & SAMPLEAPP_RESTORE_EVT )
??SampleApp_ProcessEvent_13:
        MOV     A,R6
        ANL     A,#0x10
        JZ      ??SampleApp_ProcessEvent_14
//  352   {
//  353       Change_Net_Set();
        ; Setup parameters for call to function Change_Net_Set
        LCALL   ??Change_Net_Set?relay
//  354     
//  355     return ( events ^ SAMPLEAPP_RESTORE_EVT);
        MOV     A,R6
        XRL     A,#0x10
        MOV     R2,A
        MOV     A,R7
        XRL     A,#0x0
        MOV     R3,A
        SJMP    ??SampleApp_ProcessEvent_8
//  356   }
//  357   
//  358  
//  359   return 0;
??SampleApp_ProcessEvent_14:
        MOV     R2,#0x0
        MOV     R3,#0x0
??SampleApp_ProcessEvent_8:
        MOV     R7,#0x8
        LJMP    ?BANKED_LEAVE_XDATA
        CFI EndBlock cfiBlock1
//  360 }
//  361 
//  362 
//  363 
//  364 
//  365 
//  366 
//  367 /*********************************************************************
//  368  * LOCAL FUNCTIONS
//  369  */
//  370 
//  371 /*********************************************************************
//  372  * @fn      SampleApp_MessageMSGCB
//  373  *
//  374  * @brief   Data message processor callback.  This function processes
//  375  *          any incoming data - probably from other devices.  So, based
//  376  *          on cluster ID, perform the intended action.
//  377  *
//  378  * @param   none
//  379  *
//  380  * @return  none
//  381  */
//  382 

        RSEG BANKED_CODE:CODE:NOROOT(0)
//  383 void SampleApp_MessageMSGCB( afIncomingMSGPacket_t *pkt )
SampleApp_MessageMSGCB:
        CFI Block cfiBlock2 Using cfiCommon0
        CFI Function SampleApp_MessageMSGCB
        CODE
//  384 {
        FUNCALL SampleApp_MessageMSGCB, SampleApp_ProcessCommandMessage
        LOCFRAME ISTACK, 0, STACK
        LOCFRAME PSTACK, 0, STACK
        LOCFRAME XSTACK, 10, STACK
        LOCFRAME IOVERLAY, 0, STATIC
        LOCFRAME DOVERLAY, 0, STATIC
        ARGFRAME ISTACK, 0, STACK
        ARGFRAME PSTACK, 0, STACK
        ARGFRAME XSTACK, 10, STACK
        ARGFRAME IOVERLAY, 0, STATIC
        ARGFRAME DOVERLAY, 0, STATIC
        FUNCALL SampleApp_MessageMSGCB, APP_ENDDEVICE_ACK
        LOCFRAME ISTACK, 0, STACK
        LOCFRAME PSTACK, 0, STACK
        LOCFRAME XSTACK, 10, STACK
        LOCFRAME IOVERLAY, 0, STATIC
        LOCFRAME DOVERLAY, 0, STATIC
        ARGFRAME ISTACK, 0, STACK
        ARGFRAME PSTACK, 0, STACK
        ARGFRAME XSTACK, 10, STACK
        ARGFRAME IOVERLAY, 0, STATIC
        ARGFRAME DOVERLAY, 0, STATIC
        MOV     A,#-0xa
        LCALL   ?BANKED_ENTER_XDATA
        CFI DPH0 load(1, XDATA, add(CFA_XSP16, literal(-1)))
        CFI DPL0 load(1, XDATA, add(CFA_XSP16, literal(-2)))
        CFI ?BRET_EXT load(1, XDATA, add(CFA_XSP16, literal(-3)))
        CFI ?RET_HIGH load(1, XDATA, add(CFA_XSP16, literal(-4)))
        CFI ?RET_LOW load(1, XDATA, add(CFA_XSP16, literal(-5)))
        CFI R7 load(1, XDATA, add(CFA_XSP16, literal(-6)))
        CFI V1 load(1, XDATA, add(CFA_XSP16, literal(-7)))
        CFI V0 load(1, XDATA, add(CFA_XSP16, literal(-8)))
        CFI VB load(1, XDATA, add(CFA_XSP16, literal(-9)))
        CFI R6 load(1, XDATA, add(CFA_XSP16, literal(-10)))
        CFI CFA_SP SP+0
        CFI CFA_XSP16 add(XSP16, 10)
        ; Saved register size: 10
        ; Auto size: 0
        MOV     A,R2
        MOV     R6,A
        MOV     A,R3
        MOV     R7,A
//  385   //uint16 flashTime;
//  386   switch ( pkt->clusterId )
        MOV     DPL,R6
        MOV     DPH,R7
        INC     DPTR
        INC     DPTR
        INC     DPTR
        INC     DPTR
        MOVX    A,@DPTR
        MOV     ?V0 + 0,A
        INC     DPTR
        MOVX    A,@DPTR
        MOV     ?V0 + 1,A
        MOV     R0,#?V0 + 0
        LCALL   ?US_SWITCH_DENSE
`?<Jumptable for SampleApp_MessageMSGCB>_0`:
        DATA
        DATA16
        DATA
        DATA16
        DW        2
        DATA
        DATA8
        DATA
        DATA8
        DB        2
        DATA
        DATA16
        DATA
        DATA16
        DW        ??SampleApp_MessageMSGCB_0
        DATA
        DATA16
        DATA
        DATA16
        DW        ??SampleApp_MessageMSGCB_1
        DATA
        DATA16
        DATA
        DATA16
        DW        ??SampleApp_MessageMSGCB_0
        DATA
        DATA16
        DATA
        DATA16
        DW        ??SampleApp_MessageMSGCB_2
        CODE
//  387   {
//  388  
//  389     case SAMPLEAPP_COMMAND_CLUSTERID:
//  390 
//  391        #if defined (CR2_DATA_NODETECT)
//  392      // if(DEEP_POLL_FLAG==0)//非深度POLL的时候取消报警 2014 11 29 所有时刻接受命令都禁止中断一下
//  393       { 
//  394        CR2_DATA_NODETECT_MSG();
//  395       }     
//  396      #endif
//  397       
//  398       SampleApp_ProcessCommandMessage(pkt);
??SampleApp_MessageMSGCB_2:
        ; Setup parameters for call to function SampleApp_ProcessCommandMessage
        MOV     A,R6
        MOV     R2,A
        MOV     A,R7
        MOV     R3,A
        LCALL   ??SampleApp_ProcessCommandMessage?relay
//  399       break;  
        SJMP    ??SampleApp_MessageMSGCB_0
//  400       
//  401       
//  402       case SAMPLEAPP_FLASH_CLUSTERID:
//  403 
//  404        OS_FLAG=APP_ENDDEVICE_ACK(pkt->cmd.Data[0],pkt->cmd.Data[1],pkt->cmd.Data[2]);
??SampleApp_MessageMSGCB_1:
        ; Setup parameters for call to function APP_ENDDEVICE_ACK
        MOV     A,R6
        ADD     A,#0x22
        MOV     DPL,A
        MOV     A,R7
        ADDC    A,#0x0
        MOV     DPH,A
        MOVX    A,@DPTR
        MOV     R0,A
        INC     DPTR
        MOVX    A,@DPTR
        MOV     DPH,A
        MOV     DPL,R0
        INC     DPTR
        INC     DPTR
        MOVX    A,@DPTR
        MOV     R3,A
        MOV     A,R6
        ADD     A,#0x22
        MOV     DPL,A
        MOV     A,R7
        ADDC    A,#0x0
        MOV     DPH,A
        MOVX    A,@DPTR
        MOV     R0,A
        INC     DPTR
        MOVX    A,@DPTR
        MOV     DPH,A
        MOV     DPL,R0
        INC     DPTR
        MOVX    A,@DPTR
        MOV     R2,A
        MOV     A,R6
        ADD     A,#0x22
        MOV     DPL,A
        MOV     A,R7
        ADDC    A,#0x0
        MOV     DPH,A
        MOVX    A,@DPTR
        MOV     R0,A
        INC     DPTR
        MOVX    A,@DPTR
        MOV     DPH,A
        MOV     DPL,R0
        MOVX    A,@DPTR
        MOV     R1,A
        LCALL   ??APP_ENDDEVICE_ACK?relay
        MOV     A,R1
        MOV     DPTR,#OS_FLAG
        MOVX    @DPTR,A
//  405       
//  406    break; 
//  407       
//  408     
//  409   default:break;
//  410     
//  411   }
//  412 }
??SampleApp_MessageMSGCB_0:
        MOV     R7,#0x2
        LJMP    ?BANKED_LEAVE_XDATA
        CFI EndBlock cfiBlock2
//  413 
//  414 
//  415 
//  416 
//  417 
//  418 /*********************************************************************
//  419  * @fn      SampleApp_ProcessCommandMessage
//  420  *
//  421  * @brief   Prcoess the (single) message command from the coordinataor.
//  422  *
//  423  * @param   pkt
//  424  *
//  425  * @return  none
//  426  */
//  427 /*0 1 2 3 4 5 6  7  8    9 10  11  12   13   14 ...*/
//  428 /*_ _ _ / C / U  U  D   A    T    A ...*/
//  429 

        RSEG BANKED_CODE:CODE:NOROOT(0)
//  430 void SampleApp_ProcessCommandMessage(afIncomingMSGPacket_t *pkt)
SampleApp_ProcessCommandMessage:
        CFI Block cfiBlock3 Using cfiCommon0
        CFI Function SampleApp_ProcessCommandMessage
        CODE
//  431 {
        FUNCALL SampleApp_ProcessCommandMessage, APP_NORMAL_COMMAND
        LOCFRAME ISTACK, 0, STACK
        LOCFRAME PSTACK, 0, STACK
        LOCFRAME XSTACK, 55, STACK
        LOCFRAME IOVERLAY, 0, STATIC
        LOCFRAME DOVERLAY, 0, STATIC
        ARGFRAME ISTACK, 0, STACK
        ARGFRAME PSTACK, 0, STACK
        ARGFRAME XSTACK, 55, STACK
        ARGFRAME IOVERLAY, 0, STATIC
        ARGFRAME DOVERLAY, 0, STATIC
        FUNCALL SampleApp_ProcessCommandMessage, USER_APP_COMMAND
        LOCFRAME ISTACK, 0, STACK
        LOCFRAME PSTACK, 0, STACK
        LOCFRAME XSTACK, 55, STACK
        LOCFRAME IOVERLAY, 0, STATIC
        LOCFRAME DOVERLAY, 0, STATIC
        ARGFRAME ISTACK, 0, STACK
        ARGFRAME PSTACK, 0, STACK
        ARGFRAME XSTACK, 55, STACK
        ARGFRAME IOVERLAY, 0, STATIC
        ARGFRAME DOVERLAY, 0, STATIC
        FUNCALL SampleApp_ProcessCommandMessage, AF_DataRequest
        LOCFRAME ISTACK, 0, STACK
        LOCFRAME PSTACK, 0, STACK
        LOCFRAME XSTACK, 64, STACK
        LOCFRAME IOVERLAY, 0, STATIC
        LOCFRAME DOVERLAY, 0, STATIC
        ARGFRAME ISTACK, 0, STACK
        ARGFRAME PSTACK, 0, STACK
        ARGFRAME XSTACK, 64, STACK
        ARGFRAME IOVERLAY, 0, STATIC
        ARGFRAME DOVERLAY, 0, STATIC
        FUNCALL SampleApp_ProcessCommandMessage, HalLedBlink
        LOCFRAME ISTACK, 0, STACK
        LOCFRAME PSTACK, 0, STACK
        LOCFRAME XSTACK, 55, STACK
        LOCFRAME IOVERLAY, 0, STATIC
        LOCFRAME DOVERLAY, 0, STATIC
        ARGFRAME ISTACK, 0, STACK
        ARGFRAME PSTACK, 0, STACK
        ARGFRAME XSTACK, 55, STACK
        ARGFRAME IOVERLAY, 0, STATIC
        ARGFRAME DOVERLAY, 0, STATIC
        FUNCALL SampleApp_ProcessCommandMessage, HalLedBlink
        LOCFRAME ISTACK, 0, STACK
        LOCFRAME PSTACK, 0, STACK
        LOCFRAME XSTACK, 55, STACK
        LOCFRAME IOVERLAY, 0, STATIC
        LOCFRAME DOVERLAY, 0, STATIC
        ARGFRAME ISTACK, 0, STACK
        ARGFRAME PSTACK, 0, STACK
        ARGFRAME XSTACK, 55, STACK
        ARGFRAME IOVERLAY, 0, STATIC
        ARGFRAME DOVERLAY, 0, STATIC
        FUNCALL SampleApp_ProcessCommandMessage, osal_nv_write
        LOCFRAME ISTACK, 0, STACK
        LOCFRAME PSTACK, 0, STACK
        LOCFRAME XSTACK, 59, STACK
        LOCFRAME IOVERLAY, 0, STATIC
        LOCFRAME DOVERLAY, 0, STATIC
        ARGFRAME ISTACK, 0, STACK
        ARGFRAME PSTACK, 0, STACK
        ARGFRAME XSTACK, 59, STACK
        ARGFRAME IOVERLAY, 0, STATIC
        ARGFRAME DOVERLAY, 0, STATIC
        FUNCALL SampleApp_ProcessCommandMessage, NLME_SetPollRate
        LOCFRAME ISTACK, 0, STACK
        LOCFRAME PSTACK, 0, STACK
        LOCFRAME XSTACK, 55, STACK
        LOCFRAME IOVERLAY, 0, STATIC
        LOCFRAME DOVERLAY, 0, STATIC
        ARGFRAME ISTACK, 0, STACK
        ARGFRAME PSTACK, 0, STACK
        ARGFRAME XSTACK, 55, STACK
        ARGFRAME IOVERLAY, 0, STATIC
        ARGFRAME DOVERLAY, 0, STATIC
        FUNCALL SampleApp_ProcessCommandMessage, osal_mem_alloc
        LOCFRAME ISTACK, 0, STACK
        LOCFRAME PSTACK, 0, STACK
        LOCFRAME XSTACK, 55, STACK
        LOCFRAME IOVERLAY, 0, STATIC
        LOCFRAME DOVERLAY, 0, STATIC
        ARGFRAME ISTACK, 0, STACK
        ARGFRAME PSTACK, 0, STACK
        ARGFRAME XSTACK, 55, STACK
        ARGFRAME IOVERLAY, 0, STATIC
        ARGFRAME DOVERLAY, 0, STATIC
        FUNCALL SampleApp_ProcessCommandMessage, AF_DataRequest
        LOCFRAME ISTACK, 0, STACK
        LOCFRAME PSTACK, 0, STACK
        LOCFRAME XSTACK, 64, STACK
        LOCFRAME IOVERLAY, 0, STATIC
        LOCFRAME DOVERLAY, 0, STATIC
        ARGFRAME ISTACK, 0, STACK
        ARGFRAME PSTACK, 0, STACK
        ARGFRAME XSTACK, 64, STACK
        ARGFRAME IOVERLAY, 0, STATIC
        ARGFRAME DOVERLAY, 0, STATIC
        FUNCALL SampleApp_ProcessCommandMessage, osal_mem_free
        LOCFRAME ISTACK, 0, STACK
        LOCFRAME PSTACK, 0, STACK
        LOCFRAME XSTACK, 55, STACK
        LOCFRAME IOVERLAY, 0, STATIC
        LOCFRAME DOVERLAY, 0, STATIC
        ARGFRAME ISTACK, 0, STACK
        ARGFRAME PSTACK, 0, STACK
        ARGFRAME XSTACK, 55, STACK
        ARGFRAME IOVERLAY, 0, STATIC
        ARGFRAME DOVERLAY, 0, STATIC
        FUNCALL SampleApp_ProcessCommandMessage, osal_mem_free
        LOCFRAME ISTACK, 0, STACK
        LOCFRAME PSTACK, 0, STACK
        LOCFRAME XSTACK, 55, STACK
        LOCFRAME IOVERLAY, 0, STATIC
        LOCFRAME DOVERLAY, 0, STATIC
        ARGFRAME ISTACK, 0, STACK
        ARGFRAME PSTACK, 0, STACK
        ARGFRAME XSTACK, 55, STACK
        ARGFRAME IOVERLAY, 0, STATIC
        ARGFRAME DOVERLAY, 0, STATIC
        FUNCALL SampleApp_ProcessCommandMessage, osal_start_timerEx
        LOCFRAME ISTACK, 0, STACK
        LOCFRAME PSTACK, 0, STACK
        LOCFRAME XSTACK, 55, STACK
        LOCFRAME IOVERLAY, 0, STATIC
        LOCFRAME DOVERLAY, 0, STATIC
        ARGFRAME ISTACK, 0, STACK
        ARGFRAME PSTACK, 0, STACK
        ARGFRAME XSTACK, 55, STACK
        ARGFRAME IOVERLAY, 0, STATIC
        ARGFRAME DOVERLAY, 0, STATIC
        MOV     A,#-0xe
        LCALL   ?BANKED_ENTER_XDATA
        CFI DPH0 load(1, XDATA, add(CFA_XSP16, literal(-1)))
        CFI DPL0 load(1, XDATA, add(CFA_XSP16, literal(-2)))
        CFI ?BRET_EXT load(1, XDATA, add(CFA_XSP16, literal(-3)))
        CFI ?RET_HIGH load(1, XDATA, add(CFA_XSP16, literal(-4)))
        CFI ?RET_LOW load(1, XDATA, add(CFA_XSP16, literal(-5)))
        CFI R7 load(1, XDATA, add(CFA_XSP16, literal(-6)))
        CFI V5 load(1, XDATA, add(CFA_XSP16, literal(-7)))
        CFI V4 load(1, XDATA, add(CFA_XSP16, literal(-8)))
        CFI V3 load(1, XDATA, add(CFA_XSP16, literal(-9)))
        CFI V2 load(1, XDATA, add(CFA_XSP16, literal(-10)))
        CFI V1 load(1, XDATA, add(CFA_XSP16, literal(-11)))
        CFI V0 load(1, XDATA, add(CFA_XSP16, literal(-12)))
        CFI VB load(1, XDATA, add(CFA_XSP16, literal(-13)))
        CFI R6 load(1, XDATA, add(CFA_XSP16, literal(-14)))
        CFI CFA_SP SP+0
        CFI CFA_XSP16 add(XSP16, 14)
        ; Saved register size: 14
        ; Auto size: 41
        MOV     A,#-0x29
        LCALL   ?ALLOC_XSTACK8
        CFI CFA_XSP16 add(XSP16, 55)
        MOV     A,R2
        MOV     R6,A
        MOV     A,R3
        MOV     R7,A
//  432    uint8 str[30];
//  433 
//  434 
//  435   uint8 active_count=0;
        MOV     ?V0 + 1,#0x0
//  436   uint8 SET_str[10];
//  437 
//  438   for(uint8 i=0;i<4;i++)
        MOV     R0,#0x0
??SampleApp_ProcessCommandMessage_0:
        MOV     A,R0
        CLR     C
        SUBB    A,#0x4
        JNC     ??SampleApp_ProcessCommandMessage_1
//  439   {
//  440    str[i] = SHORT_ADRESS[i];
        MOV     ?V0 + 2,R0
        MOV     ?V0 + 3,#0x0
        MOV     A,#SHORT_ADRESS & 0xff
        ADD     A,?V0 + 2
        MOV     DPL,A
        MOV     A,#(SHORT_ADRESS >> 8) & 0xff
        ADDC    A,?V0 + 3
        MOV     DPH,A
        MOVX    A,@DPTR
        PUSH    A
        CFI CFA_SP SP+-1
        MOV     ?V0 + 2,R0
        MOV     ?V0 + 3,#0x0
        MOV     A,#0xb
        LCALL   ?XSTACK_DISP0_8
        MOV     A,DPL
        ADD     A,?V0 + 2
        MOV     DPL,A
        MOV     A,DPH
        ADDC    A,?V0 + 3
        MOV     DPH,A
        POP     A
        CFI CFA_SP SP+0
        MOVX    @DPTR,A
//  441   }
        INC     R0
        SJMP    ??SampleApp_ProcessCommandMessage_0
//  442   str[4]='/';
??SampleApp_ProcessCommandMessage_1:
        MOV     A,#0xf
        LCALL   ?XSTACK_DISP0_8
        MOV     A,#0x2f
        MOVX    @DPTR,A
//  443   str[5]='C';
        MOV     A,#0x10
        LCALL   ?XSTACK_DISP0_8
        MOV     A,#0x43
        MOVX    @DPTR,A
//  444   str[6]='/';
        MOV     A,#0x11
        LCALL   ?XSTACK_DISP0_8
        MOV     A,#0x2f
        MOVX    @DPTR,A
//  445   
//  446 
//  447    str[7]=pkt->cmd.Data[6];//处理设备发送类型
        MOV     A,R6
        ADD     A,#0x22
        MOV     DPL,A
        MOV     A,R7
        ADDC    A,#0x0
        MOV     DPH,A
        MOVX    A,@DPTR
        MOV     R0,A
        INC     DPTR
        MOVX    A,@DPTR
        MOV     DPH,A
        MOV     DPL,R0
        INC     DPTR
        INC     DPTR
        INC     DPTR
        INC     DPTR
        INC     DPTR
        INC     DPTR
        MOVX    A,@DPTR
        PUSH    A
        CFI CFA_SP SP+-1
        MOV     A,#0x12
        LCALL   ?XSTACK_DISP0_8
        POP     A
        CFI CFA_SP SP+0
        MOVX    @DPTR,A
//  448    Sent_t=str[7];
        MOV     A,#0x12
        LCALL   ?XSTACK_DISP0_8
        MOVX    A,@DPTR
        MOV     DPTR,#Sent_t
        MOVX    @DPTR,A
//  449       
//  450   SET_str[0] = str[0];
        MOV     A,#0xb
        LCALL   ?XSTACK_DISP0_8
        MOVX    A,@DPTR
        PUSH    A
        CFI CFA_SP SP+-1
        MOV     A,#0x1
        LCALL   ?XSTACK_DISP0_8
        POP     A
        CFI CFA_SP SP+0
        MOVX    @DPTR,A
//  451   SET_str[1] = str[1];
        MOV     A,#0xc
        LCALL   ?XSTACK_DISP0_8
        MOVX    A,@DPTR
        PUSH    A
        CFI CFA_SP SP+-1
        MOV     A,#0x2
        LCALL   ?XSTACK_DISP0_8
        POP     A
        CFI CFA_SP SP+0
        MOVX    @DPTR,A
//  452   SET_str[2] = str[2];
        MOV     A,#0xd
        LCALL   ?XSTACK_DISP0_8
        MOVX    A,@DPTR
        PUSH    A
        CFI CFA_SP SP+-1
        MOV     A,#0x3
        LCALL   ?XSTACK_DISP0_8
        POP     A
        CFI CFA_SP SP+0
        MOVX    @DPTR,A
//  453   SET_str[3] = str[3];
        MOV     A,#0xe
        LCALL   ?XSTACK_DISP0_8
        MOVX    A,@DPTR
        PUSH    A
        CFI CFA_SP SP+-1
        MOV     A,#0x4
        LCALL   ?XSTACK_DISP0_8
        POP     A
        CFI CFA_SP SP+0
        MOVX    @DPTR,A
//  454   SET_str[4] = pkt->cmd.Data[8];
        MOV     A,R6
        ADD     A,#0x22
        MOV     DPL,A
        MOV     A,R7
        ADDC    A,#0x0
        MOV     DPH,A
        MOVX    A,@DPTR
        MOV     R0,A
        INC     DPTR
        MOVX    A,@DPTR
        MOV     DPH,A
        MOV     DPL,R0
        INC     DPTR
        INC     DPTR
        INC     DPTR
        INC     DPTR
        INC     DPTR
        INC     DPTR
        INC     DPTR
        INC     DPTR
        MOVX    A,@DPTR
        PUSH    A
        CFI CFA_SP SP+-1
        MOV     A,#0x5
        LCALL   ?XSTACK_DISP0_8
        POP     A
        CFI CFA_SP SP+0
        MOVX    @DPTR,A
//  455   SET_str[5] = pkt->cmd.Data[13];
        MOV     A,R6
        ADD     A,#0x22
        MOV     DPL,A
        MOV     A,R7
        ADDC    A,#0x0
        MOV     DPH,A
        MOVX    A,@DPTR
        ADD     A,#0xd
        MOV     R0,A
        INC     DPTR
        MOVX    A,@DPTR
        ADDC    A,#0x0
        MOV     R1,A
        MOV     DPL,R0
        MOV     DPH,R1
        MOVX    A,@DPTR
        PUSH    A
        CFI CFA_SP SP+-1
        MOV     A,#0x6
        LCALL   ?XSTACK_DISP0_8
        POP     A
        CFI CFA_SP SP+0
        MOVX    @DPTR,A
//  456   SET_str[6] = pkt->cmd.Data[14];
        MOV     A,R6
        ADD     A,#0x22
        MOV     DPL,A
        MOV     A,R7
        ADDC    A,#0x0
        MOV     DPH,A
        MOVX    A,@DPTR
        ADD     A,#0xe
        MOV     R0,A
        INC     DPTR
        MOVX    A,@DPTR
        ADDC    A,#0x0
        MOV     R1,A
        MOV     DPL,R0
        MOV     DPH,R1
        MOVX    A,@DPTR
        PUSH    A
        CFI CFA_SP SP+-1
        MOV     A,#0x7
        LCALL   ?XSTACK_DISP0_8
        POP     A
        CFI CFA_SP SP+0
        MOVX    @DPTR,A
//  457   SET_str[7] = pkt->cmd.Data[15];
        MOV     A,R6
        ADD     A,#0x22
        MOV     DPL,A
        MOV     A,R7
        ADDC    A,#0x0
        MOV     DPH,A
        MOVX    A,@DPTR
        ADD     A,#0xf
        MOV     R0,A
        INC     DPTR
        MOVX    A,@DPTR
        ADDC    A,#0x0
        MOV     R1,A
        MOV     DPL,R0
        MOV     DPH,R1
        MOVX    A,@DPTR
        PUSH    A
        CFI CFA_SP SP+-1
        MOV     A,#0x8
        LCALL   ?XSTACK_DISP0_8
        POP     A
        CFI CFA_SP SP+0
        MOVX    @DPTR,A
//  458   SET_str[8] = pkt->cmd.Data[16];
        MOV     A,R6
        ADD     A,#0x22
        MOV     DPL,A
        MOV     A,R7
        ADDC    A,#0x0
        MOV     DPH,A
        MOVX    A,@DPTR
        ADD     A,#0x10
        MOV     R0,A
        INC     DPTR
        MOVX    A,@DPTR
        ADDC    A,#0x0
        MOV     R1,A
        MOV     DPL,R0
        MOV     DPH,R1
        MOVX    A,@DPTR
        PUSH    A
        CFI CFA_SP SP+-1
        MOV     A,#0x9
        LCALL   ?XSTACK_DISP0_8
        POP     A
        CFI CFA_SP SP+0
        MOVX    @DPTR,A
//  459   SET_str[9] = ABS(pkt->rssi);
        MOV     A,R6
        ADD     A,#0x18
        MOV     DPL,A
        MOV     A,R7
        ADDC    A,#0x0
        MOV     DPH,A
        MOVX    A,@DPTR
        CLR     C
        SUBB    A,#0x0
        MOV     C,0xD0 /* PSW */.2
        XRL     A,PSW
        RLC     A
        JNC     ??SampleApp_ProcessCommandMessage_2
        MOV     A,R6
        ADD     A,#0x18
        MOV     DPL,A
        MOV     A,R7
        ADDC    A,#0x0
        MOV     DPH,A
        MOVX    A,@DPTR
        CPL     A
        INC     A
        MOV     DPL,?XSP + 0
        MOV     DPH,?XSP + 1
        MOVX    @DPTR,A
        SJMP    ??SampleApp_ProcessCommandMessage_3
??SampleApp_ProcessCommandMessage_2:
        MOV     A,R6
        ADD     A,#0x18
        MOV     DPL,A
        MOV     A,R7
        ADDC    A,#0x0
        MOV     DPH,A
        MOVX    A,@DPTR
        MOV     DPL,?XSP + 0
        MOV     DPH,?XSP + 1
        MOVX    @DPTR,A
??SampleApp_ProcessCommandMessage_3:
        MOV     DPL,?XSP + 0
        MOV     DPH,?XSP + 1
        MOVX    A,@DPTR
        PUSH    A
        CFI CFA_SP SP+-1
        MOV     A,#0xa
        LCALL   ?XSTACK_DISP0_8
        POP     A
        CFI CFA_SP SP+0
        MOVX    @DPTR,A
//  460   
//  461   APP_NORMAL_COMMAND(SET_str); 
        ; Setup parameters for call to function APP_NORMAL_COMMAND
        MOV     A,#0x1
        LCALL   ?XSTACK_DISP0_8
        MOV     R2,DPL
        MOV     R3,DPH
        LCALL   ??APP_NORMAL_COMMAND?relay
//  462    
//  463      //处理设备命令类  窗帘控制器
//  464    if(pkt->cmd.Data[8]==DEFINED_CONTROL_CHAR)
        MOV     A,R6
        ADD     A,#0x22
        MOV     DPL,A
        MOV     A,R7
        ADDC    A,#0x0
        MOV     DPH,A
        MOVX    A,@DPTR
        MOV     R0,A
        INC     DPTR
        MOVX    A,@DPTR
        MOV     DPH,A
        MOV     DPL,R0
        INC     DPTR
        INC     DPTR
        INC     DPTR
        INC     DPTR
        INC     DPTR
        INC     DPTR
        INC     DPTR
        INC     DPTR
        MOVX    A,@DPTR
        MOV     R0,A
        MOV     DPTR,#DEFINED_CONTROL_CHAR
        MOVX    A,@DPTR
        XRL     A,R0
        JZ      $+5
        LJMP    ??SampleApp_ProcessCommandMessage_4 & 0xFFFF
//  465    {
//  466   
//  467     active_count = USER_APP_COMMAND(&pkt->cmd.Data[13],&str[9]);
        ; Setup parameters for call to function USER_APP_COMMAND
        MOV     A,#0x14
        LCALL   ?XSTACK_DISP0_8
        MOV     R4,DPL
        MOV     R5,DPH
        MOV     A,R6
        ADD     A,#0x22
        MOV     DPL,A
        MOV     A,R7
        ADDC    A,#0x0
        MOV     DPH,A
        MOVX    A,@DPTR
        ADD     A,#0xd
        MOV     R2,A
        INC     DPTR
        MOVX    A,@DPTR
        ADDC    A,#0x0
        MOV     R3,A
        LCALL   ??USER_APP_COMMAND?relay
        MOV     A,R1
        MOV     ?V0 + 1,A
//  468     str[8]='U';//单次返回
        MOV     A,#0x13
        LCALL   ?XSTACK_DISP0_8
        MOV     A,#0x55
        MOVX    @DPTR,A
//  469     SampleApp_SPI_SendCommand_DstAddr.addrMode = (afAddrMode_t)Addr16Bit;
        MOV     DPTR,#SampleApp_SPI_SendCommand_DstAddr + 8
        MOV     A,#0x2
        MOVX    @DPTR,A
//  470     SampleApp_SPI_SendCommand_DstAddr.endPoint = SAMPLEAPP_ENDPOINT;
        MOV     DPTR,#SampleApp_SPI_SendCommand_DstAddr + 9
        MOV     A,#0x14
        MOVX    @DPTR,A
//  471     SampleApp_SPI_SendCommand_DstAddr.addr.shortAddr = pkt->srcAddr.addr.shortAddr;//发送给来的设备
        MOV     DPL,R6
        MOV     DPH,R7
        INC     DPTR
        INC     DPTR
        INC     DPTR
        INC     DPTR
        INC     DPTR
        INC     DPTR
        MOVX    A,@DPTR
        MOV     R0,A
        INC     DPTR
        MOVX    A,@DPTR
        MOV     R1,A
        MOV     DPTR,#SampleApp_SPI_SendCommand_DstAddr
        MOV     A,R0
        MOVX    @DPTR,A
        INC     DPTR
        MOV     A,R1
        MOVX    @DPTR,A
//  472 
//  473     if ( AF_DataRequest( &SampleApp_SPI_SendCommand_DstAddr,
//  474                          (endPointDesc_t *)&SampleApp_epDesc,
//  475                           SAMPLEAPP_COMMAND_CLUSTERID, //终端传过去，协调器处理了
//  476                           active_count, str,
//  477                           &SampleApp_TransID, 
//  478                           AF_DISCV_ROUTE, 
//  479                           AF_DEFAULT_RADIUS ) == afStatus_SUCCESS )
        ; Setup parameters for call to function AF_DataRequest
        MOV     ?V0 + 0,#0xf
        MOV     R0,#?V0 + 0
        LCALL   ?PUSH_XSTACK_I_ONE
        CFI CFA_XSP16 add(XSP16, 56)
        MOV     ?V0 + 2,#SampleApp_TransID & 0xff
        MOV     ?V0 + 3,#(SampleApp_TransID >> 8) & 0xff
        MOV     R0,#?V0 + 2
        LCALL   ?PUSH_XSTACK_I_TWO
        CFI CFA_XSP16 add(XSP16, 58)
        MOV     A,#0xe
        LCALL   ?XSTACK_DISP0_8
        MOV     ?V0 + 2,DPL
        MOV     ?V0 + 3,DPH
        MOV     R0,#?V0 + 2
        LCALL   ?PUSH_XSTACK_I_TWO
        CFI CFA_XSP16 add(XSP16, 60)
        MOV     ?V0 + 0,?V0 + 1
        MOV     ?V0 + 2,?V0 + 0
        MOV     ?V0 + 3,#0x0
        MOV     R0,#?V0 + 2
        LCALL   ?PUSH_XSTACK_I_TWO
        CFI CFA_XSP16 add(XSP16, 62)
        MOV     ?V0 + 2,#0x4
        MOV     ?V0 + 3,#0x0
        MOV     R0,#?V0 + 2
        LCALL   ?PUSH_XSTACK_I_TWO
        CFI CFA_XSP16 add(XSP16, 64)
        MOV     R1,#0x20
        MOV     R4,#SampleApp_epDesc & 0xff
        MOV     R5,#(SampleApp_epDesc >> 8) & 0xff
        MOV     R2,#SampleApp_SPI_SendCommand_DstAddr & 0xff
        MOV     R3,#(SampleApp_SPI_SendCommand_DstAddr >> 8) & 0xff
        LCALL   ??AF_DataRequest?relay
        MOV     A,#0x9
        LCALL   ?DEALLOC_XSTACK8
        CFI CFA_XSP16 add(XSP16, 55)
        MOV     A,R1
        MOV     DPL,?XSP + 0
        MOV     DPH,?XSP + 1
        MOVX    @DPTR,A
        LJMP    ??SampleApp_ProcessCommandMessage_5 & 0xFFFF
//  480     {
//  481       
//  482      }
//  483     else
//  484      {
//  485        
//  486      }
//  487      
//  488        /* 
//  489      
//  490     str[9]='/';
//  491 
//  492    CmdType = pkt->cmd.Data[13];//窗帘设备命令类型 学习 使用
//  493    IRCodeIndex = (pkt->cmd.Data[14]- '0')*100 +
//  494                  (pkt->cmd.Data[15]- '0')*10 +
//  495                  (pkt->cmd.Data[16]- '0');      //编码序号
//  496    if('1' == CmdType)		//'1' 表示学习
//  497    {
//  498      irCodeRx(IRCodeIndex);
//  499   //   changePollRate();
//  500    }
//  501    else if('2' == CmdType)	//'2' 表示使用
//  502    {   
//  503      irCodeTx(IRCodeIndex);
//  504    //  changePollRate();
//  505    }
//  506   
//  507    str[10] = CmdType - '0';//数据回填
//  508    str[12] = IRCodeIndex;//数据回填
//  509    str[11] = IRCodeIndex >> 8;
//  510 
//  511 
//  512     if ( AF_DataRequest( &SampleApp_SPI_SendCommand_DstAddr,
//  513                          (endPointDesc_t *)&SampleApp_epDesc,
//  514                           SAMPLEAPP_COMMAND_CLUSTERID, //终端传过去，协调器处理了
//  515                           13, str,
//  516                           &SampleApp_TransID, 
//  517                           AF_DISCV_ROUTE, 
//  518                           AF_DEFAULT_RADIUS ) == afStatus_SUCCESS )
//  519     {
//  520       
//  521      }
//  522     else
//  523      {
//  524        
//  525      }
//  526      */
//  527      
//  528    }
//  529  
//  530  
//  531     else if(pkt->cmd.Data[8]=='L')//v:118
??SampleApp_ProcessCommandMessage_4:
        MOV     A,R6
        ADD     A,#0x22
        MOV     DPL,A
        MOV     A,R7
        ADDC    A,#0x0
        MOV     DPH,A
        MOVX    A,@DPTR
        MOV     R0,A
        INC     DPTR
        MOVX    A,@DPTR
        MOV     DPH,A
        MOV     DPL,R0
        INC     DPTR
        INC     DPTR
        INC     DPTR
        INC     DPTR
        INC     DPTR
        INC     DPTR
        INC     DPTR
        INC     DPTR
        MOVX    A,@DPTR
        XRL     A,#0x4c
        JNZ     ??SampleApp_ProcessCommandMessage_6
//  532  {
//  533   uint8 blink_count=0;
        MOV     ?V0 + 0,#0x0
//  534   blink_count = (pkt->cmd.Data[13]-0x30)*100 + (pkt->cmd.Data[14]-0x30)*10 + (pkt->cmd.Data[15]-0x30);
        MOV     A,R6
        ADD     A,#0x22
        MOV     DPL,A
        MOV     A,R7
        ADDC    A,#0x0
        MOV     DPH,A
        MOVX    A,@DPTR
        ADD     A,#0xf
        MOV     R0,A
        INC     DPTR
        MOVX    A,@DPTR
        ADDC    A,#0x0
        MOV     R1,A
        MOV     DPL,R0
        MOV     DPH,R1
        PUSH    DPL
        CFI CFA_SP SP+-1
        PUSH    DPH
        CFI CFA_SP SP+-2
        MOV     B,#0xa
        MOV     A,R6
        ADD     A,#0x22
        MOV     DPL,A
        MOV     A,R7
        ADDC    A,#0x0
        MOV     DPH,A
        MOVX    A,@DPTR
        ADD     A,#0xe
        MOV     R0,A
        INC     DPTR
        MOVX    A,@DPTR
        ADDC    A,#0x0
        MOV     R1,A
        MOV     DPL,R0
        MOV     DPH,R1
        MOVX    A,@DPTR
        MUL     AB
        MOV     R2,A
        MOV     B,#0x64
        MOV     A,R6
        ADD     A,#0x22
        MOV     DPL,A
        MOV     A,R7
        ADDC    A,#0x0
        MOV     DPH,A
        MOVX    A,@DPTR
        ADD     A,#0xd
        MOV     R0,A
        INC     DPTR
        MOVX    A,@DPTR
        ADDC    A,#0x0
        MOV     R1,A
        MOV     DPL,R0
        MOV     DPH,R1
        MOVX    A,@DPTR
        MUL     AB
        ADD     A,R2
        POP     DPH
        CFI CFA_SP SP+-1
        POP     DPL
        CFI CFA_SP SP+0
        MOV     R0,A
        MOVX    A,@DPTR
        ADD     A,R0
        ADD     A,#0x30
        MOV     ?V0 + 0,A
//  535   HalLedBlink ( HAL_LED_1, blink_count, 50, 800 );
        ; Setup parameters for call to function HalLedBlink
        MOV     R4,#0x20
        MOV     R5,#0x3
        MOV     R3,#0x32
        MOV     R2,?V0 + 0
        MOV     R1,#0x1
        LCALL   ??HalLedBlink?relay
        LJMP    ??SampleApp_ProcessCommandMessage_5 & 0xFFFF
//  536 
//  537  }
//  538   else if(pkt->cmd.Data[8]=='O')
??SampleApp_ProcessCommandMessage_6:
        MOV     A,R6
        ADD     A,#0x22
        MOV     DPL,A
        MOV     A,R7
        ADDC    A,#0x0
        MOV     DPH,A
        MOVX    A,@DPTR
        MOV     R0,A
        INC     DPTR
        MOVX    A,@DPTR
        MOV     DPH,A
        MOV     DPL,R0
        INC     DPTR
        INC     DPTR
        INC     DPTR
        INC     DPTR
        INC     DPTR
        INC     DPTR
        INC     DPTR
        INC     DPTR
        MOVX    A,@DPTR
        XRL     A,#0x4f
        JZ      $+5
        LJMP    ??SampleApp_ProcessCommandMessage_7 & 0xFFFF
//  539   {
//  540     
//  541        uint8 *SET_str;
//  542        uint8 sent_flag = 0;
        MOV     ?V0 + 0,#0x0
//  543        
//  544        HalLedBlink ( HAL_LED_1, 1, 50, 1000 );
        ; Setup parameters for call to function HalLedBlink
        MOV     R4,#-0x18
        MOV     R5,#0x3
        MOV     R3,#0x32
        MOV     R2,#0x1
        MOV     R1,#0x1
        LCALL   ??HalLedBlink?relay
//  545        if((pkt->cmd.Data[13]-'0') ==  1)
        MOV     A,R6
        ADD     A,#0x22
        MOV     DPL,A
        MOV     A,R7
        ADDC    A,#0x0
        MOV     DPH,A
        MOVX    A,@DPTR
        ADD     A,#0xd
        MOV     R0,A
        INC     DPTR
        MOVX    A,@DPTR
        ADDC    A,#0x0
        MOV     R1,A
        MOV     DPL,R0
        MOV     DPH,R1
        MOVX    A,@DPTR
        MOV     R0,A
        MOV     R1,#0x0
        ADD     A,#-0x30
        MOV     R0,A
        MOV     A,R1
        ADDC    A,#-0x1
        MOV     R1,A
        MOV     A,#0x1
        XRL     A,R0
        JNZ     ??SampleApp_ProcessCommandMessage_8
        MOV     A,#0x0
        XRL     A,R1
??SampleApp_ProcessCommandMessage_8:
        JZ      $+5
        LJMP    ??SampleApp_ProcessCommandMessage_9 & 0xFFFF
//  546        {
//  547          pollrate_time = 100*(pkt->cmd.Data[14]-'0')+10*(pkt->cmd.Data[15]-'0')+(pkt->cmd.Data[16]-'0');
        MOV     A,R6
        ADD     A,#0x22
        MOV     DPL,A
        MOV     A,R7
        ADDC    A,#0x0
        MOV     DPH,A
        MOVX    A,@DPTR
        ADD     A,#0xe
        MOV     R0,A
        INC     DPTR
        MOVX    A,@DPTR
        ADDC    A,#0x0
        MOV     R1,A
        MOV     DPL,R0
        MOV     DPH,R1
        MOVX    A,@DPTR
        MOV     R0,A
        MOV     R1,#0x0
        MOV     A,R0
        MOV     B,#0x64
        MUL     AB
        XCH     A,R0
        MOV     R2,B
        MOV     B,#0x0
        MUL     AB
        ADD     A,R2
        MOV     R2,A
        MOV     B,#0x64
        MOV     A,R1
        MUL     AB
        ADD     A,R2
        MOV     R1,A
        MOV     A,R6
        ADD     A,#0x22
        MOV     DPL,A
        MOV     A,R7
        ADDC    A,#0x0
        MOV     DPH,A
        MOVX    A,@DPTR
        ADD     A,#0xf
        MOV     R2,A
        INC     DPTR
        MOVX    A,@DPTR
        ADDC    A,#0x0
        MOV     R3,A
        MOV     DPL,R2
        MOV     DPH,R3
        MOVX    A,@DPTR
        MOV     R2,A
        MOV     R3,#0x0
        MOV     A,R2
        MOV     B,#0xa
        MUL     AB
        XCH     A,R2
        MOV     R4,B
        MOV     B,#0x0
        MUL     AB
        ADD     A,R4
        MOV     R4,A
        MOV     B,#0xa
        MOV     A,R3
        MUL     AB
        ADD     A,R4
        MOV     R3,A
        MOV     A,R0
        ADD     A,R2
        MOV     R0,A
        MOV     A,R1
        ADDC    A,R3
        MOV     R1,A
        MOV     A,R6
        ADD     A,#0x22
        MOV     DPL,A
        MOV     A,R7
        ADDC    A,#0x0
        MOV     DPH,A
        MOVX    A,@DPTR
        ADD     A,#0x10
        MOV     R2,A
        INC     DPTR
        MOVX    A,@DPTR
        ADDC    A,#0x0
        MOV     R3,A
        MOV     DPL,R2
        MOV     DPH,R3
        MOVX    A,@DPTR
        MOV     R2,A
        MOV     R3,#0x0
        MOV     A,R0
        ADD     A,R2
        MOV     R0,A
        MOV     A,R1
        ADDC    A,R3
        MOV     R1,A
        MOV     A,R0
        ADD     A,#0x30
        MOV     R0,A
        MOV     A,R1
        ADDC    A,#-0x15
        MOV     R1,A
        MOV     DPTR,#pollrate_time
        MOV     A,R0
        MOVX    @DPTR,A
        INC     DPTR
        MOV     A,R1
        MOVX    @DPTR,A
//  548          if(pollrate_time > 120 )
        MOV     DPTR,#pollrate_time
        CLR     C
        MOVX    A,@DPTR
        SUBB    A,#0x79
        INC     DPTR
        MOVX    A,@DPTR
        SUBB    A,#0x0
        JC      ??SampleApp_ProcessCommandMessage_10
//  549          {
//  550            pollrate_time = 120;
        MOV     DPTR,#pollrate_time
        MOV     A,#0x78
        MOVX    @DPTR,A
        INC     DPTR
        MOV     A,#0x0
        MOVX    @DPTR,A
        SJMP    ??SampleApp_ProcessCommandMessage_11
//  551          }
//  552          else if(pollrate_time == 0)
??SampleApp_ProcessCommandMessage_10:
        MOV     DPTR,#pollrate_time
        MOVX    A,@DPTR
        MOV     R0,A
        INC     DPTR
        MOVX    A,@DPTR
        MOV     R1,A
        MOV     A,R0
        ORL     A,R1
        JNZ     ??SampleApp_ProcessCommandMessage_11
//  553          {
//  554            pollrate_time = 1;
        MOV     DPTR,#pollrate_time
        MOV     A,#0x1
        MOVX    @DPTR,A
        INC     DPTR
        MOV     A,#0x0
        MOVX    @DPTR,A
//  555          }
//  556          
//  557          if(POLLRATE_TIME_VALUE!=pollrate_time)
??SampleApp_ProcessCommandMessage_11:
        MOV     DPTR,#POLLRATE_TIME_VALUE
        MOVX    A,@DPTR
        MOV     R0,A
        MOV     R1,#0x0
        MOV     DPTR,#pollrate_time
        MOVX    A,@DPTR
        XRL     A,R0
        JNZ     ??SampleApp_ProcessCommandMessage_12
        INC     DPTR
        MOVX    A,@DPTR
        XRL     A,R1
??SampleApp_ProcessCommandMessage_12:
        JZ      ??SampleApp_ProcessCommandMessage_13
//  558          { 
//  559            POLLRATE_TIME_VALUE = (uint8)pollrate_time;
        MOV     DPTR,#pollrate_time
        MOVX    A,@DPTR
        MOV     R0,A
        INC     DPTR
        MOVX    A,@DPTR
        MOV     R1,A
        MOV     A,R0
        MOV     DPTR,#POLLRATE_TIME_VALUE
        MOVX    @DPTR,A
//  560            osal_nv_write( ZCD_NV_POLLRATE_TIME, 0, 1, &POLLRATE_TIME_VALUE );  
        ; Setup parameters for call to function osal_nv_write
        MOV     ?V0 + 4,#POLLRATE_TIME_VALUE & 0xff
        MOV     ?V0 + 5,#(POLLRATE_TIME_VALUE >> 8) & 0xff
        MOV     R0,#?V0 + 4
        LCALL   ?PUSH_XSTACK_I_TWO
        CFI CFA_XSP16 add(XSP16, 57)
        MOV     ?V0 + 4,#0x1
        MOV     ?V0 + 5,#0x0
        MOV     R0,#?V0 + 4
        LCALL   ?PUSH_XSTACK_I_TWO
        CFI CFA_XSP16 add(XSP16, 59)
        MOV     R4,#0x0
        MOV     R5,#0x0
        MOV     R2,#0x18
        MOV     R3,#0x4
        LCALL   ??osal_nv_write?relay
        MOV     A,#0x4
        LCALL   ?DEALLOC_XSTACK8
        CFI CFA_XSP16 add(XSP16, 55)
        MOV     A,R1
//  561            //pollrate_time = pollrate_time * 500;
//  562            NLME_SetPollRate( pollrate_time * 500 ); 
        ; Setup parameters for call to function NLME_SetPollRate
        MOV     DPTR,#pollrate_time
        MOVX    A,@DPTR
        MOV     R2,A
        INC     DPTR
        MOVX    A,@DPTR
        MOV     R3,A
        MOV     A,R2
        MOV     B,#-0xc
        MUL     AB
        XCH     A,R2
        MOV     R0,B
        MOV     B,#0x1
        MUL     AB
        ADD     A,R0
        MOV     R0,A
        MOV     B,#-0xc
        MOV     A,R3
        MUL     AB
        ADD     A,R0
        MOV     R3,A
        LCALL   ??NLME_SetPollRate?relay
//  563          }
//  564          //else
//  565          //pollrate_time = pollrate_time * 500;
//  566          sent_flag = 1;
??SampleApp_ProcessCommandMessage_13:
        MOV     ?V0 + 0,#0x1
        SJMP    ??SampleApp_ProcessCommandMessage_14
//  567        }
//  568        else if((pkt->cmd.Data[13]-'0') ==  2)
??SampleApp_ProcessCommandMessage_9:
        MOV     A,R6
        ADD     A,#0x22
        MOV     DPL,A
        MOV     A,R7
        ADDC    A,#0x0
        MOV     DPH,A
        MOVX    A,@DPTR
        ADD     A,#0xd
        MOV     R0,A
        INC     DPTR
        MOVX    A,@DPTR
        ADDC    A,#0x0
        MOV     R1,A
        MOV     DPL,R0
        MOV     DPH,R1
        MOVX    A,@DPTR
        MOV     R0,A
        MOV     R1,#0x0
        ADD     A,#-0x30
        MOV     R0,A
        MOV     A,R1
        ADDC    A,#-0x1
        MOV     R1,A
        MOV     A,#0x2
        XRL     A,R0
        JNZ     ??SampleApp_ProcessCommandMessage_15
        MOV     A,#0x0
        XRL     A,R1
??SampleApp_ProcessCommandMessage_15:
        JNZ     ??SampleApp_ProcessCommandMessage_14
//  569        {
//  570          //osal_nv_item_init( ZCD_NV_POLLRATE_TIME, 1, &POLLRATE_TIME_VALUE );  
//  571          //osal_nv_read( ZCD_NV_POLLRATE_TIME, 0, 1, &POLLRATE_TIME_VALUE );
//  572          //if((POLLRATE_TIME_VALUE!=0)&&(POLLRATE_TIME_VALUE!=255))
//  573          //pollrate_time = POLLRATE_TIME_VALUE * 500; 
//  574          //else
//  575          //pollrate_time = 2000; // default 2S
//  576          sent_flag = 1;
        MOV     ?V0 + 0,#0x1
//  577        }
//  578        
//  579        if(sent_flag)
??SampleApp_ProcessCommandMessage_14:
        MOV     A,?V0 + 0
        JNZ     $+5
        LJMP    ??SampleApp_ProcessCommandMessage_5 & 0xFFFF
//  580        {
//  581          
//  582          pollrate_time = POLLRATE_TIME_VALUE * 500;
        MOV     DPTR,#POLLRATE_TIME_VALUE
        MOVX    A,@DPTR
        MOV     R0,A
        MOV     R1,#0x0
        MOV     A,R0
        MOV     B,#-0xc
        MUL     AB
        XCH     A,R0
        MOV     R2,B
        MOV     B,#0x1
        MUL     AB
        ADD     A,R2
        MOV     R2,A
        MOV     B,#-0xc
        MOV     A,R1
        MUL     AB
        ADD     A,R2
        MOV     R1,A
        MOV     DPTR,#pollrate_time
        MOV     A,R0
        MOVX    @DPTR,A
        INC     DPTR
        MOV     A,R1
        MOVX    @DPTR,A
//  583          
//  584          SET_str=osal_mem_alloc(13);
        ; Setup parameters for call to function osal_mem_alloc
        MOV     R2,#0xd
        MOV     R3,#0x0
        LCALL   ??osal_mem_alloc?relay
        MOV     ?V0 + 4,R2
        MOV     ?V0 + 5,R3
        MOV     ?V0 + 2,?V0 + 4
        MOV     ?V0 + 3,?V0 + 5
//  585          SET_str[0]=str[0];
        MOV     A,#0xb
        LCALL   ?XSTACK_DISP0_8
        MOVX    A,@DPTR
        MOV     DPL,?V0 + 2
        MOV     DPH,?V0 + 3
        MOVX    @DPTR,A
//  586          SET_str[1]=str[1];
        MOV     A,#0xc
        LCALL   ?XSTACK_DISP0_8
        MOVX    A,@DPTR
        MOV     DPL,?V0 + 2
        MOV     DPH,?V0 + 3
        INC     DPTR
        MOVX    @DPTR,A
//  587          SET_str[2]=str[2];
        MOV     A,#0xd
        LCALL   ?XSTACK_DISP0_8
        MOVX    A,@DPTR
        MOV     DPL,?V0 + 2
        MOV     DPH,?V0 + 3
        INC     DPTR
        INC     DPTR
        MOVX    @DPTR,A
//  588          SET_str[3]=str[3];
        MOV     A,#0xe
        LCALL   ?XSTACK_DISP0_8
        MOVX    A,@DPTR
        MOV     DPL,?V0 + 2
        MOV     DPH,?V0 + 3
        INC     DPTR
        INC     DPTR
        INC     DPTR
        MOVX    @DPTR,A
//  589          SET_str[4]='/';
        MOV     DPL,?V0 + 2
        MOV     DPH,?V0 + 3
        INC     DPTR
        INC     DPTR
        INC     DPTR
        INC     DPTR
        MOV     A,#0x2f
        MOVX    @DPTR,A
//  590          SET_str[5]='C';
        MOV     DPL,?V0 + 2
        MOV     DPH,?V0 + 3
        INC     DPTR
        INC     DPTR
        INC     DPTR
        INC     DPTR
        INC     DPTR
        MOV     A,#0x43
        MOVX    @DPTR,A
//  591          SET_str[6]='/';
        MOV     DPL,?V0 + 2
        MOV     DPH,?V0 + 3
        INC     DPTR
        INC     DPTR
        INC     DPTR
        INC     DPTR
        INC     DPTR
        INC     DPTR
        MOV     A,#0x2f
        MOVX    @DPTR,A
//  592          SET_str[7]='U';
        MOV     DPL,?V0 + 2
        MOV     DPH,?V0 + 3
        INC     DPTR
        INC     DPTR
        INC     DPTR
        INC     DPTR
        INC     DPTR
        INC     DPTR
        INC     DPTR
        MOV     A,#0x55
        MOVX    @DPTR,A
//  593          SET_str[8]='U';
        MOV     DPL,?V0 + 2
        MOV     DPH,?V0 + 3
        INC     DPTR
        INC     DPTR
        INC     DPTR
        INC     DPTR
        INC     DPTR
        INC     DPTR
        INC     DPTR
        INC     DPTR
        MOV     A,#0x55
        MOVX    @DPTR,A
//  594          SET_str[9]=0xA0;
        MOV     DPL,?V0 + 2
        MOV     DPH,?V0 + 3
        INC     DPTR
        INC     DPTR
        INC     DPTR
        INC     DPTR
        INC     DPTR
        INC     DPTR
        INC     DPTR
        INC     DPTR
        INC     DPTR
        MOV     A,#-0x60
        MOVX    @DPTR,A
//  595          SET_str[10]=0x22;
        MOV     DPL,?V0 + 2
        MOV     DPH,?V0 + 3
        INC     DPTR
        INC     DPTR
        INC     DPTR
        INC     DPTR
        INC     DPTR
        INC     DPTR
        INC     DPTR
        INC     DPTR
        INC     DPTR
        INC     DPTR
        MOV     A,#0x22
        MOVX    @DPTR,A
//  596          SET_str[11]=pollrate_time/256;//get the rssi
        MOV     DPTR,#pollrate_time
        MOVX    A,@DPTR
        MOV     R0,A
        INC     DPTR
        MOVX    A,@DPTR
        MOV     R1,A
        CLR     A
        MOV     A,R1
        MOV     R0,A
        PUSH    A
        CFI CFA_SP SP+-1
        MOV     A,?V0 + 2
        ADD     A,#0xb
        MOV     DPL,A
        MOV     A,?V0 + 3
        ADDC    A,#0x0
        MOV     DPH,A
        POP     A
        CFI CFA_SP SP+0
        MOVX    @DPTR,A
//  597          SET_str[12]=pollrate_time%256;//get the rssi
        MOV     DPTR,#pollrate_time
        MOVX    A,@DPTR
        MOV     R0,A
        INC     DPTR
        MOVX    A,@DPTR
        MOV     R1,A
        MOV     R2,#0x0
        MOV     R3,#0x1
        LCALL   ?US_DIV_MOD
        MOV     A,R2
        PUSH    A
        CFI CFA_SP SP+-1
        MOV     A,?V0 + 2
        ADD     A,#0xc
        MOV     DPL,A
        MOV     A,?V0 + 3
        ADDC    A,#0x0
        MOV     DPH,A
        POP     A
        CFI CFA_SP SP+0
        MOVX    @DPTR,A
//  598          
//  599          SampleApp_SPI_SendCommand_DstAddr.addrMode = (afAddrMode_t)Addr16Bit;
        MOV     DPTR,#SampleApp_SPI_SendCommand_DstAddr + 8
        MOV     A,#0x2
        MOVX    @DPTR,A
//  600          SampleApp_SPI_SendCommand_DstAddr.endPoint = SAMPLEAPP_ENDPOINT;
        MOV     DPTR,#SampleApp_SPI_SendCommand_DstAddr + 9
        MOV     A,#0x14
        MOVX    @DPTR,A
//  601          // SampleApp_SPI_SendCommand_DstAddr.addr.shortAddr = 0X0000;
//  602          SampleApp_SPI_SendCommand_DstAddr.addr.shortAddr = pkt->srcAddr.addr.shortAddr;//发送给来的设备
        MOV     DPL,R6
        MOV     DPH,R7
        INC     DPTR
        INC     DPTR
        INC     DPTR
        INC     DPTR
        INC     DPTR
        INC     DPTR
        MOVX    A,@DPTR
        MOV     R0,A
        INC     DPTR
        MOVX    A,@DPTR
        MOV     R1,A
        MOV     DPTR,#SampleApp_SPI_SendCommand_DstAddr
        MOV     A,R0
        MOVX    @DPTR,A
        INC     DPTR
        MOV     A,R1
        MOVX    @DPTR,A
//  603          
//  604          if ( AF_DataRequest( &SampleApp_SPI_SendCommand_DstAddr,
//  605                              (endPointDesc_t *)&SampleApp_epDesc,
//  606                              SAMPLEAPP_COMMAND_CLUSTERID, //终端传过去，协调器处理了
//  607                              13, SET_str,
//  608                              &SampleApp_TransID, 
//  609                              AF_DISCV_ROUTE, 
//  610                              AF_DEFAULT_RADIUS ) == afStatus_SUCCESS )
        ; Setup parameters for call to function AF_DataRequest
        MOV     ?V0 + 4,#0xf
        MOV     R0,#?V0 + 4
        LCALL   ?PUSH_XSTACK_I_ONE
        CFI CFA_XSP16 add(XSP16, 56)
        MOV     ?V0 + 4,#SampleApp_TransID & 0xff
        MOV     ?V0 + 5,#(SampleApp_TransID >> 8) & 0xff
        MOV     R0,#?V0 + 4
        LCALL   ?PUSH_XSTACK_I_TWO
        CFI CFA_XSP16 add(XSP16, 58)
        MOV     R0,#?V0 + 2
        LCALL   ?PUSH_XSTACK_I_TWO
        CFI CFA_XSP16 add(XSP16, 60)
        MOV     ?V0 + 4,#0xd
        MOV     ?V0 + 5,#0x0
        MOV     R0,#?V0 + 4
        LCALL   ?PUSH_XSTACK_I_TWO
        CFI CFA_XSP16 add(XSP16, 62)
        MOV     ?V0 + 4,#0x4
        MOV     ?V0 + 5,#0x0
        MOV     R0,#?V0 + 4
        LCALL   ?PUSH_XSTACK_I_TWO
        CFI CFA_XSP16 add(XSP16, 64)
        MOV     R1,#0x20
        MOV     R4,#SampleApp_epDesc & 0xff
        MOV     R5,#(SampleApp_epDesc >> 8) & 0xff
        MOV     R2,#SampleApp_SPI_SendCommand_DstAddr & 0xff
        MOV     R3,#(SampleApp_SPI_SendCommand_DstAddr >> 8) & 0xff
        LCALL   ??AF_DataRequest?relay
        MOV     A,#0x9
        LCALL   ?DEALLOC_XSTACK8
        CFI CFA_XSP16 add(XSP16, 55)
        MOV     A,R1
        JNZ     ??SampleApp_ProcessCommandMessage_16
//  611          {
//  612            osal_mem_free(SET_str);
        ; Setup parameters for call to function osal_mem_free
        MOV     R2,?V0 + 2
        MOV     R3,?V0 + 3
        LCALL   ??osal_mem_free?relay
        SJMP    ??SampleApp_ProcessCommandMessage_5
//  613          }
//  614          else
//  615          {
//  616            osal_mem_free(SET_str);
??SampleApp_ProcessCommandMessage_16:
        ; Setup parameters for call to function osal_mem_free
        MOV     R2,?V0 + 2
        MOV     R3,?V0 + 3
        LCALL   ??osal_mem_free?relay
        SJMP    ??SampleApp_ProcessCommandMessage_5
//  617          }  
//  618        }
//  619      
//  620   }
//  621  else if(pkt->cmd.Data[8]==82)//R:86 刷新设备列表 特殊处理，直接按一定格式上报
??SampleApp_ProcessCommandMessage_7:
        MOV     A,R6
        ADD     A,#0x22
        MOV     DPL,A
        MOV     A,R7
        ADDC    A,#0x0
        MOV     DPH,A
        MOVX    A,@DPTR
        MOV     R0,A
        INC     DPTR
        MOVX    A,@DPTR
        MOV     DPH,A
        MOV     DPL,R0
        INC     DPTR
        INC     DPTR
        INC     DPTR
        INC     DPTR
        INC     DPTR
        INC     DPTR
        INC     DPTR
        INC     DPTR
        MOVX    A,@DPTR
        XRL     A,#0x52
        JNZ     ??SampleApp_ProcessCommandMessage_5
//  622  {
//  623 
//  624    osal_start_timerEx( SampleApp_TaskID, SAMPLEAPP_SEND_RS_EVT,100);
        ; Setup parameters for call to function osal_start_timerEx
        MOV     R4,#0x64
        MOV     R5,#0x0
        MOV     R2,#0x0
        MOV     R3,#0x40
        MOV     DPTR,#SampleApp_TaskID
        MOVX    A,@DPTR
        MOV     R1,A
        LCALL   ??osal_start_timerEx?relay
        MOV     A,R1
//  625    
//  626  }
//  627 }
??SampleApp_ProcessCommandMessage_5:
        MOV     A,#0x29
        LCALL   ?DEALLOC_XSTACK8
        CFI CFA_XSP16 add(XSP16, 14)
        MOV     R7,#0x6
        LJMP    ?BANKED_LEAVE_XDATA
        CFI EndBlock cfiBlock3
//  628 
//  629 
//  630 
//  631 
//  632 /*
//  633 void Delay_1u(uint32 microSecs) 
//  634 {
//  635   while(microSecs--)
//  636   {
//  637     //32 NOPs == 1 usecs 
//  638     asm("nop"); asm("nop"); asm("nop"); asm("nop"); asm("nop");
//  639     asm("nop"); asm("nop"); asm("nop"); asm("nop"); asm("nop");
//  640     asm("nop"); asm("nop"); asm("nop"); asm("nop"); asm("nop");
//  641     asm("nop"); asm("nop"); asm("nop"); asm("nop"); asm("nop");
//  642     asm("nop"); asm("nop"); asm("nop"); asm("nop"); asm("nop");
//  643     asm("nop"); asm("nop"); asm("nop"); asm("nop"); asm("nop");
//  644     asm("nop"); asm("nop");
//  645   }
//  646 }
//  647 
//  648 */
//  649 
//  650 
//  651 void SampleApp_PermitJoin(uint8 permit_time);

        RSEG BANKED_CODE:CODE:NOROOT(0)
//  652 void SampleApp_PermitJoin(uint8 permit_time)
SampleApp_PermitJoin:
        CFI Block cfiBlock4 Using cfiCommon0
        CFI Function SampleApp_PermitJoin
        CODE
//  653 {
        FUNCALL SampleApp_PermitJoin, HalLedBlink
        LOCFRAME ISTACK, 0, STACK
        LOCFRAME PSTACK, 0, STACK
        LOCFRAME XSTACK, 18, STACK
        LOCFRAME IOVERLAY, 0, STATIC
        LOCFRAME DOVERLAY, 0, STATIC
        ARGFRAME ISTACK, 0, STACK
        ARGFRAME PSTACK, 0, STACK
        ARGFRAME XSTACK, 18, STACK
        ARGFRAME IOVERLAY, 0, STATIC
        ARGFRAME DOVERLAY, 0, STATIC
        FUNCALL SampleApp_PermitJoin, HalLedBlink
        LOCFRAME ISTACK, 0, STACK
        LOCFRAME PSTACK, 0, STACK
        LOCFRAME XSTACK, 18, STACK
        LOCFRAME IOVERLAY, 0, STATIC
        LOCFRAME DOVERLAY, 0, STATIC
        ARGFRAME ISTACK, 0, STACK
        ARGFRAME PSTACK, 0, STACK
        ARGFRAME XSTACK, 18, STACK
        ARGFRAME IOVERLAY, 0, STATIC
        ARGFRAME DOVERLAY, 0, STATIC
        FUNCALL SampleApp_PermitJoin, NLME_PermitJoiningRequest
        LOCFRAME ISTACK, 0, STACK
        LOCFRAME PSTACK, 0, STACK
        LOCFRAME XSTACK, 18, STACK
        LOCFRAME IOVERLAY, 0, STATIC
        LOCFRAME DOVERLAY, 0, STATIC
        ARGFRAME ISTACK, 0, STACK
        ARGFRAME PSTACK, 0, STACK
        ARGFRAME XSTACK, 18, STACK
        ARGFRAME IOVERLAY, 0, STATIC
        ARGFRAME DOVERLAY, 0, STATIC
        FUNCALL SampleApp_PermitJoin, ZDP_MgmtPermitJoinReq
        LOCFRAME ISTACK, 0, STACK
        LOCFRAME PSTACK, 0, STACK
        LOCFRAME XSTACK, 18, STACK
        LOCFRAME IOVERLAY, 0, STATIC
        LOCFRAME DOVERLAY, 0, STATIC
        ARGFRAME ISTACK, 0, STACK
        ARGFRAME PSTACK, 0, STACK
        ARGFRAME XSTACK, 18, STACK
        ARGFRAME IOVERLAY, 0, STATIC
        ARGFRAME DOVERLAY, 0, STATIC
        MOV     A,#-0x9
        LCALL   ?BANKED_ENTER_XDATA
        CFI DPH0 load(1, XDATA, add(CFA_XSP16, literal(-1)))
        CFI DPL0 load(1, XDATA, add(CFA_XSP16, literal(-2)))
        CFI ?BRET_EXT load(1, XDATA, add(CFA_XSP16, literal(-3)))
        CFI ?RET_HIGH load(1, XDATA, add(CFA_XSP16, literal(-4)))
        CFI ?RET_LOW load(1, XDATA, add(CFA_XSP16, literal(-5)))
        CFI R7 load(1, XDATA, add(CFA_XSP16, literal(-6)))
        CFI V0 load(1, XDATA, add(CFA_XSP16, literal(-7)))
        CFI VB load(1, XDATA, add(CFA_XSP16, literal(-8)))
        CFI R6 load(1, XDATA, add(CFA_XSP16, literal(-9)))
        CFI CFA_SP SP+0
        CFI CFA_XSP16 add(XSP16, 9)
        ; Saved register size: 9
        ; Auto size: 9
        MOV     A,#-0x9
        LCALL   ?ALLOC_XSTACK8
        CFI CFA_XSP16 add(XSP16, 18)
        MOV     A,R1
        MOV     R6,A
//  654     zAddrType_t dstAddr;
//  655  if( (devState==DEV_END_DEVICE) || (devState==DEV_ROUTER) )
        MOV     DPTR,#devState
        MOVX    A,@DPTR
        XRL     A,#0x6
        JZ      ??SampleApp_PermitJoin_0
        MOV     DPTR,#devState
        MOVX    A,@DPTR
        XRL     A,#0x7
        JNZ     ??SampleApp_PermitJoin_1
//  656       {
//  657         if(permit_time>0)
??SampleApp_PermitJoin_0:
        MOV     A,R6
        CLR     C
        SUBB    A,#0x1
        JC      ??SampleApp_PermitJoin_2
//  658         HalLedBlink ( HAL_LED_1, 1, 50, 600 );//应许
        ; Setup parameters for call to function HalLedBlink
        MOV     R4,#0x58
        MOV     R5,#0x2
        MOV     R3,#0x32
        MOV     R2,#0x1
        MOV     R1,#0x1
        LCALL   ??HalLedBlink?relay
        SJMP    ??SampleApp_PermitJoin_3
//  659         else
//  660          HalLedBlink ( HAL_LED_1, 2, 50, 600 );//应许  
??SampleApp_PermitJoin_2:
        ; Setup parameters for call to function HalLedBlink
        MOV     R4,#0x58
        MOV     R5,#0x2
        MOV     R3,#0x32
        MOV     R2,#0x2
        MOV     R1,#0x1
        LCALL   ??HalLedBlink?relay
//  661         NLME_PermitJoiningRequest(permit_time);
??SampleApp_PermitJoin_3:
        ; Setup parameters for call to function NLME_PermitJoiningRequest
        MOV     A,R6
        MOV     R1,A
        LCALL   ??NLME_PermitJoiningRequest?relay
        MOV     A,R1
//  662         dstAddr.addrMode = AddrBroadcast;
        MOV     A,#0x8
        LCALL   ?XSTACK_DISP0_8
        MOV     A,#0xf
        MOVX    @DPTR,A
//  663         dstAddr.addr.shortAddr = 0XFFFC;   // Coordinator makes the match
        MOV     DPL,?XSP + 0
        MOV     DPH,?XSP + 1
        MOV     A,#-0x4
        MOVX    @DPTR,A
        INC     DPTR
        MOV     A,#-0x1
        MOVX    @DPTR,A
//  664         ZDP_MgmtPermitJoinReq( &dstAddr, permit_time, 0, 0);
        ; Setup parameters for call to function ZDP_MgmtPermitJoinReq
        MOV     R5,#0x0
        MOV     R4,#0x0
        MOV     A,R6
        MOV     R1,A
        MOV     DPL,?XSP + 0
        MOV     DPH,?XSP + 1
        MOV     R2,DPL
        MOV     R3,DPH
        LCALL   ??ZDP_MgmtPermitJoinReq?relay
        MOV     A,R1
//  665       }
//  666 }
??SampleApp_PermitJoin_1:
        MOV     A,#0x9
        LCALL   ?DEALLOC_XSTACK8
        CFI CFA_XSP16 add(XSP16, 9)
        MOV     R7,#0x1
        LJMP    ?BANKED_LEAVE_XDATA
        CFI EndBlock cfiBlock4
//  667 
//  668 
//  669 void SampleApp_send_in_binding_req(uint8 endpoint,uint16 *bindingINClusters,uint8 in_len);

        RSEG BANKED_CODE:CODE:NOROOT(0)
//  670 void SampleApp_send_in_binding_req(uint8 endpoint,uint16 *bindingINClusters,uint8 in_len)
SampleApp_send_in_binding_req:
        CFI Block cfiBlock5 Using cfiCommon0
        CFI Function SampleApp_send_in_binding_req
        CODE
//  671 {
        FUNCALL SampleApp_send_in_binding_req, HalLedBlink
        LOCFRAME ISTACK, 0, STACK
        LOCFRAME PSTACK, 0, STACK
        LOCFRAME XSTACK, 21, STACK
        LOCFRAME IOVERLAY, 0, STATIC
        LOCFRAME DOVERLAY, 0, STATIC
        ARGFRAME ISTACK, 0, STACK
        ARGFRAME PSTACK, 0, STACK
        ARGFRAME XSTACK, 21, STACK
        ARGFRAME IOVERLAY, 0, STATIC
        ARGFRAME DOVERLAY, 0, STATIC
        FUNCALL SampleApp_send_in_binding_req, NLME_GetShortAddr
        LOCFRAME ISTACK, 0, STACK
        LOCFRAME PSTACK, 0, STACK
        LOCFRAME XSTACK, 30, STACK
        LOCFRAME IOVERLAY, 0, STATIC
        LOCFRAME DOVERLAY, 0, STATIC
        ARGFRAME ISTACK, 0, STACK
        ARGFRAME PSTACK, 0, STACK
        ARGFRAME XSTACK, 30, STACK
        ARGFRAME IOVERLAY, 0, STATIC
        ARGFRAME DOVERLAY, 0, STATIC
        FUNCALL SampleApp_send_in_binding_req, ZDP_EndDeviceBindReq
        LOCFRAME ISTACK, 0, STACK
        LOCFRAME PSTACK, 0, STACK
        LOCFRAME XSTACK, 30, STACK
        LOCFRAME IOVERLAY, 0, STATIC
        LOCFRAME DOVERLAY, 0, STATIC
        ARGFRAME ISTACK, 0, STACK
        ARGFRAME PSTACK, 0, STACK
        ARGFRAME XSTACK, 30, STACK
        ARGFRAME IOVERLAY, 0, STATIC
        ARGFRAME DOVERLAY, 0, STATIC
        MOV     A,#-0xc
        LCALL   ?BANKED_ENTER_XDATA
        CFI DPH0 load(1, XDATA, add(CFA_XSP16, literal(-1)))
        CFI DPL0 load(1, XDATA, add(CFA_XSP16, literal(-2)))
        CFI ?BRET_EXT load(1, XDATA, add(CFA_XSP16, literal(-3)))
        CFI ?RET_HIGH load(1, XDATA, add(CFA_XSP16, literal(-4)))
        CFI ?RET_LOW load(1, XDATA, add(CFA_XSP16, literal(-5)))
        CFI R7 load(1, XDATA, add(CFA_XSP16, literal(-6)))
        CFI V3 load(1, XDATA, add(CFA_XSP16, literal(-7)))
        CFI V2 load(1, XDATA, add(CFA_XSP16, literal(-8)))
        CFI V1 load(1, XDATA, add(CFA_XSP16, literal(-9)))
        CFI V0 load(1, XDATA, add(CFA_XSP16, literal(-10)))
        CFI VB load(1, XDATA, add(CFA_XSP16, literal(-11)))
        CFI R6 load(1, XDATA, add(CFA_XSP16, literal(-12)))
        CFI CFA_SP SP+0
        CFI CFA_XSP16 add(XSP16, 12)
        ; Saved register size: 12
        ; Auto size: 9
        MOV     A,#-0x9
        LCALL   ?ALLOC_XSTACK8
        CFI CFA_XSP16 add(XSP16, 21)
        MOV     A,R1
        MOV     R6,A
        MOV     ?V0 + 0,R2
        MOV     ?V0 + 1,R3
        MOV     A,R4
        MOV     R7,A
//  672   zAddrType_t dstAddr;
//  673  if((devState == DEV_END_DEVICE) || (devState == DEV_ROUTER)) 
        MOV     DPTR,#devState
        MOVX    A,@DPTR
        XRL     A,#0x6
        JZ      ??SampleApp_send_in_binding_req_0
        MOV     DPTR,#devState
        MOVX    A,@DPTR
        XRL     A,#0x7
        JNZ     ??SampleApp_send_in_binding_req_1
//  674             {
//  675                     HalLedBlink ( HAL_LED_1, 1, 50, 1000 );
??SampleApp_send_in_binding_req_0:
        ; Setup parameters for call to function HalLedBlink
        MOV     R4,#-0x18
        MOV     R5,#0x3
        MOV     R3,#0x32
        MOV     R2,#0x1
        MOV     R1,#0x1
        LCALL   ??HalLedBlink?relay
//  676                     dstAddr.addrMode = afAddr16Bit;
        MOV     A,#0x8
        LCALL   ?XSTACK_DISP0_8
        MOV     A,#0x2
        MOVX    @DPTR,A
//  677                     dstAddr.addr.shortAddr = 0;   
        MOV     DPL,?XSP + 0
        MOV     DPH,?XSP + 1
        MOV     A,#0x0
        MOVX    @DPTR,A
        INC     DPTR
        MOV     A,#0x0
        MOVX    @DPTR,A
//  678                     ZDP_EndDeviceBindReq( &dstAddr,
//  679                                                             NLME_GetShortAddr(),
//  680                                                             endpoint,
//  681                                                             0x0F08,in_len,
//  682                                                             bindingINClusters,   // No incoming clusters to bind   0, NULL
//  683                                                             0, NULL, FALSE );
        ; Setup parameters for call to function ZDP_EndDeviceBindReq
        MOV     ?V0 + 2,#0x0
        MOV     R0,#?V0 + 2
        LCALL   ?PUSH_XSTACK_I_ONE
        CFI CFA_XSP16 add(XSP16, 22)
        CLR     A
        MOV     ?V0 + 2,A
        MOV     ?V0 + 3,A
        MOV     R0,#?V0 + 2
        LCALL   ?PUSH_XSTACK_I_TWO
        CFI CFA_XSP16 add(XSP16, 24)
        MOV     ?V0 + 2,#0x0
        MOV     R0,#?V0 + 2
        LCALL   ?PUSH_XSTACK_I_ONE
        CFI CFA_XSP16 add(XSP16, 25)
        MOV     R0,#?V0 + 0
        LCALL   ?PUSH_XSTACK_I_TWO
        CFI CFA_XSP16 add(XSP16, 27)
        MOV     A,R7
        MOV     ?V0 + 2,A
        MOV     R0,#?V0 + 2
        LCALL   ?PUSH_XSTACK_I_ONE
        CFI CFA_XSP16 add(XSP16, 28)
        MOV     ?V0 + 2,#0x8
        MOV     ?V0 + 3,#0xf
        MOV     R0,#?V0 + 2
        LCALL   ?PUSH_XSTACK_I_TWO
        CFI CFA_XSP16 add(XSP16, 30)
        MOV     A,R6
        MOV     R1,A
        MOV     A,R1
        MOV     R6,A
        MOV     R1,A
        ; Setup parameters for call to function NLME_GetShortAddr
        LCALL   ??NLME_GetShortAddr?relay
        MOV     A,R2
        MOV     R4,A
        MOV     A,R3
        MOV     R5,A
        MOV     A,R6
        MOV     R1,A
        MOV     R6,A
        MOV     A,#0x9
        LCALL   ?XSTACK_DISP0_8
        MOV     R2,DPL
        MOV     R3,DPH
        LCALL   ??ZDP_EndDeviceBindReq?relay
        MOV     A,#0x9
        LCALL   ?DEALLOC_XSTACK8
        CFI CFA_XSP16 add(XSP16, 21)
        MOV     A,R1
//  684             }
//  685 }
??SampleApp_send_in_binding_req_1:
        MOV     A,#0x9
        LCALL   ?DEALLOC_XSTACK8
        CFI CFA_XSP16 add(XSP16, 12)
        MOV     R7,#0x4
        LJMP    ?BANKED_LEAVE_XDATA
        CFI EndBlock cfiBlock5
//  686 
//  687 
//  688 void SampleApp_send_out_binding_req(uint8 endpoint,uint16 *bindingOUTClusters,uint8 out_len);

        RSEG BANKED_CODE:CODE:NOROOT(0)
//  689 void SampleApp_send_out_binding_req(uint8 endpoint,uint16 *bindingOUTClusters,uint8 out_len)
SampleApp_send_out_binding_req:
        CFI Block cfiBlock6 Using cfiCommon0
        CFI Function SampleApp_send_out_binding_req
        CODE
//  690 {
        FUNCALL SampleApp_send_out_binding_req, HalLedBlink
        LOCFRAME ISTACK, 0, STACK
        LOCFRAME PSTACK, 0, STACK
        LOCFRAME XSTACK, 21, STACK
        LOCFRAME IOVERLAY, 0, STATIC
        LOCFRAME DOVERLAY, 0, STATIC
        ARGFRAME ISTACK, 0, STACK
        ARGFRAME PSTACK, 0, STACK
        ARGFRAME XSTACK, 21, STACK
        ARGFRAME IOVERLAY, 0, STATIC
        ARGFRAME DOVERLAY, 0, STATIC
        FUNCALL SampleApp_send_out_binding_req, NLME_GetShortAddr
        LOCFRAME ISTACK, 0, STACK
        LOCFRAME PSTACK, 0, STACK
        LOCFRAME XSTACK, 30, STACK
        LOCFRAME IOVERLAY, 0, STATIC
        LOCFRAME DOVERLAY, 0, STATIC
        ARGFRAME ISTACK, 0, STACK
        ARGFRAME PSTACK, 0, STACK
        ARGFRAME XSTACK, 30, STACK
        ARGFRAME IOVERLAY, 0, STATIC
        ARGFRAME DOVERLAY, 0, STATIC
        FUNCALL SampleApp_send_out_binding_req, ZDP_EndDeviceBindReq
        LOCFRAME ISTACK, 0, STACK
        LOCFRAME PSTACK, 0, STACK
        LOCFRAME XSTACK, 30, STACK
        LOCFRAME IOVERLAY, 0, STATIC
        LOCFRAME DOVERLAY, 0, STATIC
        ARGFRAME ISTACK, 0, STACK
        ARGFRAME PSTACK, 0, STACK
        ARGFRAME XSTACK, 30, STACK
        ARGFRAME IOVERLAY, 0, STATIC
        ARGFRAME DOVERLAY, 0, STATIC
        MOV     A,#-0xc
        LCALL   ?BANKED_ENTER_XDATA
        CFI DPH0 load(1, XDATA, add(CFA_XSP16, literal(-1)))
        CFI DPL0 load(1, XDATA, add(CFA_XSP16, literal(-2)))
        CFI ?BRET_EXT load(1, XDATA, add(CFA_XSP16, literal(-3)))
        CFI ?RET_HIGH load(1, XDATA, add(CFA_XSP16, literal(-4)))
        CFI ?RET_LOW load(1, XDATA, add(CFA_XSP16, literal(-5)))
        CFI R7 load(1, XDATA, add(CFA_XSP16, literal(-6)))
        CFI V3 load(1, XDATA, add(CFA_XSP16, literal(-7)))
        CFI V2 load(1, XDATA, add(CFA_XSP16, literal(-8)))
        CFI V1 load(1, XDATA, add(CFA_XSP16, literal(-9)))
        CFI V0 load(1, XDATA, add(CFA_XSP16, literal(-10)))
        CFI VB load(1, XDATA, add(CFA_XSP16, literal(-11)))
        CFI R6 load(1, XDATA, add(CFA_XSP16, literal(-12)))
        CFI CFA_SP SP+0
        CFI CFA_XSP16 add(XSP16, 12)
        ; Saved register size: 12
        ; Auto size: 9
        MOV     A,#-0x9
        LCALL   ?ALLOC_XSTACK8
        CFI CFA_XSP16 add(XSP16, 21)
        MOV     A,R1
        MOV     R6,A
        MOV     ?V0 + 0,R2
        MOV     ?V0 + 1,R3
        MOV     A,R4
        MOV     R7,A
//  691   zAddrType_t dstAddr;
//  692  if((devState == DEV_END_DEVICE) || (devState == DEV_ROUTER)) 
        MOV     DPTR,#devState
        MOVX    A,@DPTR
        XRL     A,#0x6
        JZ      ??SampleApp_send_out_binding_req_0
        MOV     DPTR,#devState
        MOVX    A,@DPTR
        XRL     A,#0x7
        JNZ     ??SampleApp_send_out_binding_req_1
//  693             {
//  694                     HalLedBlink ( HAL_LED_1, 1, 50, 1000 );
??SampleApp_send_out_binding_req_0:
        ; Setup parameters for call to function HalLedBlink
        MOV     R4,#-0x18
        MOV     R5,#0x3
        MOV     R3,#0x32
        MOV     R2,#0x1
        MOV     R1,#0x1
        LCALL   ??HalLedBlink?relay
//  695                     dstAddr.addrMode = afAddr16Bit;
        MOV     A,#0x8
        LCALL   ?XSTACK_DISP0_8
        MOV     A,#0x2
        MOVX    @DPTR,A
//  696                     dstAddr.addr.shortAddr = 0;   
        MOV     DPL,?XSP + 0
        MOV     DPH,?XSP + 1
        MOV     A,#0x0
        MOVX    @DPTR,A
        INC     DPTR
        MOV     A,#0x0
        MOVX    @DPTR,A
//  697                     ZDP_EndDeviceBindReq( &dstAddr,
//  698                                                             NLME_GetShortAddr(),
//  699                                                             endpoint,
//  700                                                             0x0F08,0,
//  701                                                             NULL,
//  702                                                             out_len, bindingOUTClusters, FALSE );
        ; Setup parameters for call to function ZDP_EndDeviceBindReq
        MOV     ?V0 + 2,#0x0
        MOV     R0,#?V0 + 2
        LCALL   ?PUSH_XSTACK_I_ONE
        CFI CFA_XSP16 add(XSP16, 22)
        MOV     R0,#?V0 + 0
        LCALL   ?PUSH_XSTACK_I_TWO
        CFI CFA_XSP16 add(XSP16, 24)
        MOV     A,R7
        MOV     ?V0 + 2,A
        MOV     R0,#?V0 + 2
        LCALL   ?PUSH_XSTACK_I_ONE
        CFI CFA_XSP16 add(XSP16, 25)
        CLR     A
        MOV     ?V0 + 2,A
        MOV     ?V0 + 3,A
        MOV     R0,#?V0 + 2
        LCALL   ?PUSH_XSTACK_I_TWO
        CFI CFA_XSP16 add(XSP16, 27)
        MOV     ?V0 + 2,#0x0
        MOV     R0,#?V0 + 2
        LCALL   ?PUSH_XSTACK_I_ONE
        CFI CFA_XSP16 add(XSP16, 28)
        MOV     ?V0 + 2,#0x8
        MOV     ?V0 + 3,#0xf
        MOV     R0,#?V0 + 2
        LCALL   ?PUSH_XSTACK_I_TWO
        CFI CFA_XSP16 add(XSP16, 30)
        MOV     A,R6
        MOV     R1,A
        MOV     A,R1
        MOV     R6,A
        MOV     R1,A
        ; Setup parameters for call to function NLME_GetShortAddr
        LCALL   ??NLME_GetShortAddr?relay
        MOV     A,R2
        MOV     R4,A
        MOV     A,R3
        MOV     R5,A
        MOV     A,R6
        MOV     R1,A
        MOV     R6,A
        MOV     A,#0x9
        LCALL   ?XSTACK_DISP0_8
        MOV     R2,DPL
        MOV     R3,DPH
        LCALL   ??ZDP_EndDeviceBindReq?relay
        MOV     A,#0x9
        LCALL   ?DEALLOC_XSTACK8
        CFI CFA_XSP16 add(XSP16, 21)
        MOV     A,R1
//  703             }
//  704 }
??SampleApp_send_out_binding_req_1:
        MOV     A,#0x9
        LCALL   ?DEALLOC_XSTACK8
        CFI CFA_XSP16 add(XSP16, 12)
        MOV     R7,#0x4
        LJMP    ?BANKED_LEAVE_XDATA
        CFI EndBlock cfiBlock6
//  705 
//  706 
//  707 
//  708 
//  709 void USER_SEND_ADD_STR(uint8 *str);

        RSEG BANKED_CODE:CODE:NOROOT(0)
//  710 void USER_SEND_ADD_STR(uint8 *str)
USER_SEND_ADD_STR:
        CFI Block cfiBlock7 Using cfiCommon0
        CFI Function USER_SEND_ADD_STR
        CODE
//  711 {
        MOV     A,#-0xa
        LCALL   ?BANKED_ENTER_XDATA
        CFI DPH0 load(1, XDATA, add(CFA_XSP16, literal(-1)))
        CFI DPL0 load(1, XDATA, add(CFA_XSP16, literal(-2)))
        CFI ?BRET_EXT load(1, XDATA, add(CFA_XSP16, literal(-3)))
        CFI ?RET_HIGH load(1, XDATA, add(CFA_XSP16, literal(-4)))
        CFI ?RET_LOW load(1, XDATA, add(CFA_XSP16, literal(-5)))
        CFI R7 load(1, XDATA, add(CFA_XSP16, literal(-6)))
        CFI V1 load(1, XDATA, add(CFA_XSP16, literal(-7)))
        CFI V0 load(1, XDATA, add(CFA_XSP16, literal(-8)))
        CFI VB load(1, XDATA, add(CFA_XSP16, literal(-9)))
        CFI R6 load(1, XDATA, add(CFA_XSP16, literal(-10)))
        CFI CFA_SP SP+0
        CFI CFA_XSP16 add(XSP16, 10)
        ; Saved register size: 10
        ; Auto size: 0
//  712   for(uint8 i=0;i<4;i++)
        MOV     R0,#0x0
??USER_SEND_ADD_STR_0:
        MOV     A,R0
        CLR     C
        SUBB    A,#0x4
        JNC     ??USER_SEND_ADD_STR_1
//  713   {
//  714    str[i] = SHORT_ADRESS[i];
        MOV     ?V0 + 0,R0
        MOV     ?V0 + 1,#0x0
        MOV     A,#SHORT_ADRESS & 0xff
        ADD     A,?V0 + 0
        MOV     DPL,A
        MOV     A,#(SHORT_ADRESS >> 8) & 0xff
        ADDC    A,?V0 + 1
        MOV     DPH,A
        MOVX    A,@DPTR
        PUSH    A
        CFI CFA_SP SP+-1
        MOV     ?V0 + 0,R0
        MOV     ?V0 + 1,#0x0
        MOV     A,R2
        ADD     A,?V0 + 0
        MOV     DPL,A
        MOV     A,R3
        ADDC    A,?V0 + 1
        MOV     DPH,A
        POP     A
        CFI CFA_SP SP+0
        MOVX    @DPTR,A
//  715   }
        INC     R0
        SJMP    ??USER_SEND_ADD_STR_0
//  716   for(uint8 j=0;j<5;j++)
??USER_SEND_ADD_STR_1:
        MOV     R0,#0x0
??USER_SEND_ADD_STR_2:
        MOV     A,R0
        CLR     C
        SUBB    A,#0x5
        JNC     ??USER_SEND_ADD_STR_3
//  717   {
//  718    str[4+j] = '/';
        MOV     ?V0 + 0,R0
        MOV     ?V0 + 1,#0x0
        MOV     A,R2
        ADD     A,?V0 + 0
        MOV     DPL,A
        MOV     A,R3
        ADDC    A,?V0 + 1
        MOV     DPH,A
        INC     DPTR
        INC     DPTR
        INC     DPTR
        INC     DPTR
        MOV     A,#0x2f
        MOVX    @DPTR,A
//  719   }
        INC     R0
        SJMP    ??USER_SEND_ADD_STR_2
//  720 }
??USER_SEND_ADD_STR_3:
        MOV     R7,#0x2
        LJMP    ?BANKED_LEAVE_XDATA
        CFI EndBlock cfiBlock7
//  721 
//  722 
//  723 void USER_APP_SEND_IN(uint8 count,uint8 *str);

        RSEG BANKED_CODE:CODE:NOROOT(0)
//  724 void USER_APP_SEND_IN(uint8 count,uint8 *str)
USER_APP_SEND_IN:
        CFI Block cfiBlock8 Using cfiCommon0
        CFI Function USER_APP_SEND_IN
        CODE
//  725 {  
        FUNCALL USER_APP_SEND_IN, AF_DataRequest
        LOCFRAME ISTACK, 0, STACK
        LOCFRAME PSTACK, 0, STACK
        LOCFRAME XSTACK, 21, STACK
        LOCFRAME IOVERLAY, 0, STATIC
        LOCFRAME DOVERLAY, 0, STATIC
        ARGFRAME ISTACK, 0, STACK
        ARGFRAME PSTACK, 0, STACK
        ARGFRAME XSTACK, 21, STACK
        ARGFRAME IOVERLAY, 0, STATIC
        ARGFRAME DOVERLAY, 0, STATIC
        MOV     A,#-0xc
        LCALL   ?BANKED_ENTER_XDATA
        CFI DPH0 load(1, XDATA, add(CFA_XSP16, literal(-1)))
        CFI DPL0 load(1, XDATA, add(CFA_XSP16, literal(-2)))
        CFI ?BRET_EXT load(1, XDATA, add(CFA_XSP16, literal(-3)))
        CFI ?RET_HIGH load(1, XDATA, add(CFA_XSP16, literal(-4)))
        CFI ?RET_LOW load(1, XDATA, add(CFA_XSP16, literal(-5)))
        CFI R7 load(1, XDATA, add(CFA_XSP16, literal(-6)))
        CFI V3 load(1, XDATA, add(CFA_XSP16, literal(-7)))
        CFI V2 load(1, XDATA, add(CFA_XSP16, literal(-8)))
        CFI V1 load(1, XDATA, add(CFA_XSP16, literal(-9)))
        CFI V0 load(1, XDATA, add(CFA_XSP16, literal(-10)))
        CFI VB load(1, XDATA, add(CFA_XSP16, literal(-11)))
        CFI R6 load(1, XDATA, add(CFA_XSP16, literal(-12)))
        CFI CFA_SP SP+0
        CFI CFA_XSP16 add(XSP16, 12)
        ; Saved register size: 12
        ; Auto size: 0
        MOV     A,R1
        MOV     R6,A
        MOV     ?V0 + 2,R2
        MOV     ?V0 + 3,R3
//  726 
//  727   SampleApp_SPI_SendCommand_DstAddr.addrMode = (afAddrMode_t)Addr16Bit;
        MOV     DPTR,#SampleApp_SPI_SendCommand_DstAddr + 8
        MOV     A,#0x2
        MOVX    @DPTR,A
//  728   SampleApp_SPI_SendCommand_DstAddr.endPoint = SAMPLEAPP_ENDPOINT;
        MOV     DPTR,#SampleApp_SPI_SendCommand_DstAddr + 9
        MOV     A,#0x14
        MOVX    @DPTR,A
//  729   SampleApp_SPI_SendCommand_DstAddr.addr.shortAddr = 0X0000;
        MOV     DPTR,#SampleApp_SPI_SendCommand_DstAddr
        MOV     A,#0x0
        MOVX    @DPTR,A
        INC     DPTR
        MOV     A,#0x0
        MOVX    @DPTR,A
//  730     
//  731     if ( AF_DataRequest( &SampleApp_SPI_SendCommand_DstAddr,
//  732                          (endPointDesc_t *)&SampleApp_epDesc,
//  733                           SAMPLEAPP_COMMAND_CLUSTERID, //终端传过去，协调器处理了
//  734                           count, str,
//  735                           &SampleApp_TransID, 
//  736                           AF_DISCV_ROUTE, 
//  737                           AF_DEFAULT_RADIUS ) == afStatus_SUCCESS )
        ; Setup parameters for call to function AF_DataRequest
        MOV     ?V0 + 0,#0xf
        MOV     R0,#?V0 + 0
        LCALL   ?PUSH_XSTACK_I_ONE
        CFI CFA_XSP16 add(XSP16, 13)
        MOV     ?V0 + 0,#SampleApp_TransID & 0xff
        MOV     ?V0 + 1,#(SampleApp_TransID >> 8) & 0xff
        MOV     R0,#?V0 + 0
        LCALL   ?PUSH_XSTACK_I_TWO
        CFI CFA_XSP16 add(XSP16, 15)
        MOV     R0,#?V0 + 2
        LCALL   ?PUSH_XSTACK_I_TWO
        CFI CFA_XSP16 add(XSP16, 17)
        MOV     ?V0 + 0,R6
        MOV     ?V0 + 1,#0x0
        MOV     R0,#?V0 + 0
        LCALL   ?PUSH_XSTACK_I_TWO
        CFI CFA_XSP16 add(XSP16, 19)
        MOV     ?V0 + 0,#0x4
        MOV     ?V0 + 1,#0x0
        MOV     R0,#?V0 + 0
        LCALL   ?PUSH_XSTACK_I_TWO
        CFI CFA_XSP16 add(XSP16, 21)
        MOV     R1,#0x20
        MOV     R4,#SampleApp_epDesc & 0xff
        MOV     R5,#(SampleApp_epDesc >> 8) & 0xff
        MOV     R2,#SampleApp_SPI_SendCommand_DstAddr & 0xff
        MOV     R3,#(SampleApp_SPI_SendCommand_DstAddr >> 8) & 0xff
        LCALL   ??AF_DataRequest?relay
        MOV     A,#0x9
        LCALL   ?DEALLOC_XSTACK8
        CFI CFA_XSP16 add(XSP16, 12)
        MOV     A,R1
//  738     {
//  739       
//  740     }
//  741     else
//  742     {
//  743       
//  744     }   
//  745 
//  746 }
        MOV     R7,#0x4
        LJMP    ?BANKED_LEAVE_XDATA
        CFI EndBlock cfiBlock8
//  747 
//  748 void HalKeyHoldCheck(void);

        RSEG BANKED_CODE:CODE:NOROOT(0)
//  749 void HalKeyHoldCheck(void)
HalKeyHoldCheck:
        CFI Block cfiBlock9 Using cfiCommon0
        CFI Function HalKeyHoldCheck
        CODE
//  750 {
        FUNCALL HalKeyHoldCheck, READ_NETKEY
        LOCFRAME ISTACK, 0, STACK
        LOCFRAME PSTACK, 0, STACK
        LOCFRAME XSTACK, 9, STACK
        LOCFRAME IOVERLAY, 0, STATIC
        LOCFRAME DOVERLAY, 0, STATIC
        ARGFRAME ISTACK, 0, STACK
        ARGFRAME PSTACK, 0, STACK
        ARGFRAME XSTACK, 9, STACK
        ARGFRAME IOVERLAY, 0, STATIC
        ARGFRAME DOVERLAY, 0, STATIC
        MOV     A,#-0x9
        LCALL   ?BANKED_ENTER_XDATA
        CFI DPH0 load(1, XDATA, add(CFA_XSP16, literal(-1)))
        CFI DPL0 load(1, XDATA, add(CFA_XSP16, literal(-2)))
        CFI ?BRET_EXT load(1, XDATA, add(CFA_XSP16, literal(-3)))
        CFI ?RET_HIGH load(1, XDATA, add(CFA_XSP16, literal(-4)))
        CFI ?RET_LOW load(1, XDATA, add(CFA_XSP16, literal(-5)))
        CFI R7 load(1, XDATA, add(CFA_XSP16, literal(-6)))
        CFI V0 load(1, XDATA, add(CFA_XSP16, literal(-7)))
        CFI VB load(1, XDATA, add(CFA_XSP16, literal(-8)))
        CFI R6 load(1, XDATA, add(CFA_XSP16, literal(-9)))
        CFI CFA_SP SP+0
        CFI CFA_XSP16 add(XSP16, 9)
        ; Saved register size: 9
        ; Auto size: 0
//  751   uint8 keys = 0;
        MOV     R6,#0x0
//  752   keys |= HAL_KEY_SW_8;
        SETB    C
        MOV     A,R6
        MOV     0xE0 /* A   */.7,C
        MOV     R6,A
//  753   if(!(READ_NETKEY()))
        ; Setup parameters for call to function READ_NETKEY
        LCALL   ??READ_NETKEY?relay
        MOV     A,R1
        JNZ     ??HalKeyHoldCheck_0
//  754   {
//  755 	key_hold_flag = 1;//长按有效。  key_double_flag 表示按键按下的次数
        MOV     DPTR,#key_hold_flag
        MOV     A,#0x1
        MOVX    @DPTR,A
//  756 	if (keys && (pHalKeyProcessFunction))
        MOV     A,R6
        JZ      ??HalKeyHoldCheck_0
        MOV     DPTR,#pHalKeyProcessFunction
        MOVX    A,@DPTR
        MOV     R0,A
        INC     DPTR
        MOVX    A,@DPTR
        MOV     R1,A
        MOV     A,R0
        ORL     A,R1
        JZ      ??HalKeyHoldCheck_0
//  757 	{
//  758 	  (pHalKeyProcessFunction) (keys, HAL_KEY_STATE_NORMAL);
        ; Setup parameters for indirect call
        MOV     R2,#0x0
        MOV     A,R6
        MOV     R1,A
        MOV     DPTR,#pHalKeyProcessFunction
        MOVX    A,@DPTR
        MOV     R0,A
        INC     DPTR
        MOVX    A,@DPTR
        MOV     DPH,A
        MOV     DPL,R0
        LCALL   ?CALL_IND
//  759 	  // key_ISR_FLAG=0;
//  760 	  KEY_NET_ISR_FLAG=0;
        MOV     DPTR,#KEY_NET_ISR_FLAG
        MOV     A,#0x0
        MOVX    @DPTR,A
//  761 	}
//  762   }
//  763   key_holdtime_waiting_flag = 0;	//清除等待长按时间标志
??HalKeyHoldCheck_0:
        MOV     DPTR,#key_holdtime_waiting_flag
        MOV     A,#0x0
        MOVX    @DPTR,A
//  764   KEY_NET_ISR_FLAG=0;
        MOV     DPTR,#KEY_NET_ISR_FLAG
        MOV     A,#0x0
        MOVX    @DPTR,A
//  765 }
        MOV     R7,#0x1
        LJMP    ?BANKED_LEAVE_XDATA
        CFI EndBlock cfiBlock9
//  766 
//  767 void HalKeyMultiClickCheck(void);

        RSEG BANKED_CODE:CODE:NOROOT(0)
//  768 void HalKeyMultiClickCheck(void)
HalKeyMultiClickCheck:
        CFI Block cfiBlock10 Using cfiCommon0
        CFI Function HalKeyMultiClickCheck
        CODE
//  769 {
        FUNCALL HalKeyMultiClickCheck, READ_NETKEY
        LOCFRAME ISTACK, 0, STACK
        LOCFRAME PSTACK, 0, STACK
        LOCFRAME XSTACK, 9, STACK
        LOCFRAME IOVERLAY, 0, STATIC
        LOCFRAME DOVERLAY, 0, STATIC
        ARGFRAME ISTACK, 0, STACK
        ARGFRAME PSTACK, 0, STACK
        ARGFRAME XSTACK, 9, STACK
        ARGFRAME IOVERLAY, 0, STATIC
        ARGFRAME DOVERLAY, 0, STATIC
        FUNCALL HalKeyMultiClickCheck, osal_start_timerEx
        LOCFRAME ISTACK, 0, STACK
        LOCFRAME PSTACK, 0, STACK
        LOCFRAME XSTACK, 9, STACK
        LOCFRAME IOVERLAY, 0, STATIC
        LOCFRAME DOVERLAY, 0, STATIC
        ARGFRAME ISTACK, 0, STACK
        ARGFRAME PSTACK, 0, STACK
        ARGFRAME XSTACK, 9, STACK
        ARGFRAME IOVERLAY, 0, STATIC
        ARGFRAME DOVERLAY, 0, STATIC
        MOV     A,#-0x9
        LCALL   ?BANKED_ENTER_XDATA
        CFI DPH0 load(1, XDATA, add(CFA_XSP16, literal(-1)))
        CFI DPL0 load(1, XDATA, add(CFA_XSP16, literal(-2)))
        CFI ?BRET_EXT load(1, XDATA, add(CFA_XSP16, literal(-3)))
        CFI ?RET_HIGH load(1, XDATA, add(CFA_XSP16, literal(-4)))
        CFI ?RET_LOW load(1, XDATA, add(CFA_XSP16, literal(-5)))
        CFI R7 load(1, XDATA, add(CFA_XSP16, literal(-6)))
        CFI V0 load(1, XDATA, add(CFA_XSP16, literal(-7)))
        CFI VB load(1, XDATA, add(CFA_XSP16, literal(-8)))
        CFI R6 load(1, XDATA, add(CFA_XSP16, literal(-9)))
        CFI CFA_SP SP+0
        CFI CFA_XSP16 add(XSP16, 9)
        ; Saved register size: 9
        ; Auto size: 0
//  770   uint8 keys = 0;
        MOV     R6,#0x0
//  771   
//  772   keys |= HAL_KEY_SW_8;
        SETB    C
        MOV     A,R6
        MOV     0xE0 /* A   */.7,C
        MOV     R6,A
//  773   key_double_flag=KEY_NET_ISR_FLAG;//将几次按键值赋给状态
        MOV     DPTR,#KEY_NET_ISR_FLAG
        MOVX    A,@DPTR
        MOV     DPTR,#key_double_flag
        MOVX    @DPTR,A
//  774   if(1 == key_double_flag)
        MOV     DPTR,#key_double_flag
        MOVX    A,@DPTR
        XRL     A,#0x1
        JNZ     ??HalKeyMultiClickCheck_0
//  775   {
//  776 	if((READ_NETKEY()))
        ; Setup parameters for call to function READ_NETKEY
        LCALL   ??READ_NETKEY?relay
        MOV     A,R1
        JZ      ??HalKeyMultiClickCheck_1
//  777 	{
//  778 	  key_hold_flag = 0;
        MOV     DPTR,#key_hold_flag
        MOV     A,#0x0
        MOVX    @DPTR,A
//  779 	  if (keys && (pHalKeyProcessFunction))
        MOV     A,R6
        JZ      ??HalKeyMultiClickCheck_2
        MOV     DPTR,#pHalKeyProcessFunction
        MOVX    A,@DPTR
        MOV     R0,A
        INC     DPTR
        MOVX    A,@DPTR
        MOV     R1,A
        MOV     A,R0
        ORL     A,R1
        JZ      ??HalKeyMultiClickCheck_2
//  780 	  {
//  781 		(pHalKeyProcessFunction) (keys, HAL_KEY_STATE_NORMAL);
        ; Setup parameters for indirect call
        MOV     R2,#0x0
        MOV     A,R6
        MOV     R1,A
        MOV     DPTR,#pHalKeyProcessFunction
        MOVX    A,@DPTR
        MOV     R0,A
        INC     DPTR
        MOVX    A,@DPTR
        MOV     DPH,A
        MOV     DPL,R0
        LCALL   ?CALL_IND
//  782 
//  783 		KEY_NET_ISR_FLAG=0;
        MOV     DPTR,#KEY_NET_ISR_FLAG
        MOV     A,#0x0
        MOVX    @DPTR,A
        SJMP    ??HalKeyMultiClickCheck_2
//  784 	  }
//  785 	  
//  786 	}
//  787 	else
//  788 	{
//  789 	(pHalKeyProcessFunction) (keys, HAL_KEY_STATE_NORMAL);
??HalKeyMultiClickCheck_1:
        ; Setup parameters for indirect call
        MOV     R2,#0x0
        MOV     A,R6
        MOV     R1,A
        MOV     DPTR,#pHalKeyProcessFunction
        MOVX    A,@DPTR
        MOV     R0,A
        INC     DPTR
        MOVX    A,@DPTR
        MOV     DPH,A
        MOV     DPL,R0
        LCALL   ?CALL_IND
//  790 	 	osal_start_timerEx (Hal_TaskID, HAL_KEY_HOLD_EVENT, HAL_KEY_HOLD_VALUE);//长按时间（10s）达到以后进入相应的处理事件
        ; Setup parameters for call to function osal_start_timerEx
        MOV     R4,#-0x48
        MOV     R5,#0x24
        MOV     R2,#0x40
        MOV     R3,#0x0
        MOV     DPTR,#Hal_TaskID
        MOVX    A,@DPTR
        MOV     R1,A
        LCALL   ??osal_start_timerEx?relay
        MOV     A,R1
//  791 		key_holdtime_waiting_flag = 1;
        MOV     DPTR,#key_holdtime_waiting_flag
        MOV     A,#0x1
        MOVX    @DPTR,A
        SJMP    ??HalKeyMultiClickCheck_2
//  792 	}
//  793   }
//  794   else
//  795   {
//  796 	
//  797 	key_hold_flag = 0;//长按无效。  key_double_flag 表示按键按下的次数
??HalKeyMultiClickCheck_0:
        MOV     DPTR,#key_hold_flag
        MOV     A,#0x0
        MOVX    @DPTR,A
//  798 	if (keys && (pHalKeyProcessFunction))
        MOV     A,R6
        JZ      ??HalKeyMultiClickCheck_2
        MOV     DPTR,#pHalKeyProcessFunction
        MOVX    A,@DPTR
        MOV     R0,A
        INC     DPTR
        MOVX    A,@DPTR
        MOV     R1,A
        MOV     A,R0
        ORL     A,R1
        JZ      ??HalKeyMultiClickCheck_2
//  799 	{
//  800 	  (pHalKeyProcessFunction) (keys, HAL_KEY_STATE_NORMAL);
        ; Setup parameters for indirect call
        MOV     R2,#0x0
        MOV     A,R6
        MOV     R1,A
        MOV     DPTR,#pHalKeyProcessFunction
        MOVX    A,@DPTR
        MOV     R0,A
        INC     DPTR
        MOVX    A,@DPTR
        MOV     DPH,A
        MOV     DPL,R0
        LCALL   ?CALL_IND
//  801 	  // key_ISR_FLAG=0;
//  802 	  KEY_NET_ISR_FLAG=0;
        MOV     DPTR,#KEY_NET_ISR_FLAG
        MOV     A,#0x0
        MOVX    @DPTR,A
//  803 	}
//  804   }
//  805   
//  806 }
??HalKeyMultiClickCheck_2:
        MOV     R7,#0x1
        LJMP    ?BANKED_LEAVE_XDATA
        CFI EndBlock cfiBlock10
//  807 
//  808 
//  809 
//  810 
//  811 // ADC definitions for CC2430 from the hal_adc.c file
//  812 #define HAL_ADC_REF_125V    0x00    /* Internal 1.25V Reference */
//  813 #define HAL_ADC_DEC_064     0x00    /* Decimate by 64 : 8-bit resolution */
//  814 #define HAL_ADC_DEC_128     0x10    /* Decimate by 128 : 10-bit resolution */
//  815 #define HAL_ADC_DEC_512     0x30    /* Decimate by 512 : 14-bit resolution */
//  816 #define HAL_ADC_CHN_VDD3    0x0f    /* Input channel: VDD/3 */
//  817 #define HAL_ADC_CHN_TEMP    0x0e    /* Temperature sensor */
//  818 

        RSEG BANKED_CODE:CODE:NOROOT(0)
//  819 uint16 myApp_ReadBattery( void )
myApp_ReadBattery:
        CFI Block cfiBlock11 Using cfiCommon0
        CFI Function myApp_ReadBattery
        CODE
//  820 {
        MOV     A,#-0x10
        LCALL   ?BANKED_ENTER_XDATA
        CFI DPH0 load(1, XDATA, add(CFA_XSP16, literal(-1)))
        CFI DPL0 load(1, XDATA, add(CFA_XSP16, literal(-2)))
        CFI ?BRET_EXT load(1, XDATA, add(CFA_XSP16, literal(-3)))
        CFI ?RET_HIGH load(1, XDATA, add(CFA_XSP16, literal(-4)))
        CFI ?RET_LOW load(1, XDATA, add(CFA_XSP16, literal(-5)))
        CFI R7 load(1, XDATA, add(CFA_XSP16, literal(-6)))
        CFI V7 load(1, XDATA, add(CFA_XSP16, literal(-7)))
        CFI V6 load(1, XDATA, add(CFA_XSP16, literal(-8)))
        CFI V5 load(1, XDATA, add(CFA_XSP16, literal(-9)))
        CFI V4 load(1, XDATA, add(CFA_XSP16, literal(-10)))
        CFI V3 load(1, XDATA, add(CFA_XSP16, literal(-11)))
        CFI V2 load(1, XDATA, add(CFA_XSP16, literal(-12)))
        CFI V1 load(1, XDATA, add(CFA_XSP16, literal(-13)))
        CFI V0 load(1, XDATA, add(CFA_XSP16, literal(-14)))
        CFI VB load(1, XDATA, add(CFA_XSP16, literal(-15)))
        CFI R6 load(1, XDATA, add(CFA_XSP16, literal(-16)))
        CFI CFA_SP SP+0
        CFI CFA_XSP16 add(XSP16, 16)
        ; Saved register size: 16
        ; Auto size: 0
//  821 
//  822 #if defined (HAL_MCU_CC2430) || defined (HAL_MCU_CC2530)
//  823 
//  824   uint32 value;
//  825   //uint32 value;
//  826 
//  827   /* Clear ADC interrupt flag */
//  828   ADCIF = 0;
        CLR     0x88.5
//  829 
//  830   ADCCON3 = (HAL_ADC_REF_125V | HAL_ADC_DEC_128 | HAL_ADC_CHN_VDD3);
        MOV     0xb6,#0x1f
//  831 // ADCCON3 = (HAL_ADC_REF_125V | HAL_ADC_DEC_512 | HAL_ADC_CHN_VDD3);
//  832   
//  833   /* Wait for the conversion to finish */
//  834   while ( !ADCIF );
??myApp_ReadBattery_0:
        MOV     C,0x88.5
        JNC     ??myApp_ReadBattery_0
//  835 
//  836   /* Get the result */
//  837   value = ADCL;
        MOV     A,0xba
        MOV     R0,A
        CLR     A
        MOV     R1,A
        MOV     R2,A
        MOV     R3,A
        MOV     ?V0 + 4,R0
        MOV     ?V0 + 5,R1
        MOV     ?V0 + 6,R2
        MOV     ?V0 + 7,R3
//  838   value |= ((uint16) ADCH) << 8;
        MOV     A,0xbb
        MOV     ?V0 + 0,A
        MOV     ?V0 + 1,#0x0
        CLR     A
        XCH     A,?V0 + 0
        MOV     ?V0 + 1,A
        CLR     A
        MOV     ?V0 + 2,A
        MOV     ?V0 + 3,A
        MOV     R0,#?V0 + 4
        MOV     R1,#?V0 + 0
        LCALL   ?L_IOR
//  839 
//  840   /*
//  841    * value now contains measurement of Vdd/3
//  842    * 0 indicates 0V and 32767 indicates 1.25V
//  843    * voltage = (value*3*1.25)/32767 volts
//  844    * we will multiply by this by 10 to allow units of 0.1 volts
//  845    */
//  846 
//  847   
//  848   value = value >> 6;   // divide first by 2^6
        MOV     A,#0x6
        MOV     R0,#?V0 + 4
        LCALL   ?UL_SHR
//  849   
//  850  // value = value >> 2;  
//  851   
//  852  // xx *1.15*3>10 
//  853   //value = (uint16)(value * 34.5);//1.15V*30
//  854   
//  855   value = (uint32)(value * 345);//1.15V*300
        MOV     DPTR,#__Constant_159
        MOV     R0,#?V0 + 0
        LCALL   ?L_MOV_X
        MOV     R0,#?V0 + 4
        MOV     R1,#?V0 + 0
        LCALL   ?L_MUL
//  856   
//  857 
//  858   //value = value >> 13;   
//  859   value = value >> 9;   
        MOV     A,#0x9
        MOV     R0,#?V0 + 4
        LCALL   ?UL_SHR
//  860   // /512
//  861   // ...and later by 2^9...to prevent overflow during multiplication
//  862 
//  863   return (uint16)value;
        MOV     R2,?V0 + 4
        MOV     R3,?V0 + 5
        MOV     R7,#0x8
        LJMP    ?BANKED_LEAVE_XDATA
        CFI EndBlock cfiBlock11
        REQUIRE _A_TCON
        REQUIRE ADCCON3
        REQUIRE ADCL
        REQUIRE ADCH
//  864 
//  865 #endif    // CC2430 or CC2530
//  866 
//  867 #if defined HAL_MCU_MSP430
//  868 
//  869   uint16 value;
//  870 
//  871 /*
//  872   There are more than MSP430 board now. Idealy, ADC read should be called
//  873 */
//  874 #if defined (HAL_BOARD_F5438)
//  875 
//  876   value = HalAdcRead (HAL_ADC_CHANNEL_VDD, HAL_ADC_RESOLUTION_14);
//  877   value = value * 50;
//  878   value = value / 4096;
//  879 
//  880 #else
//  881 
//  882   ADC12CTL0 = ADC12ON+SHT0_2+REFON;             // Turn on and set up ADC12
//  883   ADC12CTL1 = SHP;                              // Use sampling timer
//  884   ADC12MCTL0 = SREF_1+INCH_11;                  // Vr+=Vref+
//  885 
//  886   ADC12CTL0 |= ENC | ADC12SC;                   // Start conversion
//  887   while ((ADC12IFG & BIT0)==0);
//  888 
//  889   value = ADC12MEM0;
//  890 
//  891   /*
//  892    * value now contains measurement of AVcc/2
//  893    * value is in range 0 to 4095 indicating voltage from 0 to 1.5V
//  894    * voltage = (value*2*1.5)/4095 volts
//  895    * we will multiply by this by 10 to allow units of 0.1 volts
//  896    */
//  897 
//  898   value = value >> 1;     // value is now in range of 0 to 2048
//  899   value = value * 30;
//  900   value = value >> 11;
//  901 
//  902 #endif
//  903 
//  904   return ( value );
//  905 
//  906 #endif // MSP430
//  907 
//  908 
//  909 
//  910 }

        RSEG XDATA_ROM_C:CONST:REORDER:NOROOT(0)
        DATA32
__Constant_159:
        DD 345

        RSEG BANK_RELAYS:CODE:REORDER:NOROOT(0)
??SampleApp_Init?relay:
        LCALL   ?BDISPATCH
        DATA
        DC24    SampleApp_Init

        RSEG BANK_RELAYS:CODE:REORDER:NOROOT(0)
??SampleApp_ProcessEvent?relay:
        LCALL   ?BDISPATCH
        DATA
        DC24    SampleApp_ProcessEvent

        RSEG BANK_RELAYS:CODE:REORDER:NOROOT(0)
??SampleApp_MessageMSGCB?relay:
        LCALL   ?BDISPATCH
        DATA
        DC24    SampleApp_MessageMSGCB

        RSEG BANK_RELAYS:CODE:REORDER:NOROOT(0)
??SampleApp_ProcessCommandMessage?relay:
        LCALL   ?BDISPATCH
        DATA
        DC24    SampleApp_ProcessCommandMessage

        RSEG BANK_RELAYS:CODE:REORDER:NOROOT(0)
??SampleApp_PermitJoin?relay:
        LCALL   ?BDISPATCH
        DATA
        DC24    SampleApp_PermitJoin

        RSEG BANK_RELAYS:CODE:REORDER:NOROOT(0)
??SampleApp_send_in_binding_req?relay:
        LCALL   ?BDISPATCH
        DATA
        DC24    SampleApp_send_in_binding_req

        RSEG BANK_RELAYS:CODE:REORDER:NOROOT(0)
??SampleApp_send_out_binding_req?relay:
        LCALL   ?BDISPATCH
        DATA
        DC24    SampleApp_send_out_binding_req

        RSEG BANK_RELAYS:CODE:REORDER:NOROOT(0)
??USER_SEND_ADD_STR?relay:
        LCALL   ?BDISPATCH
        DATA
        DC24    USER_SEND_ADD_STR

        RSEG BANK_RELAYS:CODE:REORDER:NOROOT(0)
??USER_APP_SEND_IN?relay:
        LCALL   ?BDISPATCH
        DATA
        DC24    USER_APP_SEND_IN

        RSEG BANK_RELAYS:CODE:REORDER:NOROOT(0)
??HalKeyHoldCheck?relay:
        LCALL   ?BDISPATCH
        DATA
        DC24    HalKeyHoldCheck

        RSEG BANK_RELAYS:CODE:REORDER:NOROOT(0)
??HalKeyMultiClickCheck?relay:
        LCALL   ?BDISPATCH
        DATA
        DC24    HalKeyMultiClickCheck

        RSEG BANK_RELAYS:CODE:REORDER:NOROOT(0)
??myApp_ReadBattery?relay:
        LCALL   ?BDISPATCH
        DATA
        DC24    myApp_ReadBattery

        END
// 
// 3 377 bytes in segment BANKED_CODE
//    72 bytes in segment BANK_RELAYS
//     4 bytes in segment SFR_AN
//    42 bytes in segment XDATA_ROM_C
//    78 bytes in segment XDATA_Z
// 
// 3 449 bytes of CODE  memory
//    38 bytes of CONST memory (+ 4 bytes shared)
//     0 bytes of DATA  memory (+ 4 bytes shared)
//    78 bytes of XDATA memory
//
//Errors: none
//Warnings: none
