///////////////////////////////////////////////////////////////////////////////
//                                                                            /
// IAR C/C++ Compiler V8.10.1.10194/W32 for 8051        08/Feb/2015  18:11:25 /
// Copyright 2004-2011 IAR Systems AB.                                        /
//                                                                            /
//    Core               =  plain                                             /
//    Code model         =  banked                                            /
//    Data model         =  large                                             /
//    Calling convention =  xdata reentrant                                   /
//    Constant location  =  data_rom                                          /
//    Dptr setup         =  1,16                                              /
//    Source file        =  D:\RE_1_2_0_FORMAL_APP(251)-14-12-8\Components\ma /
//                          c\low_level\srf04\single_chip\mac_mcu.c           /
//    Command line       =  -f "D:\RE_1_2_0_FORMAL_APP(251)-14-12-8\Projects\ /
//                          zstack\Samples\SampleApp\CC2530DB\..\..\..\Tools\ /
//                          CC2530DB\f8wRouter.cfg" (-DCPU32MHZ               /
//                          -DROOT=__near_func -DMAC_CFG_APP_PENDING_QUEUE=TR /
//                          UE -DMAC_CFG_TX_DATA_MAX=5 -DMAC_CFG_TX_MAX=8     /
//                          -DMAC_CFG_RX_MAX=5 -DRTR_NWK) -f                  /
//                          "D:\RE_1_2_0_FORMAL_APP(251)-14-12-8\Projects\zst /
//                          ack\Samples\SampleApp\CC2530DB\..\..\..\Tools\CC2 /
//                          530DB\f8wConfig.cfg" (-DZIGBEEPRO -DSECURE=1      /
//                          -DZG_SECURE_DYNAMIC=0 -DREFLECTOR                 /
//                          -DZDAPP_CONFIG_PAN_ID=0xFFFF                      /
//                          -DNWK_START_DELAY=100 -DEXTENDED_JOINING_RANDOM_M /
//                          ASK=0x007F -DBEACON_REQUEST_DELAY=100             /
//                          -DBEACON_REQ_DELAY_MASK=0x00FF                    /
//                          -DLINK_STATUS_JITTER_MASK=0x007F                  /
//                          -DROUTE_EXPIRY_TIME=30 -DAPSC_ACK_WAIT_DURATION_P /
//                          OLLED=3000 -DNWK_INDIRECT_MSG_TIMEOUT=60          /
//                          -DMAX_RREQ_ENTRIES=8 -DAPSC_MAX_FRAME_RETRIES=3   /
//                          -DNWK_MAX_DATA_RETRIES=2                          /
//                          -DMAX_POLL_FAILURE_RETRIES=2 -DMAX_BCAST=9        /
//                          -DAPS_MAX_GROUPS=16 -DMAX_RTG_ENTRIES=30          /
//                          -DNWK_MAX_BINDING_ENTRIES=10                      /
//                          -DMAX_BINDING_CLUSTER_IDS=4 -DASSERT_RESET        /
//                          -DMAC_MAX_FRAME_SIZE=116                          /
//                          -DZDNWKMGR_MIN_TRANSMISSIONS=20 "-DCONST=const    /
//                          __code" -DGENERIC=__generic                       /
//                          -DRFD_RCVC_ALWAYS_ON=FALSE -DPOLL_RATE=8000       /
//                          -DQUEUED_POLL_RATE=100 -DRESPONSE_POLL_RATE=1000) /
//                           -DREJOIN_POLL_RATE=440                           /
//                          "D:\RE_1_2_0_FORMAL_APP(251)-14-12-8\Components\m /
//                          ac\low_level\srf04\single_chip\mac_mcu.c" -D      /
//                          NV_INIT -D NV_RESTORE -D HOLD_AUTO_START -D       /
//                          MT_TASK -D MT_APP_FUNC -D MT_SYS_FUNC -D          /
//                          MT_ZDO_FUNC -D MT_ZDO_MGMT -D ISR_KEYINTERRUPT    /
//                          -D xWDT_IN_PM1 -D xOSC32K_CRYSTAL_INSTALLED=0 -D  /
//                          xLARGER_NETWORK -D xPOWER_PA -D SR_SOKET -lC      /
//                          "D:\RE_1_2_0_FORMAL_APP(251)-14-12-8\Projects\zst /
//                          ack\Samples\SampleApp\CC2530DB\SR_SOKET_device\Li /
//                          st\" -lA "D:\RE_1_2_0_FORMAL_APP(251)-14-12-8\Pro /
//                          jects\zstack\Samples\SampleApp\CC2530DB\SR_SOKET_ /
//                          device\List\" --diag_suppress Pe001,Pa010 -o      /
//                          "D:\RE_1_2_0_FORMAL_APP(251)-14-12-8\Projects\zst /
//                          ack\Samples\SampleApp\CC2530DB\SR_SOKET_device\Ob /
//                          j\" -e --no_cse --no_unroll --no_inline           /
//                          --no_code_motion --no_tbaa --debug --core=plain   /
//                          --dptr=16,1 --data_model=large                    /
//                          --code_model=banked --calling_convention=xdata_re /
//                          entrant --place_constants=data_rom                /
//                          --nr_virtual_regs 16 -I                           /
//                          "D:\RE_1_2_0_FORMAL_APP(251)-14-12-8\Projects\zst /
//                          ack\Samples\SampleApp\CC2530DB\" -I               /
//                          "D:\RE_1_2_0_FORMAL_APP(251)-14-12-8\Projects\zst /
//                          ack\Samples\SampleApp\CC2530DB\..\Source\" -I     /
//                          "D:\RE_1_2_0_FORMAL_APP(251)-14-12-8\Projects\zst /
//                          ack\Samples\SampleApp\CC2530DB\..\..\..\ZMain\TI2 /
//                          530DB\" -I "D:\RE_1_2_0_FORMAL_APP(251)-14-12-8\P /
//                          rojects\zstack\Samples\SampleApp\CC2530DB\..\..\. /
//                          .\..\..\Components\hal\include\" -I               /
//                          "D:\RE_1_2_0_FORMAL_APP(251)-14-12-8\Projects\zst /
//                          ack\Samples\SampleApp\CC2530DB\..\..\..\..\..\Com /
//                          ponents\hal\target\CC2530EB\" -I                  /
//                          "D:\RE_1_2_0_FORMAL_APP(251)-14-12-8\Projects\zst /
//                          ack\Samples\SampleApp\CC2530DB\..\..\..\..\..\Com /
//                          ponents\mac\include\" -I                          /
//                          "D:\RE_1_2_0_FORMAL_APP(251)-14-12-8\Projects\zst /
//                          ack\Samples\SampleApp\CC2530DB\..\..\..\..\..\Com /
//                          ponents\mac\high_level\" -I                       /
//                          "D:\RE_1_2_0_FORMAL_APP(251)-14-12-8\Projects\zst /
//                          ack\Samples\SampleApp\CC2530DB\..\..\..\..\..\Com /
//                          ponents\mac\low_level\srf04\" -I                  /
//                          "D:\RE_1_2_0_FORMAL_APP(251)-14-12-8\Projects\zst /
//                          ack\Samples\SampleApp\CC2530DB\..\..\..\..\..\Com /
//                          ponents\mac\low_level\srf04\single_chip\" -I      /
//                          "D:\RE_1_2_0_FORMAL_APP(251)-14-12-8\Projects\zst /
//                          ack\Samples\SampleApp\CC2530DB\..\..\..\..\..\Com /
//                          ponents\mt\" -I "D:\RE_1_2_0_FORMAL_APP(251)-14-1 /
//                          2-8\Projects\zstack\Samples\SampleApp\CC2530DB\.. /
//                          \..\..\..\..\Components\osal\include\" -I         /
//                          "D:\RE_1_2_0_FORMAL_APP(251)-14-12-8\Projects\zst /
//                          ack\Samples\SampleApp\CC2530DB\..\..\..\..\..\Com /
//                          ponents\services\saddr\" -I                       /
//                          "D:\RE_1_2_0_FORMAL_APP(251)-14-12-8\Projects\zst /
//                          ack\Samples\SampleApp\CC2530DB\..\..\..\..\..\Com /
//                          ponents\services\sdata\" -I                       /
//                          "D:\RE_1_2_0_FORMAL_APP(251)-14-12-8\Projects\zst /
//                          ack\Samples\SampleApp\CC2530DB\..\..\..\..\..\Com /
//                          ponents\stack\af\" -I "D:\RE_1_2_0_FORMAL_APP(251 /
//                          )-14-12-8\Projects\zstack\Samples\SampleApp\CC253 /
//                          0DB\..\..\..\..\..\Components\stack\nwk\" -I      /
//                          "D:\RE_1_2_0_FORMAL_APP(251)-14-12-8\Projects\zst /
//                          ack\Samples\SampleApp\CC2530DB\..\..\..\..\..\Com /
//                          ponents\stack\sapi\" -I                           /
//                          "D:\RE_1_2_0_FORMAL_APP(251)-14-12-8\Projects\zst /
//                          ack\Samples\SampleApp\CC2530DB\..\..\..\..\..\Com /
//                          ponents\stack\sec\" -I "D:\RE_1_2_0_FORMAL_APP(25 /
//                          1)-14-12-8\Projects\zstack\Samples\SampleApp\CC25 /
//                          30DB\..\..\..\..\..\Components\stack\sys\" -I     /
//                          "D:\RE_1_2_0_FORMAL_APP(251)-14-12-8\Projects\zst /
//                          ack\Samples\SampleApp\CC2530DB\..\..\..\..\..\Com /
//                          ponents\stack\zdo\" -I "D:\RE_1_2_0_FORMAL_APP(25 /
//                          1)-14-12-8\Projects\zstack\Samples\SampleApp\CC25 /
//                          30DB\..\..\..\..\..\Components\zmac\" -I          /
//                          "D:\RE_1_2_0_FORMAL_APP(251)-14-12-8\Projects\zst /
//                          ack\Samples\SampleApp\CC2530DB\..\..\..\..\..\Com /
//                          ponents\zmac\f8w\" -On --require_prototypes       /
//    List file          =  D:\RE_1_2_0_FORMAL_APP(251)-14-12-8\Projects\zsta /
//                          ck\Samples\SampleApp\CC2530DB\SR_SOKET_device\Lis /
//                          t\mac_mcu.s51                                     /
//                                                                            /
//                                                                            /
///////////////////////////////////////////////////////////////////////////////

        NAME mac_mcu

        RTMODEL "__SystemLibrary", "CLib"
        RTMODEL "__calling_convention", "xdata_reentrant"
        RTMODEL "__code_model", "banked"
        RTMODEL "__core", "plain"
        RTMODEL "__data_model", "large"
        RTMODEL "__dptr_size", "16"
        RTMODEL "__extended_stack", "disabled"
        RTMODEL "__location_for_constants", "data"
        RTMODEL "__number_of_dptrs", "1"
        RTMODEL "__rt_version", "1"

        RSEG DOVERLAY:DATA:NOROOT(0)
        RSEG IOVERLAY:IDATA:NOROOT(0)
        RSEG ISTACK:IDATA:NOROOT(0)
        RSEG PSTACK:XDATA:NOROOT(0)
        RSEG XSTACK:XDATA:NOROOT(0)

        EXTERN ?ALLOC_XSTACK8
        EXTERN ?BANKED_ENTER_XDATA
        EXTERN ?BANKED_LEAVE_XDATA
        EXTERN ?BDISPATCH
        EXTERN ?BRET
        EXTERN ?CALL_IND
        EXTERN ?DEALLOC_XSTACK8
        EXTERN ?INTERRUPT_ENTER_XSP
        EXTERN ?INTERRUPT_LEAVE_XSP
        EXTERN ?L_ADD_TO_X
        EXTERN ?L_AND_X
        EXTERN ?L_EQ_X
        EXTERN ?L_MOV_X
        EXTERN ?L_SUB_FROM_X
        EXTERN ?POP_BIT_ISP
        EXTERN ?UL_GT
        EXTERN ?UL_GT_X
        EXTERN ?V0
        EXTERN ?XLOAD_R2345
        EXTERN ?XSP
        EXTERN ?XSTACK_DISP0_8
        EXTERN ?XSTORE_R2345
        EXTERN __INIT_XDATA_Z

        PUBLIC ??MAC_SetRandomSeedCB?relay
        FUNCTION ??MAC_SetRandomSeedCB?relay,0203H
        PUBLIC ??macMcuAccumulatedOverFlow?relay
        FUNCTION ??macMcuAccumulatedOverFlow?relay,0203H
        PUBLIC ??macMcuInit?relay
        FUNCTION ??macMcuInit?relay,0203H
        PUBLIC ??macMcuOverflowCapture?relay
        FUNCTION ??macMcuOverflowCapture?relay,0203H
        PUBLIC ??macMcuOverflowCount?relay
        FUNCTION ??macMcuOverflowCount?relay,0203H
        FUNCTION ??macMcuOverflowGetCompare?relay,0203H
        PUBLIC ??macMcuOverflowSetCompare?relay
        FUNCTION ??macMcuOverflowSetCompare?relay,0203H
        PUBLIC ??macMcuOverflowSetCount?relay
        FUNCTION ??macMcuOverflowSetCount?relay,0203H
        PUBLIC ??macMcuOverflowSetPeriod?relay
        FUNCTION ??macMcuOverflowSetPeriod?relay,0203H
        PUBLIC ??macMcuPrecisionCount?relay
        FUNCTION ??macMcuPrecisionCount?relay,0203H
        PUBLIC ??macMcuRandomByte?relay
        FUNCTION ??macMcuRandomByte?relay,0203H
        PUBLIC ??macMcuRandomWord?relay
        FUNCTION ??macMcuRandomWord?relay,0203H
        PUBLIC ??macMcuRecordMaxRssiStart?relay
        FUNCTION ??macMcuRecordMaxRssiStart?relay,0203H
        PUBLIC ??macMcuRecordMaxRssiStop?relay
        FUNCTION ??macMcuRecordMaxRssiStop?relay,0203H
        PUBWEAK `??macMcuRfErrIsr??INTVEC 3`
        PUBWEAK `??macMcuTimer2Isr??INTVEC 83`
        PUBLIC ??macMcuTimer2OverflowWorkaround?relay
        FUNCTION ??macMcuTimer2OverflowWorkaround?relay,0203H
        PUBLIC ??macMcuTimerCapture?relay
        FUNCTION ??macMcuTimerCapture?relay,0203H
        PUBLIC ??macMcuTimerForceDelay?relay
        FUNCTION ??macMcuTimerForceDelay?relay,0203H
        FUNCTION ??mcuRecordMaxRssiIsr?relay,0203H
        PUBWEAK `??rfIsr??INTVEC 131`
        PUBWEAK ADCCON1
        PUBWEAK CLKCONSTA
        PUBWEAK IEN2
        PUBWEAK IP0
        PUBWEAK IP1
        PUBLIC MAC_SetRandomSeedCB
        FUNCTION MAC_SetRandomSeedCB,0203H
        ARGFRAME XSTACK, 0, STACK
        LOCFRAME ISTACK, 2, STACK
        PUBWEAK RFERRF
        PUBWEAK RFIRQF0
        PUBWEAK RFIRQF1
        PUBWEAK RNDH
        PUBWEAK RNDL
        PUBWEAK S1CON
        PUBWEAK T2CTRL
        PUBWEAK T2IRQF
        PUBWEAK T2IRQM
        PUBWEAK T2M0
        PUBWEAK T2M1
        PUBWEAK T2MOVF0
        PUBWEAK T2MOVF1
        PUBWEAK T2MOVF2
        PUBWEAK T2MSEL
        PUBWEAK _A_IEN0
        PUBWEAK _A_IEN1
        PUBWEAK __Constant_0
        PUBWEAK __Constant_ff000000
        PUBLIC macChipVersion
        PUBLIC macMcuAccumulatedOverFlow
        FUNCTION macMcuAccumulatedOverFlow,021203H
        ARGFRAME XSTACK, 0, STACK
        LOCFRAME XSTACK, 12, STACK
        PUBLIC macMcuInit
        FUNCTION macMcuInit,021203H
        ARGFRAME XSTACK, 0, STACK
        LOCFRAME ISTACK, 1, STACK
        LOCFRAME XSTACK, 27, STACK
        PUBLIC macMcuOverflowCapture
        FUNCTION macMcuOverflowCapture,0203H
        ARGFRAME XSTACK, 0, STACK
        LOCFRAME ISTACK, 3, STACK
        LOCFRAME XSTACK, 4, STACK
        PUBLIC macMcuOverflowCount
        FUNCTION macMcuOverflowCount,0203H
        ARGFRAME XSTACK, 16, STACK
        ARGFRAME IOVERLAY, 0, STATIC
        ARGFRAME DOVERLAY, 0, STATIC
        LOCFRAME ISTACK, 3, STACK
        LOCFRAME XSTACK, 4, STACK
        FUNCTION macMcuOverflowGetCompare,0203H
        ARGFRAME XSTACK, 16, STACK
        ARGFRAME IOVERLAY, 0, STATIC
        ARGFRAME DOVERLAY, 0, STATIC
        LOCFRAME ISTACK, 3, STACK
        LOCFRAME XSTACK, 4, STACK
        PUBLIC macMcuOverflowSetCompare
        FUNCTION macMcuOverflowSetCompare,021203H
        ARGFRAME XSTACK, 0, STACK
        LOCFRAME XSTACK, 16, STACK
        PUBLIC macMcuOverflowSetCount
        FUNCTION macMcuOverflowSetCount,021203H
        ARGFRAME XSTACK, 0, STACK
        LOCFRAME XSTACK, 16, STACK
        PUBLIC macMcuOverflowSetPeriod
        FUNCTION macMcuOverflowSetPeriod,021203H
        ARGFRAME XSTACK, 0, STACK
        LOCFRAME XSTACK, 16, STACK
        PUBLIC macMcuPrecisionCount
        FUNCTION macMcuPrecisionCount,021203H
        ARGFRAME XSTACK, 0, STACK
        LOCFRAME ISTACK, 2, STACK
        LOCFRAME XSTACK, 16, STACK
        PUBLIC macMcuRandomByte
        FUNCTION macMcuRandomByte,0203H
        ARGFRAME XSTACK, 0, STACK
        PUBLIC macMcuRandomWord
        FUNCTION macMcuRandomWord,0203H
        ARGFRAME XSTACK, 0, STACK
        LOCFRAME ISTACK, 2, STACK
        PUBLIC macMcuRecordMaxRssiStart
        FUNCTION macMcuRecordMaxRssiStart,0203H
        ARGFRAME XSTACK, 0, STACK
        LOCFRAME ISTACK, 2, STACK
        PUBLIC macMcuRecordMaxRssiStop
        FUNCTION macMcuRecordMaxRssiStop,0203H
        ARGFRAME XSTACK, 0, STACK
        LOCFRAME ISTACK, 2, STACK
        PUBLIC macMcuRfErrIsr
        FUNCTION macMcuRfErrIsr,021233H
        ARGFRAME XSTACK, 0, STACK
        LOCFRAME ISTACK, 15, STACK
        PUBLIC macMcuTimer2Isr
        FUNCTION macMcuTimer2Isr,021233H
        ARGFRAME XSTACK, 0, STACK
        LOCFRAME ISTACK, 16, STACK
        PUBLIC macMcuTimer2OverflowWorkaround
        FUNCTION macMcuTimer2OverflowWorkaround,021203H
        ARGFRAME XSTACK, 0, STACK
        LOCFRAME XSTACK, 16, STACK
        PUBLIC macMcuTimerCapture
        FUNCTION macMcuTimerCapture,0203H
        ARGFRAME XSTACK, 0, STACK
        LOCFRAME ISTACK, 2, STACK
        PUBLIC macMcuTimerForceDelay
        FUNCTION macMcuTimerForceDelay,0203H
        ARGFRAME XSTACK, 0, STACK
        FUNCTION mcuRecordMaxRssiIsr,0203H
        ARGFRAME XSTACK, 0, STACK
        ARGFRAME IOVERLAY, 0, STATIC
        ARGFRAME DOVERLAY, 0, STATIC
        LOCFRAME ISTACK, 2, STACK
        PUBLIC rfIsr
        FUNCTION rfIsr,021233H
        ARGFRAME XSTACK, 0, STACK
        LOCFRAME ISTACK, 16, STACK
        
        CFI Names cfiNames0
        CFI StackFrame CFA_SP SP IDATA
        CFI StackFrame CFA_PSP16 PSP16 XDATA
        CFI StackFrame CFA_XSP16 XSP16 XDATA
        CFI StaticOverlayFrame CFA_IOVERLAY IOVERLAY
        CFI StaticOverlayFrame CFA_DOVERLAY DOVERLAY
        CFI Resource `PSW.CY`:1, `B.BR0`:1, `B.BR1`:1, `B.BR2`:1, `B.BR3`:1
        CFI Resource `B.BR4`:1, `B.BR5`:1, `B.BR6`:1, `B.BR7`:1, `VB.BR8`:1
        CFI Resource `VB.BR9`:1, `VB.BR10`:1, `VB.BR11`:1, `VB.BR12`:1
        CFI Resource `VB.BR13`:1, `VB.BR14`:1, `VB.BR15`:1, VB:8, B:8, A:8
        CFI Resource PSW:8, DPL0:8, DPH0:8, R0:8, R1:8, R2:8, R3:8, R4:8, R5:8
        CFI Resource R6:8, R7:8, V0:8, V1:8, V2:8, V3:8, V4:8, V5:8, V6:8, V7:8
        CFI Resource V8:8, V9:8, V10:8, V11:8, V12:8, V13:8, V14:8, V15:8, SP:8
        CFI Resource PSPH:8, PSPL:8, PSP16:16, XSPH:8, XSPL:8, XSP16:16
        CFI VirtualResource ?RET:24
        CFI Resource ?BRET_EXT:8
        CFI VirtualResource ?RET_HIGH:8, ?RET_LOW:8
        CFI ResourceParts PSP16 PSPH, PSPL
        CFI ResourceParts XSP16 XSPH, XSPL
        CFI ResourceParts ?RET ?BRET_EXT, ?RET_HIGH, ?RET_LOW
        CFI EndNames cfiNames0
        
        CFI Common cfiCommon0 Using cfiNames0
        CFI CodeAlign 1
        CFI DataAlign -1
        CFI ReturnAddress ?RET CODE
        CFI CFA_DOVERLAY Used
        CFI CFA_IOVERLAY Used
        CFI CFA_SP SP+-3
        CFI CFA_PSP16 PSP16+0
        CFI CFA_XSP16 XSP16+0
        CFI `PSW.CY` SameValue
        CFI `B.BR0` SameValue
        CFI `B.BR1` SameValue
        CFI `B.BR2` SameValue
        CFI `B.BR3` SameValue
        CFI `B.BR4` SameValue
        CFI `B.BR5` SameValue
        CFI `B.BR6` SameValue
        CFI `B.BR7` SameValue
        CFI `VB.BR8` SameValue
        CFI `VB.BR9` SameValue
        CFI `VB.BR10` SameValue
        CFI `VB.BR11` SameValue
        CFI `VB.BR12` SameValue
        CFI `VB.BR13` SameValue
        CFI `VB.BR14` SameValue
        CFI `VB.BR15` SameValue
        CFI VB SameValue
        CFI B Undefined
        CFI A Undefined
        CFI PSW SameValue
        CFI DPL0 SameValue
        CFI DPH0 SameValue
        CFI R0 Undefined
        CFI R1 Undefined
        CFI R2 Undefined
        CFI R3 Undefined
        CFI R4 Undefined
        CFI R5 Undefined
        CFI R6 SameValue
        CFI R7 SameValue
        CFI V0 SameValue
        CFI V1 SameValue
        CFI V2 SameValue
        CFI V3 SameValue
        CFI V4 SameValue
        CFI V5 SameValue
        CFI V6 SameValue
        CFI V7 SameValue
        CFI V8 SameValue
        CFI V9 SameValue
        CFI V10 SameValue
        CFI V11 SameValue
        CFI V12 SameValue
        CFI V13 SameValue
        CFI V14 SameValue
        CFI V15 SameValue
        CFI PSPH Undefined
        CFI PSPL Undefined
        CFI XSPH Undefined
        CFI XSPL Undefined
        CFI ?RET Concat
        CFI ?BRET_EXT Frame(CFA_SP, 3)
        CFI ?RET_HIGH Frame(CFA_SP, 2)
        CFI ?RET_LOW Frame(CFA_SP, 1)
        CFI EndCommon cfiCommon0
        
        
        CFI Common cfiCommon1 Using cfiNames0
        CFI CodeAlign 1
        CFI DataAlign -1
        CFI ReturnAddress ?RET CODE
        CFI CFA_DOVERLAY Used
        CFI CFA_IOVERLAY Used
        CFI CFA_SP SP+-2
        CFI CFA_PSP16 PSP16+0
        CFI CFA_XSP16 XSP16+0
        CFI `PSW.CY` SameValue
        CFI `B.BR0` SameValue
        CFI `B.BR1` SameValue
        CFI `B.BR2` SameValue
        CFI `B.BR3` SameValue
        CFI `B.BR4` SameValue
        CFI `B.BR5` SameValue
        CFI `B.BR6` SameValue
        CFI `B.BR7` SameValue
        CFI `VB.BR8` SameValue
        CFI `VB.BR9` SameValue
        CFI `VB.BR10` SameValue
        CFI `VB.BR11` SameValue
        CFI `VB.BR12` SameValue
        CFI `VB.BR13` SameValue
        CFI `VB.BR14` SameValue
        CFI `VB.BR15` SameValue
        CFI VB SameValue
        CFI B SameValue
        CFI A SameValue
        CFI PSW SameValue
        CFI DPL0 SameValue
        CFI DPH0 SameValue
        CFI R0 SameValue
        CFI R1 SameValue
        CFI R2 SameValue
        CFI R3 SameValue
        CFI R4 SameValue
        CFI R5 SameValue
        CFI R6 SameValue
        CFI R7 SameValue
        CFI V0 SameValue
        CFI V1 SameValue
        CFI V2 SameValue
        CFI V3 SameValue
        CFI V4 SameValue
        CFI V5 SameValue
        CFI V6 SameValue
        CFI V7 SameValue
        CFI V8 SameValue
        CFI V9 SameValue
        CFI V10 SameValue
        CFI V11 SameValue
        CFI V12 SameValue
        CFI V13 SameValue
        CFI V14 SameValue
        CFI V15 SameValue
        CFI PSPH Undefined
        CFI PSPL Undefined
        CFI XSPH Undefined
        CFI XSPL Undefined
        CFI ?RET Concat
        CFI ?BRET_EXT SameValue
        CFI ?RET_HIGH Frame(CFA_SP, 2)
        CFI ?RET_LOW Frame(CFA_SP, 1)
        CFI EndCommon cfiCommon1
        
macRxOn             SYMBOL "macRxOn"
macRxOff            SYMBOL "macRxOff"
halAssertHandler    SYMBOL "halAssertHandler"
halSetMaxSleepLoopTime SYMBOL "halSetMaxSleepLoopTime"
macBackoffTimerCompareIsr SYMBOL "macBackoffTimerCompareIsr"
macBackoffTimerPeriodIsr SYMBOL "macBackoffTimerPeriodIsr"
macGetBackOffTimerRollover SYMBOL "macGetBackOffTimerRollover"
macCspTxIntIsr      SYMBOL "macCspTxIntIsr"
macCspTxStopIsr     SYMBOL "macCspTxStopIsr"
macRxAckTxDoneCallback SYMBOL "macRxAckTxDoneCallback"
macRxThresholdIsr   SYMBOL "macRxThresholdIsr"
macRxFifoOverflowIsr SYMBOL "macRxFifoOverflowIsr"
??halAssertHandler?relay SYMBOL "?relay", halAssertHandler
??halSetMaxSleepLoopTime?relay SYMBOL "?relay", halSetMaxSleepLoopTime
??macBackoffTimerCompareIsr?relay SYMBOL "?relay", macBackoffTimerCompareIsr
??macBackoffTimerPeriodIsr?relay SYMBOL "?relay", macBackoffTimerPeriodIsr
??macCspTxIntIsr?relay SYMBOL "?relay", macCspTxIntIsr
??macCspTxStopIsr?relay SYMBOL "?relay", macCspTxStopIsr
??macGetBackOffTimerRollover?relay SYMBOL "?relay", macGetBackOffTimerRollover
??macRxAckTxDoneCallback?relay SYMBOL "?relay", macRxAckTxDoneCallback
??macRxFifoOverflowIsr?relay SYMBOL "?relay", macRxFifoOverflowIsr
??macRxOff?relay    SYMBOL "?relay", macRxOff
??macRxOn?relay     SYMBOL "?relay", macRxOn
??macRxThresholdIsr?relay SYMBOL "?relay", macRxThresholdIsr
MAC_SetRandomSeedCB SYMBOL "MAC_SetRandomSeedCB"
??MAC_SetRandomSeedCB?relay SYMBOL "?relay", MAC_SetRandomSeedCB
macMcuAccumulatedOverFlow SYMBOL "macMcuAccumulatedOverFlow"
??macMcuAccumulatedOverFlow?relay SYMBOL "?relay", macMcuAccumulatedOverFlow
macMcuInit          SYMBOL "macMcuInit"
??macMcuInit?relay  SYMBOL "?relay", macMcuInit
macMcuOverflowCapture SYMBOL "macMcuOverflowCapture"
??macMcuOverflowCapture?relay SYMBOL "?relay", macMcuOverflowCapture
macMcuOverflowCount SYMBOL "macMcuOverflowCount"
??macMcuOverflowCount?relay SYMBOL "?relay", macMcuOverflowCount
macMcuOverflowSetCompare SYMBOL "macMcuOverflowSetCompare"
??macMcuOverflowSetCompare?relay SYMBOL "?relay", macMcuOverflowSetCompare
macMcuOverflowSetCount SYMBOL "macMcuOverflowSetCount"
??macMcuOverflowSetCount?relay SYMBOL "?relay", macMcuOverflowSetCount
macMcuOverflowSetPeriod SYMBOL "macMcuOverflowSetPeriod"
??macMcuOverflowSetPeriod?relay SYMBOL "?relay", macMcuOverflowSetPeriod
macMcuPrecisionCount SYMBOL "macMcuPrecisionCount"
??macMcuPrecisionCount?relay SYMBOL "?relay", macMcuPrecisionCount
macMcuRandomByte    SYMBOL "macMcuRandomByte"
??macMcuRandomByte?relay SYMBOL "?relay", macMcuRandomByte
macMcuRandomWord    SYMBOL "macMcuRandomWord"
??macMcuRandomWord?relay SYMBOL "?relay", macMcuRandomWord
macMcuRecordMaxRssiStart SYMBOL "macMcuRecordMaxRssiStart"
??macMcuRecordMaxRssiStart?relay SYMBOL "?relay", macMcuRecordMaxRssiStart
macMcuRecordMaxRssiStop SYMBOL "macMcuRecordMaxRssiStop"
??macMcuRecordMaxRssiStop?relay SYMBOL "?relay", macMcuRecordMaxRssiStop
macMcuRfErrIsr      SYMBOL "macMcuRfErrIsr"
`??macMcuRfErrIsr??INTVEC 3` SYMBOL "??INTVEC 3", macMcuRfErrIsr
macMcuTimer2Isr     SYMBOL "macMcuTimer2Isr"
`??macMcuTimer2Isr??INTVEC 83` SYMBOL "??INTVEC 83", macMcuTimer2Isr
macMcuTimer2OverflowWorkaround SYMBOL "macMcuTimer2OverflowWorkaround"
??macMcuTimer2OverflowWorkaround?relay SYMBOL "?relay", macMcuTimer2OverflowWorkaround
macMcuTimerCapture  SYMBOL "macMcuTimerCapture"
??macMcuTimerCapture?relay SYMBOL "?relay", macMcuTimerCapture
macMcuTimerForceDelay SYMBOL "macMcuTimerForceDelay"
??macMcuTimerForceDelay?relay SYMBOL "?relay", macMcuTimerForceDelay
rfIsr               SYMBOL "rfIsr"
`??rfIsr??INTVEC 131` SYMBOL "??INTVEC 131", rfIsr

        EXTERN macRxOn
        FUNCTION macRxOn,0202H
        ARGFRAME ISTACK, 0, STACK
        ARGFRAME PSTACK, 0, STACK
        ARGFRAME XSTACK, 27, STACK
        ARGFRAME IOVERLAY, 0, STATIC
        ARGFRAME DOVERLAY, 0, STATIC
        EXTERN macRxOff
        FUNCTION macRxOff,0202H
        ARGFRAME ISTACK, 0, STACK
        ARGFRAME PSTACK, 0, STACK
        ARGFRAME XSTACK, 27, STACK
        ARGFRAME IOVERLAY, 0, STATIC
        ARGFRAME DOVERLAY, 0, STATIC
        EXTERN halAssertHandler
        FUNCTION halAssertHandler,0202H
        ARGFRAME ISTACK, 0, STACK
        ARGFRAME PSTACK, 0, STACK
        ARGFRAME XSTACK, 16, STACK
        ARGFRAME IOVERLAY, 0, STATIC
        ARGFRAME DOVERLAY, 0, STATIC
        EXTERN halSetMaxSleepLoopTime
        FUNCTION halSetMaxSleepLoopTime,0202H
        ARGFRAME ISTACK, 0, STACK
        ARGFRAME PSTACK, 0, STACK
        ARGFRAME XSTACK, 16, STACK
        ARGFRAME IOVERLAY, 0, STATIC
        ARGFRAME DOVERLAY, 0, STATIC
        EXTERN macBackoffTimerCompareIsr
        FUNCTION macBackoffTimerCompareIsr,0202H
        ARGFRAME ISTACK, 15, STACK
        ARGFRAME PSTACK, 0, STACK
        ARGFRAME XSTACK, 16, STACK
        ARGFRAME IOVERLAY, 0, STATIC
        ARGFRAME DOVERLAY, 0, STATIC
        EXTERN macBackoffTimerPeriodIsr
        FUNCTION macBackoffTimerPeriodIsr,0202H
        ARGFRAME ISTACK, 15, STACK
        ARGFRAME PSTACK, 0, STACK
        ARGFRAME XSTACK, 0, STACK
        ARGFRAME IOVERLAY, 0, STATIC
        ARGFRAME DOVERLAY, 0, STATIC
        EXTERN macGetBackOffTimerRollover
        FUNCTION macGetBackOffTimerRollover,0202H
        ARGFRAME ISTACK, 0, STACK
        ARGFRAME PSTACK, 0, STACK
        ARGFRAME XSTACK, 16, STACK
        ARGFRAME IOVERLAY, 0, STATIC
        ARGFRAME DOVERLAY, 0, STATIC
        EXTERN macCspTxIntIsr
        FUNCTION macCspTxIntIsr,0202H
        ARGFRAME ISTACK, 15, STACK
        ARGFRAME PSTACK, 0, STACK
        ARGFRAME XSTACK, 0, STACK
        ARGFRAME IOVERLAY, 0, STATIC
        ARGFRAME DOVERLAY, 0, STATIC
        EXTERN macCspTxStopIsr
        FUNCTION macCspTxStopIsr,0202H
        ARGFRAME ISTACK, 15, STACK
        ARGFRAME PSTACK, 0, STACK
        ARGFRAME XSTACK, 0, STACK
        ARGFRAME IOVERLAY, 0, STATIC
        ARGFRAME DOVERLAY, 0, STATIC
        EXTERN macRxAckTxDoneCallback
        FUNCTION macRxAckTxDoneCallback,0202H
        ARGFRAME ISTACK, 15, STACK
        ARGFRAME PSTACK, 0, STACK
        ARGFRAME XSTACK, 0, STACK
        ARGFRAME IOVERLAY, 0, STATIC
        ARGFRAME DOVERLAY, 0, STATIC
        EXTERN macRxThresholdIsr
        FUNCTION macRxThresholdIsr,0202H
        ARGFRAME ISTACK, 15, STACK
        ARGFRAME PSTACK, 0, STACK
        ARGFRAME XSTACK, 0, STACK
        ARGFRAME IOVERLAY, 0, STATIC
        ARGFRAME DOVERLAY, 0, STATIC
        EXTERN macRxFifoOverflowIsr
        FUNCTION macRxFifoOverflowIsr,0202H
        ARGFRAME ISTACK, 15, STACK
        ARGFRAME PSTACK, 0, STACK
        ARGFRAME XSTACK, 0, STACK
        ARGFRAME IOVERLAY, 0, STATIC
        ARGFRAME DOVERLAY, 0, STATIC
        EXTERN ??halAssertHandler?relay
        FUNCTION ??halAssertHandler?relay,00H
        EXTERN ??halSetMaxSleepLoopTime?relay
        FUNCTION ??halSetMaxSleepLoopTime?relay,00H
        EXTERN ??macBackoffTimerCompareIsr?relay
        FUNCTION ??macBackoffTimerCompareIsr?relay,00H
        EXTERN ??macBackoffTimerPeriodIsr?relay
        FUNCTION ??macBackoffTimerPeriodIsr?relay,00H
        EXTERN ??macCspTxIntIsr?relay
        FUNCTION ??macCspTxIntIsr?relay,00H
        EXTERN ??macCspTxStopIsr?relay
        FUNCTION ??macCspTxStopIsr?relay,00H
        EXTERN ??macGetBackOffTimerRollover?relay
        FUNCTION ??macGetBackOffTimerRollover?relay,00H
        EXTERN ??macRxAckTxDoneCallback?relay
        FUNCTION ??macRxAckTxDoneCallback?relay,00H
        EXTERN ??macRxFifoOverflowIsr?relay
        FUNCTION ??macRxFifoOverflowIsr?relay,00H
        EXTERN ??macRxOff?relay
        FUNCTION ??macRxOff?relay,00H
        EXTERN ??macRxOn?relay
        FUNCTION ??macRxOn?relay,00H
        EXTERN ??macRxThresholdIsr?relay
        FUNCTION ??macRxThresholdIsr?relay,00H

// D:\RE_1_2_0_FORMAL_APP(251)-14-12-8\Components\mac\low_level\srf04\single_chip\mac_mcu.c
//    1 /**************************************************************************************************
//    2   Filename:       mac_mcu.c
//    3   Revised:        $Date: 2012-03-07 16:55:44 -0800 (Wed, 07 Mar 2012) $
//    4   Revision:       $Revision: 29672 $
//    5 
//    6   Description:    Describe the purpose and contents of the file.
//    7 
//    8 
//    9   Copyright 2006-2012 Texas Instruments Incorporated. All rights reserved.
//   10 
//   11   IMPORTANT: Your use of this Software is limited to those specific rights
//   12   granted under the terms of a software license agreement between the user
//   13   who downloaded the software, his/her employer (which must be your employer)
//   14   and Texas Instruments Incorporated (the "License").  You may not use this
//   15   Software unless you agree to abide by the terms of the License. The License
//   16   limits your use, and you acknowledge, that the Software may not be modified,
//   17   copied or distributed unless embedded on a Texas Instruments microcontroller
//   18   or used solely and exclusively in conjunction with a Texas Instruments radio
//   19   frequency transceiver, which is integrated into your product.  Other than for
//   20   the foregoing purpose, you may not use, reproduce, copy, prepare derivative
//   21   works of, modify, distribute, perform, display or sell this Software and/or
//   22   its documentation for any purpose.
//   23 
//   24   YOU FURTHER ACKNOWLEDGE AND AGREE THAT THE SOFTWARE AND DOCUMENTATION ARE
//   25   PROVIDED “AS IS?WITHOUT WARRANTY OF ANY KIND, EITHER EXPRESS OR IMPLIED,
//   26   INCLUDING WITHOUT LIMITATION, ANY WARRANTY OF MERCHANTABILITY, TITLE,
//   27   NON-INFRINGEMENT AND FITNESS FOR A PARTICULAR PURPOSE. IN NO EVENT SHALL
//   28   TEXAS INSTRUMENTS OR ITS LICENSORS BE LIABLE OR OBLIGATED UNDER CONTRACT,
//   29   NEGLIGENCE, STRICT LIABILITY, CONTRIBUTION, BREACH OF WARRANTY, OR OTHER
//   30   LEGAL EQUITABLE THEORY ANY DIRECT OR INDIRECT DAMAGES OR EXPENSES
//   31   INCLUDING BUT NOT LIMITED TO ANY INCIDENTAL, SPECIAL, INDIRECT, PUNITIVE
//   32   OR CONSEQUENTIAL DAMAGES, LOST PROFITS OR LOST DATA, COST OF PROCUREMENT
//   33   OF SUBSTITUTE GOODS, TECHNOLOGY, SERVICES, OR ANY CLAIMS BY THIRD PARTIES
//   34   (INCLUDING BUT NOT LIMITED TO ANY DEFENSE THEREOF), OR OTHER SIMILAR COSTS.
//   35 
//   36   Should you have any questions regarding your right to use this Software,
//   37   contact Texas Instruments Incorporated at www.TI.com.
//   38 **************************************************************************************************/
//   39 
//   40 /* ------------------------------------------------------------------------------------------------
//   41  *                                          Includes
//   42  * ------------------------------------------------------------------------------------------------
//   43  */
//   44 
//   45 /* hal */
//   46 #include "hal_defs.h"
//   47 #include "hal_mcu.h"

        ASEGN SFR_AN:DATA:NOROOT,091H
// unsigned char volatile __sfr RFIRQF1
RFIRQF1:
        DATA8
        DS 1

        ASEGN SFR_AN:DATA:NOROOT,094H
// unsigned char volatile __sfr T2CTRL
T2CTRL:
        DATA8
        DS 1

        ASEGN SFR_AN:DATA:NOROOT,09aH
// unsigned char volatile __sfr IEN2
IEN2:
        DATA8
        DS 1

        ASEGN SFR_AN:DATA:NOROOT,09bH
// unsigned char volatile __sfr S1CON
S1CON:
        DATA8
        DS 1

        ASEGN SFR_AN:DATA:NOROOT,09eH
// unsigned char volatile __sfr CLKCONSTA
CLKCONSTA:
        DATA8
        DS 1

        ASEGN SFR_AN:DATA:NOROOT,0a1H
// unsigned char volatile __sfr T2IRQF
T2IRQF:
        DATA8
        DS 1

        ASEGN SFR_AN:DATA:NOROOT,0a2H
// unsigned char volatile __sfr T2M0
T2M0:
        DATA8
        DS 1

        ASEGN SFR_AN:DATA:NOROOT,0a3H
// unsigned char volatile __sfr T2M1
T2M1:
        DATA8
        DS 1

        ASEGN SFR_AN:DATA:NOROOT,0a4H
// unsigned char volatile __sfr T2MOVF0
T2MOVF0:
        DATA8
        DS 1

        ASEGN SFR_AN:DATA:NOROOT,0a5H
// unsigned char volatile __sfr T2MOVF1
T2MOVF1:
        DATA8
        DS 1

        ASEGN SFR_AN:DATA:NOROOT,0a6H
// unsigned char volatile __sfr T2MOVF2
T2MOVF2:
        DATA8
        DS 1

        ASEGN SFR_AN:DATA:NOROOT,0a7H
// unsigned char volatile __sfr T2IRQM
T2IRQM:
        DATA8
        DS 1

        ASEGN SFR_AN:DATA:NOROOT,0a8H
// union <unnamed> volatile __sfr _A_IEN0
_A_IEN0:
        DATA8
        DS 1

        ASEGN SFR_AN:DATA:NOROOT,0a9H
// unsigned char volatile __sfr IP0
IP0:
        DATA8
        DS 1

        ASEGN SFR_AN:DATA:NOROOT,0b4H
// unsigned char volatile __sfr ADCCON1
ADCCON1:
        DATA8
        DS 1

        ASEGN SFR_AN:DATA:NOROOT,0b8H
// union <unnamed> volatile __sfr _A_IEN1
_A_IEN1:
        DATA8
        DS 1

        ASEGN SFR_AN:DATA:NOROOT,0b9H
// unsigned char volatile __sfr IP1
IP1:
        DATA8
        DS 1

        ASEGN SFR_AN:DATA:NOROOT,0bcH
// unsigned char volatile __sfr RNDL
RNDL:
        DATA8
        DS 1

        ASEGN SFR_AN:DATA:NOROOT,0bdH
// unsigned char volatile __sfr RNDH
RNDH:
        DATA8
        DS 1

        ASEGN SFR_AN:DATA:NOROOT,0bfH
// unsigned char volatile __sfr RFERRF
RFERRF:
        DATA8
        DS 1

        ASEGN SFR_AN:DATA:NOROOT,0c3H
// unsigned char volatile __sfr T2MSEL
T2MSEL:
        DATA8
        DS 1

        ASEGN SFR_AN:DATA:NOROOT,0e9H
// unsigned char volatile __sfr RFIRQF0
RFIRQF0:
        DATA8
        DS 1
//   48 
//   49 /* low-level specific */
//   50 #include "mac_rx.h"
//   51 #include "mac_tx.h"
//   52 #include "mac_backoff_timer.h"
//   53 #include "mac_csp_tx.h"
//   54 #include "mac_rx_onoff.h"
//   55 #include "mac_low_level.h"
//   56 
//   57 /* target specific */
//   58 #include "mac_mcu.h"
//   59 #include "mac_radio_defs.h"
//   60 
//   61 /* debug */
//   62 #include "mac_assert.h"
//   63 
//   64 
//   65 #if defined(HAVE_TEST_FUN)
//   66 #include "hal_types.h"
//   67 #include "basic_rf.h"
//   68 
//   69 ISR_FUNC_PTR pfISR= NULL;
//   70 
//   71 #endif
//   72 
//   73 extern uint8 TEST_FLAG;
//   74 
//   75 /* ------------------------------------------------------------------------------------------------
//   76  *                                           Defines
//   77  * ------------------------------------------------------------------------------------------------
//   78  */
//   79 
//   80 /* for optimized indexing of uint32's */
//   81 #if HAL_MCU_LITTLE_ENDIAN()
//   82 #define UINT32_NDX0   0
//   83 #define UINT32_NDX1   1
//   84 #define UINT32_NDX2   2
//   85 #define UINT32_NDX3   3
//   86 #else
//   87 #define UINT32_NDX0   3
//   88 #define UINT32_NDX1   2
//   89 #define UINT32_NDX2   1
//   90 #define UINT32_NDX3   0
//   91 #endif
//   92 
//   93 #define HAL_INT_LOCK(x)    st( (x) = EA; EA = 0; )
//   94 #define HAL_INT_UNLOCK(x)    st( (x) = EA; EA = 1; )
//   95 #define IRQ_RXPKTDONE              0x40
//   96 
//   97 
//   98 /* ------------------------------------------------------------------------------------------------
//   99  *                                        Local Variables
//  100  * ------------------------------------------------------------------------------------------------
//  101  */

        RSEG XDATA_Z:XDATA:NOROOT(0)
        DATA8
//  102 uint8       macChipVersion = 0;
macChipVersion:
        DS 1
        REQUIRE __INIT_XDATA_Z

        RSEG XDATA_Z:XDATA:NOROOT(0)
        DATA8
//  103 static int8 maxRssi;
maxRssi:
        DS 1
        REQUIRE __INIT_XDATA_Z

        RSEG XDATA_Z:XDATA:NOROOT(0)
        DATA32
//  104 static uint32 prevAccumulatedOverflowCount = 0;
prevAccumulatedOverflowCount:
        DS 4
        REQUIRE __INIT_XDATA_Z

        RSEG XDATA_Z:XDATA:NOROOT(0)
        DATA8
//  105 static bool updateRolloverflag = FALSE;
updateRolloverflag:
        DS 1
        REQUIRE __INIT_XDATA_Z

        RSEG XDATA_Z:XDATA:NOROOT(0)
        DATA32
//  106 static uint32 prevoverflowCount = 0;
prevoverflowCount:
        DS 4
        REQUIRE __INIT_XDATA_Z
//  107 
//  108 /*
//  109  *  This number is used to calculate the precision count for OSAL timer update. In Beacon mode,
//  110  *  the overflow count may be initialized to zero or to a constant. The "skip" in overflow count
//  111  *  needs to be accounted for in this variable.
//  112  */

        RSEG XDATA_Z:XDATA:NOROOT(0)
        DATA32
//  113 static uint32 accumulatedOverflowCount = 0;
accumulatedOverflowCount:
        DS 4
        REQUIRE __INIT_XDATA_Z
//  114 
//  115 /* Function pointer for the random seed callback */

        RSEG XDATA_Z:XDATA:NOROOT(0)
        DATA16
//  116 static macRNGFcn_t pRandomSeedCB = NULL;
pRandomSeedCB:
        DS 2
        REQUIRE __INIT_XDATA_Z
//  117 /* ------------------------------------------------------------------------------------------------
//  118  *                                       Local Prototypes
//  119  * ------------------------------------------------------------------------------------------------
//  120  */
//  121 static void mcuRecordMaxRssiIsr(void);
//  122 static uint32 macMcuOverflowGetCompare(void);
//  123 
//  124 void MAC_SetRandomSeedCB(macRNGFcn_t pCBFcn);
//  125 
//  126 /**************************************************************************************************
//  127  * @fn          MAC_SetRandomSeedCB
//  128  *
//  129  * @brief       Set the function pointer for the random seed callback.
//  130  *
//  131  * @param       pCBFcn - function pointer of the random seed callback
//  132  *
//  133  * @return      none
//  134  **************************************************************************************************
//  135  */

        RSEG BANKED_CODE:CODE:NOROOT(0)
//  136 void MAC_SetRandomSeedCB(macRNGFcn_t pCBFcn)
MAC_SetRandomSeedCB:
        CFI Block cfiBlock0 Using cfiCommon0
        CFI Function MAC_SetRandomSeedCB
        CODE
//  137 {
        PUSH    DPL
        CFI DPL0 Frame(CFA_SP, 4)
        CFI CFA_SP SP+-4
        PUSH    DPH
        CFI DPH0 Frame(CFA_SP, 5)
        CFI CFA_SP SP+-5
        ; Saved register size: 2
        ; Auto size: 0
//  138   pRandomSeedCB = pCBFcn;
        MOV     DPTR,#pRandomSeedCB
        MOV     A,R2
        MOVX    @DPTR,A
        INC     DPTR
        MOV     A,R3
        MOVX    @DPTR,A
//  139 }
        POP     DPH
        CFI DPH0 SameValue
        CFI CFA_SP SP+-4
        POP     DPL
        CFI DPL0 SameValue
        CFI CFA_SP SP+-3
        LJMP    ?BRET
        CFI EndBlock cfiBlock0
//  140 
//  141 /**************************************************************************************************
//  142  * @fn          macMcuInit
//  143  *
//  144  * @brief       Initialize the MCU.
//  145  *
//  146  * @param       none
//  147  *
//  148  * @return      none
//  149  **************************************************************************************************
//  150  */

        RSEG BANKED_CODE:CODE:NOROOT(0)
//  151 MAC_INTERNAL_API void macMcuInit(void)
macMcuInit:
        CFI Block cfiBlock1 Using cfiCommon0
        CFI Function macMcuInit
        CODE
//  152 {
        FUNCALL macMcuInit, macRxOn
        LOCFRAME ISTACK, 0, STACK
        LOCFRAME PSTACK, 0, STACK
        LOCFRAME XSTACK, 27, STACK
        LOCFRAME IOVERLAY, 0, STATIC
        LOCFRAME DOVERLAY, 0, STATIC
        ARGFRAME ISTACK, 0, STACK
        ARGFRAME PSTACK, 0, STACK
        ARGFRAME XSTACK, 27, STACK
        ARGFRAME IOVERLAY, 0, STATIC
        ARGFRAME DOVERLAY, 0, STATIC
        FUNCALL macMcuInit, macRxOff
        LOCFRAME ISTACK, 0, STACK
        LOCFRAME PSTACK, 0, STACK
        LOCFRAME XSTACK, 27, STACK
        LOCFRAME IOVERLAY, 0, STATIC
        LOCFRAME DOVERLAY, 0, STATIC
        ARGFRAME ISTACK, 0, STACK
        ARGFRAME PSTACK, 0, STACK
        ARGFRAME XSTACK, 27, STACK
        ARGFRAME IOVERLAY, 0, STATIC
        ARGFRAME DOVERLAY, 0, STATIC
        MOV     A,#-0xb
        LCALL   ?BANKED_ENTER_XDATA
        CFI DPH0 load(1, XDATA, add(CFA_XSP16, literal(-1)))
        CFI DPL0 load(1, XDATA, add(CFA_XSP16, literal(-2)))
        CFI ?BRET_EXT load(1, XDATA, add(CFA_XSP16, literal(-3)))
        CFI ?RET_HIGH load(1, XDATA, add(CFA_XSP16, literal(-4)))
        CFI ?RET_LOW load(1, XDATA, add(CFA_XSP16, literal(-5)))
        CFI R7 load(1, XDATA, add(CFA_XSP16, literal(-6)))
        CFI V2 load(1, XDATA, add(CFA_XSP16, literal(-7)))
        CFI V1 load(1, XDATA, add(CFA_XSP16, literal(-8)))
        CFI V0 load(1, XDATA, add(CFA_XSP16, literal(-9)))
        CFI VB load(1, XDATA, add(CFA_XSP16, literal(-10)))
        CFI R6 load(1, XDATA, add(CFA_XSP16, literal(-11)))
        CFI CFA_SP SP+0
        CFI CFA_XSP16 add(XSP16, 11)
        ; Saved register size: 11
        ; Auto size: 16
        MOV     A,#-0x10
        LCALL   ?ALLOC_XSTACK8
        CFI CFA_XSP16 add(XSP16, 27)
//  153   halIntState_t  s;
//  154 
//  155   /* This CORR_THR value should be changed to 0x14 before attempting RX. Testing has shown that
//  156    * too many false frames are received if the reset value is used. Make it more likely to detect
//  157    * sync by removing the requirement that both symbols in the SFD must have a correlation value
//  158    * above the correlation threshold, and make sync word detection less likely by raising the
//  159    * correlation threshold.
//  160    */
//  161   MDMCTRL1 = CORR_THR;
        MOV     DPTR,#0x61a9
        MOV     A,#0x14
        MOVX    @DPTR,A
//  162 
//  163 #ifdef FEATURE_CC253X_LOW_POWER_RX
//  164   /* Reduce RX power consumption current to 20mA at the cost of some sensitivity
//  165    * Note: This feature can be applied to CC2530 and CC2533 only.
//  166    */
//  167   RXCTRL = 0x00;
//  168   FSCTRL = 0x50;
//  169 #else
//  170   /* tuning adjustments for optimal radio performance; details available in datasheet */
//  171   RXCTRL = 0x3F;
        MOV     DPTR,#0x61ab
        MOV     A,#0x3f
        MOVX    @DPTR,A
//  172   
//  173   /* Adjust current in synthesizer; details available in datasheet. */
//  174   FSCTRL = 0x55;
        MOV     DPTR,#0x61ac
        MOV     A,#0x55
        MOVX    @DPTR,A
//  175 #endif /* #ifdef FEATURE_CC253X_LOW_POWER_RX */ 
//  176 
//  177 #if !(defined HAL_PA_LNA || defined HAL_PA_LNA_CC2590)
//  178   /* Raises the CCA threshold from about -108 dBm to about -80 dBm input level.
//  179    */
//  180   CCACTRL0 = CCA_THR;
        MOV     DPTR,#0x6196
        MOV     A,#-0x4
        MOVX    @DPTR,A
//  181 #endif
//  182 
//  183 #ifdef CC2591_COMPRESSION_WORKAROUND
//  184   /* For Coordinators/Routers with CC2591, increase preamble from 4 to 12 bytes */
//  185   MDMCTRL0 = 0x95; 
//  186 
//  187   /* For End devices without CC2591, increase preamble from 4 to 8 bytes */
//  188   /* MDMCTRL0 = 0x8D; */
//  189 #else
//  190   /* Makes sync word detection less likely by requiring two zero symbols before the sync word.
//  191    * details available in datasheet.
//  192    */
//  193   MDMCTRL0 = 0x85;
        MOV     DPTR,#0x61a8
        MOV     A,#-0x7b
        MOVX    @DPTR,A
//  194 #endif /* CC2591_COMPRESSION_WORKAROUND */
//  195 
//  196   if (*(uint8 *)(P_INFOPAGE+0x03) == 0x95)  // Device is a CC2533
        MOV     DPTR,#0x7803
        MOVX    A,@DPTR
        XRL     A,#0x95
        JNZ     ??macMcuInit_0
//  197   {
//  198     /* In case the device is a 2533, just update the IVCTRL regoster which is 2533 specific */
//  199     #define IVCTRL          XREG( 0x6265 )  
//  200     IVCTRL = 0xF;
        MOV     DPTR,#0x6265
        MOV     A,#0xf
        MOVX    @DPTR,A
//  201   }
//  202   /* Adjust current in VCO; details available in datasheet. */
//  203   FSCAL1 = 0x00;
??macMcuInit_0:
        MOV     DPTR,#0x61ae
        MOV     A,#0x0
        MOVX    @DPTR,A
//  204 
//  205   /* Adjust target value for AGC control loop; details available in datasheet. */
//  206   AGCCTRL1 = 0x15;
        MOV     DPTR,#0x61b2
        MOV     A,#0x15
        MOVX    @DPTR,A
//  207 
//  208   /* Disable source address matching an autopend for now */
//  209   SRCMATCH = 0;
        MOV     DPTR,#0x6182
        MOV     A,#0x0
        MOVX    @DPTR,A
//  210 
//  211   /* Tune ADC performance, details available in datasheet. */
//  212   ADCTEST0 = 0x10;
        MOV     DPTR,#0x61b5
        MOV     A,#0x10
        MOVX    @DPTR,A
//  213   ADCTEST1 = 0x0E;
        MOV     DPTR,#0x61b6
        MOV     A,#0xe
        MOVX    @DPTR,A
//  214   ADCTEST2 = 0x03;
        MOV     DPTR,#0x61b7
        MOV     A,#0x3
        MOVX    @DPTR,A
//  215 
//  216   /* Sets TX anti-aliasing filter to appropriate bandwidth.
//  217    * Reduces spurious emissions close to signal.
//  218    */
//  219   TXFILTCFG = TXFILTCFG_RESET_VALUE;
        MOV     DPTR,#0x61fa
        MOV     A,#0x9
        MOVX    @DPTR,A
//  220 
//  221   /* disable the CSPT register compare function */
//  222   CSPT = 0xFF;
        MOV     DPTR,#0x61e5
        MOV     A,#-0x1
        MOVX    @DPTR,A
//  223 
//  224   /* enable general RF interrupts */
//  225   IEN2 |= RFIE;
        ORL     0x9a,#0x1
//  226 
//  227   /* enable general REERR interrupts */
//  228   IEN0 |= RFERRIE;
        SETB    0xa8.0
//  229 
//  230   /* set RF interrupts one notch above lowest priority (four levels available) */
//  231   IP0 |=  IP_RFERR_RF_DMA_BV;
        ORL     0xa9,#0x1
//  232   IP1 &= ~IP_RFERR_RF_DMA_BV;
        ANL     0xb9,#0xfe
//  233 
//  234   /* set T2 interrupts one notch above lowest priority (four levels available)
//  235    * This effectively turned off nested interrupt between T2 and RF.
//  236    */
//  237   IP0 |=  IP_RXTX0_T2_BV;
        ORL     0xa9,#0x4
//  238   IP1 &= ~IP_RXTX0_T2_BV;
        ANL     0xb9,#0xfb
//  239 
//  240   /* read chip version */
//  241   macChipVersion = CHVER;
        MOV     DPTR,#0x6249
        MOVX    A,@DPTR
        MOV     DPTR,#macChipVersion
        MOVX    @DPTR,A
//  242 
//  243   /*-------------------------------------------------------------------------------
//  244    *  Initialize MAC timer.
//  245    */
//  246 
//  247   /* set timer rollover */
//  248   HAL_ENTER_CRITICAL_SECTION(s);
        MOV     C,0xa8.7
        CLR     A
        RLC     A
        MOV     ?V0 + 2,A
        CLR     0xa8.7
//  249   MAC_MCU_T2_ACCESS_PERIOD_VALUE();
        MOV     0xc3,#0x2
//  250   T2M0 = MAC_RADIO_TIMER_TICKS_PER_BACKOFF() & 0xFF;
        MOV     0xa2,#0x0
//  251   T2M1 = MAC_RADIO_TIMER_TICKS_PER_BACKOFF() >> 8;
        MOV     0xa3,#0x28
//  252   HAL_EXIT_CRITICAL_SECTION(s);
        MOV     A,?V0 + 2
        MOV     C,0xE0 /* A   */.0
        MOV     0xa8.7,C
//  253 
//  254   /* start timer */
//  255   MAC_RADIO_TIMER_WAKE_UP();
??macMcuInit_1:
        MOV     A,0x9e
        JNZ     ??macMcuInit_1
        ORL     0x94,#0x3
??macMcuInit_2:
        MOV     A,0x94
        MOV     C,0xE0 /* A   */.2
        JNC     ??macMcuInit_2
//  256 
//  257   /* Enable latch mode and T2 SYNC start. OSAL timer is based on MAC timer. 
//  258    * The SYNC start msut be on when POWER_SAVING is on for this design to work.
//  259    */
//  260   T2CTRL |= (LATCH_MODE | TIMER2_SYNC);
        ORL     0x94,#0xa
//  261   
//  262   /* enable timer interrupts */
//  263   T2IE = 1;
        SETB    0xb8.2
//  264 
//  265  /*----------------------------------------------------------------------------------------------
//  266   *  Initialize random seed value.
//  267   */
//  268 
//  269   /*
//  270    *  Set radio for infinite reception.  Once radio reaches this state,
//  271    *  it will stay in receive mode regardless RF activity.
//  272    */
//  273   FRMCTRL0 = FRMCTRL0_RESET_VALUE | RX_MODE_INFINITE_RECEPTION;
        MOV     DPTR,#0x6189
        MOV     A,#0x48
        MOVX    @DPTR,A
//  274 
//  275   /* turn on the receiver */
//  276   macRxOn();
        ; Setup parameters for call to function macRxOn
        LCALL   ??macRxOn?relay
//  277 
//  278   /*
//  279    *  Wait for radio to reach infinite reception state by checking RSSI valid flag.
//  280    *  Once it does, the least significant bit of ADTSTH should be pretty random.
//  281    */
//  282   while (!(RSSISTAT & 0x01));
??macMcuInit_3:
        MOV     DPTR,#0x6199
        MOVX    A,@DPTR
        MOV     C,0xE0 /* A   */.0
        JNC     ??macMcuInit_3
//  283 
//  284   /* put 16 random bits into the seed value */
//  285   {
//  286     uint16 rndSeed;
//  287     uint8  i;
//  288 
//  289     rndSeed = 0;
        MOV     R0,#0x0
        MOV     R1,#0x0
//  290 
//  291     for(i=0; i<16; i++)
        MOV     R4,#0x0
??macMcuInit_4:
        MOV     A,R4
        CLR     C
        SUBB    A,#0x10
        JNC     ??macMcuInit_5
//  292     {
//  293       /* use most random bit of analog to digital receive conversion to populate the random seed */
//  294       rndSeed = (rndSeed << 1) | (RFRND & 0x01);
        MOV     A,R0
        CLR     C
        RLC     A
        MOV     R0,A
        MOV     A,R1
        RLC     A
        MOV     R1,A
        MOV     DPTR,#0x61a7
        MOVX    A,@DPTR
        MOV     C,0xE0 /* A   */.0
        CLR     A
        RLC     A
        MOV     R2,A
        MOV     R3,#0x0
        MOV     A,R0
        ORL     A,R2
        MOV     R0,A
        MOV     A,R1
        ORL     A,R3
        MOV     R1,A
//  295     }
        INC     R4
        SJMP    ??macMcuInit_4
//  296 
//  297     /*
//  298      *  The seed value must not be zero or 0x0380 (0x8003 in the polynomial).  If it is, the psuedo
//  299      *  random sequence won’t be random.  There is an extremely small chance this seed could randomly
//  300      *  be zero or 0x0380.  The following check makes sure this does not happen.
//  301      */
//  302     if (rndSeed == 0x0000 || rndSeed == 0x0380)
??macMcuInit_5:
        MOV     A,R0
        ORL     A,R1
        JZ      ??macMcuInit_6
        MOV     A,#-0x80
        XRL     A,R0
        JNZ     ??macMcuInit_7
        MOV     A,#0x3
        XRL     A,R1
??macMcuInit_7:
        JNZ     ??macMcuInit_8
//  303     {
//  304       rndSeed = 0xBABE; /* completely arbitrary "random" value */
??macMcuInit_6:
        MOV     R0,#-0x42
        MOV     R1,#-0x46
//  305     }
//  306 
//  307     /*
//  308      *  Two writes to RNDL will set the random seed.  A write to RNDL copies current contents
//  309      *  of RNDL to RNDH before writing new the value to RNDL.
//  310      */
//  311     RNDL = rndSeed & 0xFF;
??macMcuInit_8:
        MOV     A,R0
        MOV     0xbc,A
//  312     RNDL = rndSeed >> 8;
        CLR     A
        MOV     A,R1
        MOV     R0,A
        MOV     0xbc,A
//  313   }
//  314 
//  315   /* Read 16*8 random bits and store them in flash for future use in random
//  316      key generation for CBKE key establishment */
//  317   if( pRandomSeedCB )
        MOV     DPTR,#pRandomSeedCB
        MOVX    A,@DPTR
        MOV     R0,A
        INC     DPTR
        MOVX    A,@DPTR
        MOV     R1,A
        MOV     A,R0
        ORL     A,R1
        JZ      ??macMcuInit_9
//  318   {
//  319     uint8 randomSeed[MAC_RANDOM_SEED_LEN];
//  320     uint8 i,j;
//  321 
//  322     for(i = 0; i < 16; i++)
        MOV     R7,#0x0
??macMcuInit_10:
        MOV     A,R7
        CLR     C
        SUBB    A,#0x10
        JNC     ??macMcuInit_11
//  323     {
//  324       uint8 rndByte = 0;
        MOV     R1,#0x0
//  325       for(j = 0; j < 8; j++)
        MOV     R6,#0x0
??macMcuInit_12:
        MOV     A,R6
        CLR     C
        SUBB    A,#0x8
        JNC     ??macMcuInit_13
//  326       {
//  327         /* use most random bit of analog to digital receive conversion to
//  328            populate the random seed */
//  329         rndByte = (rndByte << 1) | (RFRND & 0x01);
        MOV     DPTR,#0x61a7
        MOVX    A,@DPTR
        MOV     C,0xE0 /* A   */.0
        CLR     A
        RLC     A
        MOV     R0,A
        MOV     A,R1
        CLR     C
        RLC     A
        ORL     A,R0
        MOV     R1,A
//  330       }
        INC     R6
        SJMP    ??macMcuInit_12
//  331       randomSeed[i] = rndByte;
??macMcuInit_13:
        MOV     A,R1
        PUSH    A
        CFI CFA_SP SP+-1
        MOV     ?V0 + 0,R7
        MOV     ?V0 + 1,#0x0
        MOV     DPL,?XSP + 0
        MOV     DPH,?XSP + 1
        MOV     A,DPL
        ADD     A,?V0 + 0
        MOV     DPL,A
        MOV     A,DPH
        ADDC    A,?V0 + 1
        MOV     DPH,A
        POP     A
        CFI CFA_SP SP+0
        MOVX    @DPTR,A
//  332 
//  333     }
        INC     R7
        SJMP    ??macMcuInit_10
//  334     pRandomSeedCB( randomSeed );
??macMcuInit_11:
        ; Setup parameters for indirect call
        MOV     DPL,?XSP + 0
        MOV     DPH,?XSP + 1
        MOV     R2,DPL
        MOV     R3,DPH
        MOV     DPTR,#pRandomSeedCB
        MOVX    A,@DPTR
        MOV     R0,A
        INC     DPTR
        MOVX    A,@DPTR
        MOV     DPH,A
        MOV     DPL,R0
        LCALL   ?CALL_IND
//  335   }
//  336 
//  337   /* turn off the receiver */
//  338   macRxOff();
??macMcuInit_9:
        ; Setup parameters for call to function macRxOff
        LCALL   ??macRxOff?relay
//  339 
//  340   /* take receiver out of infinite reception mode; set back to normal operation */
//  341   FRMCTRL0 = FRMCTRL0_RESET_VALUE | RX_MODE_NORMAL_OPERATION;
        MOV     DPTR,#0x6189
        MOV     A,#0x40
        MOVX    @DPTR,A
//  342 
//  343   /* Turn on autoack */
//  344   MAC_RADIO_TURN_ON_AUTO_ACK();
        MOV     DPTR,#0x6189
        MOVX    A,@DPTR
        SETB    0xE0 /* A   */.5
        MOVX    @DPTR,A
//  345 
//  346   /* Initialize SRCEXTPENDEN and SRCSHORTPENDEN to zeros */
//  347   MAC_RADIO_SRC_MATCH_INIT_EXTPENDEN();
        MOV     DPTR,#0x6164
        MOV     A,#0x0
        MOVX    @DPTR,A
        MOV     DPTR,#0x6165
        MOV     A,#0x0
        MOVX    @DPTR,A
        MOV     DPTR,#0x6166
        MOV     A,#0x0
        MOVX    @DPTR,A
//  348   MAC_RADIO_SRC_MATCH_INIT_SHORTPENDEN();
        MOV     DPTR,#0x6167
        MOV     A,#0x0
        MOVX    @DPTR,A
        MOV     DPTR,#0x6168
        MOV     A,#0x0
        MOVX    @DPTR,A
        MOV     DPTR,#0x6169
        MOV     A,#0x0
        MOVX    @DPTR,A
//  349 }
        MOV     A,#0x10
        LCALL   ?DEALLOC_XSTACK8
        CFI CFA_XSP16 add(XSP16, 11)
        MOV     R7,#0x3
        LJMP    ?BANKED_LEAVE_XDATA
        CFI EndBlock cfiBlock1
        REQUIRE IEN2
        REQUIRE _A_IEN0
        REQUIRE IP0
        REQUIRE IP1
        REQUIRE T2MSEL
        REQUIRE T2M0
        REQUIRE T2M1
        REQUIRE CLKCONSTA
        REQUIRE T2CTRL
        REQUIRE _A_IEN1
        REQUIRE RNDL
//  350 
//  351 
//  352 /**************************************************************************************************
//  353  * @fn          macMcuRandomByte
//  354  *
//  355  * @brief       Returns a random byte using a special hardware feature that generates new
//  356  *              random values based on the truly random seed set earlier.
//  357  *
//  358  * @param       none
//  359  *
//  360  * @return      a random byte
//  361  **************************************************************************************************
//  362  */

        RSEG BANKED_CODE:CODE:NOROOT(0)
//  363 MAC_INTERNAL_API uint8 macMcuRandomByte(void)
macMcuRandomByte:
        CFI Block cfiBlock2 Using cfiCommon0
        CFI Function macMcuRandomByte
        CODE
//  364 {
        ; Saved register size: 0
        ; Auto size: 0
//  365   /* clock the random generator to get a new random value */
//  366   ADCCON1 = (ADCCON1 & ~RCTRL_BITS) | RCTRL_CLOCK_LFSR;
        MOV     A,0xb4
        ANL     A,#0xf3
        ORL     A,#0x4
        MOV     0xb4,A
//  367 
//  368   /* return new randomized value from hardware */
//  369   return(RNDH);
        MOV     R1,0xbd
        LJMP    ?BRET
        CFI EndBlock cfiBlock2
        REQUIRE ADCCON1
        REQUIRE RNDH
//  370 }
//  371 
//  372 
//  373 /**************************************************************************************************
//  374  * @fn          macMcuRandomWord
//  375  *
//  376  * @brief       Returns a random word using a special hardware feature that generates new
//  377  *              random values based on the truly random seed set earlier.
//  378  *
//  379  * @param       none
//  380  *
//  381  * @return      a random word
//  382  **************************************************************************************************
//  383  */

        RSEG BANKED_CODE:CODE:NOROOT(0)
//  384 MAC_INTERNAL_API uint16 macMcuRandomWord(void)
macMcuRandomWord:
        CFI Block cfiBlock3 Using cfiCommon0
        CFI Function macMcuRandomWord
        CODE
//  385 {
        PUSH    ?V0 + 0
        CFI V0 Frame(CFA_SP, 4)
        CFI CFA_SP SP+-4
        PUSH    ?V0 + 1
        CFI V1 Frame(CFA_SP, 5)
        CFI CFA_SP SP+-5
        ; Saved register size: 2
        ; Auto size: 0
//  386   uint16 random_word;
//  387 
//  388   /* clock the random generator to get a new random value */
//  389   ADCCON1 = (ADCCON1 & ~RCTRL_BITS) | RCTRL_CLOCK_LFSR;
        MOV     A,0xb4
        ANL     A,#0xf3
        ORL     A,#0x4
        MOV     0xb4,A
//  390 
//  391   /* read random word */
//  392   random_word  = (RNDH << 8);
        MOV     A,0xbd
        MOV     R0,A
        MOV     R1,#0x0
        CLR     A
        XCH     A,R0
        MOV     R1,A
        MOV     A,R0
        MOV     R2,A
        MOV     A,R1
        MOV     R3,A
//  393   random_word +=  RNDL;
        MOV     ?V0 + 0,0xbc
        MOV     ?V0 + 1,#0x0
        MOV     A,R2
        ADD     A,?V0 + 0
        MOV     R2,A
        MOV     A,R3
        ADDC    A,?V0 + 1
        MOV     R3,A
//  394 
//  395   /* return new randomized value from hardware */
//  396   return(random_word);
        POP     ?V0 + 1
        CFI V1 SameValue
        CFI CFA_SP SP+-4
        POP     ?V0 + 0
        CFI V0 SameValue
        CFI CFA_SP SP+-3
        LJMP    ?BRET
        CFI EndBlock cfiBlock3
        REQUIRE ADCCON1
        REQUIRE RNDH
        REQUIRE RNDL
//  397 }
//  398 
//  399 
//  400 /**************************************************************************************************
//  401  * @fn          macMcuTimerForceDelay
//  402  *
//  403  * @brief       Delay the timer by the requested number of ticks.
//  404  *
//  405  * @param       none
//  406  *
//  407  * @return      none
//  408  **************************************************************************************************
//  409  */

        RSEG BANKED_CODE:CODE:NOROOT(0)
//  410 MAC_INTERNAL_API void macMcuTimerForceDelay(uint16 x)
macMcuTimerForceDelay:
        CFI Block cfiBlock4 Using cfiCommon0
        CFI Function macMcuTimerForceDelay
        CODE
//  411 {
        ; Saved register size: 0
        ; Auto size: 0
//  412   halIntState_t  s;
//  413 
//  414   HAL_ENTER_CRITICAL_SECTION(s);
        MOV     C,0xa8.7
        CLR     A
        RLC     A
        MOV     R4,A
        CLR     0xa8.7
//  415   MAC_MCU_T2_ACCESS_COUNT_VALUE();
        MOV     0xc3,#0x0
//  416   T2M0 = (x) & 0xFF;
        MOV     A,R2
        MOV     0xa2,A
//  417   T2M1 = (x) >> 8;
        MOV     A,R2
        MOV     R0,A
        MOV     A,R3
        MOV     R1,A
        CLR     A
        MOV     A,R1
        MOV     R0,A
        MOV     0xa3,A
//  418   HAL_EXIT_CRITICAL_SECTION(s);
        MOV     A,R4
        MOV     C,0xE0 /* A   */.0
        MOV     0xa8.7,C
//  419 }
        LJMP    ?BRET
        CFI EndBlock cfiBlock4
        REQUIRE _A_IEN0
        REQUIRE T2MSEL
        REQUIRE T2M0
        REQUIRE T2M1
//  420 
//  421 /**************************************************************************************************
//  422  * @fn          macMcuTimerCapture
//  423  *
//  424  * @brief       Returns the last timer capture.  This capture should have occurred at the
//  425  *              receive time of the last frame (the last time SFD transitioned to active).
//  426  *
//  427  * @param       none
//  428  *
//  429  * @return      last capture of hardware timer (full 16-bit value)
//  430  **************************************************************************************************
//  431  */

        RSEG BANKED_CODE:CODE:NOROOT(0)
//  432 MAC_INTERNAL_API uint16 macMcuTimerCapture(void)
macMcuTimerCapture:
        CFI Block cfiBlock5 Using cfiCommon0
        CFI Function macMcuTimerCapture
        CODE
//  433 {
        PUSH    ?V0 + 0
        CFI V0 Frame(CFA_SP, 4)
        CFI CFA_SP SP+-4
        PUSH    ?V0 + 1
        CFI V1 Frame(CFA_SP, 5)
        CFI CFA_SP SP+-5
        ; Saved register size: 2
        ; Auto size: 0
//  434   uint16         timerCapture;
//  435   halIntState_t  s;
//  436 
//  437   HAL_ENTER_CRITICAL_SECTION(s);
        MOV     C,0xa8.7
        CLR     A
        RLC     A
        MOV     R4,A
        CLR     0xa8.7
//  438   MAC_MCU_T2_ACCESS_CAPTURE_VALUE();
        MOV     0xc3,#0x1
//  439   timerCapture = T2M1 << 8;
        MOV     A,0xa3
        MOV     R0,A
        MOV     R1,#0x0
        CLR     A
        XCH     A,R0
        MOV     R1,A
        MOV     A,R0
        MOV     R2,A
        MOV     A,R1
        MOV     R3,A
//  440   timerCapture |= T2M0;
        MOV     A,0xa2
        MOV     ?V0 + 1,#0x0
        ORL     A,R2
        MOV     R2,A
        MOV     A,?V0 + 1
        ORL     A,R3
        MOV     R3,A
//  441   HAL_EXIT_CRITICAL_SECTION(s);
        MOV     A,R4
        MOV     C,0xE0 /* A   */.0
        MOV     0xa8.7,C
//  442 
//  443   return (timerCapture);
        POP     ?V0 + 1
        CFI V1 SameValue
        CFI CFA_SP SP+-4
        POP     ?V0 + 0
        CFI V0 SameValue
        CFI CFA_SP SP+-3
        LJMP    ?BRET
        CFI EndBlock cfiBlock5
        REQUIRE _A_IEN0
        REQUIRE T2MSEL
        REQUIRE T2M1
        REQUIRE T2M0
//  444 }
//  445 
//  446 
//  447 /**************************************************************************************************
//  448  * @fn          macMcuOverflowCount
//  449  *
//  450  * @brief       Returns the value of the overflow counter which is a special hardware feature.
//  451  *              The overflow count actually is 24 bits of information.
//  452  *
//  453  * @param       none
//  454  *
//  455  * @return      value of overflow counter
//  456  **************************************************************************************************
//  457  */

        RSEG BANKED_CODE:CODE:NOROOT(0)
//  458 MAC_INTERNAL_API uint32 macMcuOverflowCount(void)
macMcuOverflowCount:
        CFI Block cfiBlock6 Using cfiCommon0
        CFI Function macMcuOverflowCount
        CODE
//  459 {
        PUSH    DPL
        CFI DPL0 Frame(CFA_SP, 4)
        CFI CFA_SP SP+-4
        PUSH    DPH
        CFI DPH0 Frame(CFA_SP, 5)
        CFI CFA_SP SP+-5
        ; Saved register size: 2
        ; Auto size: 4
        MOV     A,#-0x4
        LCALL   ?ALLOC_XSTACK8
        CFI CFA_XSP16 add(XSP16, 4)
//  460   uint32         overflowCount;
//  461   halIntState_t  s;
//  462 
//  463   /* for efficiency, the 32-bit value is encoded using endian abstracted indexing */
//  464 
//  465   HAL_ENTER_CRITICAL_SECTION(s);
        MOV     C,0xa8.7
        CLR     A
        RLC     A
        MOV     R0,A
        CLR     0xa8.7
//  466 
//  467   /* This T2 access macro allows accessing both T2MOVFx and T2Mx */
//  468   MAC_MCU_T2_ACCESS_OVF_COUNT_VALUE();
        MOV     0xc3,#0x0
//  469 
//  470   /* Latch the entire T2MOVFx first by reading T2M0. */
//  471   T2M0;
        MOV     A,0xa2
        MOV     R1,A
//  472   ((uint8 *)&overflowCount)[UINT32_NDX0] = T2MOVF0;
        MOV     A,0xa4
        MOV     DPL,?XSP + 0
        MOV     DPH,?XSP + 1
        MOVX    @DPTR,A
//  473   ((uint8 *)&overflowCount)[UINT32_NDX1] = T2MOVF1;
        MOV     A,0xa5
        PUSH    A
        CFI CFA_SP SP+-6
        MOV     A,#0x1
        LCALL   ?XSTACK_DISP0_8
        POP     A
        CFI CFA_SP SP+-5
        MOVX    @DPTR,A
//  474   ((uint8 *)&overflowCount)[UINT32_NDX2] = T2MOVF2;
        MOV     A,0xa6
        PUSH    A
        CFI CFA_SP SP+-6
        MOV     A,#0x2
        LCALL   ?XSTACK_DISP0_8
        POP     A
        CFI CFA_SP SP+-5
        MOVX    @DPTR,A
//  475   ((uint8 *)&overflowCount)[UINT32_NDX3] = 0;
        MOV     A,#0x3
        LCALL   ?XSTACK_DISP0_8
        MOV     A,#0x0
        MOVX    @DPTR,A
//  476   HAL_EXIT_CRITICAL_SECTION(s);
        MOV     A,R0
        MOV     C,0xE0 /* A   */.0
        MOV     0xa8.7,C
//  477 
//  478   return (overflowCount);
        MOV     DPL,?XSP + 0
        MOV     DPH,?XSP + 1
        LCALL   ?XLOAD_R2345
        MOV     A,#0x4
        LCALL   ?DEALLOC_XSTACK8
        CFI CFA_XSP16 XSP16+0
        POP     DPH
        CFI DPH0 SameValue
        CFI CFA_SP SP+-4
        POP     DPL
        CFI DPL0 SameValue
        CFI CFA_SP SP+-3
        LJMP    ?BRET
        CFI EndBlock cfiBlock6
        REQUIRE _A_IEN0
        REQUIRE T2MSEL
        REQUIRE T2M0
        REQUIRE T2MOVF0
        REQUIRE T2MOVF1
        REQUIRE T2MOVF2
//  479 }
//  480 
//  481 
//  482 /**************************************************************************************************
//  483  * @fn          macMcuOverflowCapture
//  484  *
//  485  * @brief       Returns the last capture of the overflow counter.  A special hardware feature
//  486  *              captures the overflow counter when the regular hardware timer is captured.
//  487  *
//  488  * @param       none
//  489  *
//  490  * @return      last capture of overflow count
//  491  **************************************************************************************************
//  492  */

        RSEG BANKED_CODE:CODE:NOROOT(0)
//  493 MAC_INTERNAL_API uint32 macMcuOverflowCapture(void)
macMcuOverflowCapture:
        CFI Block cfiBlock7 Using cfiCommon0
        CFI Function macMcuOverflowCapture
        CODE
//  494 {
        PUSH    DPL
        CFI DPL0 Frame(CFA_SP, 4)
        CFI CFA_SP SP+-4
        PUSH    DPH
        CFI DPH0 Frame(CFA_SP, 5)
        CFI CFA_SP SP+-5
        ; Saved register size: 2
        ; Auto size: 4
        MOV     A,#-0x4
        LCALL   ?ALLOC_XSTACK8
        CFI CFA_XSP16 add(XSP16, 4)
//  495   uint32         overflowCapture;
//  496   halIntState_t  s;
//  497 
//  498   /* for efficiency, the 32-bit value is encoded using endian abstracted indexing */
//  499   HAL_ENTER_CRITICAL_SECTION(s);
        MOV     C,0xa8.7
        CLR     A
        RLC     A
        MOV     R0,A
        CLR     0xa8.7
//  500   MAC_MCU_T2_ACCESS_OVF_CAPTURE_VALUE();
        MOV     0xc3,#0x10
//  501   ((uint8 *)&overflowCapture)[UINT32_NDX0] = T2MOVF0;
        MOV     A,0xa4
        MOV     DPL,?XSP + 0
        MOV     DPH,?XSP + 1
        MOVX    @DPTR,A
//  502   ((uint8 *)&overflowCapture)[UINT32_NDX1] = T2MOVF1;
        MOV     A,0xa5
        PUSH    A
        CFI CFA_SP SP+-6
        MOV     A,#0x1
        LCALL   ?XSTACK_DISP0_8
        POP     A
        CFI CFA_SP SP+-5
        MOVX    @DPTR,A
//  503   ((uint8 *)&overflowCapture)[UINT32_NDX2] = T2MOVF2;
        MOV     A,0xa6
        PUSH    A
        CFI CFA_SP SP+-6
        MOV     A,#0x2
        LCALL   ?XSTACK_DISP0_8
        POP     A
        CFI CFA_SP SP+-5
        MOVX    @DPTR,A
//  504   ((uint8 *)&overflowCapture)[UINT32_NDX3] = 0;
        MOV     A,#0x3
        LCALL   ?XSTACK_DISP0_8
        MOV     A,#0x0
        MOVX    @DPTR,A
//  505   HAL_EXIT_CRITICAL_SECTION(s);
        MOV     A,R0
        MOV     C,0xE0 /* A   */.0
        MOV     0xa8.7,C
//  506 
//  507   return (overflowCapture);
        MOV     DPL,?XSP + 0
        MOV     DPH,?XSP + 1
        LCALL   ?XLOAD_R2345
        MOV     A,#0x4
        LCALL   ?DEALLOC_XSTACK8
        CFI CFA_XSP16 XSP16+0
        POP     DPH
        CFI DPH0 SameValue
        CFI CFA_SP SP+-4
        POP     DPL
        CFI DPL0 SameValue
        CFI CFA_SP SP+-3
        LJMP    ?BRET
        CFI EndBlock cfiBlock7
        REQUIRE _A_IEN0
        REQUIRE T2MSEL
        REQUIRE T2MOVF0
        REQUIRE T2MOVF1
        REQUIRE T2MOVF2
//  508 }
//  509 
//  510 
//  511 /**************************************************************************************************
//  512  * @fn          macMcuOverflowSetCount
//  513  *
//  514  * @brief       Sets the value of the hardware overflow counter.
//  515  *
//  516  * @param       count - new overflow count value
//  517  *
//  518  * @return      none
//  519  **************************************************************************************************
//  520  */

        RSEG BANKED_CODE:CODE:NOROOT(0)
//  521 MAC_INTERNAL_API void macMcuOverflowSetCount(uint32 count)
macMcuOverflowSetCount:
        CFI Block cfiBlock8 Using cfiCommon0
        CFI Function macMcuOverflowSetCount
        CODE
//  522 {
        FUNCALL macMcuOverflowSetCount, halAssertHandler
        LOCFRAME ISTACK, 0, STACK
        LOCFRAME PSTACK, 0, STACK
        LOCFRAME XSTACK, 16, STACK
        LOCFRAME IOVERLAY, 0, STATIC
        LOCFRAME DOVERLAY, 0, STATIC
        ARGFRAME ISTACK, 0, STACK
        ARGFRAME PSTACK, 0, STACK
        ARGFRAME XSTACK, 16, STACK
        ARGFRAME IOVERLAY, 0, STATIC
        ARGFRAME DOVERLAY, 0, STATIC
        FUNCALL macMcuOverflowSetCount, macMcuOverflowCount
        LOCFRAME ISTACK, 0, STACK
        LOCFRAME PSTACK, 0, STACK
        LOCFRAME XSTACK, 16, STACK
        LOCFRAME IOVERLAY, 0, STATIC
        LOCFRAME DOVERLAY, 0, STATIC
        ARGFRAME ISTACK, 0, STACK
        ARGFRAME PSTACK, 0, STACK
        ARGFRAME XSTACK, 16, STACK
        ARGFRAME IOVERLAY, 0, STATIC
        ARGFRAME DOVERLAY, 0, STATIC
        MOV     A,#-0xc
        LCALL   ?BANKED_ENTER_XDATA
        CFI DPH0 load(1, XDATA, add(CFA_XSP16, literal(-1)))
        CFI DPL0 load(1, XDATA, add(CFA_XSP16, literal(-2)))
        CFI ?BRET_EXT load(1, XDATA, add(CFA_XSP16, literal(-3)))
        CFI ?RET_HIGH load(1, XDATA, add(CFA_XSP16, literal(-4)))
        CFI ?RET_LOW load(1, XDATA, add(CFA_XSP16, literal(-5)))
        CFI R7 load(1, XDATA, add(CFA_XSP16, literal(-6)))
        CFI V3 load(1, XDATA, add(CFA_XSP16, literal(-7)))
        CFI V2 load(1, XDATA, add(CFA_XSP16, literal(-8)))
        CFI V1 load(1, XDATA, add(CFA_XSP16, literal(-9)))
        CFI V0 load(1, XDATA, add(CFA_XSP16, literal(-10)))
        CFI VB load(1, XDATA, add(CFA_XSP16, literal(-11)))
        CFI R6 load(1, XDATA, add(CFA_XSP16, literal(-12)))
        CFI CFA_SP SP+0
        CFI CFA_XSP16 add(XSP16, 12)
        ; Saved register size: 12
        ; Auto size: 4
        MOV     A,#-0x4
        LCALL   ?ALLOC_XSTACK8
        CFI CFA_XSP16 add(XSP16, 16)
        MOV     DPL,?XSP + 0
        MOV     DPH,?XSP + 1
        MOV     A,R2
        MOVX    @DPTR,A
        INC     DPTR
        MOV     A,R3
        MOVX    @DPTR,A
        INC     DPTR
        MOV     A,R4
        MOVX    @DPTR,A
        INC     DPTR
        MOV     A,R5
        MOVX    @DPTR,A
//  523   halIntState_t  s;
//  524 
//  525   MAC_ASSERT(! (count >> 24) );   /* illegal count value */
        MOV     DPL,?XSP + 0
        MOV     DPH,?XSP + 1
        MOV     R0,#?V0 + 0
        LCALL   ?L_MOV_X
        MOV     DPTR,#__Constant_ff000000
        MOV     R0,#?V0 + 0
        LCALL   ?L_AND_X
        MOV     A,?V0 + 0
        ORL     A,?V0 + 1
        ORL     A,?V0 + 2
        ORL     A,?V0 + 3
        JZ      ??macMcuOverflowSetCount_0
        ; Setup parameters for call to function halAssertHandler
        LCALL   ??halAssertHandler?relay
//  526 
//  527   /* save the current overflow count */
//  528   accumulatedOverflowCount += macMcuOverflowCount();
??macMcuOverflowSetCount_0:
        ; Setup parameters for call to function macMcuOverflowCount
        LCALL   ??macMcuOverflowCount?relay
        MOV     ?V0 + 0,R2
        MOV     ?V0 + 1,R3
        MOV     ?V0 + 2,R4
        MOV     ?V0 + 3,R5
        MOV     DPTR,#accumulatedOverflowCount
        MOV     R0,#?V0 + 0
        LCALL   ?L_ADD_TO_X
//  529   
//  530   /* deduct the initial count */
//  531   accumulatedOverflowCount -= count;
        MOV     DPL,?XSP + 0
        MOV     DPH,?XSP + 1
        MOV     R0,#?V0 + 0
        LCALL   ?L_MOV_X
        MOV     DPTR,#accumulatedOverflowCount
        MOV     R0,#?V0 + 0
        LCALL   ?L_SUB_FROM_X
//  532 
//  533   HAL_ENTER_CRITICAL_SECTION(s);
        MOV     C,0xa8.7
        CLR     A
        RLC     A
        MOV     R6,A
        CLR     0xa8.7
//  534   MAC_MCU_T2_ACCESS_OVF_COUNT_VALUE();
        MOV     0xc3,#0x0
//  535 
//  536   /* for efficiency, the 32-bit value is decoded using endian abstracted indexing */
//  537   /* T2OF2 must be written last */
//  538   T2MOVF0 = ((uint8 *)&count)[UINT32_NDX0];
        MOV     DPL,?XSP + 0
        MOV     DPH,?XSP + 1
        MOVX    A,@DPTR
        MOV     0xa4,A
//  539   T2MOVF1 = ((uint8 *)&count)[UINT32_NDX1];
        MOV     A,#0x1
        LCALL   ?XSTACK_DISP0_8
        MOVX    A,@DPTR
        MOV     0xa5,A
//  540   T2MOVF2 = ((uint8 *)&count)[UINT32_NDX2];
        MOV     A,#0x2
        LCALL   ?XSTACK_DISP0_8
        MOVX    A,@DPTR
        MOV     0xa6,A
//  541   HAL_EXIT_CRITICAL_SECTION(s);
        MOV     A,R6
        MOV     C,0xE0 /* A   */.0
        MOV     0xa8.7,C
//  542 }
        MOV     A,#0x4
        LCALL   ?DEALLOC_XSTACK8
        CFI CFA_XSP16 add(XSP16, 12)
        MOV     R7,#0x4
        LJMP    ?BANKED_LEAVE_XDATA
        CFI EndBlock cfiBlock8
        REQUIRE _A_IEN0
        REQUIRE T2MSEL
        REQUIRE T2MOVF0
        REQUIRE T2MOVF1
        REQUIRE T2MOVF2
//  543 
//  544 
//  545 /**************************************************************************************************
//  546  * @fn          macMcuOverflowSetCompare
//  547  *
//  548  * @brief       Set overflow count compare value.  An interrupt is triggered when the overflow
//  549  *              count equals this compare value.
//  550  *
//  551  * @param       count - overflow count compare value
//  552  *
//  553  * @return      none
//  554  **************************************************************************************************
//  555  */

        RSEG BANKED_CODE:CODE:NOROOT(0)
//  556 MAC_INTERNAL_API void macMcuOverflowSetCompare(uint32 count)
macMcuOverflowSetCompare:
        CFI Block cfiBlock9 Using cfiCommon0
        CFI Function macMcuOverflowSetCompare
        CODE
//  557 {
        FUNCALL macMcuOverflowSetCompare, halAssertHandler
        LOCFRAME ISTACK, 0, STACK
        LOCFRAME PSTACK, 0, STACK
        LOCFRAME XSTACK, 16, STACK
        LOCFRAME IOVERLAY, 0, STATIC
        LOCFRAME DOVERLAY, 0, STATIC
        ARGFRAME ISTACK, 0, STACK
        ARGFRAME PSTACK, 0, STACK
        ARGFRAME XSTACK, 16, STACK
        ARGFRAME IOVERLAY, 0, STATIC
        ARGFRAME DOVERLAY, 0, STATIC
        MOV     A,#-0xc
        LCALL   ?BANKED_ENTER_XDATA
        CFI DPH0 load(1, XDATA, add(CFA_XSP16, literal(-1)))
        CFI DPL0 load(1, XDATA, add(CFA_XSP16, literal(-2)))
        CFI ?BRET_EXT load(1, XDATA, add(CFA_XSP16, literal(-3)))
        CFI ?RET_HIGH load(1, XDATA, add(CFA_XSP16, literal(-4)))
        CFI ?RET_LOW load(1, XDATA, add(CFA_XSP16, literal(-5)))
        CFI R7 load(1, XDATA, add(CFA_XSP16, literal(-6)))
        CFI V3 load(1, XDATA, add(CFA_XSP16, literal(-7)))
        CFI V2 load(1, XDATA, add(CFA_XSP16, literal(-8)))
        CFI V1 load(1, XDATA, add(CFA_XSP16, literal(-9)))
        CFI V0 load(1, XDATA, add(CFA_XSP16, literal(-10)))
        CFI VB load(1, XDATA, add(CFA_XSP16, literal(-11)))
        CFI R6 load(1, XDATA, add(CFA_XSP16, literal(-12)))
        CFI CFA_SP SP+0
        CFI CFA_XSP16 add(XSP16, 12)
        ; Saved register size: 12
        ; Auto size: 4
        MOV     A,#-0x4
        LCALL   ?ALLOC_XSTACK8
        CFI CFA_XSP16 add(XSP16, 16)
        MOV     DPL,?XSP + 0
        MOV     DPH,?XSP + 1
        MOV     A,R2
        MOVX    @DPTR,A
        INC     DPTR
        MOV     A,R3
        MOVX    @DPTR,A
        INC     DPTR
        MOV     A,R4
        MOVX    @DPTR,A
        INC     DPTR
        MOV     A,R5
        MOVX    @DPTR,A
//  558   halIntState_t  s;
//  559   uint8 enableCompareInt = 0;
        MOV     R7,#0x0
//  560 
//  561   MAC_ASSERT( !(count >> 24) );   /* illegal count value */
        MOV     DPL,?XSP + 0
        MOV     DPH,?XSP + 1
        MOV     R0,#?V0 + 0
        LCALL   ?L_MOV_X
        MOV     DPTR,#__Constant_ff000000
        MOV     R0,#?V0 + 0
        LCALL   ?L_AND_X
        MOV     A,?V0 + 0
        ORL     A,?V0 + 1
        ORL     A,?V0 + 2
        ORL     A,?V0 + 3
        JZ      ??macMcuOverflowSetCompare_0
        ; Setup parameters for call to function halAssertHandler
        LCALL   ??halAssertHandler?relay
//  562 
//  563   HAL_ENTER_CRITICAL_SECTION(s);
??macMcuOverflowSetCompare_0:
        MOV     C,0xa8.7
        CLR     A
        RLC     A
        MOV     R6,A
        CLR     0xa8.7
//  564 
//  565   /*  Disable overflow compare interrupts. */
//  566   if (T2IRQM & TIMER2_OVF_COMPARE1M)
        MOV     A,0xa7
        MOV     C,0xE0 /* A   */.4
        JNC     ??macMcuOverflowSetCompare_1
//  567   {
//  568     enableCompareInt = 1;
        MOV     R7,#0x1
//  569     T2IRQM &= ~TIMER2_OVF_COMPARE1M;
        ANL     0xa7,#0xef
//  570   }
//  571 
//  572   MAC_MCU_T2_ACCESS_OVF_CMP1_VALUE();
??macMcuOverflowSetCompare_1:
        MOV     0xc3,#0x30
//  573 
//  574   /* for efficiency, the 32-bit value is decoded using endian abstracted indexing */
//  575   T2MOVF0 = ((uint8 *)&count)[UINT32_NDX0];
        MOV     DPL,?XSP + 0
        MOV     DPH,?XSP + 1
        MOVX    A,@DPTR
        MOV     0xa4,A
//  576   T2MOVF1 = ((uint8 *)&count)[UINT32_NDX1];
        MOV     A,#0x1
        LCALL   ?XSTACK_DISP0_8
        MOVX    A,@DPTR
        MOV     0xa5,A
//  577   T2MOVF2 = ((uint8 *)&count)[UINT32_NDX2];
        MOV     A,#0x2
        LCALL   ?XSTACK_DISP0_8
        MOVX    A,@DPTR
        MOV     0xa6,A
//  578 
//  579   /*
//  580    *  Now that new compare value is stored, clear the interrupt flag.  This is important just
//  581    *  in case a false match was generated as the multi-byte compare value was written.
//  582    */
//  583   T2IRQF = ~TIMER2_OVF_COMPARE1F;
        MOV     0xa1,#-0x11
//  584 
//  585   /* re-enable overflow compare interrupts if they were previously enabled */
//  586   if (enableCompareInt)
        MOV     A,R7
        JZ      ??macMcuOverflowSetCompare_2
//  587   {
//  588     T2IRQM |= TIMER2_OVF_COMPARE1M;
        ORL     0xa7,#0x10
//  589   }
//  590 
//  591   HAL_EXIT_CRITICAL_SECTION(s);
??macMcuOverflowSetCompare_2:
        MOV     A,R6
        MOV     C,0xE0 /* A   */.0
        MOV     0xa8.7,C
//  592 }
        MOV     A,#0x4
        LCALL   ?DEALLOC_XSTACK8
        CFI CFA_XSP16 add(XSP16, 12)
        MOV     R7,#0x4
        LJMP    ?BANKED_LEAVE_XDATA
        CFI EndBlock cfiBlock9
        REQUIRE _A_IEN0
        REQUIRE T2IRQM
        REQUIRE T2MSEL
        REQUIRE T2MOVF0
        REQUIRE T2MOVF1
        REQUIRE T2MOVF2
        REQUIRE T2IRQF
//  593 
//  594 
//  595 /**************************************************************************************************
//  596  * @fn          macMcuOverflowSetPeriod
//  597  *
//  598  * @brief       Set overflow count period value.  An interrupt is triggered when the overflow
//  599  *              count equals this period value.
//  600  *
//  601  * @param       count - overflow count compare value
//  602  *
//  603  * @return      none
//  604  **************************************************************************************************
//  605  */

        RSEG BANKED_CODE:CODE:NOROOT(0)
//  606 MAC_INTERNAL_API void macMcuOverflowSetPeriod(uint32 count)
macMcuOverflowSetPeriod:
        CFI Block cfiBlock10 Using cfiCommon0
        CFI Function macMcuOverflowSetPeriod
        CODE
//  607 {
        FUNCALL macMcuOverflowSetPeriod, halAssertHandler
        LOCFRAME ISTACK, 0, STACK
        LOCFRAME PSTACK, 0, STACK
        LOCFRAME XSTACK, 16, STACK
        LOCFRAME IOVERLAY, 0, STATIC
        LOCFRAME DOVERLAY, 0, STATIC
        ARGFRAME ISTACK, 0, STACK
        ARGFRAME PSTACK, 0, STACK
        ARGFRAME XSTACK, 16, STACK
        ARGFRAME IOVERLAY, 0, STATIC
        ARGFRAME DOVERLAY, 0, STATIC
        FUNCALL macMcuOverflowSetPeriod, halSetMaxSleepLoopTime
        LOCFRAME ISTACK, 0, STACK
        LOCFRAME PSTACK, 0, STACK
        LOCFRAME XSTACK, 16, STACK
        LOCFRAME IOVERLAY, 0, STATIC
        LOCFRAME DOVERLAY, 0, STATIC
        ARGFRAME ISTACK, 0, STACK
        ARGFRAME PSTACK, 0, STACK
        ARGFRAME XSTACK, 16, STACK
        ARGFRAME IOVERLAY, 0, STATIC
        ARGFRAME DOVERLAY, 0, STATIC
        MOV     A,#-0xc
        LCALL   ?BANKED_ENTER_XDATA
        CFI DPH0 load(1, XDATA, add(CFA_XSP16, literal(-1)))
        CFI DPL0 load(1, XDATA, add(CFA_XSP16, literal(-2)))
        CFI ?BRET_EXT load(1, XDATA, add(CFA_XSP16, literal(-3)))
        CFI ?RET_HIGH load(1, XDATA, add(CFA_XSP16, literal(-4)))
        CFI ?RET_LOW load(1, XDATA, add(CFA_XSP16, literal(-5)))
        CFI R7 load(1, XDATA, add(CFA_XSP16, literal(-6)))
        CFI V3 load(1, XDATA, add(CFA_XSP16, literal(-7)))
        CFI V2 load(1, XDATA, add(CFA_XSP16, literal(-8)))
        CFI V1 load(1, XDATA, add(CFA_XSP16, literal(-9)))
        CFI V0 load(1, XDATA, add(CFA_XSP16, literal(-10)))
        CFI VB load(1, XDATA, add(CFA_XSP16, literal(-11)))
        CFI R6 load(1, XDATA, add(CFA_XSP16, literal(-12)))
        CFI CFA_SP SP+0
        CFI CFA_XSP16 add(XSP16, 12)
        ; Saved register size: 12
        ; Auto size: 4
        MOV     A,#-0x4
        LCALL   ?ALLOC_XSTACK8
        CFI CFA_XSP16 add(XSP16, 16)
        MOV     DPL,?XSP + 0
        MOV     DPH,?XSP + 1
        MOV     A,R2
        MOVX    @DPTR,A
        INC     DPTR
        MOV     A,R3
        MOVX    @DPTR,A
        INC     DPTR
        MOV     A,R4
        MOVX    @DPTR,A
        INC     DPTR
        MOV     A,R5
        MOVX    @DPTR,A
//  608   halIntState_t  s;
//  609   uint8 enableCompareInt = 0;
        MOV     R7,#0x0
//  610 
//  611   MAC_ASSERT( !(count >> 24) );   /* illegal count value */
        MOV     DPL,?XSP + 0
        MOV     DPH,?XSP + 1
        MOV     R0,#?V0 + 0
        LCALL   ?L_MOV_X
        MOV     DPTR,#__Constant_ff000000
        MOV     R0,#?V0 + 0
        LCALL   ?L_AND_X
        MOV     A,?V0 + 0
        ORL     A,?V0 + 1
        ORL     A,?V0 + 2
        ORL     A,?V0 + 3
        JZ      ??macMcuOverflowSetPeriod_0
        ; Setup parameters for call to function halAssertHandler
        LCALL   ??halAssertHandler?relay
//  612 
//  613   HAL_ENTER_CRITICAL_SECTION(s);
??macMcuOverflowSetPeriod_0:
        MOV     C,0xa8.7
        CLR     A
        RLC     A
        MOV     R6,A
        CLR     0xa8.7
//  614 
//  615   /*  Disable overflow compare interrupts. */
//  616   if (T2IRQM & TIMER2_OVF_PERM)
        MOV     A,0xa7
        MOV     C,0xE0 /* A   */.3
        JNC     ??macMcuOverflowSetPeriod_1
//  617   {
//  618     enableCompareInt = 1;
        MOV     R7,#0x1
//  619     T2IRQM &= ~TIMER2_OVF_PERM;
        ANL     0xa7,#0xf7
//  620   }
//  621 
//  622   MAC_MCU_T2_ACCESS_OVF_PERIOD_VALUE();
??macMcuOverflowSetPeriod_1:
        MOV     0xc3,#0x20
//  623 
//  624   /* for efficiency, the 32-bit value is decoded using endian abstracted indexing */
//  625   T2MOVF0 = ((uint8 *)&count)[UINT32_NDX0];
        MOV     DPL,?XSP + 0
        MOV     DPH,?XSP + 1
        MOVX    A,@DPTR
        MOV     0xa4,A
//  626   T2MOVF1 = ((uint8 *)&count)[UINT32_NDX1];
        MOV     A,#0x1
        LCALL   ?XSTACK_DISP0_8
        MOVX    A,@DPTR
        MOV     0xa5,A
//  627   T2MOVF2 = ((uint8 *)&count)[UINT32_NDX2];
        MOV     A,#0x2
        LCALL   ?XSTACK_DISP0_8
        MOVX    A,@DPTR
        MOV     0xa6,A
//  628 
//  629   /*
//  630    *  Now that new compare value is stored, clear the interrupt flag.  This is important just
//  631    *  in case a false match was generated as the multi-byte compare value was written.
//  632    */
//  633   T2IRQF &= ~TIMER2_OVF_PERF;
        ANL     0xa1,#0xf7
//  634 
//  635   /* re-enable overflow compare interrupts if they were previously enabled */
//  636   if (enableCompareInt)
        MOV     A,R7
        JZ      ??macMcuOverflowSetPeriod_2
//  637   {
//  638     T2IRQM |= TIMER2_OVF_PERM;
        ORL     0xa7,#0x8
//  639   }
//  640 
//  641   halSetMaxSleepLoopTime(count);
??macMcuOverflowSetPeriod_2:
        ; Setup parameters for call to function halSetMaxSleepLoopTime
        MOV     DPL,?XSP + 0
        MOV     DPH,?XSP + 1
        LCALL   ?XLOAD_R2345
        LCALL   ??halSetMaxSleepLoopTime?relay
//  642   HAL_EXIT_CRITICAL_SECTION(s);
        MOV     A,R6
        MOV     C,0xE0 /* A   */.0
        MOV     0xa8.7,C
//  643 }
        MOV     A,#0x4
        LCALL   ?DEALLOC_XSTACK8
        CFI CFA_XSP16 add(XSP16, 12)
        MOV     R7,#0x4
        LJMP    ?BANKED_LEAVE_XDATA
        CFI EndBlock cfiBlock10
        REQUIRE _A_IEN0
        REQUIRE T2IRQM
        REQUIRE T2MSEL
        REQUIRE T2MOVF0
        REQUIRE T2MOVF1
        REQUIRE T2MOVF2
        REQUIRE T2IRQF
//  644 
//  645 
//  646 /**************************************************************************************************
//  647  * @fn          macMcuOverflowGetCompare
//  648  *
//  649  * @brief       Get overflow count compare value.
//  650  *
//  651  * @param       none
//  652  *
//  653  * @return      overflow count compare value
//  654  **************************************************************************************************
//  655  */

        RSEG BANKED_CODE:CODE:NOROOT(0)
//  656 MAC_INTERNAL_API uint32 macMcuOverflowGetCompare(void)
macMcuOverflowGetCompare:
        CFI Block cfiBlock11 Using cfiCommon0
        CFI Function macMcuOverflowGetCompare
        CODE
//  657 {
        PUSH    DPL
        CFI DPL0 Frame(CFA_SP, 4)
        CFI CFA_SP SP+-4
        PUSH    DPH
        CFI DPH0 Frame(CFA_SP, 5)
        CFI CFA_SP SP+-5
        ; Saved register size: 2
        ; Auto size: 4
        MOV     A,#-0x4
        LCALL   ?ALLOC_XSTACK8
        CFI CFA_XSP16 add(XSP16, 4)
//  658   halIntState_t  s;
//  659   uint32         compare;
//  660 
//  661   HAL_ENTER_CRITICAL_SECTION(s);
        MOV     C,0xa8.7
        CLR     A
        RLC     A
        MOV     R0,A
        CLR     0xa8.7
//  662 
//  663   MAC_MCU_T2_ACCESS_OVF_CMP1_VALUE();
        MOV     0xc3,#0x30
//  664 
//  665   /* for efficiency, the 32-bit value is decoded using endian abstracted indexing */
//  666   ((uint8 *)&compare)[UINT32_NDX0] = T2MOVF0;
        MOV     A,0xa4
        MOV     DPL,?XSP + 0
        MOV     DPH,?XSP + 1
        MOVX    @DPTR,A
//  667   ((uint8 *)&compare)[UINT32_NDX1] = T2MOVF1;
        MOV     A,0xa5
        PUSH    A
        CFI CFA_SP SP+-6
        MOV     A,#0x1
        LCALL   ?XSTACK_DISP0_8
        POP     A
        CFI CFA_SP SP+-5
        MOVX    @DPTR,A
//  668   ((uint8 *)&compare)[UINT32_NDX2] = T2MOVF2;
        MOV     A,0xa6
        PUSH    A
        CFI CFA_SP SP+-6
        MOV     A,#0x2
        LCALL   ?XSTACK_DISP0_8
        POP     A
        CFI CFA_SP SP+-5
        MOVX    @DPTR,A
//  669   ((uint8 *)&compare)[UINT32_NDX3] = 0;
        MOV     A,#0x3
        LCALL   ?XSTACK_DISP0_8
        MOV     A,#0x0
        MOVX    @DPTR,A
//  670 
//  671   HAL_EXIT_CRITICAL_SECTION(s);
        MOV     A,R0
        MOV     C,0xE0 /* A   */.0
        MOV     0xa8.7,C
//  672 
//  673   return(compare);
        MOV     DPL,?XSP + 0
        MOV     DPH,?XSP + 1
        LCALL   ?XLOAD_R2345
        MOV     A,#0x4
        LCALL   ?DEALLOC_XSTACK8
        CFI CFA_XSP16 XSP16+0
        POP     DPH
        CFI DPH0 SameValue
        CFI CFA_SP SP+-4
        POP     DPL
        CFI DPL0 SameValue
        CFI CFA_SP SP+-3
        LJMP    ?BRET
        CFI EndBlock cfiBlock11
        REQUIRE _A_IEN0
        REQUIRE T2MSEL
        REQUIRE T2MOVF0
        REQUIRE T2MOVF1
        REQUIRE T2MOVF2
//  674 }
//  675 
//  676 
//  677 /**************************************************************************************************
//  678  * @fn          macMcuTimer2Isr
//  679  *
//  680  * @brief       Interrupt service routine for timer2, the MAC timer.
//  681  *
//  682  * @param       none
//  683  *
//  684  * @return      none
//  685  **************************************************************************************************
//  686  */

        RSEG NEAR_CODE:CODE:NOROOT(0)
//  687 HAL_ISR_FUNCTION( macMcuTimer2Isr, T2_VECTOR )
macMcuTimer2Isr:
        CFI Block cfiBlock12 Using cfiCommon1
        CFI Function macMcuTimer2Isr
        CODE
//  688 {
        FUNCALL macMcuTimer2Isr, macBackoffTimerCompareIsr
        LOCFRAME ISTACK, 15, STACK
        LOCFRAME PSTACK, 0, STACK
        LOCFRAME XSTACK, 0, STACK
        LOCFRAME IOVERLAY, 0, STATIC
        LOCFRAME DOVERLAY, 0, STATIC
        ARGFRAME ISTACK, 15, STACK
        ARGFRAME PSTACK, 0, STACK
        ARGFRAME XSTACK, 0, STACK
        ARGFRAME IOVERLAY, 0, STATIC
        ARGFRAME DOVERLAY, 0, STATIC
        FUNCALL macMcuTimer2Isr, macBackoffTimerPeriodIsr
        LOCFRAME ISTACK, 15, STACK
        LOCFRAME PSTACK, 0, STACK
        LOCFRAME XSTACK, 0, STACK
        LOCFRAME IOVERLAY, 0, STATIC
        LOCFRAME DOVERLAY, 0, STATIC
        ARGFRAME ISTACK, 15, STACK
        ARGFRAME PSTACK, 0, STACK
        ARGFRAME XSTACK, 0, STACK
        ARGFRAME IOVERLAY, 0, STATIC
        ARGFRAME DOVERLAY, 0, STATIC
        FUNCALL macMcuTimer2Isr, mcuRecordMaxRssiIsr
        LOCFRAME ISTACK, 15, STACK
        LOCFRAME PSTACK, 0, STACK
        LOCFRAME XSTACK, 0, STACK
        LOCFRAME IOVERLAY, 0, STATIC
        LOCFRAME DOVERLAY, 0, STATIC
        ARGFRAME ISTACK, 15, STACK
        ARGFRAME PSTACK, 0, STACK
        ARGFRAME XSTACK, 0, STACK
        ARGFRAME IOVERLAY, 0, STATIC
        ARGFRAME DOVERLAY, 0, STATIC
        PUSH    A
        CFI A Frame(CFA_SP, 3)
        CFI CFA_SP SP+-3
        MOV     A,#-0xe
        LCALL   ?INTERRUPT_ENTER_XSP
        CFI B load(1, XDATA, add(CFA_XSP16, literal(-1)))
        CFI VB load(1, XDATA, add(CFA_XSP16, literal(-2)))
        CFI PSW load(1, XDATA, add(CFA_XSP16, literal(-3)))
        CFI DPL0 load(1, XDATA, add(CFA_XSP16, literal(-4)))
        CFI DPH0 load(1, XDATA, add(CFA_XSP16, literal(-5)))
        CFI R7 load(1, XDATA, add(CFA_XSP16, literal(-6)))
        CFI R6 load(1, XDATA, add(CFA_XSP16, literal(-7)))
        CFI R5 load(1, XDATA, add(CFA_XSP16, literal(-8)))
        CFI R4 load(1, XDATA, add(CFA_XSP16, literal(-9)))
        CFI V0 load(1, XDATA, add(CFA_XSP16, literal(-10)))
        CFI R3 load(1, XDATA, add(CFA_XSP16, literal(-11)))
        CFI R2 load(1, XDATA, add(CFA_XSP16, literal(-12)))
        CFI R1 load(1, XDATA, add(CFA_XSP16, literal(-13)))
        CFI R0 load(1, XDATA, add(CFA_XSP16, literal(-14)))
        CFI CFA_XSP16 add(XSP16, 14)
        ; Saved register size: 15
        ; Auto size: 0
//  689   uint8 t2irqm;
//  690   uint8 t2irqf;
//  691   
//  692   HAL_ENTER_ISR();
        MOV     C,0xa8.7
        CLR     A
        RLC     A
        MOV     ?V0 + 0,A
        SETB    0xa8.7
//  693 
//  694   t2irqm = T2IRQM;
        MOV     A,0xa7
        MOV     R6,A
//  695   t2irqf = T2IRQF;
        MOV     A,0xa1
        MOV     R7,A
//  696 
//  697   /*------------------------------------------------------------------------------------------------
//  698    *  Overflow compare interrupt - triggers when then overflow counter is
//  699    *  equal to the overflow compare register.
//  700    */
//  701   if ((t2irqf & TIMER2_OVF_COMPARE1F) & t2irqm)
        MOV     A,R7
        ANL     A,R6
        ANL     A,#0x10
        JZ      ??macMcuTimer2Isr_0
//  702   {
//  703 
//  704     /* call function for dealing with the timer compare interrupt */
//  705     macBackoffTimerCompareIsr();
        ; Setup parameters for call to function macBackoffTimerCompareIsr
        LCALL   ??macBackoffTimerCompareIsr?relay
//  706 
//  707     /* clear overflow compare interrupt flag */
//  708     T2IRQF = ~TIMER2_OVF_COMPARE1F;
        MOV     0xa1,#-0x11
//  709   }
//  710 
//  711   /*------------------------------------------------------------------------------------------------
//  712    *  Overflow compare interrupt - triggers when then overflow counter is
//  713    *  equal to the overflow compare register.
//  714    */
//  715   if ((t2irqf & TIMER2_OVF_PERF) & t2irqm)
??macMcuTimer2Isr_0:
        MOV     A,R7
        ANL     A,R6
        ANL     A,#0x8
        JZ      ??macMcuTimer2Isr_1
//  716   {
//  717 
//  718     /* call function for dealing with the timer compare interrupt */
//  719     macBackoffTimerPeriodIsr();
        ; Setup parameters for call to function macBackoffTimerPeriodIsr
        LCALL   ??macBackoffTimerPeriodIsr?relay
//  720 
//  721     /* clear overflow compare interrupt flag */
//  722     T2IRQF = ~TIMER2_OVF_PERF;
        MOV     0xa1,#-0x9
        SJMP    ??macMcuTimer2Isr_2
//  723   }
//  724 
//  725   /*------------------------------------------------------------------------------------------------
//  726    *  Overflow interrupt - triggers when the hardware timer rolls over.
//  727    */
//  728   else if ((t2irqf & TIMER2_PERF) & t2irqm)
??macMcuTimer2Isr_1:
        MOV     A,R6
        MOV     C,0xE0 /* A   */.0
        PUSH    PSW
        CFI CFA_SP SP+-4
        MOV     A,R7
        MOV     C,0xE0 /* A   */.0
        MOV     B.0,C
        LCALL   ?POP_BIT_ISP
        DEC     SP
        CFI CFA_SP SP+-3
        ANL     C,B.0
        JNC     ??macMcuTimer2Isr_2
//  729   {
//  730     /* call energy detect interrupt function, this interrupt not used for any other functionality */
//  731     mcuRecordMaxRssiIsr();
        ; Setup parameters for call to function mcuRecordMaxRssiIsr
        LCALL   ??mcuRecordMaxRssiIsr?relay
//  732 
//  733     /* clear the interrupt flag */
//  734     T2IRQF = ~TIMER2_PERF;
        MOV     0xa1,#-0x2
//  735   }
//  736   
//  737   CLEAR_SLEEP_MODE();
//  738   HAL_EXIT_ISR();  
??macMcuTimer2Isr_2:
        MOV     A,?V0 + 0
        MOV     C,0xE0 /* A   */.0
        MOV     0xa8.7,C
//  739 }
        MOV     R7,#0x1
        LJMP    ?INTERRUPT_LEAVE_XSP
        CFI EndBlock cfiBlock12
        REQUIRE _A_IEN0
        REQUIRE T2IRQM
        REQUIRE T2IRQF
//  740 
//  741 
//  742 /**************************************************************************************************
//  743  * @fn          macMcuTimer2OverflowWorkaround
//  744  *
//  745  * @brief       For CC2530, T2 interrupt won’t be generated when the current count is greater than
//  746  *              the comparator. The interrupt is only generated when the current count is equal to
//  747  *              the comparator. When the CC2530 is waking up from sleep, there is a small window
//  748  *              that the count may be grater than the comparator, therefore, missing the interrupt.
//  749  *              This workaround will call the T2 ISR when the current T2 count is greater than the
//  750  *              comparator.
//  751  *
//  752  * @param       none
//  753  *
//  754  * @return      none
//  755  **************************************************************************************************
//  756  */

        RSEG BANKED_CODE:CODE:NOROOT(0)
//  757 void macMcuTimer2OverflowWorkaround(void)
macMcuTimer2OverflowWorkaround:
        CFI Block cfiBlock13 Using cfiCommon0
        CFI Function macMcuTimer2OverflowWorkaround
        CODE
//  758 {
        FUNCALL macMcuTimer2OverflowWorkaround, macMcuOverflowGetCompare
        LOCFRAME ISTACK, 0, STACK
        LOCFRAME PSTACK, 0, STACK
        LOCFRAME XSTACK, 16, STACK
        LOCFRAME IOVERLAY, 0, STATIC
        LOCFRAME DOVERLAY, 0, STATIC
        ARGFRAME ISTACK, 0, STACK
        ARGFRAME PSTACK, 0, STACK
        ARGFRAME XSTACK, 16, STACK
        ARGFRAME IOVERLAY, 0, STATIC
        ARGFRAME DOVERLAY, 0, STATIC
        FUNCALL macMcuTimer2OverflowWorkaround, macMcuOverflowCount
        LOCFRAME ISTACK, 0, STACK
        LOCFRAME PSTACK, 0, STACK
        LOCFRAME XSTACK, 16, STACK
        LOCFRAME IOVERLAY, 0, STATIC
        LOCFRAME DOVERLAY, 0, STATIC
        ARGFRAME ISTACK, 0, STACK
        ARGFRAME PSTACK, 0, STACK
        ARGFRAME XSTACK, 16, STACK
        ARGFRAME IOVERLAY, 0, STATIC
        ARGFRAME DOVERLAY, 0, STATIC
        FUNCALL macMcuTimer2OverflowWorkaround, macBackoffTimerCompareIsr
        LOCFRAME ISTACK, 0, STACK
        LOCFRAME PSTACK, 0, STACK
        LOCFRAME XSTACK, 16, STACK
        LOCFRAME IOVERLAY, 0, STATIC
        LOCFRAME DOVERLAY, 0, STATIC
        ARGFRAME ISTACK, 0, STACK
        ARGFRAME PSTACK, 0, STACK
        ARGFRAME XSTACK, 16, STACK
        ARGFRAME IOVERLAY, 0, STATIC
        ARGFRAME DOVERLAY, 0, STATIC
        MOV     A,#-0x10
        LCALL   ?BANKED_ENTER_XDATA
        CFI DPH0 load(1, XDATA, add(CFA_XSP16, literal(-1)))
        CFI DPL0 load(1, XDATA, add(CFA_XSP16, literal(-2)))
        CFI ?BRET_EXT load(1, XDATA, add(CFA_XSP16, literal(-3)))
        CFI ?RET_HIGH load(1, XDATA, add(CFA_XSP16, literal(-4)))
        CFI ?RET_LOW load(1, XDATA, add(CFA_XSP16, literal(-5)))
        CFI R7 load(1, XDATA, add(CFA_XSP16, literal(-6)))
        CFI V7 load(1, XDATA, add(CFA_XSP16, literal(-7)))
        CFI V6 load(1, XDATA, add(CFA_XSP16, literal(-8)))
        CFI V5 load(1, XDATA, add(CFA_XSP16, literal(-9)))
        CFI V4 load(1, XDATA, add(CFA_XSP16, literal(-10)))
        CFI V3 load(1, XDATA, add(CFA_XSP16, literal(-11)))
        CFI V2 load(1, XDATA, add(CFA_XSP16, literal(-12)))
        CFI V1 load(1, XDATA, add(CFA_XSP16, literal(-13)))
        CFI V0 load(1, XDATA, add(CFA_XSP16, literal(-14)))
        CFI VB load(1, XDATA, add(CFA_XSP16, literal(-15)))
        CFI R6 load(1, XDATA, add(CFA_XSP16, literal(-16)))
        CFI CFA_SP SP+0
        CFI CFA_XSP16 add(XSP16, 16)
        ; Saved register size: 16
        ; Auto size: 0
//  759   if (T2IRQM & TIMER2_OVF_COMPARE1F)
        MOV     A,0xa7
        MOV     C,0xE0 /* A   */.4
        JNC     ??macMcuTimer2OverflowWorkaround_0
//  760   {
//  761     /* T2 comapre 1 interrupt is enabled but T2 compare 1 intererrupt is not generated */
//  762     if (!(T2IRQF & TIMER2_OVF_COMPARE1F))
        MOV     A,0xa1
        MOV     C,0xE0 /* A   */.4
        JC      ??macMcuTimer2OverflowWorkaround_0
//  763     {
//  764       if (MAC_RADIO_BACKOFF_COUNT() > macMcuOverflowGetCompare())
        ; Setup parameters for call to function macMcuOverflowGetCompare
        LCALL   ??macMcuOverflowGetCompare?relay
        MOV     ?V0 + 0,R2
        MOV     ?V0 + 1,R3
        MOV     ?V0 + 2,R4
        MOV     ?V0 + 3,R5
        ; Setup parameters for call to function macMcuOverflowCount
        LCALL   ??macMcuOverflowCount?relay
        MOV     ?V0 + 4,R2
        MOV     ?V0 + 5,R3
        MOV     ?V0 + 6,R4
        MOV     ?V0 + 7,R5
        MOV     R0,#?V0 + 4
        MOV     R1,#?V0 + 0
        LCALL   ?UL_GT
        JNC     ??macMcuTimer2OverflowWorkaround_0
//  765       {
//  766         /* Set the flag to trigger the timer compare interrupt */
//  767         macBackoffTimerCompareIsr();
        ; Setup parameters for call to function macBackoffTimerCompareIsr
        LCALL   ??macBackoffTimerCompareIsr?relay
//  768         T2IRQF = ~TIMER2_OVF_COMPARE1F;
        MOV     0xa1,#-0x11
//  769       }
//  770     }
//  771   }
//  772 }
??macMcuTimer2OverflowWorkaround_0:
        MOV     R7,#0x8
        LJMP    ?BANKED_LEAVE_XDATA
        CFI EndBlock cfiBlock13
        REQUIRE T2IRQM
        REQUIRE T2IRQF
//  773 
//  774 
//  775 /**************************************************************************************************
//  776  * @fn          macMcuPrecisionCount
//  777  *
//  778  * @brief       This function is used by higher layer to read a free running counter driven by
//  779  *              MAC timer.
//  780  *
//  781  * @param       none
//  782  *
//  783  * @return      overflowCount
//  784  **************************************************************************************************
//  785  */

        RSEG BANKED_CODE:CODE:NOROOT(0)
//  786 uint32 macMcuPrecisionCount(void)
macMcuPrecisionCount:
        CFI Block cfiBlock14 Using cfiCommon0
        CFI Function macMcuPrecisionCount
        CODE
//  787 {
        FUNCALL macMcuPrecisionCount, macGetBackOffTimerRollover
        LOCFRAME ISTACK, 0, STACK
        LOCFRAME PSTACK, 0, STACK
        LOCFRAME XSTACK, 16, STACK
        LOCFRAME IOVERLAY, 0, STATIC
        LOCFRAME DOVERLAY, 0, STATIC
        ARGFRAME ISTACK, 0, STACK
        ARGFRAME PSTACK, 0, STACK
        ARGFRAME XSTACK, 16, STACK
        ARGFRAME IOVERLAY, 0, STATIC
        ARGFRAME DOVERLAY, 0, STATIC
        FUNCALL macMcuPrecisionCount, macGetBackOffTimerRollover
        LOCFRAME ISTACK, 0, STACK
        LOCFRAME PSTACK, 0, STACK
        LOCFRAME XSTACK, 16, STACK
        LOCFRAME IOVERLAY, 0, STATIC
        LOCFRAME DOVERLAY, 0, STATIC
        ARGFRAME ISTACK, 0, STACK
        ARGFRAME PSTACK, 0, STACK
        ARGFRAME XSTACK, 16, STACK
        ARGFRAME IOVERLAY, 0, STATIC
        ARGFRAME DOVERLAY, 0, STATIC
        MOV     A,#-0xc
        LCALL   ?BANKED_ENTER_XDATA
        CFI DPH0 load(1, XDATA, add(CFA_XSP16, literal(-1)))
        CFI DPL0 load(1, XDATA, add(CFA_XSP16, literal(-2)))
        CFI ?BRET_EXT load(1, XDATA, add(CFA_XSP16, literal(-3)))
        CFI ?RET_HIGH load(1, XDATA, add(CFA_XSP16, literal(-4)))
        CFI ?RET_LOW load(1, XDATA, add(CFA_XSP16, literal(-5)))
        CFI R7 load(1, XDATA, add(CFA_XSP16, literal(-6)))
        CFI V3 load(1, XDATA, add(CFA_XSP16, literal(-7)))
        CFI V2 load(1, XDATA, add(CFA_XSP16, literal(-8)))
        CFI V1 load(1, XDATA, add(CFA_XSP16, literal(-9)))
        CFI V0 load(1, XDATA, add(CFA_XSP16, literal(-10)))
        CFI VB load(1, XDATA, add(CFA_XSP16, literal(-11)))
        CFI R6 load(1, XDATA, add(CFA_XSP16, literal(-12)))
        CFI CFA_SP SP+0
        CFI CFA_XSP16 add(XSP16, 12)
        ; Saved register size: 12
        ; Auto size: 4
        MOV     A,#-0x4
        LCALL   ?ALLOC_XSTACK8
        CFI CFA_XSP16 add(XSP16, 16)
//  788   uint32         overflowCount = 0;
        MOV     DPTR,#__Constant_0
        LCALL   ?XLOAD_R2345
        MOV     DPL,?XSP + 0
        MOV     DPH,?XSP + 1
        LCALL   ?XSTORE_R2345
//  789   halIntState_t  s;
//  790 
//  791   HAL_ENTER_CRITICAL_SECTION(s);
        MOV     C,0xa8.7
        CLR     A
        RLC     A
        MOV     R6,A
        CLR     0xa8.7
//  792 
//  793   /* This T2 access macro allows accessing both T2MOVFx and T2Mx */
//  794   MAC_MCU_T2_ACCESS_OVF_COUNT_VALUE();
        MOV     0xc3,#0x0
//  795 
//  796   /* Latch the entire T2MOVFx first by reading T2M0.
//  797    * T2M0 is discarded.
//  798    */
//  799   T2M0;
        MOV     A,0xa2
        MOV     R1,A
//  800   ((uint8 *)&overflowCount)[UINT32_NDX0] = T2MOVF0;
        MOV     A,0xa4
        MOV     DPL,?XSP + 0
        MOV     DPH,?XSP + 1
        MOVX    @DPTR,A
//  801   ((uint8 *)&overflowCount)[UINT32_NDX1] = T2MOVF1;
        MOV     A,0xa5
        PUSH    A
        CFI CFA_SP SP+-1
        MOV     A,#0x1
        LCALL   ?XSTACK_DISP0_8
        POP     A
        CFI CFA_SP SP+0
        MOVX    @DPTR,A
//  802   ((uint8 *)&overflowCount)[UINT32_NDX2] = T2MOVF2;
        MOV     A,0xa6
        PUSH    A
        CFI CFA_SP SP+-1
        MOV     A,#0x2
        LCALL   ?XSTACK_DISP0_8
        POP     A
        CFI CFA_SP SP+0
        MOVX    @DPTR,A
//  803 
//  804   /* the overflowCount needs to account for the accumulated overflow count in Beacon mode.
//  805    */
//  806   overflowCount += accumulatedOverflowCount;
        MOV     DPTR,#accumulatedOverflowCount
        MOV     R0,#?V0 + 0
        LCALL   ?L_MOV_X
        MOV     DPL,?XSP + 0
        MOV     DPH,?XSP + 1
        MOV     R0,#?V0 + 0
        LCALL   ?L_ADD_TO_X
//  807   
//  808   /*
//  809    * Workaround to take care of the case where a rollover just occured and the call to
//  810    * macBackoffTimerPeriodIsr() hasn't yet occured or if one rollover occured during
//  811    * sleep then update the accumulatedoverflowCount with the rollover
//  812    */
//  813    if((prevoverflowCount > overflowCount) && (prevAccumulatedOverflowCount == accumulatedOverflowCount))
        MOV     DPL,?XSP + 0
        MOV     DPH,?XSP + 1
        PUSH    DPL
        CFI CFA_SP SP+-1
        PUSH    DPH
        CFI CFA_SP SP+-2
        MOV     DPTR,#prevoverflowCount
        MOV     R0,#?V0 + 0
        LCALL   ?L_MOV_X
        POP     DPH
        CFI CFA_SP SP+-1
        POP     DPL
        CFI CFA_SP SP+0
        MOV     R0,#?V0 + 0
        LCALL   ?UL_GT_X
        JNC     ??macMcuPrecisionCount_0
        MOV     DPTR,#prevAccumulatedOverflowCount
        PUSH    DPL
        CFI CFA_SP SP+-1
        PUSH    DPH
        CFI CFA_SP SP+-2
        MOV     DPTR,#accumulatedOverflowCount
        MOV     R0,#?V0 + 0
        LCALL   ?L_MOV_X
        POP     DPH
        CFI CFA_SP SP+-1
        POP     DPL
        CFI CFA_SP SP+0
        MOV     R0,#?V0 + 0
        LCALL   ?L_EQ_X
        JNZ     ??macMcuPrecisionCount_0
//  814   {
//  815     accumulatedOverflowCount += macGetBackOffTimerRollover();
        ; Setup parameters for call to function macGetBackOffTimerRollover
        LCALL   ??macGetBackOffTimerRollover?relay
        MOV     ?V0 + 0,R2
        MOV     ?V0 + 1,R3
        MOV     ?V0 + 2,R4
        MOV     ?V0 + 3,R5
        MOV     DPTR,#accumulatedOverflowCount
        MOV     R0,#?V0 + 0
        LCALL   ?L_ADD_TO_X
//  816     overflowCount += macGetBackOffTimerRollover();
        ; Setup parameters for call to function macGetBackOffTimerRollover
        LCALL   ??macGetBackOffTimerRollover?relay
        MOV     ?V0 + 0,R2
        MOV     ?V0 + 1,R3
        MOV     ?V0 + 2,R4
        MOV     ?V0 + 3,R5
        MOV     DPL,?XSP + 0
        MOV     DPH,?XSP + 1
        MOV     R0,#?V0 + 0
        LCALL   ?L_ADD_TO_X
//  817     /*don't update the rollover since it has been updated already */
//  818     updateRolloverflag = TRUE;
        MOV     DPTR,#updateRolloverflag
        MOV     A,#0x1
        MOVX    @DPTR,A
//  819   }
//  820 
//  821   /* store the current value of overflowcount and accumulatedOverflowCount */
//  822   prevoverflowCount = overflowCount;
??macMcuPrecisionCount_0:
        MOV     DPL,?XSP + 0
        MOV     DPH,?XSP + 1
        LCALL   ?XLOAD_R2345
        MOV     DPTR,#prevoverflowCount
        LCALL   ?XSTORE_R2345
//  823   prevAccumulatedOverflowCount = accumulatedOverflowCount;
        MOV     DPTR,#accumulatedOverflowCount
        LCALL   ?XLOAD_R2345
        MOV     DPTR,#prevAccumulatedOverflowCount
        LCALL   ?XSTORE_R2345
//  824   HAL_EXIT_CRITICAL_SECTION(s);
        MOV     A,R6
        MOV     C,0xE0 /* A   */.0
        MOV     0xa8.7,C
//  825 
//  826   return(overflowCount);
        MOV     DPL,?XSP + 0
        MOV     DPH,?XSP + 1
        LCALL   ?XLOAD_R2345
        MOV     A,#0x4
        LCALL   ?DEALLOC_XSTACK8
        CFI CFA_XSP16 add(XSP16, 12)
        MOV     R7,#0x4
        LJMP    ?BANKED_LEAVE_XDATA
        CFI EndBlock cfiBlock14
        REQUIRE _A_IEN0
        REQUIRE T2MSEL
        REQUIRE T2M0
        REQUIRE T2MOVF0
        REQUIRE T2MOVF1
        REQUIRE T2MOVF2
//  827 }
//  828 
//  829 
//  830 /**************************************************************************************************
//  831  * @fn          macMcuRfIsr
//  832  *
//  833  * @brief       Interrupt service routine that handles all RF interrupts.  There are a number
//  834  *              of conditions "ganged" onto this one ISR so each condition must be tested for.
//  835  *
//  836  * @param       none
//  837  *
//  838  * @return      none
//  839  **************************************************************************************************
//  840  */
//  841 //HAL_ISR_FUNCTION( macMcuRfIsr, RF_VECTOR )

        RSEG NEAR_CODE:CODE:NOROOT(0)
//  842 HAL_ISR_FUNCTION( rfIsr, RF_VECTOR )
rfIsr:
        CFI Block cfiBlock15 Using cfiCommon1
        CFI Function rfIsr
        CODE
//  843 {
        FUNCALL rfIsr, macCspTxIntIsr
        LOCFRAME ISTACK, 15, STACK
        LOCFRAME PSTACK, 0, STACK
        LOCFRAME XSTACK, 0, STACK
        LOCFRAME IOVERLAY, 0, STATIC
        LOCFRAME DOVERLAY, 0, STATIC
        ARGFRAME ISTACK, 15, STACK
        ARGFRAME PSTACK, 0, STACK
        ARGFRAME XSTACK, 0, STACK
        ARGFRAME IOVERLAY, 0, STATIC
        ARGFRAME DOVERLAY, 0, STATIC
        FUNCALL rfIsr, macCspTxStopIsr
        LOCFRAME ISTACK, 15, STACK
        LOCFRAME PSTACK, 0, STACK
        LOCFRAME XSTACK, 0, STACK
        LOCFRAME IOVERLAY, 0, STATIC
        LOCFRAME DOVERLAY, 0, STATIC
        ARGFRAME ISTACK, 15, STACK
        ARGFRAME PSTACK, 0, STACK
        ARGFRAME XSTACK, 0, STACK
        ARGFRAME IOVERLAY, 0, STATIC
        ARGFRAME DOVERLAY, 0, STATIC
        FUNCALL rfIsr, macRxAckTxDoneCallback
        LOCFRAME ISTACK, 15, STACK
        LOCFRAME PSTACK, 0, STACK
        LOCFRAME XSTACK, 0, STACK
        LOCFRAME IOVERLAY, 0, STATIC
        LOCFRAME DOVERLAY, 0, STATIC
        ARGFRAME ISTACK, 15, STACK
        ARGFRAME PSTACK, 0, STACK
        ARGFRAME XSTACK, 0, STACK
        ARGFRAME IOVERLAY, 0, STATIC
        ARGFRAME DOVERLAY, 0, STATIC
        FUNCALL rfIsr, macRxThresholdIsr
        LOCFRAME ISTACK, 15, STACK
        LOCFRAME PSTACK, 0, STACK
        LOCFRAME XSTACK, 0, STACK
        LOCFRAME IOVERLAY, 0, STATIC
        LOCFRAME DOVERLAY, 0, STATIC
        ARGFRAME ISTACK, 15, STACK
        ARGFRAME PSTACK, 0, STACK
        ARGFRAME XSTACK, 0, STACK
        ARGFRAME IOVERLAY, 0, STATIC
        ARGFRAME DOVERLAY, 0, STATIC
        PUSH    A
        CFI A Frame(CFA_SP, 3)
        CFI CFA_SP SP+-3
        MOV     A,#-0xe
        LCALL   ?INTERRUPT_ENTER_XSP
        CFI B load(1, XDATA, add(CFA_XSP16, literal(-1)))
        CFI VB load(1, XDATA, add(CFA_XSP16, literal(-2)))
        CFI PSW load(1, XDATA, add(CFA_XSP16, literal(-3)))
        CFI DPL0 load(1, XDATA, add(CFA_XSP16, literal(-4)))
        CFI DPH0 load(1, XDATA, add(CFA_XSP16, literal(-5)))
        CFI R7 load(1, XDATA, add(CFA_XSP16, literal(-6)))
        CFI R6 load(1, XDATA, add(CFA_XSP16, literal(-7)))
        CFI R5 load(1, XDATA, add(CFA_XSP16, literal(-8)))
        CFI R4 load(1, XDATA, add(CFA_XSP16, literal(-9)))
        CFI V0 load(1, XDATA, add(CFA_XSP16, literal(-10)))
        CFI R3 load(1, XDATA, add(CFA_XSP16, literal(-11)))
        CFI R2 load(1, XDATA, add(CFA_XSP16, literal(-12)))
        CFI R1 load(1, XDATA, add(CFA_XSP16, literal(-13)))
        CFI R0 load(1, XDATA, add(CFA_XSP16, literal(-14)))
        CFI CFA_XSP16 add(XSP16, 14)
        ; Saved register size: 15
        ; Auto size: 0
//  844   uint8 rfim;
//  845   
//  846   HAL_ENTER_ISR();
        MOV     C,0xa8.7
        CLR     A
        RLC     A
        MOV     R7,A
        SETB    0xa8.7
//  847 #if defined(HAVE_TEST_FUN)    
//  848   if(TEST_FLAG==0)
//  849   {
//  850 #endif    
//  851     
//  852     rfim = RFIRQM1;
        MOV     DPTR,#0x61a4
        MOVX    A,@DPTR
        MOV     R6,A
//  853     
//  854     /*  The CPU level RF interrupt flag must be cleared here (before clearing RFIRQFx).
//  855     *  to allow the interrupts to be nested.
//  856     */
//  857     S1CON = 0x00;
        MOV     0x9b,#0x0
//  858     
//  859     if ((RFIRQF1 & IRQ_CSP_MANINT) & rfim)
        MOV     A,0x91
        ANL     A,R6
        ANL     A,#0x8
        JZ      ??rfIsr_0
//  860     {
//  861       /*
//  862       *  Important!  Because of how the CSP programs are written, CSP_INT interrupts should
//  863       *  be processed before CSP_STOP interrupts.  This becomes an issue when there are
//  864       *  long critical sections.
//  865       */
//  866       /* clear flag */
//  867       RFIRQF1 = ~IRQ_CSP_MANINT;
        MOV     0x91,#-0x9
//  868       macCspTxIntIsr();
        ; Setup parameters for call to function macCspTxIntIsr
        LCALL   ??macCspTxIntIsr?relay
        SJMP    ??rfIsr_1
//  869     }
//  870     else if ((RFIRQF1 & IRQ_CSP_STOP) & rfim)
??rfIsr_0:
        MOV     A,0x91
        ANL     A,R6
        ANL     A,#0x10
        JZ      ??rfIsr_2
//  871     {
//  872       /* clear flag */
//  873       RFIRQF1 = ~IRQ_CSP_STOP;
        MOV     0x91,#-0x11
//  874       macCspTxStopIsr();
        ; Setup parameters for call to function macCspTxStopIsr
        LCALL   ??macCspTxStopIsr?relay
        SJMP    ??rfIsr_1
//  875     }
//  876     else if ((RFIRQF1 & IRQ_TXACKDONE) & rfim)
??rfIsr_2:
        MOV     A,R6
        MOV     C,0xE0 /* A   */.0
        PUSH    PSW
        CFI CFA_SP SP+-4
        MOV     A,0x91
        MOV     C,0xE0 /* A   */.0
        MOV     B.0,C
        LCALL   ?POP_BIT_ISP
        DEC     SP
        CFI CFA_SP SP+-3
        ANL     C,B.0
        JNC     ??rfIsr_1
//  877     {
//  878       /* disable interrupt - set up is for "one shot" operation */
//  879       RFIRQM1 &= ~IM_TXACKDONE;
        MOV     DPTR,#0x61a4
        MOVX    A,@DPTR
        CLR     0xE0 /* A   */.0
        MOVX    @DPTR,A
//  880       macRxAckTxDoneCallback();
        ; Setup parameters for call to function macRxAckTxDoneCallback
        LCALL   ??macRxAckTxDoneCallback?relay
//  881     }
//  882     
//  883     rfim = RFIRQM0;
??rfIsr_1:
        MOV     DPTR,#0x61a3
        MOVX    A,@DPTR
        MOV     R6,A
//  884     
//  885     /* process RFIRQF0 next */
//  886     if ((RFIRQF0 & IRQ_FIFOP) & rfim)
        MOV     A,0xe9
        ANL     A,R6
        ANL     A,#0x4
        JZ      ??rfIsr_3
//  887     {
//  888       /* continue to execute interrup                                                                                                                                                                                                                                                                                                                                                                                                                                                                                                                                                                                        t handler as long as FIFOP is active */
//  889       do
//  890       {
//  891         macRxThresholdIsr();
??rfIsr_4:
        ; Setup parameters for call to function macRxThresholdIsr
        LCALL   ??macRxThresholdIsr?relay
//  892         RFIRQF0 = ~IRQ_FIFOP;
        MOV     0xe9,#-0x5
//  893       } while (FSMSTAT1 & FIFOP);
        MOV     DPTR,#0x6193
        MOVX    A,@DPTR
        MOV     C,0xE0 /* A   */.6
        JC      ??rfIsr_4
//  894     }
//  895     
//  896     CLEAR_SLEEP_MODE();
//  897     //HAL_EXIT_ISR();  
//  898 #if defined(HAVE_TEST_FUN)    
//  899   }
//  900   else
//  901   {
//  902     uint8 x;
//  903     
//  904     HAL_INT_LOCK(x);
//  905     
//  906     if( RFIRQF0 & IRQ_RXPKTDONE )
//  907     {
//  908       if(pfISR){
//  909         (*pfISR)();                 // Execute the custom ISR
//  910       }
//  911       S1CON= 0;                   // Clear general RF interrupt flag
//  912       RFIRQF0&= ~IRQ_RXPKTDONE;   // Clear RXPKTDONE interrupt
//  913     }
//  914     HAL_INT_UNLOCK(x);
//  915   }
//  916 #endif 
//  917   HAL_EXIT_ISR();  
??rfIsr_3:
        MOV     A,R7
        MOV     C,0xE0 /* A   */.0
        MOV     0xa8.7,C
//  918   
//  919 }
        MOV     R7,#0x1
        LJMP    ?INTERRUPT_LEAVE_XSP
        CFI EndBlock cfiBlock15
        REQUIRE _A_IEN0
        REQUIRE S1CON
        REQUIRE RFIRQF1
        REQUIRE RFIRQF0
//  920 
//  921 
//  922 /**************************************************************************************************
//  923  * @fn          macMcuRfErrIsr
//  924  *
//  925  * @brief       Interrupt service routine that handles all RF Error interrupts.  Only the RX FIFO
//  926  *              overflow condition is handled.
//  927  *
//  928  * @param       none
//  929  *
//  930  * @return      none
//  931  **************************************************************************************************
//  932  */

        RSEG NEAR_CODE:CODE:NOROOT(0)
//  933 HAL_ISR_FUNCTION( macMcuRfErrIsr, RFERR_VECTOR )
macMcuRfErrIsr:
        CFI Block cfiBlock16 Using cfiCommon1
        CFI Function macMcuRfErrIsr
        CODE
//  934 {
        FUNCALL macMcuRfErrIsr, macRxFifoOverflowIsr
        LOCFRAME ISTACK, 15, STACK
        LOCFRAME PSTACK, 0, STACK
        LOCFRAME XSTACK, 0, STACK
        LOCFRAME IOVERLAY, 0, STATIC
        LOCFRAME DOVERLAY, 0, STATIC
        ARGFRAME ISTACK, 15, STACK
        ARGFRAME PSTACK, 0, STACK
        ARGFRAME XSTACK, 0, STACK
        ARGFRAME IOVERLAY, 0, STATIC
        ARGFRAME DOVERLAY, 0, STATIC
        PUSH    A
        CFI A Frame(CFA_SP, 3)
        CFI CFA_SP SP+-3
        MOV     A,#-0xe
        LCALL   ?INTERRUPT_ENTER_XSP
        CFI B load(1, XDATA, add(CFA_XSP16, literal(-1)))
        CFI VB load(1, XDATA, add(CFA_XSP16, literal(-2)))
        CFI PSW load(1, XDATA, add(CFA_XSP16, literal(-3)))
        CFI DPL0 load(1, XDATA, add(CFA_XSP16, literal(-4)))
        CFI DPH0 load(1, XDATA, add(CFA_XSP16, literal(-5)))
        CFI R7 load(1, XDATA, add(CFA_XSP16, literal(-6)))
        CFI R6 load(1, XDATA, add(CFA_XSP16, literal(-7)))
        CFI R5 load(1, XDATA, add(CFA_XSP16, literal(-8)))
        CFI R4 load(1, XDATA, add(CFA_XSP16, literal(-9)))
        CFI V0 load(1, XDATA, add(CFA_XSP16, literal(-10)))
        CFI R3 load(1, XDATA, add(CFA_XSP16, literal(-11)))
        CFI R2 load(1, XDATA, add(CFA_XSP16, literal(-12)))
        CFI R1 load(1, XDATA, add(CFA_XSP16, literal(-13)))
        CFI R0 load(1, XDATA, add(CFA_XSP16, literal(-14)))
        CFI CFA_XSP16 add(XSP16, 14)
        ; Saved register size: 15
        ; Auto size: 0
//  935   uint8 rferrm;
//  936   
//  937   HAL_ENTER_ISR();
        MOV     C,0xa8.7
        CLR     A
        RLC     A
        MOV     R7,A
        SETB    0xa8.7
//  938   
//  939   rferrm = RFERRM;
        MOV     DPTR,#0x61a5
        MOVX    A,@DPTR
        MOV     R6,A
//  940 
//  941   if ((RFERRF & RFERR_RXOVERF) & rferrm)
        MOV     A,0xbf
        ANL     A,R6
        ANL     A,#0x4
        JZ      ??macMcuRfErrIsr_0
//  942   {
//  943     RFERRF = ~RFERR_RXOVERF;
        MOV     0xbf,#-0x5
//  944     macRxFifoOverflowIsr();
        ; Setup parameters for call to function macRxFifoOverflowIsr
        LCALL   ??macRxFifoOverflowIsr?relay
//  945   }
//  946 
//  947   CLEAR_SLEEP_MODE();
//  948   HAL_EXIT_ISR();  
??macMcuRfErrIsr_0:
        MOV     A,R7
        MOV     C,0xE0 /* A   */.0
        MOV     0xa8.7,C
//  949 }
        MOV     R7,#0x1
        LJMP    ?INTERRUPT_LEAVE_XSP
        CFI EndBlock cfiBlock16
        REQUIRE _A_IEN0
        REQUIRE RFERRF
//  950 
//  951 
//  952 /**************************************************************************************************
//  953  * @fn          macMcuRecordMaxRssiStart
//  954  *
//  955  * @brief       Starts recording of the maximum received RSSI value.
//  956  *
//  957  * @param       none
//  958  *
//  959  * @return      none
//  960  **************************************************************************************************
//  961  */

        RSEG BANKED_CODE:CODE:NOROOT(0)
//  962 MAC_INTERNAL_API void macMcuRecordMaxRssiStart(void)
macMcuRecordMaxRssiStart:
        CFI Block cfiBlock17 Using cfiCommon0
        CFI Function macMcuRecordMaxRssiStart
        CODE
//  963 {
        PUSH    DPL
        CFI DPL0 Frame(CFA_SP, 4)
        CFI CFA_SP SP+-4
        PUSH    DPH
        CFI DPH0 Frame(CFA_SP, 5)
        CFI CFA_SP SP+-5
        ; Saved register size: 2
        ; Auto size: 0
//  964   /* start maximum recorded value at the lowest possible value */
//  965   maxRssi = -128;
        MOV     DPTR,#maxRssi
        MOV     A,#-0x80
        MOVX    @DPTR,A
//  966 
//  967   /* enable timer overflow interrupt */
//  968   T2IRQM |= TIMER2_PERM;
        ORL     0xa7,#0x1
//  969 }
        POP     DPH
        CFI DPH0 SameValue
        CFI CFA_SP SP+-4
        POP     DPL
        CFI DPL0 SameValue
        CFI CFA_SP SP+-3
        LJMP    ?BRET
        CFI EndBlock cfiBlock17
        REQUIRE T2IRQM
//  970 
//  971 
//  972 /**************************************************************************************************
//  973  * @fn          macMcuRecordMaxRssiStop
//  974  *
//  975  * @brief       Stops recording of the maximum received RSSI.  It returns the maximum value
//  976  *              received since starting the recording.
//  977  *
//  978  * @param       none
//  979  *
//  980  * @return      maximum received RSSI value
//  981  **************************************************************************************************
//  982  */

        RSEG BANKED_CODE:CODE:NOROOT(0)
//  983 MAC_INTERNAL_API int8 macMcuRecordMaxRssiStop(void)
macMcuRecordMaxRssiStop:
        CFI Block cfiBlock18 Using cfiCommon0
        CFI Function macMcuRecordMaxRssiStop
        CODE
//  984 {
        PUSH    DPL
        CFI DPL0 Frame(CFA_SP, 4)
        CFI CFA_SP SP+-4
        PUSH    DPH
        CFI DPH0 Frame(CFA_SP, 5)
        CFI CFA_SP SP+-5
        ; Saved register size: 2
        ; Auto size: 0
//  985   /* disable timer overflow interrupt */
//  986   T2IRQM &= ~TIMER2_PERM;
        ANL     0xa7,#0xfe
//  987 
//  988   return(maxRssi);
        MOV     DPTR,#maxRssi
        MOVX    A,@DPTR
        MOV     R1,A
        POP     DPH
        CFI DPH0 SameValue
        CFI CFA_SP SP+-4
        POP     DPL
        CFI DPL0 SameValue
        CFI CFA_SP SP+-3
        LJMP    ?BRET
        CFI EndBlock cfiBlock18
        REQUIRE T2IRQM
//  989 }
//  990 
//  991 
//  992 /*=================================================================================================
//  993  * @fn          macMcuRecordMaxRssiIsr
//  994  *
//  995  * @brief       Interrupt service routine called during recording of max RSSI value.
//  996  *
//  997  * @param       none
//  998  *
//  999  * @return      none
// 1000  *=================================================================================================
// 1001  */

        RSEG BANKED_CODE:CODE:NOROOT(0)
// 1002 static void mcuRecordMaxRssiIsr(void)
mcuRecordMaxRssiIsr:
        CFI Block cfiBlock19 Using cfiCommon0
        CFI Function mcuRecordMaxRssiIsr
        CODE
// 1003 {
        PUSH    DPL
        CFI DPL0 Frame(CFA_SP, 4)
        CFI CFA_SP SP+-4
        PUSH    DPH
        CFI DPH0 Frame(CFA_SP, 5)
        CFI CFA_SP SP+-5
        ; Saved register size: 2
        ; Auto size: 0
// 1004   int8 rssi;
// 1005 
// 1006   /* read latest RSSI value */
// 1007   rssi = RSSI;
        MOV     DPTR,#0x6198
        MOVX    A,@DPTR
        MOV     R0,A
// 1008 
// 1009   /* if new RSSI value is greater than the maximum already received, it is the new maximum */
// 1010   if (rssi > maxRssi)
        MOV     DPTR,#maxRssi
        MOVX    A,@DPTR
        CLR     C
        SUBB    A,R0
        MOV     C,0xD0 /* PSW */.2
        XRL     A,PSW
        RLC     A
        JNC     ??mcuRecordMaxRssiIsr_0
// 1011   {
// 1012     maxRssi = rssi;
        MOV     A,R0
        MOV     DPTR,#maxRssi
        MOVX    @DPTR,A
// 1013   }
// 1014 }
??mcuRecordMaxRssiIsr_0:
        POP     DPH
        CFI DPH0 SameValue
        CFI CFA_SP SP+-4
        POP     DPL
        CFI DPL0 SameValue
        CFI CFA_SP SP+-3
        LJMP    ?BRET
        CFI EndBlock cfiBlock19
// 1015 
// 1016 /**************************************************************************************************
// 1017  * @fn          macMcuAccumulatedOverFlow
// 1018  *
// 1019  * @brief       This function is used to accumulate timer 2 overflow if applicable
// 1020  *              on the relevant platform
// 1021  *
// 1022  * @param       none
// 1023  *
// 1024  * @return      none
// 1025  **************************************************************************************************
// 1026  */

        RSEG BANKED_CODE:CODE:NOROOT(0)
// 1027 MAC_INTERNAL_API void macMcuAccumulatedOverFlow(void)
macMcuAccumulatedOverFlow:
        CFI Block cfiBlock20 Using cfiCommon0
        CFI Function macMcuAccumulatedOverFlow
        CODE
// 1028 {
        FUNCALL macMcuAccumulatedOverFlow, macGetBackOffTimerRollover
        LOCFRAME ISTACK, 0, STACK
        LOCFRAME PSTACK, 0, STACK
        LOCFRAME XSTACK, 12, STACK
        LOCFRAME IOVERLAY, 0, STATIC
        LOCFRAME DOVERLAY, 0, STATIC
        ARGFRAME ISTACK, 0, STACK
        ARGFRAME PSTACK, 0, STACK
        ARGFRAME XSTACK, 12, STACK
        ARGFRAME IOVERLAY, 0, STATIC
        ARGFRAME DOVERLAY, 0, STATIC
        MOV     A,#-0xc
        LCALL   ?BANKED_ENTER_XDATA
        CFI DPH0 load(1, XDATA, add(CFA_XSP16, literal(-1)))
        CFI DPL0 load(1, XDATA, add(CFA_XSP16, literal(-2)))
        CFI ?BRET_EXT load(1, XDATA, add(CFA_XSP16, literal(-3)))
        CFI ?RET_HIGH load(1, XDATA, add(CFA_XSP16, literal(-4)))
        CFI ?RET_LOW load(1, XDATA, add(CFA_XSP16, literal(-5)))
        CFI R7 load(1, XDATA, add(CFA_XSP16, literal(-6)))
        CFI V3 load(1, XDATA, add(CFA_XSP16, literal(-7)))
        CFI V2 load(1, XDATA, add(CFA_XSP16, literal(-8)))
        CFI V1 load(1, XDATA, add(CFA_XSP16, literal(-9)))
        CFI V0 load(1, XDATA, add(CFA_XSP16, literal(-10)))
        CFI VB load(1, XDATA, add(CFA_XSP16, literal(-11)))
        CFI R6 load(1, XDATA, add(CFA_XSP16, literal(-12)))
        CFI CFA_SP SP+0
        CFI CFA_XSP16 add(XSP16, 12)
        ; Saved register size: 12
        ; Auto size: 0
// 1029   halIntState_t  s;
// 1030   HAL_ENTER_CRITICAL_SECTION(s);
        MOV     C,0xa8.7
        CLR     A
        RLC     A
        MOV     R6,A
        CLR     0xa8.7
// 1031 
// 1032   if(updateRolloverflag == FALSE)
        MOV     DPTR,#updateRolloverflag
        MOVX    A,@DPTR
        JNZ     ??macMcuAccumulatedOverFlow_0
// 1033   {
// 1034     accumulatedOverflowCount += macGetBackOffTimerRollover();
        ; Setup parameters for call to function macGetBackOffTimerRollover
        LCALL   ??macGetBackOffTimerRollover?relay
        MOV     ?V0 + 0,R2
        MOV     ?V0 + 1,R3
        MOV     ?V0 + 2,R4
        MOV     ?V0 + 3,R5
        MOV     DPTR,#accumulatedOverflowCount
        MOV     R0,#?V0 + 0
        LCALL   ?L_ADD_TO_X
        SJMP    ??macMcuAccumulatedOverFlow_1
// 1035   }
// 1036   else
// 1037   {
// 1038     updateRolloverflag = FALSE;
??macMcuAccumulatedOverFlow_0:
        MOV     DPTR,#updateRolloverflag
        MOV     A,#0x0
        MOVX    @DPTR,A
// 1039   }
// 1040 
// 1041   HAL_EXIT_CRITICAL_SECTION(s);
??macMcuAccumulatedOverFlow_1:
        MOV     A,R6
        MOV     C,0xE0 /* A   */.0
        MOV     0xa8.7,C
// 1042 }
        MOV     R7,#0x4
        LJMP    ?BANKED_LEAVE_XDATA
        CFI EndBlock cfiBlock20
        REQUIRE _A_IEN0

        COMMON INTVEC:CODE:ROOT(0)
        ORG 3
`??macMcuRfErrIsr??INTVEC 3`:
        LJMP       (macMcuRfErrIsr)

        COMMON INTVEC:CODE:ROOT(0)
        ORG 83
`??macMcuTimer2Isr??INTVEC 83`:
        LJMP       (macMcuTimer2Isr)

        COMMON INTVEC:CODE:ROOT(0)
        ORG 131
`??rfIsr??INTVEC 131`:
        LJMP       (rfIsr)

        RSEG XDATA_ROM_C:CONST:REORDER:NOROOT(0)
        DATA32
__Constant_ff000000:
        DD 4278190080

        RSEG XDATA_ROM_C:CONST:REORDER:NOROOT(0)
        DATA32
__Constant_0:
        DD 0

        RSEG BANK_RELAYS:CODE:REORDER:NOROOT(0)
??MAC_SetRandomSeedCB?relay:
        LCALL   ?BDISPATCH
        DATA
        DC24    MAC_SetRandomSeedCB

        RSEG BANK_RELAYS:CODE:REORDER:NOROOT(0)
??macMcuInit?relay:
        LCALL   ?BDISPATCH
        DATA
        DC24    macMcuInit

        RSEG BANK_RELAYS:CODE:REORDER:NOROOT(0)
??macMcuRandomByte?relay:
        LCALL   ?BDISPATCH
        DATA
        DC24    macMcuRandomByte

        RSEG BANK_RELAYS:CODE:REORDER:NOROOT(0)
??macMcuRandomWord?relay:
        LCALL   ?BDISPATCH
        DATA
        DC24    macMcuRandomWord

        RSEG BANK_RELAYS:CODE:REORDER:NOROOT(0)
??macMcuTimerForceDelay?relay:
        LCALL   ?BDISPATCH
        DATA
        DC24    macMcuTimerForceDelay

        RSEG BANK_RELAYS:CODE:REORDER:NOROOT(0)
??macMcuTimerCapture?relay:
        LCALL   ?BDISPATCH
        DATA
        DC24    macMcuTimerCapture

        RSEG BANK_RELAYS:CODE:REORDER:NOROOT(0)
??macMcuOverflowCount?relay:
        LCALL   ?BDISPATCH
        DATA
        DC24    macMcuOverflowCount

        RSEG BANK_RELAYS:CODE:REORDER:NOROOT(0)
??macMcuOverflowCapture?relay:
        LCALL   ?BDISPATCH
        DATA
        DC24    macMcuOverflowCapture

        RSEG BANK_RELAYS:CODE:REORDER:NOROOT(0)
??macMcuOverflowSetCount?relay:
        LCALL   ?BDISPATCH
        DATA
        DC24    macMcuOverflowSetCount

        RSEG BANK_RELAYS:CODE:REORDER:NOROOT(0)
??macMcuOverflowSetCompare?relay:
        LCALL   ?BDISPATCH
        DATA
        DC24    macMcuOverflowSetCompare

        RSEG BANK_RELAYS:CODE:REORDER:NOROOT(0)
??macMcuOverflowSetPeriod?relay:
        LCALL   ?BDISPATCH
        DATA
        DC24    macMcuOverflowSetPeriod

        RSEG BANK_RELAYS:CODE:REORDER:NOROOT(0)
??macMcuOverflowGetCompare?relay:
        LCALL   ?BDISPATCH
        DATA
        DC24    macMcuOverflowGetCompare

        RSEG BANK_RELAYS:CODE:REORDER:NOROOT(0)
??macMcuTimer2OverflowWorkaround?relay:
        LCALL   ?BDISPATCH
        DATA
        DC24    macMcuTimer2OverflowWorkaround

        RSEG BANK_RELAYS:CODE:REORDER:NOROOT(0)
??macMcuPrecisionCount?relay:
        LCALL   ?BDISPATCH
        DATA
        DC24    macMcuPrecisionCount

        RSEG BANK_RELAYS:CODE:REORDER:NOROOT(0)
??macMcuRecordMaxRssiStart?relay:
        LCALL   ?BDISPATCH
        DATA
        DC24    macMcuRecordMaxRssiStart

        RSEG BANK_RELAYS:CODE:REORDER:NOROOT(0)
??macMcuRecordMaxRssiStop?relay:
        LCALL   ?BDISPATCH
        DATA
        DC24    macMcuRecordMaxRssiStop

        RSEG BANK_RELAYS:CODE:REORDER:NOROOT(0)
??mcuRecordMaxRssiIsr?relay:
        LCALL   ?BDISPATCH
        DATA
        DC24    mcuRecordMaxRssiIsr

        RSEG BANK_RELAYS:CODE:REORDER:NOROOT(0)
??macMcuAccumulatedOverFlow?relay:
        LCALL   ?BDISPATCH
        DATA
        DC24    macMcuAccumulatedOverFlow

        END
// 1043 
// 1044 /**************************************************************************************************
// 1045  *                                  Compile Time Integrity Checks
// 1046  **************************************************************************************************
// 1047  */
// 1048 #if ((IRQ_SFD != IM_SFD) || (IRQ_FIFOP != IM_FIFOP) || (IRQ_TXACKDONE != IM_TXACKDONE))
// 1049 #error "ERROR: Compile time error with RFIRQFx vs RFIRQMx register defines."
// 1050 #endif
// 1051 
// 1052 #if defined (FEATURE_CC253X_LOW_POWER_RX) && !(defined (HAL_MCU_CC2530) || defined (HAL_MCU_CC2533))
// 1053 #error "ERROR: FEATURE_CC253X_LOW_POWER_RX can only be used with CC2530 or CC2533."
// 1054 #endif
// 1055 
// 1056 /**************************************************************************************************
// 1057 */
// 
// 1 683 bytes in segment BANKED_CODE
//   108 bytes in segment BANK_RELAYS
//     9 bytes in segment INTVEC
//   243 bytes in segment NEAR_CODE
//    22 bytes in segment SFR_AN
//     8 bytes in segment XDATA_ROM_C
//    17 bytes in segment XDATA_Z
// 
// 2 034 bytes of CODE  memory (+  9 bytes shared)
//     0 bytes of CONST memory (+  8 bytes shared)
//     0 bytes of DATA  memory (+ 22 bytes shared)
//    17 bytes of XDATA memory
//
//Errors: none
//Warnings: none
