///////////////////////////////////////////////////////////////////////////////
//                                                                            /
// IAR C/C++ Compiler V8.10.1.10194/W32 for 8051        06/Dec/2014  19:39:26 /
// Copyright 2004-2011 IAR Systems AB.                                        /
//                                                                            /
//    Core               =  plain                                             /
//    Code model         =  banked                                            /
//    Data model         =  large                                             /
//    Calling convention =  xdata reentrant                                   /
//    Constant location  =  data_rom                                          /
//    Dptr setup         =  1,16                                              /
//    Source file        =  G:\TI\Package_libary\FORMAL\RE_1_2_0_FORMAL_APP(2 /
//                          51)\Projects\zstack\Samples\SampleApp\Source\zdo_ /
//                          sample.c                                          /
//    Command line       =  -f "G:\TI\Package_libary\FORMAL\RE_1_2_0_FORMAL_A /
//                          PP(251)\Projects\zstack\Samples\SampleApp\CC2530D /
//                          B\..\..\..\Tools\CC2530DB\f8wEndev.cfg"           /
//                          (-DCPU32MHZ -DROOT=__near_func                    /
//                          -DMAC_CFG_TX_DATA_MAX=3 -DMAC_CFG_TX_MAX=6        /
//                          -DMAC_CFG_RX_MAX=3) -f "G:\TI\Package_libary\FORM /
//                          AL\RE_1_2_0_FORMAL_APP(251)\Projects\zstack\Sampl /
//                          es\SampleApp\CC2530DB\..\..\..\Tools\CC2530DB\f8w /
//                          Config.cfg" (-DZIGBEEPRO -DSECURE=1               /
//                          -DZG_SECURE_DYNAMIC=0 -DREFLECTOR                 /
//                          -DZDAPP_CONFIG_PAN_ID=0xFFFF                      /
//                          -DNWK_START_DELAY=100 -DEXTENDED_JOINING_RANDOM_M /
//                          ASK=0x007F -DBEACON_REQUEST_DELAY=100             /
//                          -DBEACON_REQ_DELAY_MASK=0x00FF                    /
//                          -DLINK_STATUS_JITTER_MASK=0x007F                  /
//                          -DROUTE_EXPIRY_TIME=30 -DAPSC_ACK_WAIT_DURATION_P /
//                          OLLED=3000 -DNWK_INDIRECT_MSG_TIMEOUT=60          /
//                          -DMAX_RREQ_ENTRIES=8 -DAPSC_MAX_FRAME_RETRIES=3   /
//                          -DNWK_MAX_DATA_RETRIES=2                          /
//                          -DMAX_POLL_FAILURE_RETRIES=2 -DMAX_BCAST=9        /
//                          -DAPS_MAX_GROUPS=16 -DMAX_RTG_ENTRIES=30          /
//                          -DNWK_MAX_BINDING_ENTRIES=8                       /
//                          -DMAX_BINDING_CLUSTER_IDS=4 -DASSERT_RESET        /
//                          -DMAC_MAX_FRAME_SIZE=116                          /
//                          -DZDNWKMGR_MIN_TRANSMISSIONS=20 "-DCONST=const    /
//                          __code" -DGENERIC=__generic                       /
//                          -DRFD_RCVC_ALWAYS_ON=FALSE -DPOLL_RATE=8000       /
//                          -DQUEUED_POLL_RATE=100 -DRESPONSE_POLL_RATE=1000) /
//                           -DREJOIN_POLL_RATE=440                           /
//                          "G:\TI\Package_libary\FORMAL\RE_1_2_0_FORMAL_APP( /
//                          251)\Projects\zstack\Samples\SampleApp\Source\zdo /
//                          _sample.c" -D NV_INIT -D NV_RESTORE -D            /
//                          HOLD_AUTO_START -D MT_TASK -D xMT_APP_FUNC -D     /
//                          MT_SYS_FUNC -D MT_ZDO_FUNC -D xMT_ZDO_MGMT -D     /
//                          ISR_KEYINTERRUPT -D POWER_SAVING -D SR_PIR -D     /
//                          CR2_DATA_NODETECT -D HAVE_TEST_FUN -D             /
//                          xRESUME_TIME_TEST -lC "G:\TI\Package_libary\FORMA /
//                          L\RE_1_2_0_FORMAL_APP(251)\Projects\zstack\Sample /
//                          s\SampleApp\CC2530DB\SR_PIR_CR2_enddevice\List\"  /
//                          -lA "G:\TI\Package_libary\FORMAL\RE_1_2_0_FORMAL_ /
//                          APP(251)\Projects\zstack\Samples\SampleApp\CC2530 /
//                          DB\SR_PIR_CR2_enddevice\List\" --diag_suppress    /
//                          Pe001,Pa010 -o "G:\TI\Package_libary\FORMAL\RE_1_ /
//                          2_0_FORMAL_APP(251)\Projects\zstack\Samples\Sampl /
//                          eApp\CC2530DB\SR_PIR_CR2_enddevice\Obj\" -e       /
//                          --no_cse --no_unroll --no_inline                  /
//                          --no_code_motion --no_tbaa --debug --core=plain   /
//                          --dptr=16,1 --data_model=large                    /
//                          --code_model=banked --calling_convention=xdata_re /
//                          entrant --place_constants=data_rom                /
//                          --nr_virtual_regs 16 -I                           /
//                          "G:\TI\Package_libary\FORMAL\RE_1_2_0_FORMAL_APP( /
//                          251)\Projects\zstack\Samples\SampleApp\CC2530DB\" /
//                           -I "G:\TI\Package_libary\FORMAL\RE_1_2_0_FORMAL_ /
//                          APP(251)\Projects\zstack\Samples\SampleApp\CC2530 /
//                          DB\..\Source\" -I "G:\TI\Package_libary\FORMAL\RE /
//                          _1_2_0_FORMAL_APP(251)\Projects\zstack\Samples\Sa /
//                          mpleApp\CC2530DB\..\..\..\ZMain\TI2530DB\" -I     /
//                          "G:\TI\Package_libary\FORMAL\RE_1_2_0_FORMAL_APP( /
//                          251)\Projects\zstack\Samples\SampleApp\CC2530DB\. /
//                          .\..\..\..\..\Components\hal\include\" -I         /
//                          "G:\TI\Package_libary\FORMAL\RE_1_2_0_FORMAL_APP( /
//                          251)\Projects\zstack\Samples\SampleApp\CC2530DB\. /
//                          .\..\..\..\..\Components\hal\target\CC2530EB\"    /
//                          -I "G:\TI\Package_libary\FORMAL\RE_1_2_0_FORMAL_A /
//                          PP(251)\Projects\zstack\Samples\SampleApp\CC2530D /
//                          B\..\..\..\..\..\Components\mac\include\" -I      /
//                          "G:\TI\Package_libary\FORMAL\RE_1_2_0_FORMAL_APP( /
//                          251)\Projects\zstack\Samples\SampleApp\CC2530DB\. /
//                          .\..\..\..\..\Components\mac\high_level\" -I      /
//                          "G:\TI\Package_libary\FORMAL\RE_1_2_0_FORMAL_APP( /
//                          251)\Projects\zstack\Samples\SampleApp\CC2530DB\. /
//                          .\..\..\..\..\Components\mac\low_level\srf04\"    /
//                          -I "G:\TI\Package_libary\FORMAL\RE_1_2_0_FORMAL_A /
//                          PP(251)\Projects\zstack\Samples\SampleApp\CC2530D /
//                          B\..\..\..\..\..\Components\mac\low_level\srf04\s /
//                          ingle_chip\" -I "G:\TI\Package_libary\FORMAL\RE_1 /
//                          _2_0_FORMAL_APP(251)\Projects\zstack\Samples\Samp /
//                          leApp\CC2530DB\..\..\..\..\..\Components\mt\" -I  /
//                          "G:\TI\Package_libary\FORMAL\RE_1_2_0_FORMAL_APP( /
//                          251)\Projects\zstack\Samples\SampleApp\CC2530DB\. /
//                          .\..\..\..\..\Components\osal\include\" -I        /
//                          "G:\TI\Package_libary\FORMAL\RE_1_2_0_FORMAL_APP( /
//                          251)\Projects\zstack\Samples\SampleApp\CC2530DB\. /
//                          .\..\..\..\..\Components\services\saddr\" -I      /
//                          "G:\TI\Package_libary\FORMAL\RE_1_2_0_FORMAL_APP( /
//                          251)\Projects\zstack\Samples\SampleApp\CC2530DB\. /
//                          .\..\..\..\..\Components\services\sdata\" -I      /
//                          "G:\TI\Package_libary\FORMAL\RE_1_2_0_FORMAL_APP( /
//                          251)\Projects\zstack\Samples\SampleApp\CC2530DB\. /
//                          .\..\..\..\..\Components\stack\af\" -I            /
//                          "G:\TI\Package_libary\FORMAL\RE_1_2_0_FORMAL_APP( /
//                          251)\Projects\zstack\Samples\SampleApp\CC2530DB\. /
//                          .\..\..\..\..\Components\stack\nwk\" -I           /
//                          "G:\TI\Package_libary\FORMAL\RE_1_2_0_FORMAL_APP( /
//                          251)\Projects\zstack\Samples\SampleApp\CC2530DB\. /
//                          .\..\..\..\..\Components\stack\sapi\" -I          /
//                          "G:\TI\Package_libary\FORMAL\RE_1_2_0_FORMAL_APP( /
//                          251)\Projects\zstack\Samples\SampleApp\CC2530DB\. /
//                          .\..\..\..\..\Components\stack\sec\" -I           /
//                          "G:\TI\Package_libary\FORMAL\RE_1_2_0_FORMAL_APP( /
//                          251)\Projects\zstack\Samples\SampleApp\CC2530DB\. /
//                          .\..\..\..\..\Components\stack\sys\" -I           /
//                          "G:\TI\Package_libary\FORMAL\RE_1_2_0_FORMAL_APP( /
//                          251)\Projects\zstack\Samples\SampleApp\CC2530DB\. /
//                          .\..\..\..\..\Components\stack\zdo\" -I           /
//                          "G:\TI\Package_libary\FORMAL\RE_1_2_0_FORMAL_APP( /
//                          251)\Projects\zstack\Samples\SampleApp\CC2530DB\. /
//                          .\..\..\..\..\Components\zmac\" -I                /
//                          "G:\TI\Package_libary\FORMAL\RE_1_2_0_FORMAL_APP( /
//                          251)\Projects\zstack\Samples\SampleApp\CC2530DB\. /
//                          .\..\..\..\..\Components\zmac\f8w\" -On           /
//                          --require_prototypes                              /
//    List file          =  G:\TI\Package_libary\FORMAL\RE_1_2_0_FORMAL_APP(2 /
//                          51)\Projects\zstack\Samples\SampleApp\CC2530DB\SR /
//                          _PIR_CR2_enddevice\List\zdo_sample.s51            /
//                                                                            /
//                                                                            /
///////////////////////////////////////////////////////////////////////////////

        NAME zdo_sample

        RTMODEL "__SystemLibrary", "CLib"
        RTMODEL "__calling_convention", "xdata_reentrant"
        RTMODEL "__code_model", "banked"
        RTMODEL "__core", "plain"
        RTMODEL "__data_model", "large"
        RTMODEL "__dptr_size", "16"
        RTMODEL "__extended_stack", "disabled"
        RTMODEL "__location_for_constants", "data"
        RTMODEL "__number_of_dptrs", "1"
        RTMODEL "__rt_version", "1"

        RSEG DOVERLAY:DATA:NOROOT(0)
        RSEG IOVERLAY:IDATA:NOROOT(0)
        RSEG ISTACK:IDATA:NOROOT(0)
        RSEG PSTACK:XDATA:NOROOT(0)
        RSEG XSTACK:XDATA:NOROOT(0)

        EXTERN ?ALLOC_XSTACK8
        EXTERN ?BANKED_ENTER_XDATA
        EXTERN ?BANKED_LEAVE_XDATA
        EXTERN ?BDISPATCH
        EXTERN ?BRET
        EXTERN ?DEALLOC_XSTACK8
        EXTERN ?L_MOV_TO_X
        EXTERN ?L_SHL
        EXTERN ?MOVE_LONG8_XDATA_XDATA
        EXTERN ?PUSH_XSTACK8_X_TWO
        EXTERN ?PUSH_XSTACK_I_ONE
        EXTERN ?PUSH_XSTACK_I_TWO
        EXTERN ?US_DIV_MOD
        EXTERN ?V0
        EXTERN ?XLOAD_R2345
        EXTERN ?XSP
        EXTERN ?XSTACK_DISP0_8
        EXTERN ?XSTORE_R2345
        EXTERN __INIT_XDATA_I
        EXTERN __INIT_XDATA_Z

        PUBLIC ??APPLY_TO_JOIN_OF_KEY?relay
        FUNCTION ??APPLY_TO_JOIN_OF_KEY?relay,0203H
        PUBLIC ??APP_DEAL_WITH_ASSOCIATED?relay
        FUNCTION ??APP_DEAL_WITH_ASSOCIATED?relay,0203H
        PUBLIC ??APP_ENDDEVICE_ACK?relay
        FUNCTION ??APP_ENDDEVICE_ACK?relay,0203H
        PUBLIC ??APP_JOIN_DEAL_WITH?relay
        FUNCTION ??APP_JOIN_DEAL_WITH?relay,0203H
        PUBLIC ??APP_JOIN_INIT?relay
        FUNCTION ??APP_JOIN_INIT?relay,0203H
        PUBLIC ??APP_JOIN_START_EVT?relay
        FUNCTION ??APP_JOIN_START_EVT?relay,0203H
        PUBLIC ??APP_NORMAL_COMMAND?relay
        FUNCTION ??APP_NORMAL_COMMAND?relay,0203H
        PUBLIC ??APP_OS_DEAL_WITH?relay
        FUNCTION ??APP_OS_DEAL_WITH?relay,0203H
        PUBLIC ??Change_Net_Set?relay
        FUNCTION ??Change_Net_Set?relay,0203H
        PUBLIC ??RESTORE_TO_FACTORY?relay
        FUNCTION ??RESTORE_TO_FACTORY?relay,0203H
        PUBLIC ??RemoveStaleNode?relay
        FUNCTION ??RemoveStaleNode?relay,0203H
        PUBLIC ??RemoveStaleRouter?relay
        FUNCTION ??RemoveStaleRouter?relay,0203H
        PUBLIC ??SampleApp_GetExtendAddr?relay
        FUNCTION ??SampleApp_GetExtendAddr?relay,0203H
        PUBLIC ??SampleApp_GetShortAddr?relay
        FUNCTION ??SampleApp_GetShortAddr?relay,0203H
        PUBLIC ??SampleApp_ProcessNwkaddrMessage?relay
        FUNCTION ??SampleApp_ProcessNwkaddrMessage?relay,0203H
        PUBLIC ??SampleApp_ROUTER_ProcessPeriodicMessage_Data?
        FUNCTION ??SampleApp_ROUTER_ProcessPeriodicMessage_Data?,0203H
        PUBLIC ??SampleApp_SendNwkaddrMessage?relay
        FUNCTION ??SampleApp_SendNwkaddrMessage?relay,0203H
        PUBLIC ??SampleApp_SendPeriodicMessage?relay
        FUNCTION ??SampleApp_SendPeriodicMessage?relay,0203H
        PUBLIC ??ZDApp_NwkDescListProcessing?relay
        FUNCTION ??ZDApp_NwkDescListProcessing?relay,0203H
        PUBLIC ??ZDO_ACK_DEAL_WITH?relay
        FUNCTION ??ZDO_ACK_DEAL_WITH?relay,0203H
        PUBLIC ??ZDO_DEVICE_DISC?relay
        FUNCTION ??ZDO_DEVICE_DISC?relay,0203H
        PUBLIC ??ZDO_REJOIN_ERROR?relay
        FUNCTION ??ZDO_REJOIN_ERROR?relay,0203H
        PUBLIC ??hextoword1?relay
        FUNCTION ??hextoword1?relay,0203H
        PUBLIC ??hextoword2?relay
        FUNCTION ??hextoword2?relay,0203H
        PUBLIC ??sampleAPP_sendRS_periodMessage?relay
        FUNCTION ??sampleAPP_sendRS_periodMessage?relay,0203H
        PUBLIC ??wordtohex?relay
        FUNCTION ??wordtohex?relay,0203H
        PUBLIC ??zb_ReadConfiguration?relay
        FUNCTION ??zb_ReadConfiguration?relay,0203H
        PUBLIC ??zb_StartRequest?relay
        FUNCTION ??zb_StartRequest?relay,0203H
        PUBLIC ??zb_WriteConfiguration?relay
        FUNCTION ??zb_WriteConfiguration?relay,0203H
        PUBLIC APPLY_TO_JOIN_OF_KEY
        FUNCTION APPLY_TO_JOIN_OF_KEY,021203H
        ARGFRAME XSTACK, 0, STACK
        LOCFRAME ISTACK, 2, STACK
        LOCFRAME XSTACK, 1, STACK
        PUBLIC APP_DEAL_WITH_ASSOCIATED
        FUNCTION APP_DEAL_WITH_ASSOCIATED,021203H
        ARGFRAME XSTACK, 0, STACK
        LOCFRAME XSTACK, 9, STACK
        PUBLIC APP_ENDDEVICE_ACK
        FUNCTION APP_ENDDEVICE_ACK,0203H
        ARGFRAME XSTACK, 0, STACK
        PUBLIC APP_JOIN_DEAL_WITH
        FUNCTION APP_JOIN_DEAL_WITH,021203H
        ARGFRAME XSTACK, 0, STACK
        LOCFRAME XSTACK, 23, STACK
        PUBLIC APP_JOIN_INIT
        FUNCTION APP_JOIN_INIT,021203H
        ARGFRAME XSTACK, 0, STACK
        LOCFRAME XSTACK, 15, STACK
        PUBLIC APP_JOIN_START_EVT
        FUNCTION APP_JOIN_START_EVT,021203H
        ARGFRAME XSTACK, 0, STACK
        LOCFRAME ISTACK, 2, STACK
        LOCFRAME XSTACK, 1, STACK
        PUBLIC APP_NORMAL_COMMAND
        FUNCTION APP_NORMAL_COMMAND,021203H
        ARGFRAME XSTACK, 0, STACK
        LOCFRAME ISTACK, 2, STACK
        LOCFRAME XSTACK, 93, STACK
        PUBLIC APP_OS_DEAL_WITH
        FUNCTION APP_OS_DEAL_WITH,021203H
        ARGFRAME XSTACK, 0, STACK
        LOCFRAME XSTACK, 9, STACK
        PUBLIC Change_Net_Set
        FUNCTION Change_Net_Set,021203H
        ARGFRAME XSTACK, 0, STACK
        LOCFRAME ISTACK, 2, STACK
        PUBLIC Child_list
        PUBLIC HEART_NEED_ACK_FLAG
        PUBLIC Heart_mesg_flag
        PUBLIC Join_isset_flag
        PUBLIC LEAVE_NET_SET_FLAG
        PUBLIC Minitue_join_delay_time
        PUBLIC New_Channel_list
        PUBLIC New_Net_flag
        PUBLIC New_Panid
        PUBLIC New_join_delay_time
        PUBLIC New_join_role_flag
        PUBLIC OS_FLAG
        PUBLIC POWER_PA_FLAG
        PUBLIC POWER_SAVING_FLAG
        PUBLIC RESTORE_TO_FACTORY
        FUNCTION RESTORE_TO_FACTORY,021203H
        ARGFRAME XSTACK, 0, STACK
        LOCFRAME ISTACK, 1, STACK
        LOCFRAME XSTACK, 33, STACK
        PUBLIC RTR_NWK_FLAG
        PUBLIC RemoveStaleNode
        FUNCTION RemoveStaleNode,021203H
        ARGFRAME XSTACK, 9, STACK
        ARGFRAME IOVERLAY, 0, STATIC
        ARGFRAME DOVERLAY, 0, STATIC
        LOCFRAME XSTACK, 27, STACK
        PUBLIC RemoveStaleRouter
        FUNCTION RemoveStaleRouter,021203H
        ARGFRAME XSTACK, 0, STACK
        LOCFRAME XSTACK, 27, STACK
        PUBLIC SampleApp_GetExtendAddr
        FUNCTION SampleApp_GetExtendAddr,021203H
        ARGFRAME XSTACK, 64, STACK
        ARGFRAME IOVERLAY, 0, STATIC
        ARGFRAME DOVERLAY, 0, STATIC
        LOCFRAME ISTACK, 1, STACK
        LOCFRAME XSTACK, 14, STACK
        PUBLIC SampleApp_GetShortAddr
        FUNCTION SampleApp_GetShortAddr,021203H
        ARGFRAME XSTACK, 64, STACK
        ARGFRAME IOVERLAY, 0, STATIC
        ARGFRAME DOVERLAY, 0, STATIC
        LOCFRAME ISTACK, 1, STACK
        LOCFRAME XSTACK, 14, STACK
        PUBLIC SampleApp_ProcessNwkaddrMessage
        FUNCTION SampleApp_ProcessNwkaddrMessage,021203H
        ARGFRAME XSTACK, 0, STACK
        LOCFRAME ISTACK, 2, STACK
        LOCFRAME XSTACK, 26, STACK
        PUBLIC SampleApp_ROUTER_ProcessPeriodicMessage_Data
        FUNCTION SampleApp_ROUTER_ProcessPeriodicMessage_Data,021203H
        ARGFRAME XSTACK, 0, STACK
        LOCFRAME ISTACK, 2, STACK
        LOCFRAME XSTACK, 35, STACK
        PUBLIC SampleApp_SendNwkaddrMessage
        FUNCTION SampleApp_SendNwkaddrMessage,021203H
        ARGFRAME XSTACK, 0, STACK
        LOCFRAME ISTACK, 1, STACK
        LOCFRAME XSTACK, 51, STACK
        PUBLIC SampleApp_SendPeriodicMessage
        FUNCTION SampleApp_SendPeriodicMessage,021203H
        ARGFRAME XSTACK, 0, STACK
        LOCFRAME ISTACK, 1, STACK
        LOCFRAME XSTACK, 26, STACK
        PUBLIC SampleApp_TaskID
        PUBLIC SampleApp_TransID
        PUBLIC SampleApp_epDesc
        PUBLIC Second_join_delay_time
        PUBWEAK WDCTL
        PUBLIC ZDApp_NwkDescListProcessing
        FUNCTION ZDApp_NwkDescListProcessing,021203H
        ARGFRAME XSTACK, 0, STACK
        LOCFRAME XSTACK, 24, STACK
        PUBLIC ZDO_ACK_DEAL_WITH
        FUNCTION ZDO_ACK_DEAL_WITH,021203H
        ARGFRAME XSTACK, 0, STACK
        LOCFRAME ISTACK, 2, STACK
        PUBLIC ZDO_DEVICE_DISC
        FUNCTION ZDO_DEVICE_DISC,021203H
        ARGFRAME XSTACK, 0, STACK
        LOCFRAME XSTACK, 12, STACK
        PUBLIC ZDO_REJOIN_ERROR
        FUNCTION ZDO_REJOIN_ERROR,021203H
        ARGFRAME XSTACK, 0, STACK
        PUBWEAK _A_IEN0
        PUBWEAK __Constant_318c800
        PUBLIC defaultKey
        PUBLIC extendaddr_mem
        PUBLIC hextoword1
        FUNCTION hextoword1,0203H
        ARGFRAME XSTACK, 14, STACK
        ARGFRAME IOVERLAY, 0, STATIC
        ARGFRAME DOVERLAY, 0, STATIC
        PUBLIC hextoword2
        FUNCTION hextoword2,0203H
        ARGFRAME XSTACK, 14, STACK
        ARGFRAME IOVERLAY, 0, STATIC
        ARGFRAME DOVERLAY, 0, STATIC
        LOCFRAME ISTACK, 1, STACK
        PUBLIC sampleAPP_sendRS_periodMessage
        FUNCTION sampleAPP_sendRS_periodMessage,021203H
        ARGFRAME XSTACK, 0, STACK
        LOCFRAME ISTACK, 1, STACK
        LOCFRAME XSTACK, 73, STACK
        PUBLIC shortddr_mem
        PUBLIC wordtohex
        FUNCTION wordtohex,0203H
        ARGFRAME XSTACK, 17, STACK
        ARGFRAME IOVERLAY, 0, STATIC
        ARGFRAME DOVERLAY, 0, STATIC
        PUBLIC zb_ReadConfiguration
        FUNCTION zb_ReadConfiguration,021203H
        ARGFRAME XSTACK, 11, STACK
        ARGFRAME IOVERLAY, 0, STATIC
        ARGFRAME DOVERLAY, 0, STATIC
        LOCFRAME XSTACK, 17, STACK
        PUBLIC zb_StartRequest
        FUNCTION zb_StartRequest,021203H
        ARGFRAME XSTACK, 11, STACK
        ARGFRAME IOVERLAY, 0, STATIC
        ARGFRAME DOVERLAY, 0, STATIC
        LOCFRAME XSTACK, 10, STACK
        PUBLIC zb_WriteConfiguration
        FUNCTION zb_WriteConfiguration,021203H
        ARGFRAME XSTACK, 1, STACK
        ARGFRAME IOVERLAY, 0, STATIC
        ARGFRAME DOVERLAY, 0, STATIC
        LOCFRAME XSTACK, 16, STACK
        
        CFI Names cfiNames0
        CFI StackFrame CFA_SP SP IDATA
        CFI StackFrame CFA_PSP16 PSP16 XDATA
        CFI StackFrame CFA_XSP16 XSP16 XDATA
        CFI StaticOverlayFrame CFA_IOVERLAY IOVERLAY
        CFI StaticOverlayFrame CFA_DOVERLAY DOVERLAY
        CFI Resource `PSW.CY`:1, `B.BR0`:1, `B.BR1`:1, `B.BR2`:1, `B.BR3`:1
        CFI Resource `B.BR4`:1, `B.BR5`:1, `B.BR6`:1, `B.BR7`:1, `VB.BR8`:1
        CFI Resource `VB.BR9`:1, `VB.BR10`:1, `VB.BR11`:1, `VB.BR12`:1
        CFI Resource `VB.BR13`:1, `VB.BR14`:1, `VB.BR15`:1, VB:8, B:8, A:8
        CFI Resource PSW:8, DPL0:8, DPH0:8, R0:8, R1:8, R2:8, R3:8, R4:8, R5:8
        CFI Resource R6:8, R7:8, V0:8, V1:8, V2:8, V3:8, V4:8, V5:8, V6:8, V7:8
        CFI Resource V8:8, V9:8, V10:8, V11:8, V12:8, V13:8, V14:8, V15:8, SP:8
        CFI Resource PSPH:8, PSPL:8, PSP16:16, XSPH:8, XSPL:8, XSP16:16
        CFI VirtualResource ?RET:24
        CFI Resource ?BRET_EXT:8
        CFI VirtualResource ?RET_HIGH:8, ?RET_LOW:8
        CFI ResourceParts PSP16 PSPH, PSPL
        CFI ResourceParts XSP16 XSPH, XSPL
        CFI ResourceParts ?RET ?BRET_EXT, ?RET_HIGH, ?RET_LOW
        CFI EndNames cfiNames0
        
        CFI Common cfiCommon0 Using cfiNames0
        CFI CodeAlign 1
        CFI DataAlign -1
        CFI ReturnAddress ?RET CODE
        CFI CFA_DOVERLAY Used
        CFI CFA_IOVERLAY Used
        CFI CFA_SP SP+-3
        CFI CFA_PSP16 PSP16+0
        CFI CFA_XSP16 XSP16+0
        CFI `PSW.CY` SameValue
        CFI `B.BR0` SameValue
        CFI `B.BR1` SameValue
        CFI `B.BR2` SameValue
        CFI `B.BR3` SameValue
        CFI `B.BR4` SameValue
        CFI `B.BR5` SameValue
        CFI `B.BR6` SameValue
        CFI `B.BR7` SameValue
        CFI `VB.BR8` SameValue
        CFI `VB.BR9` SameValue
        CFI `VB.BR10` SameValue
        CFI `VB.BR11` SameValue
        CFI `VB.BR12` SameValue
        CFI `VB.BR13` SameValue
        CFI `VB.BR14` SameValue
        CFI `VB.BR15` SameValue
        CFI VB SameValue
        CFI B Undefined
        CFI A Undefined
        CFI PSW SameValue
        CFI DPL0 SameValue
        CFI DPH0 SameValue
        CFI R0 Undefined
        CFI R1 Undefined
        CFI R2 Undefined
        CFI R3 Undefined
        CFI R4 Undefined
        CFI R5 Undefined
        CFI R6 SameValue
        CFI R7 SameValue
        CFI V0 SameValue
        CFI V1 SameValue
        CFI V2 SameValue
        CFI V3 SameValue
        CFI V4 SameValue
        CFI V5 SameValue
        CFI V6 SameValue
        CFI V7 SameValue
        CFI V8 SameValue
        CFI V9 SameValue
        CFI V10 SameValue
        CFI V11 SameValue
        CFI V12 SameValue
        CFI V13 SameValue
        CFI V14 SameValue
        CFI V15 SameValue
        CFI PSPH Undefined
        CFI PSPL Undefined
        CFI XSPH Undefined
        CFI XSPL Undefined
        CFI ?RET Concat
        CFI ?BRET_EXT Frame(CFA_SP, 3)
        CFI ?RET_HIGH Frame(CFA_SP, 2)
        CFI ?RET_LOW Frame(CFA_SP, 1)
        CFI EndCommon cfiCommon0
        
nwk_getNwkDescList  SYMBOL "nwk_getNwkDescList"
nwk_ExtPANIDValid   SYMBOL "nwk_ExtPANIDValid"
sAddrExtCmp         SYMBOL "sAddrExtCmp"
osal_pwrmgr_device  SYMBOL "osal_pwrmgr_device"
osal_rand           SYMBOL "osal_rand"
ZDApp_NetworkInit   SYMBOL "ZDApp_NetworkInit"
nwkNeighborInitTable SYMBOL "nwkNeighborInitTable"
ZDApp_SendMsg       SYMBOL "ZDApp_SendMsg"
osal_nv_item_init   SYMBOL "osal_nv_item_init"
osal_nv_read        SYMBOL "osal_nv_read"
osal_start_timerEx  SYMBOL "osal_start_timerEx"
NLME_PermitJoiningRequest SYMBOL "NLME_PermitJoiningRequest"
ZDP_MgmtPermitJoinReq SYMBOL "ZDP_MgmtPermitJoinReq"
osal_nv_write       SYMBOL "osal_nv_write"
osal_mem_free       SYMBOL "osal_mem_free"
NLME_GetCoordShortAddr SYMBOL "NLME_GetCoordShortAddr"
AF_DataRequest      SYMBOL "AF_DataRequest"
osal_nv_item_len    SYMBOL "osal_nv_item_len"
osal_mem_alloc      SYMBOL "osal_mem_alloc"
NLME_GetShortAddr   SYMBOL "NLME_GetShortAddr"
NLME_GetExtAddr     SYMBOL "NLME_GetExtAddr"
AssocCount          SYMBOL "AssocCount"
HalLedBlink         SYMBOL "HalLedBlink"
ZMacSetTransmitPower SYMBOL "ZMacSetTransmitPower"
NLME_SetPollRate    SYMBOL "NLME_SetPollRate"
ZDOInitDevice       SYMBOL "ZDOInitDevice"
AddrMgrEntryGet     SYMBOL "AddrMgrEntryGet"
NLME_LeaveReq       SYMBOL "NLME_LeaveReq"
ZMacSetReq          SYMBOL "ZMacSetReq"
ZDApp_NwkStateUpdateCB SYMBOL "ZDApp_NwkStateUpdateCB"
nwkTransmissionFailures SYMBOL "nwkTransmissionFailures"
??AF_DataRequest?relay SYMBOL "?relay", AF_DataRequest
??AddrMgrEntryGet?relay SYMBOL "?relay", AddrMgrEntryGet
??AssocCount?relay  SYMBOL "?relay", AssocCount
??HalLedBlink?relay SYMBOL "?relay", HalLedBlink
??NLME_GetCoordShortAddr?relay SYMBOL "?relay", NLME_GetCoordShortAddr
??NLME_GetExtAddr?relay SYMBOL "?relay", NLME_GetExtAddr
??NLME_GetShortAddr?relay SYMBOL "?relay", NLME_GetShortAddr
??NLME_LeaveReq?relay SYMBOL "?relay", NLME_LeaveReq
??NLME_PermitJoiningRequest?relay SYMBOL "?relay", NLME_PermitJoiningRequest
??NLME_SetPollRate?relay SYMBOL "?relay", NLME_SetPollRate
??ZDApp_NetworkInit?relay SYMBOL "?relay", ZDApp_NetworkInit
??ZDApp_NwkStateUpdateCB?relay SYMBOL "?relay", ZDApp_NwkStateUpdateCB
??ZDApp_SendMsg?relay SYMBOL "?relay", ZDApp_SendMsg
??ZDOInitDevice?relay SYMBOL "?relay", ZDOInitDevice
??ZDP_MgmtPermitJoinReq?relay SYMBOL "?relay", ZDP_MgmtPermitJoinReq
??ZMacSetReq?relay  SYMBOL "?relay", ZMacSetReq
??ZMacSetTransmitPower?relay SYMBOL "?relay", ZMacSetTransmitPower
??nwkNeighborInitTable?relay SYMBOL "?relay", nwkNeighborInitTable
??nwkTransmissionFailures?relay SYMBOL "?relay", nwkTransmissionFailures
??nwk_ExtPANIDValid?relay SYMBOL "?relay", nwk_ExtPANIDValid
??nwk_getNwkDescList?relay SYMBOL "?relay", nwk_getNwkDescList
??osal_mem_alloc?relay SYMBOL "?relay", osal_mem_alloc
??osal_mem_free?relay SYMBOL "?relay", osal_mem_free
??osal_nv_item_init?relay SYMBOL "?relay", osal_nv_item_init
??osal_nv_item_len?relay SYMBOL "?relay", osal_nv_item_len
??osal_nv_read?relay SYMBOL "?relay", osal_nv_read
??osal_nv_write?relay SYMBOL "?relay", osal_nv_write
??osal_pwrmgr_device?relay SYMBOL "?relay", osal_pwrmgr_device
??osal_rand?relay   SYMBOL "?relay", osal_rand
??osal_start_timerEx?relay SYMBOL "?relay", osal_start_timerEx
??sAddrExtCmp?relay SYMBOL "?relay", sAddrExtCmp
APPLY_TO_JOIN_OF_KEY SYMBOL "APPLY_TO_JOIN_OF_KEY"
??APPLY_TO_JOIN_OF_KEY?relay SYMBOL "?relay", APPLY_TO_JOIN_OF_KEY
APP_DEAL_WITH_ASSOCIATED SYMBOL "APP_DEAL_WITH_ASSOCIATED"
??APP_DEAL_WITH_ASSOCIATED?relay SYMBOL "?relay", APP_DEAL_WITH_ASSOCIATED
APP_ENDDEVICE_ACK   SYMBOL "APP_ENDDEVICE_ACK"
??APP_ENDDEVICE_ACK?relay SYMBOL "?relay", APP_ENDDEVICE_ACK
APP_JOIN_DEAL_WITH  SYMBOL "APP_JOIN_DEAL_WITH"
??APP_JOIN_DEAL_WITH?relay SYMBOL "?relay", APP_JOIN_DEAL_WITH
APP_JOIN_INIT       SYMBOL "APP_JOIN_INIT"
??APP_JOIN_INIT?relay SYMBOL "?relay", APP_JOIN_INIT
APP_JOIN_START_EVT  SYMBOL "APP_JOIN_START_EVT"
??APP_JOIN_START_EVT?relay SYMBOL "?relay", APP_JOIN_START_EVT
APP_NORMAL_COMMAND  SYMBOL "APP_NORMAL_COMMAND"
??APP_NORMAL_COMMAND?relay SYMBOL "?relay", APP_NORMAL_COMMAND
APP_OS_DEAL_WITH    SYMBOL "APP_OS_DEAL_WITH"
??APP_OS_DEAL_WITH?relay SYMBOL "?relay", APP_OS_DEAL_WITH
Change_Net_Set      SYMBOL "Change_Net_Set"
??Change_Net_Set?relay SYMBOL "?relay", Change_Net_Set
RESTORE_TO_FACTORY  SYMBOL "RESTORE_TO_FACTORY"
??RESTORE_TO_FACTORY?relay SYMBOL "?relay", RESTORE_TO_FACTORY
RemoveStaleNode     SYMBOL "RemoveStaleNode"
??RemoveStaleNode?relay SYMBOL "?relay", RemoveStaleNode
RemoveStaleRouter   SYMBOL "RemoveStaleRouter"
??RemoveStaleRouter?relay SYMBOL "?relay", RemoveStaleRouter
SampleApp_GetExtendAddr SYMBOL "SampleApp_GetExtendAddr"
??SampleApp_GetExtendAddr?relay SYMBOL "?relay", SampleApp_GetExtendAddr
SampleApp_GetShortAddr SYMBOL "SampleApp_GetShortAddr"
??SampleApp_GetShortAddr?relay SYMBOL "?relay", SampleApp_GetShortAddr
SampleApp_ProcessNwkaddrMessage SYMBOL "SampleApp_ProcessNwkaddrMessage"
??SampleApp_ProcessNwkaddrMessage?relay SYMBOL "?relay", SampleApp_ProcessNwkaddrMessage
SampleApp_ROUTER_ProcessPeriodicMessage_Data SYMBOL "SampleApp_ROUTER_ProcessPeriodicMessage_Data"
??SampleApp_ROUTER_ProcessPeriodicMessage_Data? SYMBOL "?relay", SampleApp_ROUTER_ProcessPeriodicMessage_Data
SampleApp_SendNwkaddrMessage SYMBOL "SampleApp_SendNwkaddrMessage"
??SampleApp_SendNwkaddrMessage?relay SYMBOL "?relay", SampleApp_SendNwkaddrMessage
SampleApp_SendPeriodicMessage SYMBOL "SampleApp_SendPeriodicMessage"
??SampleApp_SendPeriodicMessage?relay SYMBOL "?relay", SampleApp_SendPeriodicMessage
ZDApp_NwkDescListProcessing SYMBOL "ZDApp_NwkDescListProcessing"
??ZDApp_NwkDescListProcessing?relay SYMBOL "?relay", ZDApp_NwkDescListProcessing
ZDO_ACK_DEAL_WITH   SYMBOL "ZDO_ACK_DEAL_WITH"
??ZDO_ACK_DEAL_WITH?relay SYMBOL "?relay", ZDO_ACK_DEAL_WITH
ZDO_DEVICE_DISC     SYMBOL "ZDO_DEVICE_DISC"
??ZDO_DEVICE_DISC?relay SYMBOL "?relay", ZDO_DEVICE_DISC
ZDO_REJOIN_ERROR    SYMBOL "ZDO_REJOIN_ERROR"
??ZDO_REJOIN_ERROR?relay SYMBOL "?relay", ZDO_REJOIN_ERROR
hextoword1          SYMBOL "hextoword1"
??hextoword1?relay  SYMBOL "?relay", hextoword1
hextoword2          SYMBOL "hextoword2"
??hextoword2?relay  SYMBOL "?relay", hextoword2
sampleAPP_sendRS_periodMessage SYMBOL "sampleAPP_sendRS_periodMessage"
??sampleAPP_sendRS_periodMessage?relay SYMBOL "?relay", sampleAPP_sendRS_periodMessage
wordtohex           SYMBOL "wordtohex"
??wordtohex?relay   SYMBOL "?relay", wordtohex
zb_ReadConfiguration SYMBOL "zb_ReadConfiguration"
??zb_ReadConfiguration?relay SYMBOL "?relay", zb_ReadConfiguration
zb_StartRequest     SYMBOL "zb_StartRequest"
??zb_StartRequest?relay SYMBOL "?relay", zb_StartRequest
zb_WriteConfiguration SYMBOL "zb_WriteConfiguration"
??zb_WriteConfiguration?relay SYMBOL "?relay", zb_WriteConfiguration

        EXTERN nwk_getNwkDescList
        FUNCTION nwk_getNwkDescList,0202H
        ARGFRAME ISTACK, 0, STACK
        ARGFRAME PSTACK, 0, STACK
        ARGFRAME XSTACK, 24, STACK
        ARGFRAME IOVERLAY, 0, STATIC
        ARGFRAME DOVERLAY, 0, STATIC
        EXTERN nwk_ExtPANIDValid
        FUNCTION nwk_ExtPANIDValid,0202H
        ARGFRAME ISTACK, 0, STACK
        ARGFRAME PSTACK, 0, STACK
        ARGFRAME XSTACK, 24, STACK
        ARGFRAME IOVERLAY, 0, STATIC
        ARGFRAME DOVERLAY, 0, STATIC
        EXTERN sAddrExtCmp
        FUNCTION sAddrExtCmp,0202H
        ARGFRAME ISTACK, 0, STACK
        ARGFRAME PSTACK, 0, STACK
        ARGFRAME XSTACK, 24, STACK
        ARGFRAME IOVERLAY, 0, STATIC
        ARGFRAME DOVERLAY, 0, STATIC
        EXTERN osal_pwrmgr_device
        FUNCTION osal_pwrmgr_device,0202H
        ARGFRAME ISTACK, 0, STACK
        ARGFRAME PSTACK, 0, STACK
        ARGFRAME XSTACK, 12, STACK
        ARGFRAME IOVERLAY, 0, STATIC
        ARGFRAME DOVERLAY, 0, STATIC
        EXTERN osal_rand
        FUNCTION osal_rand,0202H
        ARGFRAME ISTACK, 0, STACK
        ARGFRAME PSTACK, 0, STACK
        ARGFRAME XSTACK, 19, STACK
        ARGFRAME IOVERLAY, 0, STATIC
        ARGFRAME DOVERLAY, 0, STATIC
        EXTERN ZDApp_NetworkInit
        FUNCTION ZDApp_NetworkInit,0202H
        ARGFRAME ISTACK, 0, STACK
        ARGFRAME PSTACK, 0, STACK
        ARGFRAME XSTACK, 12, STACK
        ARGFRAME IOVERLAY, 0, STATIC
        ARGFRAME DOVERLAY, 0, STATIC
        EXTERN Onboard_soft_reset
        FUNCTION Onboard_soft_reset,0202H
        ARGFRAME ISTACK, 2, STACK
        ARGFRAME PSTACK, 0, STACK
        ARGFRAME XSTACK, 9, STACK
        ARGFRAME IOVERLAY, 0, STATIC
        ARGFRAME DOVERLAY, 0, STATIC
        EXTERN nwkNeighborInitTable
        FUNCTION nwkNeighborInitTable,0202H
        ARGFRAME ISTACK, 2, STACK
        ARGFRAME PSTACK, 0, STACK
        ARGFRAME XSTACK, 0, STACK
        ARGFRAME IOVERLAY, 0, STATIC
        ARGFRAME DOVERLAY, 0, STATIC
        EXTERN ZDApp_SendMsg
        FUNCTION ZDApp_SendMsg,0202H
        ARGFRAME ISTACK, 2, STACK
        ARGFRAME PSTACK, 0, STACK
        ARGFRAME XSTACK, 0, STACK
        ARGFRAME IOVERLAY, 0, STATIC
        ARGFRAME DOVERLAY, 0, STATIC
        EXTERN osal_nv_item_init
        FUNCTION osal_nv_item_init,0202H
        ARGFRAME ISTACK, 0, STACK
        ARGFRAME PSTACK, 0, STACK
        ARGFRAME XSTACK, 86, STACK
        ARGFRAME IOVERLAY, 0, STATIC
        ARGFRAME DOVERLAY, 0, STATIC
        EXTERN osal_nv_read
        FUNCTION osal_nv_read,0202H
        ARGFRAME ISTACK, 0, STACK
        ARGFRAME PSTACK, 0, STACK
        ARGFRAME XSTACK, 17, STACK
        ARGFRAME IOVERLAY, 0, STATIC
        ARGFRAME DOVERLAY, 0, STATIC
        EXTERN osal_start_timerEx
        FUNCTION osal_start_timerEx,0202H
        ARGFRAME ISTACK, 2, STACK
        ARGFRAME PSTACK, 0, STACK
        ARGFRAME XSTACK, 84, STACK
        ARGFRAME IOVERLAY, 0, STATIC
        ARGFRAME DOVERLAY, 0, STATIC
        EXTERN NLME_PermitJoiningRequest
        FUNCTION NLME_PermitJoiningRequest,0202H
        ARGFRAME ISTACK, 0, STACK
        ARGFRAME PSTACK, 0, STACK
        ARGFRAME XSTACK, 19, STACK
        ARGFRAME IOVERLAY, 0, STATIC
        ARGFRAME DOVERLAY, 0, STATIC
        EXTERN ZDP_MgmtPermitJoinReq
        FUNCTION ZDP_MgmtPermitJoinReq,0202H
        ARGFRAME ISTACK, 0, STACK
        ARGFRAME PSTACK, 0, STACK
        ARGFRAME XSTACK, 19, STACK
        ARGFRAME IOVERLAY, 0, STATIC
        ARGFRAME DOVERLAY, 0, STATIC
        EXTERN osal_nv_write
        FUNCTION osal_nv_write,0202H
        ARGFRAME ISTACK, 0, STACK
        ARGFRAME PSTACK, 0, STACK
        ARGFRAME XSTACK, 88, STACK
        ARGFRAME IOVERLAY, 0, STATIC
        ARGFRAME DOVERLAY, 0, STATIC
        EXTERN osal_mem_free
        FUNCTION osal_mem_free,0202H
        ARGFRAME ISTACK, 0, STACK
        ARGFRAME PSTACK, 0, STACK
        ARGFRAME XSTACK, 84, STACK
        ARGFRAME IOVERLAY, 0, STATIC
        ARGFRAME DOVERLAY, 0, STATIC
        EXTERN NLME_GetCoordShortAddr
        FUNCTION NLME_GetCoordShortAddr,0202H
        ARGFRAME ISTACK, 0, STACK
        ARGFRAME PSTACK, 0, STACK
        ARGFRAME XSTACK, 84, STACK
        ARGFRAME IOVERLAY, 0, STATIC
        ARGFRAME DOVERLAY, 0, STATIC
        EXTERN AF_DataRequest
        FUNCTION AF_DataRequest,0202H
        ARGFRAME ISTACK, 0, STACK
        ARGFRAME PSTACK, 0, STACK
        ARGFRAME XSTACK, 93, STACK
        ARGFRAME IOVERLAY, 0, STATIC
        ARGFRAME DOVERLAY, 0, STATIC
        EXTERN osal_nv_item_len
        FUNCTION osal_nv_item_len,0202H
        ARGFRAME ISTACK, 0, STACK
        ARGFRAME PSTACK, 0, STACK
        ARGFRAME XSTACK, 13, STACK
        ARGFRAME IOVERLAY, 0, STATIC
        ARGFRAME DOVERLAY, 0, STATIC
        EXTERN osal_mem_alloc
        FUNCTION osal_mem_alloc,0202H
        ARGFRAME ISTACK, 0, STACK
        ARGFRAME PSTACK, 0, STACK
        ARGFRAME XSTACK, 84, STACK
        ARGFRAME IOVERLAY, 0, STATIC
        ARGFRAME DOVERLAY, 0, STATIC
        EXTERN NLME_GetShortAddr
        FUNCTION NLME_GetShortAddr,0202H
        ARGFRAME ISTACK, 0, STACK
        ARGFRAME PSTACK, 0, STACK
        ARGFRAME XSTACK, 26, STACK
        ARGFRAME IOVERLAY, 0, STATIC
        ARGFRAME DOVERLAY, 0, STATIC
        EXTERN NLME_GetExtAddr
        FUNCTION NLME_GetExtAddr,0202H
        ARGFRAME ISTACK, 0, STACK
        ARGFRAME PSTACK, 0, STACK
        ARGFRAME XSTACK, 14, STACK
        ARGFRAME IOVERLAY, 0, STATIC
        ARGFRAME DOVERLAY, 0, STATIC
        EXTERN AssocCount
        FUNCTION AssocCount,0202H
        ARGFRAME ISTACK, 0, STACK
        ARGFRAME PSTACK, 0, STACK
        ARGFRAME XSTACK, 84, STACK
        ARGFRAME IOVERLAY, 0, STATIC
        ARGFRAME DOVERLAY, 0, STATIC
        EXTERN HalLedBlink
        FUNCTION HalLedBlink,0202H
        ARGFRAME ISTACK, 0, STACK
        ARGFRAME PSTACK, 0, STACK
        ARGFRAME XSTACK, 84, STACK
        ARGFRAME IOVERLAY, 0, STATIC
        ARGFRAME DOVERLAY, 0, STATIC
        EXTERN ZMacSetTransmitPower
        FUNCTION ZMacSetTransmitPower,0202H
        ARGFRAME ISTACK, 0, STACK
        ARGFRAME PSTACK, 0, STACK
        ARGFRAME XSTACK, 84, STACK
        ARGFRAME IOVERLAY, 0, STATIC
        ARGFRAME DOVERLAY, 0, STATIC
        EXTERN NLME_SetPollRate
        FUNCTION NLME_SetPollRate,0202H
        ARGFRAME ISTACK, 0, STACK
        ARGFRAME PSTACK, 0, STACK
        ARGFRAME XSTACK, 84, STACK
        ARGFRAME IOVERLAY, 0, STATIC
        ARGFRAME DOVERLAY, 0, STATIC
        EXTERN ZDOInitDevice
        FUNCTION ZDOInitDevice,0202H
        ARGFRAME ISTACK, 0, STACK
        ARGFRAME PSTACK, 0, STACK
        ARGFRAME XSTACK, 10, STACK
        ARGFRAME IOVERLAY, 0, STATIC
        ARGFRAME DOVERLAY, 0, STATIC
        EXTERN AddrMgrEntryGet
        FUNCTION AddrMgrEntryGet,0202H
        ARGFRAME ISTACK, 0, STACK
        ARGFRAME PSTACK, 0, STACK
        ARGFRAME XSTACK, 27, STACK
        ARGFRAME IOVERLAY, 0, STATIC
        ARGFRAME DOVERLAY, 0, STATIC
        EXTERN NLME_LeaveReq
        FUNCTION NLME_LeaveReq,0202H
        ARGFRAME ISTACK, 0, STACK
        ARGFRAME PSTACK, 0, STACK
        ARGFRAME XSTACK, 27, STACK
        ARGFRAME IOVERLAY, 0, STATIC
        ARGFRAME DOVERLAY, 0, STATIC
        EXTERN ZMacSetReq
        FUNCTION ZMacSetReq,0202H
        ARGFRAME ISTACK, 2, STACK
        ARGFRAME PSTACK, 0, STACK
        ARGFRAME XSTACK, 0, STACK
        ARGFRAME IOVERLAY, 0, STATIC
        ARGFRAME DOVERLAY, 0, STATIC
        EXTERN ZDApp_NwkStateUpdateCB
        FUNCTION ZDApp_NwkStateUpdateCB,0202H
        ARGFRAME ISTACK, 2, STACK
        ARGFRAME PSTACK, 0, STACK
        ARGFRAME XSTACK, 0, STACK
        ARGFRAME IOVERLAY, 0, STATIC
        ARGFRAME DOVERLAY, 0, STATIC
        EXTERN nwkTransmissionFailures
        FUNCTION nwkTransmissionFailures,0202H
        ARGFRAME ISTACK, 2, STACK
        ARGFRAME PSTACK, 0, STACK
        ARGFRAME XSTACK, 0, STACK
        ARGFRAME IOVERLAY, 0, STATIC
        ARGFRAME DOVERLAY, 0, STATIC
        EXTERN ??AF_DataRequest?relay
        FUNCTION ??AF_DataRequest?relay,00H
        EXTERN ??AddrMgrEntryGet?relay
        FUNCTION ??AddrMgrEntryGet?relay,00H
        EXTERN ??AssocCount?relay
        FUNCTION ??AssocCount?relay,00H
        EXTERN ??HalLedBlink?relay
        FUNCTION ??HalLedBlink?relay,00H
        EXTERN ??NLME_GetCoordShortAddr?relay
        FUNCTION ??NLME_GetCoordShortAddr?relay,00H
        EXTERN ??NLME_GetExtAddr?relay
        FUNCTION ??NLME_GetExtAddr?relay,00H
        EXTERN ??NLME_GetShortAddr?relay
        FUNCTION ??NLME_GetShortAddr?relay,00H
        EXTERN ??NLME_LeaveReq?relay
        FUNCTION ??NLME_LeaveReq?relay,00H
        EXTERN ??NLME_PermitJoiningRequest?relay
        FUNCTION ??NLME_PermitJoiningRequest?relay,00H
        EXTERN ??NLME_SetPollRate?relay
        FUNCTION ??NLME_SetPollRate?relay,00H
        EXTERN ??ZDApp_NetworkInit?relay
        FUNCTION ??ZDApp_NetworkInit?relay,00H
        EXTERN ??ZDApp_NwkStateUpdateCB?relay
        FUNCTION ??ZDApp_NwkStateUpdateCB?relay,00H
        EXTERN ??ZDApp_SendMsg?relay
        FUNCTION ??ZDApp_SendMsg?relay,00H
        EXTERN ??ZDOInitDevice?relay
        FUNCTION ??ZDOInitDevice?relay,00H
        EXTERN ??ZDP_MgmtPermitJoinReq?relay
        FUNCTION ??ZDP_MgmtPermitJoinReq?relay,00H
        EXTERN ??ZMacSetReq?relay
        FUNCTION ??ZMacSetReq?relay,00H
        EXTERN ??ZMacSetTransmitPower?relay
        FUNCTION ??ZMacSetTransmitPower?relay,00H
        EXTERN ??nwkNeighborInitTable?relay
        FUNCTION ??nwkNeighborInitTable?relay,00H
        EXTERN ??nwkTransmissionFailures?relay
        FUNCTION ??nwkTransmissionFailures?relay,00H
        EXTERN ??nwk_ExtPANIDValid?relay
        FUNCTION ??nwk_ExtPANIDValid?relay,00H
        EXTERN ??nwk_getNwkDescList?relay
        FUNCTION ??nwk_getNwkDescList?relay,00H
        EXTERN ??osal_mem_alloc?relay
        FUNCTION ??osal_mem_alloc?relay,00H
        EXTERN ??osal_mem_free?relay
        FUNCTION ??osal_mem_free?relay,00H
        EXTERN ??osal_nv_item_init?relay
        FUNCTION ??osal_nv_item_init?relay,00H
        EXTERN ??osal_nv_item_len?relay
        FUNCTION ??osal_nv_item_len?relay,00H
        EXTERN ??osal_nv_read?relay
        FUNCTION ??osal_nv_read?relay,00H
        EXTERN ??osal_nv_write?relay
        FUNCTION ??osal_nv_write?relay,00H
        EXTERN ??osal_pwrmgr_device?relay
        FUNCTION ??osal_pwrmgr_device?relay,00H
        EXTERN ??osal_rand?relay
        FUNCTION ??osal_rand?relay,00H
        EXTERN ??osal_start_timerEx?relay
        FUNCTION ??osal_start_timerEx?relay,00H
        EXTERN ??sAddrExtCmp?relay
        FUNCTION ??sAddrExtCmp?relay,00H
        EXTERN AssociatedDevList
        EXTERN SampleApp_Addr_SendData_DstAddr
        EXTERN SampleApp_Flash_DstAddr
        EXTERN SampleApp_Periodic_DstAddr
        EXTERN SampleApp_SPI_SendCommand_DstAddr
        EXTERN ZDAppTaskID
        EXTERN ZDO_FIRST_join_flag
        EXTERN ZDO_UseExtendedPANID
        EXTERN _NIB
        EXTERN devStartMode
        EXTERN devState
        EXTERN gMAX_NEIGHBOR_ENTRIES
        EXTERN gNWK_MAX_DEVICE_LIST
        EXTERN neighborTable
        EXTERN zdoDiscCounter
        EXTERN zgConfigPANID
        EXTERN zgDefaultChannelList
        EXTERN zgNwkMgrMinTransmissions
        EXTERN zgStackProfile

// G:\TI\Package_libary\FORMAL\RE_1_2_0_FORMAL_APP(251)\Projects\zstack\Samples\SampleApp\Source\zdo_sample.c
//    1 #include "ZComDef.h"
//    2 #include "ZMac.h"
//    3 //#include "OSAL.h"
//    4 //#include "OSAL_Tasks.h"
//    5 #include "OSAL_PwrMgr.h"
//    6 //#include "OSAL_Nv.h"
//    7 //#include "AF.h"
//    8 #include "APSMEDE.h"
//    9 #include "NLMEDE.h"
//   10 #include "AddrMgr.h"
//   11 #include "ZDProfile.h"
//   12 #include "ZDObject.h"
//   13 #include "ZDConfig.h"
//   14 #include "ZDSecMgr.h"
//   15 #include "ZDApp.h"
//   16 //#include "DebugTrace.h"
//   17 #include "nwk_util.h"
//   18 #include "OnBoard.h"

        ASEGN SFR_AN:DATA:NOROOT,0a8H
// union <unnamed> volatile __sfr _A_IEN0
_A_IEN0:
        DATA8
        DS 1

        ASEGN SFR_AN:DATA:NOROOT,0c9H
// unsigned char volatile __sfr WDCTL
WDCTL:
        DATA8
        DS 1
//   19 #include "ZGlobals.h"
//   20 #include "ZDNwkMgr.h"
//   21 #include "rtg.h"
//   22 #include "ssp.h"
//   23 /* HAL */
//   24 #include "hal_led.h"
//   25 //#include "hal_lcd.h"
//   26 #include "hal_key.h"
//   27 //#include "my_time.h"
//   28 //#include "MT_UART.h"
//   29 #include "ZDO_LIB.h"
//   30 #include "OSAL_Nv.h"
//   31 #include "common_device.h"
//   32 #include "AF.h"
//   33 
//   34 

        RSEG XDATA_Z:XDATA:NOROOT(0)
        DATA8
//   35 uint8 SampleApp_TransID;  // This is the unique message ID (counter)
SampleApp_TransID:
        DS 1
        REQUIRE __INIT_XDATA_Z

        RSEG XDATA_Z:XDATA:NOROOT(0)
        DATA8
//   36 uint8 SampleApp_TaskID;
SampleApp_TaskID:
        DS 1
        REQUIRE __INIT_XDATA_Z

        RSEG XDATA_Z:XDATA:NOROOT(0)
        DATA8
//   37 endPointDesc_t SampleApp_epDesc;
SampleApp_epDesc:
        DS 6
        REQUIRE __INIT_XDATA_Z
//   38 

        RSEG XDATA_Z:XDATA:NOROOT(0)
        DATA16
//   39 uint8 *shortddr_mem;  
shortddr_mem:
        DS 2
        REQUIRE __INIT_XDATA_Z

        RSEG XDATA_Z:XDATA:NOROOT(0)
        DATA16
//   40 uint8 *extendaddr_mem;
extendaddr_mem:
        DS 2
        REQUIRE __INIT_XDATA_Z
//   41 
//   42 

        RSEG XDATA_Z:XDATA:NOROOT(0)
        DATA8
//   43 uint8 OS_FLAG=0;
OS_FLAG:
        DS 1
        REQUIRE __INIT_XDATA_Z
//   44 extern  uint8 ZDO_FIRST_join_flag ; //见NOTE

        RSEG XDATA_Z:XDATA:NOROOT(0)
        DATA8
//   45  uint8 RTR_NWK_FLAG ;        //表示宏定义里定义了RTR_NWK
RTR_NWK_FLAG:
        DS 1
        REQUIRE __INIT_XDATA_Z

        RSEG XDATA_Z:XDATA:NOROOT(0)
        DATA8
//   46   uint8 POWER_SAVING_FLAG ;   //表示宏定义里定义了POWER_SAVING
POWER_SAVING_FLAG:
        DS 1
        REQUIRE __INIT_XDATA_Z

        RSEG XDATA_Z:XDATA:NOROOT(0)
        DATA8
//   47  uint8 POWER_PA_FLAG ;       //表示宏定义里定义了POWER_PA
POWER_PA_FLAG:
        DS 1
        REQUIRE __INIT_XDATA_Z

        RSEG XDATA_Z:XDATA:NOROOT(0)
        DATA8
//   48   uint8 LEAVE_NET_SET_FLAG;       //如果定义了自组网功能 则直接启动入网流程,上位机能直接干预控制
LEAVE_NET_SET_FLAG:
        DS 1
        REQUIRE __INIT_XDATA_Z
//   49 //extern  uint8 LEAVE_NET_SET;       //如果定义了自组网功能 则直接启动入网流程,上位机能直接干预控制
//   50 

        RSEG XDATA_Z:XDATA:NOROOT(0)
        DATA8
//   51 uint8 New_join_role_flag = 0;   // 入网角色 
New_join_role_flag:
        DS 1
        REQUIRE __INIT_XDATA_Z

        RSEG XDATA_Z:XDATA:NOROOT(0)
        DATA8
//   52 uint8 New_join_delay_time = 0;  // 启动后 多少时间启动入网流程
New_join_delay_time:
        DS 1
        REQUIRE __INIT_XDATA_Z

        RSEG XDATA_Z:XDATA:NOROOT(0)
        DATA8
//   53 uint8 Minitue_join_delay_time =0;
Minitue_join_delay_time:
        DS 1
        REQUIRE __INIT_XDATA_Z

        RSEG XDATA_Z:XDATA:NOROOT(0)
        DATA8
//   54 uint8 Second_join_delay_time =0;
Second_join_delay_time:
        DS 1
        REQUIRE __INIT_XDATA_Z

        RSEG XDATA_Z:XDATA:NOROOT(0)
        DATA8
//   55 uint8 Join_isset_flag =0;
Join_isset_flag:
        DS 1
        REQUIRE __INIT_XDATA_Z
//   56 

        RSEG XDATA_I:XDATA:NOROOT(0)
//   57 uint8 Heart_mesg_flag = 1;
Heart_mesg_flag:
        DATA8
        DS 1
        REQUIRE `?<Initializer for Heart_mesg_flag>`
        REQUIRE __INIT_XDATA_I

        RSEG XDATA_I:XDATA:NOROOT(0)
//   58 uint8 defaultKey[SEC_KEY_LEN] =
defaultKey:
        DATA8
        DS 16
        REQUIRE `?<Initializer for defaultKey>`
        REQUIRE __INIT_XDATA_I
//   59 {
//   60   0x03, 0x03, 0x05, 0x07, 0x09, 0x0B, 0x0D, 0x0F, 
//   61   0x02, 0x02, 0x04, 0x06, 0x08, 0x0A, 0x0C, 0x0D
//   62 };
//   63 
//   64 typedef struct
//   65 {
//   66   
//   67   uint8 isActive;
//   68   uint8 heart_count;
//   69 } Child_device_t;  

        RSEG XDATA_Z:XDATA:NOROOT(0)
        DATA8
//   70 Child_device_t Child_list[21];
Child_list:
        DS 42
        REQUIRE __INIT_XDATA_Z
//   71 
//   72 

        RSEG XDATA_Z:XDATA:NOROOT(0)
        DATA16
//   73 uint16 New_Panid=0;
New_Panid:
        DS 2
        REQUIRE __INIT_XDATA_Z

        RSEG XDATA_Z:XDATA:NOROOT(0)
        DATA8
//   74 uint8 New_Channel_list =0;
New_Channel_list:
        DS 1
        REQUIRE __INIT_XDATA_Z

        RSEG XDATA_Z:XDATA:NOROOT(0)
        DATA8
//   75 uint8 New_Net_flag=0; // 区分是调频还是调PAN
New_Net_flag:
        DS 1
        REQUIRE __INIT_XDATA_Z
//   76 
//   77 
//   78 
//   79 
//   80 void ZDO_DEVICE_DISC(void);
//   81 networkDesc_t* ZDApp_NwkDescListProcessing(void);
//   82 void APP_JOIN_INIT(void);
//   83 void APP_JOIN_DEAL_WITH(void);
//   84 void APP_JOIN_START_EVT(void);
//   85 void SampleApp_SendNwkaddrMessage(uint8 type1_id,uint8 type2_id);
//   86 void APPLY_TO_JOIN_OF_KEY(void);
//   87 void RESTORE_TO_FACTORY(void);
//   88 void SampleApp_SendPeriodicMessage( void );
//   89 uint8 zb_ReadConfiguration( uint8 configId, uint8 len, void *pValue );
//   90 uint8 zb_WriteConfiguration( uint8 configId, uint8 len, void *pValue );
//   91 uint8 *SampleApp_GetExtendAddr(void);
//   92 uint8 *SampleApp_GetShortAddr(void);
//   93 uint8 hextoword1(uint8 t );
//   94 uint8 hextoword2(uint8 t);
//   95 void zb_StartRequest(void);
//   96 void APP_DEAL_WITH_ASSOCIATED(void);
//   97 void SampleApp_ProcessNwkaddrMessage(afIncomingMSGPacket_t *pkt);
//   98 uint8 RemoveStaleNode(uint8 index);
//   99 uint8 RemoveStaleRouter(uint8 index);
//  100 void SampleApp_ROUTER_ProcessPeriodicMessage_Data(afIncomingMSGPacket_t *pkt);
//  101 void APP_OS_DEAL_WITH(uint16 poll_rate_value);
//  102 uint8 APP_ENDDEVICE_ACK(uint8 a,uint8 b,uint8 c);

        RSEG XDATA_Z:XDATA:NOROOT(0)
        DATA8
//  103 uint8 HEART_NEED_ACK_FLAG=0;
HEART_NEED_ACK_FLAG:
        DS 1
        REQUIRE __INIT_XDATA_Z
//  104 
//  105 
//  106 extern void ZDApp_SendMsg( uint8 taskID, uint8 cmd, uint8 len, uint8 *buf );
//  107 
//  108 void sampleAPP_sendRS_periodMessage(uint8 type1_id,uint8 type2_id,uint8 data_len,uint8 *data);
//  109 
//  110 
//  111 #define STACK_PROFILE_MAX 2

        RSEG BANKED_CODE:CODE:NOROOT(0)
//  112 networkDesc_t* ZDApp_NwkDescListProcessing(void)
ZDApp_NwkDescListProcessing:
        CFI Block cfiBlock0 Using cfiCommon0
        CFI Function ZDApp_NwkDescListProcessing
        CODE
//  113 {
        FUNCALL ZDApp_NwkDescListProcessing, nwk_getNwkDescList
        LOCFRAME ISTACK, 0, STACK
        LOCFRAME PSTACK, 0, STACK
        LOCFRAME XSTACK, 24, STACK
        LOCFRAME IOVERLAY, 0, STATIC
        LOCFRAME DOVERLAY, 0, STATIC
        ARGFRAME ISTACK, 0, STACK
        ARGFRAME PSTACK, 0, STACK
        ARGFRAME XSTACK, 24, STACK
        ARGFRAME IOVERLAY, 0, STATIC
        ARGFRAME DOVERLAY, 0, STATIC
        FUNCALL ZDApp_NwkDescListProcessing, nwk_getNwkDescList
        LOCFRAME ISTACK, 0, STACK
        LOCFRAME PSTACK, 0, STACK
        LOCFRAME XSTACK, 24, STACK
        LOCFRAME IOVERLAY, 0, STATIC
        LOCFRAME DOVERLAY, 0, STATIC
        ARGFRAME ISTACK, 0, STACK
        ARGFRAME PSTACK, 0, STACK
        ARGFRAME XSTACK, 24, STACK
        ARGFRAME IOVERLAY, 0, STATIC
        ARGFRAME DOVERLAY, 0, STATIC
        FUNCALL ZDApp_NwkDescListProcessing, nwk_getNwkDescList
        LOCFRAME ISTACK, 0, STACK
        LOCFRAME PSTACK, 0, STACK
        LOCFRAME XSTACK, 24, STACK
        LOCFRAME IOVERLAY, 0, STATIC
        LOCFRAME DOVERLAY, 0, STATIC
        ARGFRAME ISTACK, 0, STACK
        ARGFRAME PSTACK, 0, STACK
        ARGFRAME XSTACK, 24, STACK
        ARGFRAME IOVERLAY, 0, STATIC
        ARGFRAME DOVERLAY, 0, STATIC
        FUNCALL ZDApp_NwkDescListProcessing, nwk_ExtPANIDValid
        LOCFRAME ISTACK, 0, STACK
        LOCFRAME PSTACK, 0, STACK
        LOCFRAME XSTACK, 24, STACK
        LOCFRAME IOVERLAY, 0, STATIC
        LOCFRAME DOVERLAY, 0, STATIC
        ARGFRAME ISTACK, 0, STACK
        ARGFRAME PSTACK, 0, STACK
        ARGFRAME XSTACK, 24, STACK
        ARGFRAME IOVERLAY, 0, STATIC
        ARGFRAME DOVERLAY, 0, STATIC
        FUNCALL ZDApp_NwkDescListProcessing, sAddrExtCmp
        LOCFRAME ISTACK, 0, STACK
        LOCFRAME PSTACK, 0, STACK
        LOCFRAME XSTACK, 24, STACK
        LOCFRAME IOVERLAY, 0, STATIC
        LOCFRAME DOVERLAY, 0, STATIC
        ARGFRAME ISTACK, 0, STACK
        ARGFRAME PSTACK, 0, STACK
        ARGFRAME XSTACK, 24, STACK
        ARGFRAME IOVERLAY, 0, STATIC
        ARGFRAME DOVERLAY, 0, STATIC
        MOV     A,#-0x18
        LCALL   ?BANKED_ENTER_XDATA
        CFI DPH0 load(1, XDATA, add(CFA_XSP16, literal(-1)))
        CFI DPL0 load(1, XDATA, add(CFA_XSP16, literal(-2)))
        CFI ?BRET_EXT load(1, XDATA, add(CFA_XSP16, literal(-3)))
        CFI ?RET_HIGH load(1, XDATA, add(CFA_XSP16, literal(-4)))
        CFI ?RET_LOW load(1, XDATA, add(CFA_XSP16, literal(-5)))
        CFI R7 load(1, XDATA, add(CFA_XSP16, literal(-6)))
        CFI V15 load(1, XDATA, add(CFA_XSP16, literal(-7)))
        CFI V14 load(1, XDATA, add(CFA_XSP16, literal(-8)))
        CFI V13 load(1, XDATA, add(CFA_XSP16, literal(-9)))
        CFI V12 load(1, XDATA, add(CFA_XSP16, literal(-10)))
        CFI V11 load(1, XDATA, add(CFA_XSP16, literal(-11)))
        CFI V10 load(1, XDATA, add(CFA_XSP16, literal(-12)))
        CFI V9 load(1, XDATA, add(CFA_XSP16, literal(-13)))
        CFI V8 load(1, XDATA, add(CFA_XSP16, literal(-14)))
        CFI V7 load(1, XDATA, add(CFA_XSP16, literal(-15)))
        CFI V6 load(1, XDATA, add(CFA_XSP16, literal(-16)))
        CFI V5 load(1, XDATA, add(CFA_XSP16, literal(-17)))
        CFI V4 load(1, XDATA, add(CFA_XSP16, literal(-18)))
        CFI V3 load(1, XDATA, add(CFA_XSP16, literal(-19)))
        CFI V2 load(1, XDATA, add(CFA_XSP16, literal(-20)))
        CFI V1 load(1, XDATA, add(CFA_XSP16, literal(-21)))
        CFI V0 load(1, XDATA, add(CFA_XSP16, literal(-22)))
        CFI VB load(1, XDATA, add(CFA_XSP16, literal(-23)))
        CFI R6 load(1, XDATA, add(CFA_XSP16, literal(-24)))
        CFI CFA_SP SP+0
        CFI CFA_XSP16 add(XSP16, 24)
        ; Saved register size: 24
        ; Auto size: 0
//  114   networkDesc_t *pNwkDesc;
//  115   uint8 i, ResultCount = 0;
        MOV     ?V0 + 1,#0x0
//  116   uint8 stackProfile;
//  117   uint8 stackProfilePro;
//  118   uint8 selected;
//  119   
//  120   networkDesc_t *test_pNwkDesc;
//  121   uint8 MaxLinkQuality=0;
        MOV     ?V0 + 8,#0x0
//  122   uint8 MaxLinkQuality_Channel=0x0B;
        MOV     ?V0 + 9,#0xb
//  123   uint16 MaxLinkQuality_Panid=0xFFFF;
        MOV     ?V0 + 12,#-0x1
        MOV     ?V0 + 13,#-0x1
//  124   
//  125   // Count the number of nwk descriptors in the list
//  126   pNwkDesc = nwk_getNwkDescList();
        ; Setup parameters for call to function nwk_getNwkDescList
        LCALL   ??nwk_getNwkDescList?relay
        MOV     ?V0 + 2,R2
        MOV     ?V0 + 3,R3
        MOV     R6,?V0 + 2
        MOV     R7,?V0 + 3
//  127   while (pNwkDesc)
??ZDApp_NwkDescListProcessing_0:
        MOV     A,R6
        ORL     A,R7
        JZ      ??ZDApp_NwkDescListProcessing_1
//  128   {
//  129     ResultCount++;
        INC     ?V0 + 1
//  130     pNwkDesc = pNwkDesc->nextDesc;
        MOV     A,R6
        ADD     A,#0x14
        MOV     DPL,A
        MOV     A,R7
        ADDC    A,#0x0
        MOV     DPH,A
        MOVX    A,@DPTR
        MOV     R6,A
        INC     DPTR
        MOVX    A,@DPTR
        MOV     R7,A
        SJMP    ??ZDApp_NwkDescListProcessing_0
//  131   }
//  132   
//  133   // process discovery results
//  134   stackProfilePro = FALSE;
??ZDApp_NwkDescListProcessing_1:
        MOV     ?V0 + 6,#0x0
//  135   selected = FALSE;
        MOV     ?V0 + 7,#0x0
//  136   
//  137   if ( devStartMode == MODE_JOIN )
        MOV     DPTR,#devStartMode
        MOVX    A,@DPTR
        JZ      $+5
        LJMP    ??ZDApp_NwkDescListProcessing_2 & 0xFFFF
//  138   {  
//  139     pNwkDesc = nwk_getNwkDescList();
        ; Setup parameters for call to function nwk_getNwkDescList
        LCALL   ??nwk_getNwkDescList?relay
        MOV     ?V0 + 2,R2
        MOV     ?V0 + 3,R3
        MOV     R6,?V0 + 2
        MOV     R7,?V0 + 3
//  140     MaxLinkQuality=pNwkDesc->chosenRouterLinkQuality;
        MOV     DPL,R6
        MOV     DPH,R7
        INC     DPTR
        INC     DPTR
        INC     DPTR
        INC     DPTR
        INC     DPTR
        INC     DPTR
        INC     DPTR
        INC     DPTR
        INC     DPTR
        MOVX    A,@DPTR
        MOV     ?V0 + 8,A
//  141     MaxLinkQuality_Channel=pNwkDesc->logicalChannel;
        MOV     DPL,R6
        MOV     DPH,R7
        INC     DPTR
        INC     DPTR
        MOVX    A,@DPTR
        MOV     ?V0 + 9,A
//  142     MaxLinkQuality_Panid = pNwkDesc->panId;
        MOV     DPL,R6
        MOV     DPH,R7
        MOVX    A,@DPTR
        MOV     ?V0 + 12,A
        INC     DPTR
        MOVX    A,@DPTR
        MOV     ?V0 + 13,A
//  143     for(uint8 j=0;j<ResultCount-1;j++,pNwkDesc = pNwkDesc->nextDesc)
        MOV     R2,#0x0
??ZDApp_NwkDescListProcessing_3:
        MOV     ?V0 + 2,R2
        MOV     ?V0 + 3,#0x0
        MOV     ?V0 + 4,?V0 + 1
        MOV     ?V0 + 5,#0x0
        MOV     A,?V0 + 4
        ADD     A,#-0x1
        MOV     R0,A
        MOV     A,?V0 + 5
        ADDC    A,#-0x1
        MOV     R1,A
        CLR     C
        MOV     A,?V0 + 2
        SUBB    A,R0
        MOV     A,?V0 + 3
        SUBB    A,R1
        MOV     C,0xD0 /* PSW */.2
        XRL     A,PSW
        RLC     A
        JNC     ??ZDApp_NwkDescListProcessing_2
//  144     {
//  145       test_pNwkDesc=pNwkDesc->nextDesc;
        MOV     A,R6
        ADD     A,#0x14
        MOV     DPL,A
        MOV     A,R7
        ADDC    A,#0x0
        MOV     DPH,A
        MOVX    A,@DPTR
        MOV     R0,A
        INC     DPTR
        MOVX    A,@DPTR
        MOV     R1,A
        MOV     ?V0 + 14,R0
        MOV     ?V0 + 15,R1
//  146       if(test_pNwkDesc!=NULL)
        MOV     A,?V0 + 14
        ORL     A,?V0 + 15
        JZ      ??ZDApp_NwkDescListProcessing_4
//  147       {
//  148         if(MaxLinkQuality <=test_pNwkDesc->chosenRouterLinkQuality )
        MOV     DPL,?V0 + 14
        MOV     DPH,?V0 + 15
        INC     DPTR
        INC     DPTR
        INC     DPTR
        INC     DPTR
        INC     DPTR
        INC     DPTR
        INC     DPTR
        INC     DPTR
        INC     DPTR
        MOVX    A,@DPTR
        CLR     C
        SUBB    A,?V0 + 8
        JC      ??ZDApp_NwkDescListProcessing_4
//  149         {
//  150           MaxLinkQuality=test_pNwkDesc->chosenRouterLinkQuality;
        MOV     DPL,?V0 + 14
        MOV     DPH,?V0 + 15
        INC     DPTR
        INC     DPTR
        INC     DPTR
        INC     DPTR
        INC     DPTR
        INC     DPTR
        INC     DPTR
        INC     DPTR
        INC     DPTR
        MOVX    A,@DPTR
        MOV     ?V0 + 8,A
//  151           MaxLinkQuality_Channel=test_pNwkDesc->logicalChannel;
        MOV     DPL,?V0 + 14
        MOV     DPH,?V0 + 15
        INC     DPTR
        INC     DPTR
        MOVX    A,@DPTR
        MOV     ?V0 + 9,A
//  152           MaxLinkQuality_Panid = test_pNwkDesc->panId;
        MOV     DPL,?V0 + 14
        MOV     DPH,?V0 + 15
        MOVX    A,@DPTR
        MOV     ?V0 + 12,A
        INC     DPTR
        MOVX    A,@DPTR
        MOV     ?V0 + 13,A
//  153         }
//  154       }
//  155       
//  156     }
??ZDApp_NwkDescListProcessing_4:
        INC     R2
        MOV     A,R6
        ADD     A,#0x14
        MOV     DPL,A
        MOV     A,R7
        ADDC    A,#0x0
        MOV     DPH,A
        MOVX    A,@DPTR
        MOV     R6,A
        INC     DPTR
        MOVX    A,@DPTR
        MOV     R7,A
        LJMP    ??ZDApp_NwkDescListProcessing_3 & 0xFFFF
//  157   }
//  158   
//  159   for ( stackProfile = 0; stackProfile < STACK_PROFILE_MAX; stackProfile++ )
??ZDApp_NwkDescListProcessing_2:
        MOV     ?V0 + 10,#0x0
??ZDApp_NwkDescListProcessing_5:
        MOV     A,?V0 + 10
        CLR     C
        SUBB    A,#0x2
        JC      $+5
        LJMP    ??ZDApp_NwkDescListProcessing_6 & 0xFFFF
//  160   {
//  161     pNwkDesc = nwk_getNwkDescList();
        ; Setup parameters for call to function nwk_getNwkDescList
        LCALL   ??nwk_getNwkDescList?relay
        MOV     ?V0 + 2,R2
        MOV     ?V0 + 3,R3
        MOV     R6,?V0 + 2
        MOV     R7,?V0 + 3
//  162     for ( i = 0; i < ResultCount; i++, pNwkDesc = pNwkDesc->nextDesc )
        MOV     ?V0 + 0,#0x0
??ZDApp_NwkDescListProcessing_7:
        MOV     A,?V0 + 0
        CLR     C
        SUBB    A,?V0 + 1
        JC      $+5
        LJMP    ??ZDApp_NwkDescListProcessing_8 & 0xFFFF
//  163     {
//  164       if ( zgConfigPANID != 0xFFFF )
        MOV     DPTR,#zgConfigPANID
        MOVX    A,@DPTR
        XRL     A,#0xff
        JNZ     ??ZDApp_NwkDescListProcessing_9
        INC     DPTR
        MOVX    A,@DPTR
        XRL     A,#0xff
??ZDApp_NwkDescListProcessing_9:
        JZ      ??ZDApp_NwkDescListProcessing_10
//  165       {
//  166         if ( pNwkDesc->panId != zgConfigPANID )
        MOV     DPL,R6
        MOV     DPH,R7
        MOVX    A,@DPTR
        MOV     R0,A
        INC     DPTR
        MOVX    A,@DPTR
        MOV     R1,A
        MOV     DPTR,#zgConfigPANID
        MOVX    A,@DPTR
        XRL     A,R0
        JNZ     ??ZDApp_NwkDescListProcessing_11
        INC     DPTR
        MOVX    A,@DPTR
        XRL     A,R1
??ZDApp_NwkDescListProcessing_11:
        JZ      $+5
        LJMP    ??ZDApp_NwkDescListProcessing_12 & 0xFFFF
//  167           continue;
//  168       }
//  169       
//  170       if( devStartMode == MODE_REJOIN )
??ZDApp_NwkDescListProcessing_10:
        MOV     DPTR,#devStartMode
        MOVX    A,@DPTR
        XRL     A,#0x3
        JNZ     ??ZDApp_NwkDescListProcessing_13
//  171       {
//  172         if ( _NIB.nwkPanId != INVALID_PAN_ID )
        MOV     DPTR,#_NIB + 33
        MOVX    A,@DPTR
        XRL     A,#0xfe
        JNZ     ??ZDApp_NwkDescListProcessing_14
        INC     DPTR
        MOVX    A,@DPTR
        XRL     A,#0xff
??ZDApp_NwkDescListProcessing_14:
        JZ      ??ZDApp_NwkDescListProcessing_13
//  173         {
//  174           if ( pNwkDesc->panId != _NIB.nwkPanId )
        MOV     DPL,R6
        MOV     DPH,R7
        MOVX    A,@DPTR
        MOV     R0,A
        INC     DPTR
        MOVX    A,@DPTR
        MOV     R1,A
        MOV     DPTR,#_NIB + 33
        MOVX    A,@DPTR
        XRL     A,R0
        JNZ     ??ZDApp_NwkDescListProcessing_15
        INC     DPTR
        MOVX    A,@DPTR
        XRL     A,R1
??ZDApp_NwkDescListProcessing_15:
        JZ      $+5
        LJMP    ??ZDApp_NwkDescListProcessing_12 & 0xFFFF
//  175             continue;
//  176         }
//  177       }
//  178       
//  179       
//  180       if ( nwk_ExtPANIDValid( ZDO_UseExtendedPANID) == true )
??ZDApp_NwkDescListProcessing_13:
        ; Setup parameters for call to function nwk_ExtPANIDValid
        MOV     R2,#ZDO_UseExtendedPANID & 0xff
        MOV     R3,#(ZDO_UseExtendedPANID >> 8) & 0xff
        LCALL   ??nwk_ExtPANIDValid?relay
        MOV     A,R1
        XRL     A,#0x1
        JNZ     ??ZDApp_NwkDescListProcessing_16
//  181       {
//  182         if ( osal_ExtAddrEqual( ZDO_UseExtendedPANID, pNwkDesc->extendedPANID) == false )
        ; Setup parameters for call to function sAddrExtCmp
        MOV     A,R6
        ADD     A,#0xb
        MOV     R4,A
        MOV     A,R7
        ADDC    A,#0x0
        MOV     R5,A
        MOV     R2,#ZDO_UseExtendedPANID & 0xff
        MOV     R3,#(ZDO_UseExtendedPANID >> 8) & 0xff
        LCALL   ??sAddrExtCmp?relay
        MOV     A,R1
        JNZ     $+5
        LJMP    ??ZDApp_NwkDescListProcessing_12 & 0xFFFF
//  183           continue;
//  184         
//  185       }
//  186       
//  187       if ( ZSTACK_ROUTER_BUILD )
//  188       {
//  189         if ( stackProfilePro == FALSE )
//  190         {
//  191           if ( !pNwkDesc->routerCapacity )
//  192           {
//  193             continue;
//  194           }
//  195         }
//  196         else
//  197         {
//  198           if ( !pNwkDesc->deviceCapacity )
//  199           {
//  200             continue;
//  201           }
//  202         }
//  203       }
//  204       else if ( ZSTACK_END_DEVICE_BUILD )
//  205       {
//  206         if ( !pNwkDesc->deviceCapacity )
??ZDApp_NwkDescListProcessing_16:
        MOV     DPL,R6
        MOV     DPH,R7
        INC     DPTR
        INC     DPTR
        INC     DPTR
        INC     DPTR
        MOVX    A,@DPTR
        JZ      ??ZDApp_NwkDescListProcessing_12
//  207         {
//  208           continue;
//  209         }
//  210       }
//  211       
//  212       // check version of zigbee protocol
//  213       if ( pNwkDesc->version != _NIB.nwkProtocolVersion )
        MOV     DPL,R6
        MOV     DPH,R7
        INC     DPTR
        INC     DPTR
        INC     DPTR
        INC     DPTR
        INC     DPTR
        MOVX    A,@DPTR
        MOV     R0,A
        MOV     DPTR,#_NIB + 17
        MOVX    A,@DPTR
        XRL     A,R0
        JNZ     ??ZDApp_NwkDescListProcessing_12
//  214         continue;
//  215       
//  216       // check version of stack profile
//  217       if ( pNwkDesc->stackProfile != zgStackProfile  )
        MOV     DPL,R6
        MOV     DPH,R7
        INC     DPTR
        INC     DPTR
        INC     DPTR
        INC     DPTR
        INC     DPTR
        INC     DPTR
        MOVX    A,@DPTR
        MOV     R0,A
        MOV     DPTR,#zgStackProfile
        MOVX    A,@DPTR
        XRL     A,R0
        JZ      ??ZDApp_NwkDescListProcessing_17
//  218       {
//  219         if ( ((zgStackProfile == HOME_CONTROLS) && (pNwkDesc->stackProfile == ZIGBEEPRO_PROFILE))
//  220             || ((zgStackProfile == ZIGBEEPRO_PROFILE) && (pNwkDesc->stackProfile == HOME_CONTROLS))  )
        MOV     DPTR,#zgStackProfile
        MOVX    A,@DPTR
        XRL     A,#0x1
        JNZ     ??ZDApp_NwkDescListProcessing_18
        MOV     DPL,R6
        MOV     DPH,R7
        INC     DPTR
        INC     DPTR
        INC     DPTR
        INC     DPTR
        INC     DPTR
        INC     DPTR
        MOVX    A,@DPTR
        XRL     A,#0x2
        JZ      ??ZDApp_NwkDescListProcessing_19
??ZDApp_NwkDescListProcessing_18:
        MOV     DPTR,#zgStackProfile
        MOVX    A,@DPTR
        XRL     A,#0x2
        JNZ     ??ZDApp_NwkDescListProcessing_20
        MOV     DPL,R6
        MOV     DPH,R7
        INC     DPTR
        INC     DPTR
        INC     DPTR
        INC     DPTR
        INC     DPTR
        INC     DPTR
        MOVX    A,@DPTR
        XRL     A,#0x1
        JNZ     ??ZDApp_NwkDescListProcessing_20
//  221         {
//  222           stackProfilePro = TRUE;
??ZDApp_NwkDescListProcessing_19:
        MOV     ?V0 + 6,#0x1
//  223         }
//  224         
//  225         if ( stackProfile == 0 )
??ZDApp_NwkDescListProcessing_20:
        MOV     A,?V0 + 10
        JZ      ??ZDApp_NwkDescListProcessing_12
//  226         {
//  227           continue;
//  228         }
//  229       }
//  230       
//  231       
//  232       // break;
//  233       
//  234       if ( devStartMode == MODE_JOIN )
??ZDApp_NwkDescListProcessing_17:
        MOV     DPTR,#devStartMode
        MOVX    A,@DPTR
        JNZ     ??ZDApp_NwkDescListProcessing_8
//  235       {  
//  236         if( (pNwkDesc->logicalChannel==MaxLinkQuality_Channel) && (pNwkDesc->panId==MaxLinkQuality_Panid) )
        MOV     DPL,R6
        MOV     DPH,R7
        INC     DPTR
        INC     DPTR
        MOVX    A,@DPTR
        XRL     A,?V0 + 9
        JNZ     ??ZDApp_NwkDescListProcessing_12
        MOV     DPL,R6
        MOV     DPH,R7
        MOVX    A,@DPTR
        XRL     A,?V0 + 12
        JNZ     ??ZDApp_NwkDescListProcessing_21
        INC     DPTR
        MOVX    A,@DPTR
        XRL     A,?V0 + 13
??ZDApp_NwkDescListProcessing_21:
        JZ      ??ZDApp_NwkDescListProcessing_8
//  237         {
//  238           break;
//  239         }
//  240         else
//  241         {
//  242           continue;
//  243         }
//  244       }
//  245       else
//  246       {
//  247         break; 
//  248       }
//  249     }
??ZDApp_NwkDescListProcessing_12:
        INC     ?V0 + 0
        MOV     A,R6
        ADD     A,#0x14
        MOV     DPL,A
        MOV     A,R7
        ADDC    A,#0x0
        MOV     DPH,A
        MOVX    A,@DPTR
        MOV     R6,A
        INC     DPTR
        MOVX    A,@DPTR
        MOV     R7,A
        LJMP    ??ZDApp_NwkDescListProcessing_7 & 0xFFFF
//  250     
//  251     if (i < ResultCount)
??ZDApp_NwkDescListProcessing_8:
        MOV     A,?V0 + 0
        CLR     C
        SUBB    A,?V0 + 1
        JNC     ??ZDApp_NwkDescListProcessing_22
//  252     {
//  253       selected = TRUE;
        MOV     ?V0 + 7,#0x1
//  254       break;
        SJMP    ??ZDApp_NwkDescListProcessing_6
//  255     }
//  256     
//  257     // break if selected or stack profile pro wasn't found
//  258     if ( (selected == TRUE) || (stackProfilePro == FALSE) )
??ZDApp_NwkDescListProcessing_22:
        MOV     A,#0x1
        XRL     A,?V0 + 7
        JZ      ??ZDApp_NwkDescListProcessing_6
        MOV     A,?V0 + 6
        JZ      ??ZDApp_NwkDescListProcessing_6
//  259     {
//  260       break;
//  261     }
//  262   }
        INC     ?V0 + 10
        LJMP    ??ZDApp_NwkDescListProcessing_5 & 0xFFFF
//  263   
//  264   if ( i == ResultCount )
??ZDApp_NwkDescListProcessing_6:
        MOV     A,?V0 + 1
        XRL     A,?V0 + 0
        JNZ     ??ZDApp_NwkDescListProcessing_23
//  265   {
//  266     return (NULL);   // couldn't find appropriate PAN to join !
        MOV     R2,#0x0
        MOV     R3,#0x0
        SJMP    ??ZDApp_NwkDescListProcessing_24
//  267   }
//  268   else
//  269   {
//  270     return (pNwkDesc);
??ZDApp_NwkDescListProcessing_23:
        MOV     A,R6
        MOV     R2,A
        MOV     A,R7
        MOV     R3,A
??ZDApp_NwkDescListProcessing_24:
        MOV     R7,#0x10
        LJMP    ?BANKED_LEAVE_XDATA
        CFI EndBlock cfiBlock0
//  271   }
//  272   
//  273 }// ZDApp_NwkDescListProcessing()
//  274 
//  275 

        RSEG BANKED_CODE:CODE:NOROOT(0)
//  276 void ZDO_DEVICE_DISC(void)
ZDO_DEVICE_DISC:
        CFI Block cfiBlock1 Using cfiCommon0
        CFI Function ZDO_DEVICE_DISC
        CODE
//  277 {
        FUNCALL ZDO_DEVICE_DISC, osal_pwrmgr_device
        LOCFRAME ISTACK, 0, STACK
        LOCFRAME PSTACK, 0, STACK
        LOCFRAME XSTACK, 12, STACK
        LOCFRAME IOVERLAY, 0, STATIC
        LOCFRAME DOVERLAY, 0, STATIC
        ARGFRAME ISTACK, 0, STACK
        ARGFRAME PSTACK, 0, STACK
        ARGFRAME XSTACK, 12, STACK
        ARGFRAME IOVERLAY, 0, STATIC
        ARGFRAME DOVERLAY, 0, STATIC
        FUNCALL ZDO_DEVICE_DISC, osal_rand
        LOCFRAME ISTACK, 0, STACK
        LOCFRAME PSTACK, 0, STACK
        LOCFRAME XSTACK, 12, STACK
        LOCFRAME IOVERLAY, 0, STATIC
        LOCFRAME DOVERLAY, 0, STATIC
        ARGFRAME ISTACK, 0, STACK
        ARGFRAME PSTACK, 0, STACK
        ARGFRAME XSTACK, 12, STACK
        ARGFRAME IOVERLAY, 0, STATIC
        ARGFRAME DOVERLAY, 0, STATIC
        FUNCALL ZDO_DEVICE_DISC, ZDApp_NetworkInit
        LOCFRAME ISTACK, 0, STACK
        LOCFRAME PSTACK, 0, STACK
        LOCFRAME XSTACK, 12, STACK
        LOCFRAME IOVERLAY, 0, STATIC
        LOCFRAME DOVERLAY, 0, STATIC
        ARGFRAME ISTACK, 0, STACK
        ARGFRAME PSTACK, 0, STACK
        ARGFRAME XSTACK, 12, STACK
        ARGFRAME IOVERLAY, 0, STATIC
        ARGFRAME DOVERLAY, 0, STATIC
        FUNCALL ZDO_DEVICE_DISC, osal_pwrmgr_device
        LOCFRAME ISTACK, 0, STACK
        LOCFRAME PSTACK, 0, STACK
        LOCFRAME XSTACK, 12, STACK
        LOCFRAME IOVERLAY, 0, STATIC
        LOCFRAME DOVERLAY, 0, STATIC
        ARGFRAME ISTACK, 0, STACK
        ARGFRAME PSTACK, 0, STACK
        ARGFRAME XSTACK, 12, STACK
        ARGFRAME IOVERLAY, 0, STATIC
        ARGFRAME DOVERLAY, 0, STATIC
        FUNCALL ZDO_DEVICE_DISC, osal_rand
        LOCFRAME ISTACK, 0, STACK
        LOCFRAME PSTACK, 0, STACK
        LOCFRAME XSTACK, 12, STACK
        LOCFRAME IOVERLAY, 0, STATIC
        LOCFRAME DOVERLAY, 0, STATIC
        ARGFRAME ISTACK, 0, STACK
        ARGFRAME PSTACK, 0, STACK
        ARGFRAME XSTACK, 12, STACK
        ARGFRAME IOVERLAY, 0, STATIC
        ARGFRAME DOVERLAY, 0, STATIC
        FUNCALL ZDO_DEVICE_DISC, ZDApp_NetworkInit
        LOCFRAME ISTACK, 0, STACK
        LOCFRAME PSTACK, 0, STACK
        LOCFRAME XSTACK, 12, STACK
        LOCFRAME IOVERLAY, 0, STATIC
        LOCFRAME DOVERLAY, 0, STATIC
        ARGFRAME ISTACK, 0, STACK
        ARGFRAME PSTACK, 0, STACK
        ARGFRAME XSTACK, 12, STACK
        ARGFRAME IOVERLAY, 0, STATIC
        ARGFRAME DOVERLAY, 0, STATIC
        FUNCALL ZDO_DEVICE_DISC, osal_pwrmgr_device
        LOCFRAME ISTACK, 0, STACK
        LOCFRAME PSTACK, 0, STACK
        LOCFRAME XSTACK, 12, STACK
        LOCFRAME IOVERLAY, 0, STATIC
        LOCFRAME DOVERLAY, 0, STATIC
        ARGFRAME ISTACK, 0, STACK
        ARGFRAME PSTACK, 0, STACK
        ARGFRAME XSTACK, 12, STACK
        ARGFRAME IOVERLAY, 0, STATIC
        ARGFRAME DOVERLAY, 0, STATIC
        FUNCALL ZDO_DEVICE_DISC, osal_rand
        LOCFRAME ISTACK, 0, STACK
        LOCFRAME PSTACK, 0, STACK
        LOCFRAME XSTACK, 12, STACK
        LOCFRAME IOVERLAY, 0, STATIC
        LOCFRAME DOVERLAY, 0, STATIC
        ARGFRAME ISTACK, 0, STACK
        ARGFRAME PSTACK, 0, STACK
        ARGFRAME XSTACK, 12, STACK
        ARGFRAME IOVERLAY, 0, STATIC
        ARGFRAME DOVERLAY, 0, STATIC
        FUNCALL ZDO_DEVICE_DISC, ZDApp_NetworkInit
        LOCFRAME ISTACK, 0, STACK
        LOCFRAME PSTACK, 0, STACK
        LOCFRAME XSTACK, 12, STACK
        LOCFRAME IOVERLAY, 0, STATIC
        LOCFRAME DOVERLAY, 0, STATIC
        ARGFRAME ISTACK, 0, STACK
        ARGFRAME PSTACK, 0, STACK
        ARGFRAME XSTACK, 12, STACK
        ARGFRAME IOVERLAY, 0, STATIC
        ARGFRAME DOVERLAY, 0, STATIC
        MOV     A,#-0xc
        LCALL   ?BANKED_ENTER_XDATA
        CFI DPH0 load(1, XDATA, add(CFA_XSP16, literal(-1)))
        CFI DPL0 load(1, XDATA, add(CFA_XSP16, literal(-2)))
        CFI ?BRET_EXT load(1, XDATA, add(CFA_XSP16, literal(-3)))
        CFI ?RET_HIGH load(1, XDATA, add(CFA_XSP16, literal(-4)))
        CFI ?RET_LOW load(1, XDATA, add(CFA_XSP16, literal(-5)))
        CFI R7 load(1, XDATA, add(CFA_XSP16, literal(-6)))
        CFI V3 load(1, XDATA, add(CFA_XSP16, literal(-7)))
        CFI V2 load(1, XDATA, add(CFA_XSP16, literal(-8)))
        CFI V1 load(1, XDATA, add(CFA_XSP16, literal(-9)))
        CFI V0 load(1, XDATA, add(CFA_XSP16, literal(-10)))
        CFI VB load(1, XDATA, add(CFA_XSP16, literal(-11)))
        CFI R6 load(1, XDATA, add(CFA_XSP16, literal(-12)))
        CFI CFA_SP SP+0
        CFI CFA_XSP16 add(XSP16, 12)
        ; Saved register size: 12
        ; Auto size: 0
//  278   if(zdoDiscCounter<=10)
        MOV     DPTR,#zdoDiscCounter
        MOVX    A,@DPTR
        CLR     C
        SUBB    A,#0xb
        JNC     ??ZDO_DEVICE_DISC_0
//  279   {
//  280     
//  281 
//  282   if ( POWER_SAVING_FLAG == 1)
        MOV     DPTR,#POWER_SAVING_FLAG
        MOVX    A,@DPTR
        XRL     A,#0x1
        JNZ     ??ZDO_DEVICE_DISC_1
//  283     osal_pwrmgr_device( PWRMGR_BATTERY );
        ; Setup parameters for call to function osal_pwrmgr_device
        MOV     R1,#0x1
        LCALL   ??osal_pwrmgr_device?relay
//  284 
//  285     if( devStartMode == MODE_JOIN )
??ZDO_DEVICE_DISC_1:
        MOV     DPTR,#devStartMode
        MOVX    A,@DPTR
        JNZ     ??ZDO_DEVICE_DISC_2
//  286     {
//  287       zgDefaultChannelList =0x0318C800;
        MOV     DPTR,#__Constant_318c800
        LCALL   ?XLOAD_R2345
        MOV     DPTR,#zgDefaultChannelList
        LCALL   ?XSTORE_R2345
        SJMP    ??ZDO_DEVICE_DISC_3
//  288     }
//  289     else if(devStartMode == MODE_REJOIN)
??ZDO_DEVICE_DISC_2:
        MOV     DPTR,#devStartMode
        MOVX    A,@DPTR
        XRL     A,#0x3
        JNZ     ??ZDO_DEVICE_DISC_3
//  290     {
//  291       zgDefaultChannelList =((uint32)0x00000001)<<_NIB.nwkLogicalChannel;
        MOV     ?V0 + 0,#0x1
        MOV     ?V0 + 1,#0x0
        MOV     ?V0 + 2,#0x0
        MOV     ?V0 + 3,#0x0
        MOV     DPTR,#_NIB + 22
        MOVX    A,@DPTR
        MOV     R0,#?V0 + 0
        LCALL   ?L_SHL
        MOV     DPTR,#zgDefaultChannelList
        MOV     R0,#?V0 + 0
        LCALL   ?L_MOV_TO_X
//  292       
//  293     } 
//  294     zdoDiscCounter++;
??ZDO_DEVICE_DISC_3:
        MOV     DPTR,#zdoDiscCounter
        MOVX    A,@DPTR
        ADD     A,#0x1
        MOVX    @DPTR,A
//  295     
//  296     ZDApp_NetworkInit(500 + (osal_rand()& 0x007F) );
        ; Setup parameters for call to function ZDApp_NetworkInit
        ; Setup parameters for call to function osal_rand
        LCALL   ??osal_rand?relay
        MOV     ?V0 + 0,R2
        MOV     ?V0 + 1,R3
        MOV     A,?V0 + 0
        ANL     A,#0x7f
        MOV     R0,A
        MOV     A,?V0 + 1
        ANL     A,#0x0
        MOV     R1,A
        MOV     A,R0
        ADD     A,#-0xc
        MOV     R2,A
        MOV     A,R1
        ADDC    A,#0x1
        MOV     R3,A
        LCALL   ??ZDApp_NetworkInit?relay
        LJMP    ??ZDO_DEVICE_DISC_4 & 0xFFFF
//  297     
//  298   }  
//  299   
//  300   else if((zdoDiscCounter>10) && (zdoDiscCounter<20) )//
??ZDO_DEVICE_DISC_0:
        MOV     DPTR,#zdoDiscCounter
        MOVX    A,@DPTR
        CLR     C
        SUBB    A,#0xb
        JC      ??ZDO_DEVICE_DISC_5
        MOV     DPTR,#zdoDiscCounter
        MOVX    A,@DPTR
        CLR     C
        SUBB    A,#0x14
        JNC     ??ZDO_DEVICE_DISC_5
//  301   {
//  302     
//  303 
//  304    if ( POWER_SAVING_FLAG == 1)
        MOV     DPTR,#POWER_SAVING_FLAG
        MOVX    A,@DPTR
        XRL     A,#0x1
        JNZ     ??ZDO_DEVICE_DISC_6
//  305     osal_pwrmgr_device( PWRMGR_BATTERY );
        ; Setup parameters for call to function osal_pwrmgr_device
        MOV     R1,#0x1
        LCALL   ??osal_pwrmgr_device?relay
//  306 
//  307     if( devStartMode == MODE_JOIN )
??ZDO_DEVICE_DISC_6:
        MOV     DPTR,#devStartMode
        MOVX    A,@DPTR
        JNZ     ??ZDO_DEVICE_DISC_7
//  308     {
//  309       zgDefaultChannelList =0x0318C800;
        MOV     DPTR,#__Constant_318c800
        LCALL   ?XLOAD_R2345
        MOV     DPTR,#zgDefaultChannelList
        LCALL   ?XSTORE_R2345
        SJMP    ??ZDO_DEVICE_DISC_8
//  310     }
//  311     
//  312     else if(devStartMode == MODE_REJOIN)
??ZDO_DEVICE_DISC_7:
        MOV     DPTR,#devStartMode
        MOVX    A,@DPTR
        XRL     A,#0x3
        JNZ     ??ZDO_DEVICE_DISC_8
//  313     {
//  314       zgDefaultChannelList =((uint32)0x00000001)<<_NIB.nwkLogicalChannel;
        MOV     ?V0 + 0,#0x1
        MOV     ?V0 + 1,#0x0
        MOV     ?V0 + 2,#0x0
        MOV     ?V0 + 3,#0x0
        MOV     DPTR,#_NIB + 22
        MOVX    A,@DPTR
        MOV     R0,#?V0 + 0
        LCALL   ?L_SHL
        MOV     DPTR,#zgDefaultChannelList
        MOV     R0,#?V0 + 0
        LCALL   ?L_MOV_TO_X
//  315     }     
//  316     zdoDiscCounter++;
??ZDO_DEVICE_DISC_8:
        MOV     DPTR,#zdoDiscCounter
        MOVX    A,@DPTR
        ADD     A,#0x1
        MOVX    @DPTR,A
//  317     
//  318     ZDApp_NetworkInit(500 + (osal_rand()& 0x007F) );
        ; Setup parameters for call to function ZDApp_NetworkInit
        ; Setup parameters for call to function osal_rand
        LCALL   ??osal_rand?relay
        MOV     ?V0 + 0,R2
        MOV     ?V0 + 1,R3
        MOV     A,?V0 + 0
        ANL     A,#0x7f
        MOV     R0,A
        MOV     A,?V0 + 1
        ANL     A,#0x0
        MOV     R1,A
        MOV     A,R0
        ADD     A,#-0xc
        MOV     R2,A
        MOV     A,R1
        ADDC    A,#0x1
        MOV     R3,A
        LCALL   ??ZDApp_NetworkInit?relay
        LJMP    ??ZDO_DEVICE_DISC_4 & 0xFFFF
//  319     
//  320   }
//  321   
//  322   else if(zdoDiscCounter==20)
??ZDO_DEVICE_DISC_5:
        MOV     DPTR,#zdoDiscCounter
        MOVX    A,@DPTR
        XRL     A,#0x14
        JNZ     ??ZDO_DEVICE_DISC_4
//  323   {
//  324 
//  325    if ( POWER_SAVING_FLAG == 1)
        MOV     DPTR,#POWER_SAVING_FLAG
        MOVX    A,@DPTR
        XRL     A,#0x1
        JNZ     ??ZDO_DEVICE_DISC_9
//  326     osal_pwrmgr_device( PWRMGR_BATTERY ); 
        ; Setup parameters for call to function osal_pwrmgr_device
        MOV     R1,#0x1
        LCALL   ??osal_pwrmgr_device?relay
//  327     
//  328     if(devStartMode == MODE_REJOIN)
??ZDO_DEVICE_DISC_9:
        MOV     DPTR,#devStartMode
        MOVX    A,@DPTR
        XRL     A,#0x3
        JNZ     ??ZDO_DEVICE_DISC_10
//  329       ZDApp_NetworkInit(60000 + 5*(osal_rand()& 0x007F) );
        ; Setup parameters for call to function ZDApp_NetworkInit
        ; Setup parameters for call to function osal_rand
        LCALL   ??osal_rand?relay
        MOV     ?V0 + 0,R2
        MOV     ?V0 + 1,R3
        MOV     A,?V0 + 0
        ANL     A,#0x7f
        MOV     R0,A
        MOV     A,?V0 + 1
        ANL     A,#0x0
        MOV     R1,A
        MOV     A,R0
        MOV     B,#0x5
        MUL     AB
        XCH     A,R0
        MOV     R2,B
        MOV     B,#0x0
        MUL     AB
        ADD     A,R2
        MOV     R2,A
        MOV     B,#0x5
        MOV     A,R1
        MUL     AB
        ADD     A,R2
        MOV     R1,A
        MOV     A,R0
        ADD     A,#0x60
        MOV     R2,A
        MOV     A,R1
        ADDC    A,#-0x16
        MOV     R3,A
        LCALL   ??ZDApp_NetworkInit?relay
//  330     
//  331     if( devStartMode == MODE_JOIN )
??ZDO_DEVICE_DISC_10:
        MOV     DPTR,#devStartMode
        MOVX    A,@DPTR
        JNZ     ??ZDO_DEVICE_DISC_11
//  332     {
//  333       zgDefaultChannelList =0x0318C800;
        MOV     DPTR,#__Constant_318c800
        LCALL   ?XLOAD_R2345
        MOV     DPTR,#zgDefaultChannelList
        LCALL   ?XSTORE_R2345
        SJMP    ??ZDO_DEVICE_DISC_4
//  334     }
//  335     else if(devStartMode == MODE_REJOIN)
??ZDO_DEVICE_DISC_11:
        MOV     DPTR,#devStartMode
        MOVX    A,@DPTR
        XRL     A,#0x3
        JNZ     ??ZDO_DEVICE_DISC_4
//  336     {
//  337       zgDefaultChannelList =((uint32)0x00000001)<<_NIB.nwkLogicalChannel;
        MOV     ?V0 + 0,#0x1
        MOV     ?V0 + 1,#0x0
        MOV     ?V0 + 2,#0x0
        MOV     ?V0 + 3,#0x0
        MOV     DPTR,#_NIB + 22
        MOVX    A,@DPTR
        MOV     R0,#?V0 + 0
        LCALL   ?L_SHL
        MOV     DPTR,#zgDefaultChannelList
        MOV     R0,#?V0 + 0
        LCALL   ?L_MOV_TO_X
//  338     }
//  339     
//  340   }
//  341   
//  342 }
??ZDO_DEVICE_DISC_4:
        MOV     R7,#0x4
        LJMP    ?BANKED_LEAVE_XDATA
        CFI EndBlock cfiBlock1
//  343 

        RSEG BANKED_CODE:CODE:NOROOT(0)
//  344 void ZDO_REJOIN_ERROR(void)
ZDO_REJOIN_ERROR:
        CFI Block cfiBlock2 Using cfiCommon0
        CFI Function ZDO_REJOIN_ERROR
        CODE
//  345 {
        FUNCALL ZDO_REJOIN_ERROR, Onboard_soft_reset
        LOCFRAME ISTACK, 0, STACK
        LOCFRAME PSTACK, 0, STACK
        LOCFRAME XSTACK, 0, STACK
        LOCFRAME IOVERLAY, 0, STATIC
        LOCFRAME DOVERLAY, 0, STATIC
        ARGFRAME ISTACK, 0, STACK
        ARGFRAME PSTACK, 0, STACK
        ARGFRAME XSTACK, 0, STACK
        ARGFRAME IOVERLAY, 0, STATIC
        ARGFRAME DOVERLAY, 0, STATIC
        ; Saved register size: 0
        ; Auto size: 0
//  346          SystemResetSoft();
        ; Setup parameters for call to function Onboard_soft_reset
        LCALL   Onboard_soft_reset & 0xFFFF
//  347 }
        LJMP    ?BRET
        CFI EndBlock cfiBlock2
//  348 

        RSEG BANKED_CODE:CODE:NOROOT(0)
//  349 void ZDO_ACK_DEAL_WITH(void)
ZDO_ACK_DEAL_WITH:
        CFI Block cfiBlock3 Using cfiCommon0
        CFI Function ZDO_ACK_DEAL_WITH
        CODE
//  350 {
        FUNCALL ZDO_ACK_DEAL_WITH, nwkNeighborInitTable
        LOCFRAME ISTACK, 2, STACK
        LOCFRAME PSTACK, 0, STACK
        LOCFRAME XSTACK, 0, STACK
        LOCFRAME IOVERLAY, 0, STATIC
        LOCFRAME DOVERLAY, 0, STATIC
        ARGFRAME ISTACK, 2, STACK
        ARGFRAME PSTACK, 0, STACK
        ARGFRAME XSTACK, 0, STACK
        ARGFRAME IOVERLAY, 0, STATIC
        ARGFRAME DOVERLAY, 0, STATIC
        FUNCALL ZDO_ACK_DEAL_WITH, ZDApp_SendMsg
        LOCFRAME ISTACK, 2, STACK
        LOCFRAME PSTACK, 0, STACK
        LOCFRAME XSTACK, 0, STACK
        LOCFRAME IOVERLAY, 0, STATIC
        LOCFRAME DOVERLAY, 0, STATIC
        ARGFRAME ISTACK, 2, STACK
        ARGFRAME PSTACK, 0, STACK
        ARGFRAME XSTACK, 0, STACK
        ARGFRAME IOVERLAY, 0, STATIC
        ARGFRAME DOVERLAY, 0, STATIC
        PUSH    DPL
        CFI DPL0 Frame(CFA_SP, 4)
        CFI CFA_SP SP+-4
        PUSH    DPH
        CFI DPH0 Frame(CFA_SP, 5)
        CFI CFA_SP SP+-5
        ; Saved register size: 2
        ; Auto size: 0
//  351     nwkNeighborInitTable();
        ; Setup parameters for call to function nwkNeighborInitTable
        LCALL   ??nwkNeighborInitTable?relay
//  352     ZDApp_SendMsg( ZDAppTaskID, ZDO_NWK_JOIN_REQ, sizeof(osal_event_hdr_t), NULL );
        ; Setup parameters for call to function ZDApp_SendMsg
        MOV     R4,#0x0
        MOV     R5,#0x0
        MOV     R3,#0x2
        MOV     R2,#0x3
        MOV     DPTR,#ZDAppTaskID
        MOVX    A,@DPTR
        MOV     R1,A
        LCALL   ??ZDApp_SendMsg?relay
//  353 
//  354 }
        POP     DPH
        CFI DPH0 SameValue
        CFI CFA_SP SP+-4
        POP     DPL
        CFI DPL0 SameValue
        CFI CFA_SP SP+-3
        LJMP    ?BRET
        CFI EndBlock cfiBlock3
//  355 
//  356 // app 初始化的时候处理JOIN事宜

        RSEG BANKED_CODE:CODE:NOROOT(0)
//  357 void APP_JOIN_INIT(void)
APP_JOIN_INIT:
        CFI Block cfiBlock4 Using cfiCommon0
        CFI Function APP_JOIN_INIT
        CODE
//  358 {
        FUNCALL APP_JOIN_INIT, zb_ReadConfiguration
        LOCFRAME ISTACK, 0, STACK
        LOCFRAME PSTACK, 0, STACK
        LOCFRAME XSTACK, 11, STACK
        LOCFRAME IOVERLAY, 0, STATIC
        LOCFRAME DOVERLAY, 0, STATIC
        ARGFRAME ISTACK, 0, STACK
        ARGFRAME PSTACK, 0, STACK
        ARGFRAME XSTACK, 11, STACK
        ARGFRAME IOVERLAY, 0, STATIC
        ARGFRAME DOVERLAY, 0, STATIC
        FUNCALL APP_JOIN_INIT, zb_StartRequest
        LOCFRAME ISTACK, 0, STACK
        LOCFRAME PSTACK, 0, STACK
        LOCFRAME XSTACK, 11, STACK
        LOCFRAME IOVERLAY, 0, STATIC
        LOCFRAME DOVERLAY, 0, STATIC
        ARGFRAME ISTACK, 0, STACK
        ARGFRAME PSTACK, 0, STACK
        ARGFRAME XSTACK, 11, STACK
        ARGFRAME IOVERLAY, 0, STATIC
        ARGFRAME DOVERLAY, 0, STATIC
        FUNCALL APP_JOIN_INIT, osal_nv_item_init
        LOCFRAME ISTACK, 0, STACK
        LOCFRAME PSTACK, 0, STACK
        LOCFRAME XSTACK, 13, STACK
        LOCFRAME IOVERLAY, 0, STATIC
        LOCFRAME DOVERLAY, 0, STATIC
        ARGFRAME ISTACK, 0, STACK
        ARGFRAME PSTACK, 0, STACK
        ARGFRAME XSTACK, 13, STACK
        ARGFRAME IOVERLAY, 0, STATIC
        ARGFRAME DOVERLAY, 0, STATIC
        FUNCALL APP_JOIN_INIT, osal_nv_read
        LOCFRAME ISTACK, 0, STACK
        LOCFRAME PSTACK, 0, STACK
        LOCFRAME XSTACK, 15, STACK
        LOCFRAME IOVERLAY, 0, STATIC
        LOCFRAME DOVERLAY, 0, STATIC
        ARGFRAME ISTACK, 0, STACK
        ARGFRAME PSTACK, 0, STACK
        ARGFRAME XSTACK, 15, STACK
        ARGFRAME IOVERLAY, 0, STATIC
        ARGFRAME DOVERLAY, 0, STATIC
        FUNCALL APP_JOIN_INIT, osal_nv_item_init
        LOCFRAME ISTACK, 0, STACK
        LOCFRAME PSTACK, 0, STACK
        LOCFRAME XSTACK, 13, STACK
        LOCFRAME IOVERLAY, 0, STATIC
        LOCFRAME DOVERLAY, 0, STATIC
        ARGFRAME ISTACK, 0, STACK
        ARGFRAME PSTACK, 0, STACK
        ARGFRAME XSTACK, 13, STACK
        ARGFRAME IOVERLAY, 0, STATIC
        ARGFRAME DOVERLAY, 0, STATIC
        FUNCALL APP_JOIN_INIT, osal_nv_read
        LOCFRAME ISTACK, 0, STACK
        LOCFRAME PSTACK, 0, STACK
        LOCFRAME XSTACK, 15, STACK
        LOCFRAME IOVERLAY, 0, STATIC
        LOCFRAME DOVERLAY, 0, STATIC
        ARGFRAME ISTACK, 0, STACK
        ARGFRAME PSTACK, 0, STACK
        ARGFRAME XSTACK, 15, STACK
        ARGFRAME IOVERLAY, 0, STATIC
        ARGFRAME DOVERLAY, 0, STATIC
        FUNCALL APP_JOIN_INIT, osal_start_timerEx
        LOCFRAME ISTACK, 0, STACK
        LOCFRAME PSTACK, 0, STACK
        LOCFRAME XSTACK, 11, STACK
        LOCFRAME IOVERLAY, 0, STATIC
        LOCFRAME DOVERLAY, 0, STATIC
        ARGFRAME ISTACK, 0, STACK
        ARGFRAME PSTACK, 0, STACK
        ARGFRAME XSTACK, 11, STACK
        ARGFRAME IOVERLAY, 0, STATIC
        ARGFRAME DOVERLAY, 0, STATIC
        FUNCALL APP_JOIN_INIT, osal_start_timerEx
        LOCFRAME ISTACK, 0, STACK
        LOCFRAME PSTACK, 0, STACK
        LOCFRAME XSTACK, 11, STACK
        LOCFRAME IOVERLAY, 0, STATIC
        LOCFRAME DOVERLAY, 0, STATIC
        ARGFRAME ISTACK, 0, STACK
        ARGFRAME PSTACK, 0, STACK
        ARGFRAME XSTACK, 11, STACK
        ARGFRAME IOVERLAY, 0, STATIC
        ARGFRAME DOVERLAY, 0, STATIC
        FUNCALL APP_JOIN_INIT, osal_nv_item_init
        LOCFRAME ISTACK, 0, STACK
        LOCFRAME PSTACK, 0, STACK
        LOCFRAME XSTACK, 13, STACK
        LOCFRAME IOVERLAY, 0, STATIC
        LOCFRAME DOVERLAY, 0, STATIC
        ARGFRAME ISTACK, 0, STACK
        ARGFRAME PSTACK, 0, STACK
        ARGFRAME XSTACK, 13, STACK
        ARGFRAME IOVERLAY, 0, STATIC
        ARGFRAME DOVERLAY, 0, STATIC
        FUNCALL APP_JOIN_INIT, osal_nv_read
        LOCFRAME ISTACK, 0, STACK
        LOCFRAME PSTACK, 0, STACK
        LOCFRAME XSTACK, 15, STACK
        LOCFRAME IOVERLAY, 0, STATIC
        LOCFRAME DOVERLAY, 0, STATIC
        ARGFRAME ISTACK, 0, STACK
        ARGFRAME PSTACK, 0, STACK
        ARGFRAME XSTACK, 15, STACK
        ARGFRAME IOVERLAY, 0, STATIC
        ARGFRAME DOVERLAY, 0, STATIC
        MOV     A,#-0xa
        LCALL   ?BANKED_ENTER_XDATA
        CFI DPH0 load(1, XDATA, add(CFA_XSP16, literal(-1)))
        CFI DPL0 load(1, XDATA, add(CFA_XSP16, literal(-2)))
        CFI ?BRET_EXT load(1, XDATA, add(CFA_XSP16, literal(-3)))
        CFI ?RET_HIGH load(1, XDATA, add(CFA_XSP16, literal(-4)))
        CFI ?RET_LOW load(1, XDATA, add(CFA_XSP16, literal(-5)))
        CFI R7 load(1, XDATA, add(CFA_XSP16, literal(-6)))
        CFI V1 load(1, XDATA, add(CFA_XSP16, literal(-7)))
        CFI V0 load(1, XDATA, add(CFA_XSP16, literal(-8)))
        CFI VB load(1, XDATA, add(CFA_XSP16, literal(-9)))
        CFI R6 load(1, XDATA, add(CFA_XSP16, literal(-10)))
        CFI CFA_SP SP+0
        CFI CFA_XSP16 add(XSP16, 10)
        ; Saved register size: 10
        ; Auto size: 1
        MOV     A,#-0x1
        LCALL   ?ALLOC_XSTACK8
        CFI CFA_XSP16 add(XSP16, 11)
//  359   
//  360   
//  361  
//  362  if ( RTR_NWK_FLAG == 1)
        MOV     DPTR,#RTR_NWK_FLAG
        MOVX    A,@DPTR
        XRL     A,#0x1
        JNZ     ??APP_JOIN_INIT_0
//  363  {
//  364     for(uint8 i=0;i<NWK_MAX_DEVICES;i++)
        MOV     R3,#0x0
??APP_JOIN_INIT_1:
        MOV     A,R3
        CLR     C
        SUBB    A,#0x15
        JNC     ??APP_JOIN_INIT_0
//  365     { 
//  366       Child_list[i].heart_count=0;
        MOV     A,R3
        MOV     R0,A
        MOV     R1,#0x0
        MOV     A,R0
        MOV     B,#0x2
        MUL     AB
        XCH     A,R0
        MOV     R2,B
        MOV     B,#0x0
        MUL     AB
        ADD     A,R2
        MOV     R2,A
        MOV     B,#0x2
        MOV     A,R1
        MUL     AB
        ADD     A,R2
        MOV     R1,A
        MOV     A,#(Child_list + 1) & 0xff
        ADD     A,R0
        MOV     DPL,A
        MOV     A,#((Child_list + 1) >> 8) & 0xff
        ADDC    A,R1
        MOV     DPH,A
        MOV     A,#0x0
        MOVX    @DPTR,A
//  367     }
        INC     R3
        SJMP    ??APP_JOIN_INIT_1
//  368  }
//  369   
//  370   
//  371   uint8 startOptions= 0;
??APP_JOIN_INIT_0:
        MOV     DPL,?XSP + 0
        MOV     DPH,?XSP + 1
        MOV     A,#0x0
        MOVX    @DPTR,A
//  372   zb_ReadConfiguration( ZCD_NV_STARTUP_OPTION, sizeof(uint8), &startOptions );
        ; Setup parameters for call to function zb_ReadConfiguration
        MOV     DPL,?XSP + 0
        MOV     DPH,?XSP + 1
        MOV     R4,DPL
        MOV     R5,DPH
        MOV     R2,#0x1
        MOV     R1,#0x3
        LCALL   ??zb_ReadConfiguration?relay
        MOV     A,R1
//  373   if ( startOptions & ZCD_STARTOPT_AUTO_START )
        MOV     DPL,?XSP + 0
        MOV     DPH,?XSP + 1
        MOVX    A,@DPTR
        MOV     C,0xE0 /* A   */.2
        JNC     ??APP_JOIN_INIT_2
//  374   {
//  375     zb_StartRequest();
        ; Setup parameters for call to function zb_StartRequest
        LCALL   ??zb_StartRequest?relay
        LJMP    ??APP_JOIN_INIT_3 & 0xFFFF
//  376   }
//  377   
//  378   else
//  379   {  
//  380     osal_nv_item_init(ZCD_NV_JOIN_ISSET_FLAG, 1, &Join_isset_flag);  // 判断是否为通过软件控制的入网机制
??APP_JOIN_INIT_2:
        ; Setup parameters for call to function osal_nv_item_init
        MOV     ?V0 + 0,#Join_isset_flag & 0xff
        MOV     ?V0 + 1,#(Join_isset_flag >> 8) & 0xff
        MOV     R0,#?V0 + 0
        LCALL   ?PUSH_XSTACK_I_TWO
        CFI CFA_XSP16 add(XSP16, 13)
        MOV     R4,#0x1
        MOV     R5,#0x0
        MOV     R2,#0x38
        MOV     R3,#0x4
        LCALL   ??osal_nv_item_init?relay
        MOV     A,#0x2
        LCALL   ?DEALLOC_XSTACK8
        CFI CFA_XSP16 add(XSP16, 11)
        MOV     A,R1
//  381     osal_nv_read(ZCD_NV_JOIN_ISSET_FLAG, 0, 1, &Join_isset_flag);
        ; Setup parameters for call to function osal_nv_read
        MOV     ?V0 + 0,#Join_isset_flag & 0xff
        MOV     ?V0 + 1,#(Join_isset_flag >> 8) & 0xff
        MOV     R0,#?V0 + 0
        LCALL   ?PUSH_XSTACK_I_TWO
        CFI CFA_XSP16 add(XSP16, 13)
        MOV     ?V0 + 0,#0x1
        MOV     ?V0 + 1,#0x0
        MOV     R0,#?V0 + 0
        LCALL   ?PUSH_XSTACK_I_TWO
        CFI CFA_XSP16 add(XSP16, 15)
        MOV     R4,#0x0
        MOV     R5,#0x0
        MOV     R2,#0x38
        MOV     R3,#0x4
        LCALL   ??osal_nv_read?relay
        MOV     A,#0x4
        LCALL   ?DEALLOC_XSTACK8
        CFI CFA_XSP16 add(XSP16, 11)
        MOV     A,R1
//  382     
//  383     if(Join_isset_flag == 1)  //如果是的话 则读取上次离开网络后 被设置的参数，包括这次入网的角色定义和入网延迟时间
        MOV     DPTR,#Join_isset_flag
        MOVX    A,@DPTR
        XRL     A,#0x1
        JNZ     ??APP_JOIN_INIT_4
//  384     { 
//  385       
//  386       osal_nv_item_init(ZCD_NV_JOIN_START_TIME_VALUE, 1, &New_join_delay_time); 
        ; Setup parameters for call to function osal_nv_item_init
        MOV     ?V0 + 0,#New_join_delay_time & 0xff
        MOV     ?V0 + 1,#(New_join_delay_time >> 8) & 0xff
        MOV     R0,#?V0 + 0
        LCALL   ?PUSH_XSTACK_I_TWO
        CFI CFA_XSP16 add(XSP16, 13)
        MOV     R4,#0x1
        MOV     R5,#0x0
        MOV     R2,#0x35
        MOV     R3,#0x4
        LCALL   ??osal_nv_item_init?relay
        MOV     A,#0x2
        LCALL   ?DEALLOC_XSTACK8
        CFI CFA_XSP16 add(XSP16, 11)
        MOV     A,R1
//  387       osal_nv_read(ZCD_NV_JOIN_START_TIME_VALUE, 0, 1, &New_join_delay_time); 
        ; Setup parameters for call to function osal_nv_read
        MOV     ?V0 + 0,#New_join_delay_time & 0xff
        MOV     ?V0 + 1,#(New_join_delay_time >> 8) & 0xff
        MOV     R0,#?V0 + 0
        LCALL   ?PUSH_XSTACK_I_TWO
        CFI CFA_XSP16 add(XSP16, 13)
        MOV     ?V0 + 0,#0x1
        MOV     ?V0 + 1,#0x0
        MOV     R0,#?V0 + 0
        LCALL   ?PUSH_XSTACK_I_TWO
        CFI CFA_XSP16 add(XSP16, 15)
        MOV     R4,#0x0
        MOV     R5,#0x0
        MOV     R2,#0x35
        MOV     R3,#0x4
        LCALL   ??osal_nv_read?relay
        MOV     A,#0x4
        LCALL   ?DEALLOC_XSTACK8
        CFI CFA_XSP16 add(XSP16, 11)
        MOV     A,R1
        SJMP    ??APP_JOIN_INIT_5
//  388     }
//  389     
//  390     else  //如果不是从命令启动的则按照默认的启动路径  
//  391     {
//  392       
//  393       if(LEAVE_NET_SET_FLAG==1)
??APP_JOIN_INIT_4:
        MOV     DPTR,#LEAVE_NET_SET_FLAG
        MOVX    A,@DPTR
        XRL     A,#0x1
        JNZ     ??APP_JOIN_INIT_6
//  394       {
//  395          New_join_delay_time = 0;
        MOV     DPTR,#New_join_delay_time
        MOV     A,#0x0
        MOVX    @DPTR,A
        SJMP    ??APP_JOIN_INIT_5
//  396       }
//  397       else
//  398       {
//  399         New_join_delay_time = 0xFF;  //没有定义的话 继续HOLD住 等待按键事件
??APP_JOIN_INIT_6:
        MOV     DPTR,#New_join_delay_time
        MOV     A,#-0x1
        MOVX    @DPTR,A
//  400       }
//  401       
//  402     } 
//  403     
//  404     
//  405     if( (New_join_delay_time<255) && (New_join_delay_time>0))
??APP_JOIN_INIT_5:
        MOV     DPTR,#New_join_delay_time
        MOVX    A,@DPTR
        CLR     C
        SUBB    A,#-0x1
        JNC     ??APP_JOIN_INIT_7
        MOV     DPTR,#New_join_delay_time
        MOVX    A,@DPTR
        CLR     C
        SUBB    A,#0x1
        JC      ??APP_JOIN_INIT_7
//  406     {
//  407       Minitue_join_delay_time =New_join_delay_time / 60;
        MOV     B,#0x3c
        MOV     DPTR,#New_join_delay_time
        MOVX    A,@DPTR
        DIV     AB
        MOV     DPTR,#Minitue_join_delay_time
        MOVX    @DPTR,A
//  408       Second_join_delay_time =New_join_delay_time % 60;
        MOV     DPTR,#New_join_delay_time
        MOVX    A,@DPTR
        MOV     B,#0x3c
        DIV     AB
        MOV     A,B
        MOV     DPTR,#Second_join_delay_time
        MOVX    @DPTR,A
//  409       uint16 Second_time_temp=0;
        MOV     R6,#0x0
        MOV     R7,#0x0
//  410       Second_time_temp = (Second_join_delay_time *1000) + 10;
        MOV     DPTR,#Second_join_delay_time
        MOVX    A,@DPTR
        MOV     R0,A
        MOV     R1,#0x0
        MOV     A,R0
        MOV     B,#-0x18
        MUL     AB
        XCH     A,R0
        MOV     R2,B
        MOV     B,#0x3
        MUL     AB
        ADD     A,R2
        MOV     R2,A
        MOV     B,#-0x18
        MOV     A,R1
        MUL     AB
        ADD     A,R2
        MOV     R1,A
        MOV     A,R0
        ADD     A,#0xa
        MOV     R0,A
        MOV     A,R1
        ADDC    A,#0x0
        MOV     R1,A
        MOV     A,R0
        MOV     R6,A
        MOV     A,R1
        MOV     R7,A
//  411       osal_start_timerEx( SampleApp_TaskID, NEW_JOIN_ROLE_EVT,Second_time_temp );//先处理掉秒
        ; Setup parameters for call to function osal_start_timerEx
        MOV     A,R6
        MOV     R4,A
        MOV     A,R7
        MOV     R5,A
        MOV     R2,#0x20
        MOV     R3,#0x0
        MOV     DPTR,#SampleApp_TaskID
        MOVX    A,@DPTR
        MOV     R1,A
        LCALL   ??osal_start_timerEx?relay
        MOV     A,R1
        SJMP    ??APP_JOIN_INIT_3
//  412       
//  413     }
//  414     else if(New_join_delay_time == 0)
??APP_JOIN_INIT_7:
        MOV     DPTR,#New_join_delay_time
        MOVX    A,@DPTR
        JNZ     ??APP_JOIN_INIT_8
//  415     {
//  416       osal_start_timerEx( SampleApp_TaskID, NEW_JOIN_ROLE_EVT,10 );//先处理掉秒
        ; Setup parameters for call to function osal_start_timerEx
        MOV     R4,#0xa
        MOV     R5,#0x0
        MOV     R2,#0x20
        MOV     R3,#0x0
        MOV     DPTR,#SampleApp_TaskID
        MOVX    A,@DPTR
        MOV     R1,A
        LCALL   ??osal_start_timerEx?relay
        MOV     A,R1
        SJMP    ??APP_JOIN_INIT_3
//  417     }
//  418     else
//  419     {
//  420       devState = DEV_HOLD;
??APP_JOIN_INIT_8:
        MOV     DPTR,#devState
        MOV     A,#0x0
        MOVX    @DPTR,A
//  421       //hold住  不启动网络
//  422     }  
//  423   }
//  424     osal_nv_item_init(ZCD_NV_HEART_MESG_FLAG, 1, &Heart_mesg_flag);  // 判断是否为通过软件控制的入网机制
??APP_JOIN_INIT_3:
        ; Setup parameters for call to function osal_nv_item_init
        MOV     ?V0 + 0,#Heart_mesg_flag & 0xff
        MOV     ?V0 + 1,#(Heart_mesg_flag >> 8) & 0xff
        MOV     R0,#?V0 + 0
        LCALL   ?PUSH_XSTACK_I_TWO
        CFI CFA_XSP16 add(XSP16, 13)
        MOV     R4,#0x1
        MOV     R5,#0x0
        MOV     R2,#0x10
        MOV     R3,#0x5
        LCALL   ??osal_nv_item_init?relay
        MOV     A,#0x2
        LCALL   ?DEALLOC_XSTACK8
        CFI CFA_XSP16 add(XSP16, 11)
        MOV     A,R1
//  425   osal_nv_read(ZCD_NV_HEART_MESG_FLAG, 0, 1, &Heart_mesg_flag);
        ; Setup parameters for call to function osal_nv_read
        MOV     ?V0 + 0,#Heart_mesg_flag & 0xff
        MOV     ?V0 + 1,#(Heart_mesg_flag >> 8) & 0xff
        MOV     R0,#?V0 + 0
        LCALL   ?PUSH_XSTACK_I_TWO
        CFI CFA_XSP16 add(XSP16, 13)
        MOV     ?V0 + 0,#0x1
        MOV     ?V0 + 1,#0x0
        MOV     R0,#?V0 + 0
        LCALL   ?PUSH_XSTACK_I_TWO
        CFI CFA_XSP16 add(XSP16, 15)
        MOV     R4,#0x0
        MOV     R5,#0x0
        MOV     R2,#0x10
        MOV     R3,#0x5
        LCALL   ??osal_nv_read?relay
        MOV     A,#0x4
        LCALL   ?DEALLOC_XSTACK8
        CFI CFA_XSP16 add(XSP16, 11)
        MOV     A,R1
//  426   if( (Heart_mesg_flag<1) || (Heart_mesg_flag>10))
        MOV     DPTR,#Heart_mesg_flag
        MOVX    A,@DPTR
        CLR     C
        SUBB    A,#0x1
        JC      ??APP_JOIN_INIT_9
        MOV     DPTR,#Heart_mesg_flag
        MOVX    A,@DPTR
        CLR     C
        SUBB    A,#0xb
        JC      ??APP_JOIN_INIT_10
//  427   {
//  428     Heart_mesg_flag = 1;
??APP_JOIN_INIT_9:
        MOV     DPTR,#Heart_mesg_flag
        MOV     A,#0x1
        MOVX    @DPTR,A
//  429   }
//  430 
//  431   
//  432   
//  433 }
??APP_JOIN_INIT_10:
        MOV     A,#0x1
        LCALL   ?DEALLOC_XSTACK8
        CFI CFA_XSP16 add(XSP16, 10)
        MOV     R7,#0x2
        LJMP    ?BANKED_LEAVE_XDATA
        CFI EndBlock cfiBlock4
//  434 
//  435 

        RSEG BANKED_CODE:CODE:NOROOT(0)
//  436 void APP_JOIN_DEAL_WITH(void)
APP_JOIN_DEAL_WITH:
        CFI Block cfiBlock5 Using cfiCommon0
        CFI Function APP_JOIN_DEAL_WITH
        CODE
//  437 {
        FUNCALL APP_JOIN_DEAL_WITH, NLME_PermitJoiningRequest
        LOCFRAME ISTACK, 0, STACK
        LOCFRAME PSTACK, 0, STACK
        LOCFRAME XSTACK, 19, STACK
        LOCFRAME IOVERLAY, 0, STATIC
        LOCFRAME DOVERLAY, 0, STATIC
        ARGFRAME ISTACK, 0, STACK
        ARGFRAME PSTACK, 0, STACK
        ARGFRAME XSTACK, 19, STACK
        ARGFRAME IOVERLAY, 0, STATIC
        ARGFRAME DOVERLAY, 0, STATIC
        FUNCALL APP_JOIN_DEAL_WITH, osal_start_timerEx
        LOCFRAME ISTACK, 0, STACK
        LOCFRAME PSTACK, 0, STACK
        LOCFRAME XSTACK, 19, STACK
        LOCFRAME IOVERLAY, 0, STATIC
        LOCFRAME DOVERLAY, 0, STATIC
        ARGFRAME ISTACK, 0, STACK
        ARGFRAME PSTACK, 0, STACK
        ARGFRAME XSTACK, 19, STACK
        ARGFRAME IOVERLAY, 0, STATIC
        ARGFRAME DOVERLAY, 0, STATIC
        FUNCALL APP_JOIN_DEAL_WITH, osal_rand
        LOCFRAME ISTACK, 0, STACK
        LOCFRAME PSTACK, 0, STACK
        LOCFRAME XSTACK, 19, STACK
        LOCFRAME IOVERLAY, 0, STATIC
        LOCFRAME DOVERLAY, 0, STATIC
        ARGFRAME ISTACK, 0, STACK
        ARGFRAME PSTACK, 0, STACK
        ARGFRAME XSTACK, 19, STACK
        ARGFRAME IOVERLAY, 0, STATIC
        ARGFRAME DOVERLAY, 0, STATIC
        FUNCALL APP_JOIN_DEAL_WITH, osal_start_timerEx
        LOCFRAME ISTACK, 0, STACK
        LOCFRAME PSTACK, 0, STACK
        LOCFRAME XSTACK, 19, STACK
        LOCFRAME IOVERLAY, 0, STATIC
        LOCFRAME DOVERLAY, 0, STATIC
        ARGFRAME ISTACK, 0, STACK
        ARGFRAME PSTACK, 0, STACK
        ARGFRAME XSTACK, 19, STACK
        ARGFRAME IOVERLAY, 0, STATIC
        ARGFRAME DOVERLAY, 0, STATIC
        FUNCALL APP_JOIN_DEAL_WITH, osal_rand
        LOCFRAME ISTACK, 0, STACK
        LOCFRAME PSTACK, 0, STACK
        LOCFRAME XSTACK, 19, STACK
        LOCFRAME IOVERLAY, 0, STATIC
        LOCFRAME DOVERLAY, 0, STATIC
        ARGFRAME ISTACK, 0, STACK
        ARGFRAME PSTACK, 0, STACK
        ARGFRAME XSTACK, 19, STACK
        ARGFRAME IOVERLAY, 0, STATIC
        ARGFRAME DOVERLAY, 0, STATIC
        FUNCALL APP_JOIN_DEAL_WITH, osal_start_timerEx
        LOCFRAME ISTACK, 0, STACK
        LOCFRAME PSTACK, 0, STACK
        LOCFRAME XSTACK, 19, STACK
        LOCFRAME IOVERLAY, 0, STATIC
        LOCFRAME DOVERLAY, 0, STATIC
        ARGFRAME ISTACK, 0, STACK
        ARGFRAME PSTACK, 0, STACK
        ARGFRAME XSTACK, 19, STACK
        ARGFRAME IOVERLAY, 0, STATIC
        ARGFRAME DOVERLAY, 0, STATIC
        FUNCALL APP_JOIN_DEAL_WITH, NLME_PermitJoiningRequest
        LOCFRAME ISTACK, 0, STACK
        LOCFRAME PSTACK, 0, STACK
        LOCFRAME XSTACK, 19, STACK
        LOCFRAME IOVERLAY, 0, STATIC
        LOCFRAME DOVERLAY, 0, STATIC
        ARGFRAME ISTACK, 0, STACK
        ARGFRAME PSTACK, 0, STACK
        ARGFRAME XSTACK, 19, STACK
        ARGFRAME IOVERLAY, 0, STATIC
        ARGFRAME DOVERLAY, 0, STATIC
        FUNCALL APP_JOIN_DEAL_WITH, ZDP_MgmtPermitJoinReq
        LOCFRAME ISTACK, 0, STACK
        LOCFRAME PSTACK, 0, STACK
        LOCFRAME XSTACK, 19, STACK
        LOCFRAME IOVERLAY, 0, STATIC
        LOCFRAME DOVERLAY, 0, STATIC
        ARGFRAME ISTACK, 0, STACK
        ARGFRAME PSTACK, 0, STACK
        ARGFRAME XSTACK, 19, STACK
        ARGFRAME IOVERLAY, 0, STATIC
        ARGFRAME DOVERLAY, 0, STATIC
        FUNCALL APP_JOIN_DEAL_WITH, osal_nv_item_init
        LOCFRAME ISTACK, 0, STACK
        LOCFRAME PSTACK, 0, STACK
        LOCFRAME XSTACK, 21, STACK
        LOCFRAME IOVERLAY, 0, STATIC
        LOCFRAME DOVERLAY, 0, STATIC
        ARGFRAME ISTACK, 0, STACK
        ARGFRAME PSTACK, 0, STACK
        ARGFRAME XSTACK, 21, STACK
        ARGFRAME IOVERLAY, 0, STATIC
        ARGFRAME DOVERLAY, 0, STATIC
        FUNCALL APP_JOIN_DEAL_WITH, osal_nv_write
        LOCFRAME ISTACK, 0, STACK
        LOCFRAME PSTACK, 0, STACK
        LOCFRAME XSTACK, 23, STACK
        LOCFRAME IOVERLAY, 0, STATIC
        LOCFRAME DOVERLAY, 0, STATIC
        ARGFRAME ISTACK, 0, STACK
        ARGFRAME PSTACK, 0, STACK
        ARGFRAME XSTACK, 23, STACK
        ARGFRAME IOVERLAY, 0, STATIC
        ARGFRAME DOVERLAY, 0, STATIC
        FUNCALL APP_JOIN_DEAL_WITH, osal_start_timerEx
        LOCFRAME ISTACK, 0, STACK
        LOCFRAME PSTACK, 0, STACK
        LOCFRAME XSTACK, 19, STACK
        LOCFRAME IOVERLAY, 0, STATIC
        LOCFRAME DOVERLAY, 0, STATIC
        ARGFRAME ISTACK, 0, STACK
        ARGFRAME PSTACK, 0, STACK
        ARGFRAME XSTACK, 19, STACK
        ARGFRAME IOVERLAY, 0, STATIC
        ARGFRAME DOVERLAY, 0, STATIC
        MOV     A,#-0xa
        LCALL   ?BANKED_ENTER_XDATA
        CFI DPH0 load(1, XDATA, add(CFA_XSP16, literal(-1)))
        CFI DPL0 load(1, XDATA, add(CFA_XSP16, literal(-2)))
        CFI ?BRET_EXT load(1, XDATA, add(CFA_XSP16, literal(-3)))
        CFI ?RET_HIGH load(1, XDATA, add(CFA_XSP16, literal(-4)))
        CFI ?RET_LOW load(1, XDATA, add(CFA_XSP16, literal(-5)))
        CFI R7 load(1, XDATA, add(CFA_XSP16, literal(-6)))
        CFI V1 load(1, XDATA, add(CFA_XSP16, literal(-7)))
        CFI V0 load(1, XDATA, add(CFA_XSP16, literal(-8)))
        CFI VB load(1, XDATA, add(CFA_XSP16, literal(-9)))
        CFI R6 load(1, XDATA, add(CFA_XSP16, literal(-10)))
        CFI CFA_SP SP+0
        CFI CFA_XSP16 add(XSP16, 10)
        ; Saved register size: 10
        ; Auto size: 9
        MOV     A,#-0x9
        LCALL   ?ALLOC_XSTACK8
        CFI CFA_XSP16 add(XSP16, 19)
//  438   // ROUTER 只发送RS ENDDEVICE先发送RS后发送OS
//  439  if ( RTR_NWK_FLAG == 1)
        MOV     DPTR,#RTR_NWK_FLAG
        MOVX    A,@DPTR
        XRL     A,#0x1
        JNZ     ??APP_JOIN_DEAL_WITH_0
//  440  {
//  441    NLME_PermitJoiningRequest(0); 
        ; Setup parameters for call to function NLME_PermitJoiningRequest
        MOV     R1,#0x0
        LCALL   ??NLME_PermitJoiningRequest?relay
        MOV     A,R1
//  442    osal_start_timerEx( SampleApp_TaskID,ASSOCIA_MENTAIN_EVT, 60000 );//2011_10_22 暂时关闭此功能 测试                  
        ; Setup parameters for call to function osal_start_timerEx
        MOV     R4,#0x60
        MOV     R5,#-0x16
        MOV     R2,#0x2
        MOV     R3,#0x0
        MOV     DPTR,#SampleApp_TaskID
        MOVX    A,@DPTR
        MOV     R1,A
        LCALL   ??osal_start_timerEx?relay
        MOV     A,R1
//  443 
//  444  }
//  445  
//  446   osal_start_timerEx( SampleApp_TaskID,SAMPLEAPP_SEND_RS_EVT, 2000+ 5*(osal_rand() & 0x00FF) );//8S后再发送
??APP_JOIN_DEAL_WITH_0:
        ; Setup parameters for call to function osal_rand
        LCALL   ??osal_rand?relay
        MOV     ?V0 + 0,R2
        MOV     ?V0 + 1,R3
        MOV     R0,?V0 + 0
        MOV     R1,?V0 + 1
        ; Setup parameters for call to function osal_start_timerEx
        MOV     A,?V0 + 0
        ANL     A,#0xff
        MOV     R0,A
        MOV     A,?V0 + 1
        ANL     A,#0x0
        MOV     R1,A
        MOV     A,R0
        MOV     B,#0x5
        MUL     AB
        XCH     A,R0
        MOV     R2,B
        MOV     B,#0x0
        MUL     AB
        ADD     A,R2
        MOV     R2,A
        MOV     B,#0x5
        MOV     A,R1
        MUL     AB
        ADD     A,R2
        MOV     R1,A
        MOV     A,R0
        ADD     A,#-0x30
        MOV     R4,A
        MOV     A,R1
        ADDC    A,#0x7
        MOV     R5,A
        MOV     R2,#0x0
        MOV     R3,#0x40
        MOV     DPTR,#SampleApp_TaskID
        MOVX    A,@DPTR
        MOV     R1,A
        LCALL   ??osal_start_timerEx?relay
        MOV     A,R1
//  447   osal_start_timerEx( SampleApp_TaskID,SAMPLEAPP_SEND_NWKADDR_EVT, 8000+ 5*(osal_rand() & 0x00FF) );//8S后再发送
        ; Setup parameters for call to function osal_rand
        LCALL   ??osal_rand?relay
        MOV     ?V0 + 0,R2
        MOV     ?V0 + 1,R3
        MOV     R0,?V0 + 0
        MOV     R1,?V0 + 1
        ; Setup parameters for call to function osal_start_timerEx
        MOV     A,?V0 + 0
        ANL     A,#0xff
        MOV     R0,A
        MOV     A,?V0 + 1
        ANL     A,#0x0
        MOV     R1,A
        MOV     A,R0
        MOV     B,#0x5
        MUL     AB
        XCH     A,R0
        MOV     R2,B
        MOV     B,#0x0
        MUL     AB
        ADD     A,R2
        MOV     R2,A
        MOV     B,#0x5
        MOV     A,R1
        MUL     AB
        ADD     A,R2
        MOV     R1,A
        MOV     A,R0
        ADD     A,#0x40
        MOV     R4,A
        MOV     A,R1
        ADDC    A,#0x1f
        MOV     R5,A
        MOV     R2,#0x4
        MOV     R3,#0x0
        MOV     DPTR,#SampleApp_TaskID
        MOVX    A,@DPTR
        MOV     R1,A
        LCALL   ??osal_start_timerEx?relay
        MOV     A,R1
//  448 
//  449   
//  450   if(ZDO_FIRST_join_flag == 1)
        MOV     DPTR,#ZDO_FIRST_join_flag
        MOVX    A,@DPTR
        XRL     A,#0x1
        JNZ     ??APP_JOIN_DEAL_WITH_1
//  451   { 
//  452     NLME_PermitJoiningRequest(180);
        ; Setup parameters for call to function NLME_PermitJoiningRequest
        MOV     R1,#-0x4c
        LCALL   ??NLME_PermitJoiningRequest?relay
        MOV     A,R1
//  453     ZDO_FIRST_join_flag = 0;
        MOV     DPTR,#ZDO_FIRST_join_flag
        MOV     A,#0x0
        MOVX    @DPTR,A
//  454     zAddrType_t dstAddr;
//  455     dstAddr.addrMode = AddrBroadcast;
        MOV     A,#0x8
        LCALL   ?XSTACK_DISP0_8
        MOV     A,#0xf
        MOVX    @DPTR,A
//  456     dstAddr.addr.shortAddr = 0XFFFC;   // Coordinator makes the match
        MOV     DPL,?XSP + 0
        MOV     DPH,?XSP + 1
        MOV     A,#-0x4
        MOVX    @DPTR,A
        INC     DPTR
        MOV     A,#-0x1
        MOVX    @DPTR,A
//  457     //ZDP_MgmtPermitJoinReq( &dstAddr, 180, 1, 0);
//  458     ZDP_MgmtPermitJoinReq( &dstAddr, 180, 0, 0);
        ; Setup parameters for call to function ZDP_MgmtPermitJoinReq
        MOV     R5,#0x0
        MOV     R4,#0x0
        MOV     R1,#-0x4c
        MOV     DPL,?XSP + 0
        MOV     DPH,?XSP + 1
        MOV     R2,DPL
        MOV     R3,DPH
        LCALL   ??ZDP_MgmtPermitJoinReq?relay
        MOV     A,R1
//  459     
//  460     Join_isset_flag = 0;
        MOV     DPTR,#Join_isset_flag
        MOV     A,#0x0
        MOVX    @DPTR,A
//  461     osal_nv_item_init(ZCD_NV_JOIN_ISSET_FLAG, 1, &Join_isset_flag);  // 判断是否为通过按键控制的入网机制
        ; Setup parameters for call to function osal_nv_item_init
        MOV     ?V0 + 0,#Join_isset_flag & 0xff
        MOV     ?V0 + 1,#(Join_isset_flag >> 8) & 0xff
        MOV     R0,#?V0 + 0
        LCALL   ?PUSH_XSTACK_I_TWO
        CFI CFA_XSP16 add(XSP16, 21)
        MOV     R4,#0x1
        MOV     R5,#0x0
        MOV     R2,#0x38
        MOV     R3,#0x4
        LCALL   ??osal_nv_item_init?relay
        MOV     A,#0x2
        LCALL   ?DEALLOC_XSTACK8
        CFI CFA_XSP16 add(XSP16, 19)
        MOV     A,R1
//  462     osal_nv_write(ZCD_NV_JOIN_ISSET_FLAG, 0, 1, &Join_isset_flag);
        ; Setup parameters for call to function osal_nv_write
        MOV     ?V0 + 0,#Join_isset_flag & 0xff
        MOV     ?V0 + 1,#(Join_isset_flag >> 8) & 0xff
        MOV     R0,#?V0 + 0
        LCALL   ?PUSH_XSTACK_I_TWO
        CFI CFA_XSP16 add(XSP16, 21)
        MOV     ?V0 + 0,#0x1
        MOV     ?V0 + 1,#0x0
        MOV     R0,#?V0 + 0
        LCALL   ?PUSH_XSTACK_I_TWO
        CFI CFA_XSP16 add(XSP16, 23)
        MOV     R4,#0x0
        MOV     R5,#0x0
        MOV     R2,#0x38
        MOV     R3,#0x4
        LCALL   ??osal_nv_write?relay
        MOV     A,#0x4
        LCALL   ?DEALLOC_XSTACK8
        CFI CFA_XSP16 add(XSP16, 19)
        MOV     A,R1
//  463     
//  464   }
//  465   
//  466   osal_start_timerEx( SampleApp_TaskID, SAMPLEAPP_SEND_PERIODIC_MSG_EVT,30000 );//心跳信息 
??APP_JOIN_DEAL_WITH_1:
        ; Setup parameters for call to function osal_start_timerEx
        MOV     R4,#0x30
        MOV     R5,#0x75
        MOV     R2,#0x1
        MOV     R3,#0x0
        MOV     DPTR,#SampleApp_TaskID
        MOVX    A,@DPTR
        MOV     R1,A
        LCALL   ??osal_start_timerEx?relay
        MOV     A,R1
//  467 
//  468   
//  469   
//  470 }
        MOV     A,#0x9
        LCALL   ?DEALLOC_XSTACK8
        CFI CFA_XSP16 add(XSP16, 10)
        MOV     R7,#0x2
        LJMP    ?BANKED_LEAVE_XDATA
        CFI EndBlock cfiBlock5
//  471 
//  472 
//  473 

        RSEG BANKED_CODE:CODE:NOROOT(0)
//  474 void APP_JOIN_START_EVT(void)
APP_JOIN_START_EVT:
        CFI Block cfiBlock6 Using cfiCommon0
        CFI Function APP_JOIN_START_EVT
        CODE
//  475 {
        FUNCALL APP_JOIN_START_EVT, zb_ReadConfiguration
        LOCFRAME ISTACK, 2, STACK
        LOCFRAME PSTACK, 0, STACK
        LOCFRAME XSTACK, 1, STACK
        LOCFRAME IOVERLAY, 0, STATIC
        LOCFRAME DOVERLAY, 0, STATIC
        ARGFRAME ISTACK, 2, STACK
        ARGFRAME PSTACK, 0, STACK
        ARGFRAME XSTACK, 1, STACK
        ARGFRAME IOVERLAY, 0, STATIC
        ARGFRAME DOVERLAY, 0, STATIC
        FUNCALL APP_JOIN_START_EVT, zb_WriteConfiguration
        LOCFRAME ISTACK, 2, STACK
        LOCFRAME PSTACK, 0, STACK
        LOCFRAME XSTACK, 1, STACK
        LOCFRAME IOVERLAY, 0, STATIC
        LOCFRAME DOVERLAY, 0, STATIC
        ARGFRAME ISTACK, 2, STACK
        ARGFRAME PSTACK, 0, STACK
        ARGFRAME XSTACK, 1, STACK
        ARGFRAME IOVERLAY, 0, STATIC
        ARGFRAME DOVERLAY, 0, STATIC
        FUNCALL APP_JOIN_START_EVT, Onboard_soft_reset
        LOCFRAME ISTACK, 2, STACK
        LOCFRAME PSTACK, 0, STACK
        LOCFRAME XSTACK, 1, STACK
        LOCFRAME IOVERLAY, 0, STATIC
        LOCFRAME DOVERLAY, 0, STATIC
        ARGFRAME ISTACK, 2, STACK
        ARGFRAME PSTACK, 0, STACK
        ARGFRAME XSTACK, 1, STACK
        ARGFRAME IOVERLAY, 0, STATIC
        ARGFRAME DOVERLAY, 0, STATIC
        FUNCALL APP_JOIN_START_EVT, osal_start_timerEx
        LOCFRAME ISTACK, 2, STACK
        LOCFRAME PSTACK, 0, STACK
        LOCFRAME XSTACK, 1, STACK
        LOCFRAME IOVERLAY, 0, STATIC
        LOCFRAME DOVERLAY, 0, STATIC
        ARGFRAME ISTACK, 2, STACK
        ARGFRAME PSTACK, 0, STACK
        ARGFRAME XSTACK, 1, STACK
        ARGFRAME IOVERLAY, 0, STATIC
        ARGFRAME DOVERLAY, 0, STATIC
        PUSH    DPL
        CFI DPL0 Frame(CFA_SP, 4)
        CFI CFA_SP SP+-4
        PUSH    DPH
        CFI DPH0 Frame(CFA_SP, 5)
        CFI CFA_SP SP+-5
        ; Saved register size: 2
        ; Auto size: 1
        MOV     A,#-0x1
        LCALL   ?ALLOC_XSTACK8
        CFI CFA_XSP16 add(XSP16, 1)
//  476   if(Minitue_join_delay_time == 0)
        MOV     DPTR,#Minitue_join_delay_time
        MOVX    A,@DPTR
        JNZ     ??APP_JOIN_START_EVT_0
//  477   {
//  478     uint8 startOptions = 0;
        MOV     DPL,?XSP + 0
        MOV     DPH,?XSP + 1
        MOV     A,#0x0
        MOVX    @DPTR,A
//  479     zb_ReadConfiguration( ZCD_NV_STARTUP_OPTION, sizeof(uint8), &startOptions );
        ; Setup parameters for call to function zb_ReadConfiguration
        MOV     DPL,?XSP + 0
        MOV     DPH,?XSP + 1
        MOV     R4,DPL
        MOV     R5,DPH
        MOV     R2,#0x1
        MOV     R1,#0x3
        LCALL   ??zb_ReadConfiguration?relay
        MOV     A,R1
//  480     startOptions = ZCD_STARTOPT_AUTO_START;
        MOV     DPL,?XSP + 0
        MOV     DPH,?XSP + 1
        MOV     A,#0x4
        MOVX    @DPTR,A
//  481     zb_WriteConfiguration( ZCD_NV_STARTUP_OPTION, sizeof(uint8), &startOptions );
        ; Setup parameters for call to function zb_WriteConfiguration
        MOV     DPL,?XSP + 0
        MOV     DPH,?XSP + 1
        MOV     R4,DPL
        MOV     R5,DPH
        MOV     R2,#0x1
        MOV     R1,#0x3
        LCALL   ??zb_WriteConfiguration?relay
        MOV     A,R1
//  482     SystemResetSoft(); 
        ; Setup parameters for call to function Onboard_soft_reset
        LCALL   Onboard_soft_reset & 0xFFFF
        SJMP    ??APP_JOIN_START_EVT_1
//  483     
//  484   }
//  485   
//  486   else 
//  487   {
//  488     Minitue_join_delay_time--;
??APP_JOIN_START_EVT_0:
        MOV     DPTR,#Minitue_join_delay_time
        MOVX    A,@DPTR
        ADD     A,#-0x1
        MOVX    @DPTR,A
//  489     osal_start_timerEx( SampleApp_TaskID, NEW_JOIN_ROLE_EVT, 60000);
        ; Setup parameters for call to function osal_start_timerEx
        MOV     R4,#0x60
        MOV     R5,#-0x16
        MOV     R2,#0x20
        MOV     R3,#0x0
        MOV     DPTR,#SampleApp_TaskID
        MOVX    A,@DPTR
        MOV     R1,A
        LCALL   ??osal_start_timerEx?relay
        MOV     A,R1
//  490   }
//  491   
//  492 }
??APP_JOIN_START_EVT_1:
        MOV     A,#0x1
        LCALL   ?DEALLOC_XSTACK8
        CFI CFA_XSP16 XSP16+0
        POP     DPH
        CFI DPH0 SameValue
        CFI CFA_SP SP+-4
        POP     DPL
        CFI DPL0 SameValue
        CFI CFA_SP SP+-3
        LJMP    ?BRET
        CFI EndBlock cfiBlock6
//  493 
//  494 
//  495 

        RSEG BANKED_CODE:CODE:NOROOT(0)
//  496 void SampleApp_SendNwkaddrMessage(uint8 type1_id,uint8 type2_id)
SampleApp_SendNwkaddrMessage:
        CFI Block cfiBlock7 Using cfiCommon0
        CFI Function SampleApp_SendNwkaddrMessage
        CODE
//  497 {
        FUNCALL SampleApp_SendNwkaddrMessage, SampleApp_GetShortAddr
        LOCFRAME ISTACK, 0, STACK
        LOCFRAME PSTACK, 0, STACK
        LOCFRAME XSTACK, 42, STACK
        LOCFRAME IOVERLAY, 0, STATIC
        LOCFRAME DOVERLAY, 0, STATIC
        ARGFRAME ISTACK, 0, STACK
        ARGFRAME PSTACK, 0, STACK
        ARGFRAME XSTACK, 42, STACK
        ARGFRAME IOVERLAY, 0, STATIC
        ARGFRAME DOVERLAY, 0, STATIC
        FUNCALL SampleApp_SendNwkaddrMessage, osal_mem_free
        LOCFRAME ISTACK, 0, STACK
        LOCFRAME PSTACK, 0, STACK
        LOCFRAME XSTACK, 42, STACK
        LOCFRAME IOVERLAY, 0, STATIC
        LOCFRAME DOVERLAY, 0, STATIC
        ARGFRAME ISTACK, 0, STACK
        ARGFRAME PSTACK, 0, STACK
        ARGFRAME XSTACK, 42, STACK
        ARGFRAME IOVERLAY, 0, STATIC
        ARGFRAME DOVERLAY, 0, STATIC
        FUNCALL SampleApp_SendNwkaddrMessage, SampleApp_GetExtendAddr
        LOCFRAME ISTACK, 0, STACK
        LOCFRAME PSTACK, 0, STACK
        LOCFRAME XSTACK, 42, STACK
        LOCFRAME IOVERLAY, 0, STATIC
        LOCFRAME DOVERLAY, 0, STATIC
        ARGFRAME ISTACK, 0, STACK
        ARGFRAME PSTACK, 0, STACK
        ARGFRAME XSTACK, 42, STACK
        ARGFRAME IOVERLAY, 0, STATIC
        ARGFRAME DOVERLAY, 0, STATIC
        FUNCALL SampleApp_SendNwkaddrMessage, osal_mem_free
        LOCFRAME ISTACK, 0, STACK
        LOCFRAME PSTACK, 0, STACK
        LOCFRAME XSTACK, 42, STACK
        LOCFRAME IOVERLAY, 0, STATIC
        LOCFRAME DOVERLAY, 0, STATIC
        ARGFRAME ISTACK, 0, STACK
        ARGFRAME PSTACK, 0, STACK
        ARGFRAME XSTACK, 42, STACK
        ARGFRAME IOVERLAY, 0, STATIC
        ARGFRAME DOVERLAY, 0, STATIC
        FUNCALL SampleApp_SendNwkaddrMessage, NLME_GetCoordShortAddr
        LOCFRAME ISTACK, 0, STACK
        LOCFRAME PSTACK, 0, STACK
        LOCFRAME XSTACK, 42, STACK
        LOCFRAME IOVERLAY, 0, STATIC
        LOCFRAME DOVERLAY, 0, STATIC
        ARGFRAME ISTACK, 0, STACK
        ARGFRAME PSTACK, 0, STACK
        ARGFRAME XSTACK, 42, STACK
        ARGFRAME IOVERLAY, 0, STATIC
        ARGFRAME DOVERLAY, 0, STATIC
        FUNCALL SampleApp_SendNwkaddrMessage, AF_DataRequest
        LOCFRAME ISTACK, 0, STACK
        LOCFRAME PSTACK, 0, STACK
        LOCFRAME XSTACK, 51, STACK
        LOCFRAME IOVERLAY, 0, STATIC
        LOCFRAME DOVERLAY, 0, STATIC
        ARGFRAME ISTACK, 0, STACK
        ARGFRAME PSTACK, 0, STACK
        ARGFRAME XSTACK, 51, STACK
        ARGFRAME IOVERLAY, 0, STATIC
        ARGFRAME DOVERLAY, 0, STATIC
        MOV     A,#-0x12
        LCALL   ?BANKED_ENTER_XDATA
        CFI DPH0 load(1, XDATA, add(CFA_XSP16, literal(-1)))
        CFI DPL0 load(1, XDATA, add(CFA_XSP16, literal(-2)))
        CFI ?BRET_EXT load(1, XDATA, add(CFA_XSP16, literal(-3)))
        CFI ?RET_HIGH load(1, XDATA, add(CFA_XSP16, literal(-4)))
        CFI ?RET_LOW load(1, XDATA, add(CFA_XSP16, literal(-5)))
        CFI R7 load(1, XDATA, add(CFA_XSP16, literal(-6)))
        CFI V9 load(1, XDATA, add(CFA_XSP16, literal(-7)))
        CFI V8 load(1, XDATA, add(CFA_XSP16, literal(-8)))
        CFI V7 load(1, XDATA, add(CFA_XSP16, literal(-9)))
        CFI V6 load(1, XDATA, add(CFA_XSP16, literal(-10)))
        CFI V5 load(1, XDATA, add(CFA_XSP16, literal(-11)))
        CFI V4 load(1, XDATA, add(CFA_XSP16, literal(-12)))
        CFI V3 load(1, XDATA, add(CFA_XSP16, literal(-13)))
        CFI V2 load(1, XDATA, add(CFA_XSP16, literal(-14)))
        CFI V1 load(1, XDATA, add(CFA_XSP16, literal(-15)))
        CFI V0 load(1, XDATA, add(CFA_XSP16, literal(-16)))
        CFI VB load(1, XDATA, add(CFA_XSP16, literal(-17)))
        CFI R6 load(1, XDATA, add(CFA_XSP16, literal(-18)))
        CFI CFA_SP SP+0
        CFI CFA_XSP16 add(XSP16, 18)
        ; Saved register size: 18
        ; Auto size: 24
        MOV     A,#-0x18
        LCALL   ?ALLOC_XSTACK8
        CFI CFA_XSP16 add(XSP16, 42)
        MOV     ?V0 + 6,R1
        MOV     ?V0 + 5,R2
//  498   
//  499   //  extern uint8 *shortddr_mem;
//  500   uint8 *Sample_myshort;
//  501   uint8 *Sample_extendaddr;
//  502   uint8 str[23];
//  503   uint8 i;
//  504   uint16 parent_short_adress=0;
        MOV     ?V0 + 0,#0x0
        MOV     ?V0 + 1,#0x0
//  505   
//  506   str[0]=type1_id;
        MOV     A,?V0 + 6
        MOV     A,#0x1
        LCALL   ?XSTACK_DISP0_8
        MOV     A,?V0 + 6
        MOVX    @DPTR,A
//  507   str[1]=type2_id;//
        MOV     A,?V0 + 5
        MOV     A,#0x2
        LCALL   ?XSTACK_DISP0_8
        MOV     A,?V0 + 5
        MOVX    @DPTR,A
//  508   
//  509   Sample_myshort=SampleApp_GetShortAddr();
        ; Setup parameters for call to function SampleApp_GetShortAddr
        LCALL   ??SampleApp_GetShortAddr?relay
        MOV     ?V0 + 8,R2
        MOV     ?V0 + 9,R3
        MOV     R6,?V0 + 8
        MOV     R7,?V0 + 9
//  510   str[2]=*Sample_myshort++;
        MOV     DPL,R6
        MOV     DPH,R7
        MOVX    A,@DPTR
        PUSH    A
        CFI CFA_SP SP+-1
        MOV     A,#0x3
        LCALL   ?XSTACK_DISP0_8
        POP     A
        CFI CFA_SP SP+0
        MOVX    @DPTR,A
        MOV     DPL,R6
        MOV     DPH,R7
        INC     DPTR
        MOV     R6,DPL
        MOV     R7,DPH
//  511   str[3]=*Sample_myshort++;
        MOV     DPL,R6
        MOV     DPH,R7
        MOVX    A,@DPTR
        PUSH    A
        CFI CFA_SP SP+-1
        MOV     A,#0x4
        LCALL   ?XSTACK_DISP0_8
        POP     A
        CFI CFA_SP SP+0
        MOVX    @DPTR,A
        MOV     DPL,R6
        MOV     DPH,R7
        INC     DPTR
        MOV     R6,DPL
        MOV     R7,DPH
//  512   str[4]=*Sample_myshort++;
        MOV     DPL,R6
        MOV     DPH,R7
        MOVX    A,@DPTR
        PUSH    A
        CFI CFA_SP SP+-1
        MOV     A,#0x5
        LCALL   ?XSTACK_DISP0_8
        POP     A
        CFI CFA_SP SP+0
        MOVX    @DPTR,A
        MOV     DPL,R6
        MOV     DPH,R7
        INC     DPTR
        MOV     R6,DPL
        MOV     R7,DPH
//  513   str[5]=*Sample_myshort;
        MOV     DPL,R6
        MOV     DPH,R7
        MOVX    A,@DPTR
        PUSH    A
        CFI CFA_SP SP+-1
        MOV     A,#0x6
        LCALL   ?XSTACK_DISP0_8
        POP     A
        CFI CFA_SP SP+0
        MOVX    @DPTR,A
//  514   osal_mem_free( shortddr_mem );
        ; Setup parameters for call to function osal_mem_free
        MOV     DPTR,#shortddr_mem
        MOVX    A,@DPTR
        MOV     R2,A
        INC     DPTR
        MOVX    A,@DPTR
        MOV     R3,A
        LCALL   ??osal_mem_free?relay
//  515   
//  516   Sample_extendaddr=SampleApp_GetExtendAddr();
        ; Setup parameters for call to function SampleApp_GetExtendAddr
        LCALL   ??SampleApp_GetExtendAddr?relay
        MOV     ?V0 + 8,R2
        MOV     ?V0 + 9,R3
        MOV     ?V0 + 2,?V0 + 8
        MOV     ?V0 + 3,?V0 + 9
//  517   for(i=0;i<16;i++)
        MOV     ?V0 + 4,#0x0
??SampleApp_SendNwkaddrMessage_0:
        MOV     A,?V0 + 4
        CLR     C
        SUBB    A,#0x10
        JNC     ??SampleApp_SendNwkaddrMessage_1
//  518   {
//  519     str[i+6]=*Sample_extendaddr++;
        MOV     DPL,?V0 + 2
        MOV     DPH,?V0 + 3
        MOVX    A,@DPTR
        PUSH    A
        CFI CFA_SP SP+-1
        MOV     ?V0 + 8,?V0 + 4
        MOV     ?V0 + 9,#0x0
        MOV     A,#0x1
        LCALL   ?XSTACK_DISP0_8
        MOV     A,DPL
        ADD     A,?V0 + 8
        MOV     DPL,A
        MOV     A,DPH
        ADDC    A,?V0 + 9
        MOV     DPH,A
        INC     DPTR
        INC     DPTR
        INC     DPTR
        INC     DPTR
        INC     DPTR
        INC     DPTR
        POP     A
        CFI CFA_SP SP+0
        MOVX    @DPTR,A
        MOV     DPL,?V0 + 2
        MOV     DPH,?V0 + 3
        INC     DPTR
        MOV     ?V0 + 2,DPL
        MOV     ?V0 + 3,DPH
//  520   }
        INC     ?V0 + 4
        SJMP    ??SampleApp_SendNwkaddrMessage_0
//  521   osal_mem_free( extendaddr_mem );
??SampleApp_SendNwkaddrMessage_1:
        ; Setup parameters for call to function osal_mem_free
        MOV     DPTR,#extendaddr_mem
        MOVX    A,@DPTR
        MOV     R2,A
        INC     DPTR
        MOVX    A,@DPTR
        MOV     R3,A
        LCALL   ??osal_mem_free?relay
//  522   
//  523     if(RTR_NWK_FLAG==1)
        MOV     DPTR,#RTR_NWK_FLAG
        MOVX    A,@DPTR
        XRL     A,#0x1
        JNZ     ??SampleApp_SendNwkaddrMessage_2
//  524     {
//  525       parent_short_adress=0X0000;
        MOV     ?V0 + 0,#0x0
        MOV     ?V0 + 1,#0x0
        SJMP    ??SampleApp_SendNwkaddrMessage_3
//  526     }   
//  527     else
//  528     {
//  529       parent_short_adress= NLME_GetCoordShortAddr();
??SampleApp_SendNwkaddrMessage_2:
        ; Setup parameters for call to function NLME_GetCoordShortAddr
        LCALL   ??NLME_GetCoordShortAddr?relay
        MOV     ?V0 + 8,R2
        MOV     ?V0 + 9,R3
        MOV     ?V0 + 0,?V0 + 8
        MOV     ?V0 + 1,?V0 + 9
//  530     }  
//  531     
//  532   SampleApp_Addr_SendData_DstAddr.addrMode = (afAddrMode_t)Addr16Bit;
??SampleApp_SendNwkaddrMessage_3:
        MOV     DPTR,#SampleApp_Addr_SendData_DstAddr + 8
        MOV     A,#0x2
        MOVX    @DPTR,A
//  533   SampleApp_Addr_SendData_DstAddr.endPoint = SAMPLEAPP_ENDPOINT;
        MOV     DPTR,#SampleApp_Addr_SendData_DstAddr + 9
        MOV     A,#0x14
        MOVX    @DPTR,A
//  534   SampleApp_Addr_SendData_DstAddr.addr.shortAddr = parent_short_adress;
        MOV     DPTR,#SampleApp_Addr_SendData_DstAddr
        MOV     A,?V0 + 0
        MOVX    @DPTR,A
        INC     DPTR
        MOV     A,?V0 + 1
        MOVX    @DPTR,A
//  535   
//  536   /*修改完成*/
//  537   if ( AF_DataRequest( &SampleApp_Addr_SendData_DstAddr,
//  538                       (endPointDesc_t *)&SampleApp_epDesc,
//  539                       SAMPLEAPP_ADDR_CLUSTERID ,
//  540                       23, str,
//  541                       &SampleApp_TransID, 
//  542                       AF_DISCV_ROUTE, 
//  543                       AF_DEFAULT_RADIUS ) == afStatus_SUCCESS )
        ; Setup parameters for call to function AF_DataRequest
        MOV     ?V0 + 7,#0xf
        MOV     R0,#?V0 + 7
        LCALL   ?PUSH_XSTACK_I_ONE
        CFI CFA_XSP16 add(XSP16, 43)
        MOV     ?V0 + 8,#SampleApp_TransID & 0xff
        MOV     ?V0 + 9,#(SampleApp_TransID >> 8) & 0xff
        MOV     R0,#?V0 + 8
        LCALL   ?PUSH_XSTACK_I_TWO
        CFI CFA_XSP16 add(XSP16, 45)
        MOV     A,#0x4
        LCALL   ?XSTACK_DISP0_8
        MOV     ?V0 + 8,DPL
        MOV     ?V0 + 9,DPH
        MOV     R0,#?V0 + 8
        LCALL   ?PUSH_XSTACK_I_TWO
        CFI CFA_XSP16 add(XSP16, 47)
        MOV     ?V0 + 8,#0x17
        MOV     ?V0 + 9,#0x0
        MOV     R0,#?V0 + 8
        LCALL   ?PUSH_XSTACK_I_TWO
        CFI CFA_XSP16 add(XSP16, 49)
        MOV     ?V0 + 8,#0x3
        MOV     ?V0 + 9,#0x0
        MOV     R0,#?V0 + 8
        LCALL   ?PUSH_XSTACK_I_TWO
        CFI CFA_XSP16 add(XSP16, 51)
        MOV     R1,#0x20
        MOV     R4,#SampleApp_epDesc & 0xff
        MOV     R5,#(SampleApp_epDesc >> 8) & 0xff
        MOV     R2,#SampleApp_Addr_SendData_DstAddr & 0xff
        MOV     R3,#(SampleApp_Addr_SendData_DstAddr >> 8) & 0xff
        LCALL   ??AF_DataRequest?relay
        MOV     A,#0x9
        LCALL   ?DEALLOC_XSTACK8
        CFI CFA_XSP16 add(XSP16, 42)
        MOV     A,R1
        MOV     DPL,?XSP + 0
        MOV     DPH,?XSP + 1
        MOVX    @DPTR,A
//  544   {
//  545   }
//  546   else
//  547   {   
//  548   }
//  549   
//  550 }
        MOV     A,#0x18
        LCALL   ?DEALLOC_XSTACK8
        CFI CFA_XSP16 add(XSP16, 18)
        MOV     R7,#0xa
        LJMP    ?BANKED_LEAVE_XDATA
        CFI EndBlock cfiBlock7
//  551 
//  552 
//  553 
//  554 
//  555 
//  556 
//  557 

        RSEG BANKED_CODE:CODE:NOROOT(0)
//  558 void APPLY_TO_JOIN_OF_KEY(void)
APPLY_TO_JOIN_OF_KEY:
        CFI Block cfiBlock8 Using cfiCommon0
        CFI Function APPLY_TO_JOIN_OF_KEY
        CODE
//  559 {
        FUNCALL APPLY_TO_JOIN_OF_KEY, zb_ReadConfiguration
        LOCFRAME ISTACK, 2, STACK
        LOCFRAME PSTACK, 0, STACK
        LOCFRAME XSTACK, 1, STACK
        LOCFRAME IOVERLAY, 0, STATIC
        LOCFRAME DOVERLAY, 0, STATIC
        ARGFRAME ISTACK, 2, STACK
        ARGFRAME PSTACK, 0, STACK
        ARGFRAME XSTACK, 1, STACK
        ARGFRAME IOVERLAY, 0, STATIC
        ARGFRAME DOVERLAY, 0, STATIC
        FUNCALL APPLY_TO_JOIN_OF_KEY, zb_WriteConfiguration
        LOCFRAME ISTACK, 2, STACK
        LOCFRAME PSTACK, 0, STACK
        LOCFRAME XSTACK, 1, STACK
        LOCFRAME IOVERLAY, 0, STATIC
        LOCFRAME DOVERLAY, 0, STATIC
        ARGFRAME ISTACK, 2, STACK
        ARGFRAME PSTACK, 0, STACK
        ARGFRAME XSTACK, 1, STACK
        ARGFRAME IOVERLAY, 0, STATIC
        ARGFRAME DOVERLAY, 0, STATIC
        FUNCALL APPLY_TO_JOIN_OF_KEY, osal_start_timerEx
        LOCFRAME ISTACK, 2, STACK
        LOCFRAME PSTACK, 0, STACK
        LOCFRAME XSTACK, 1, STACK
        LOCFRAME IOVERLAY, 0, STATIC
        LOCFRAME DOVERLAY, 0, STATIC
        ARGFRAME ISTACK, 2, STACK
        ARGFRAME PSTACK, 0, STACK
        ARGFRAME XSTACK, 1, STACK
        ARGFRAME IOVERLAY, 0, STATIC
        ARGFRAME DOVERLAY, 0, STATIC
        PUSH    DPL
        CFI DPL0 Frame(CFA_SP, 4)
        CFI CFA_SP SP+-4
        PUSH    DPH
        CFI DPH0 Frame(CFA_SP, 5)
        CFI CFA_SP SP+-5
        ; Saved register size: 2
        ; Auto size: 1
        MOV     A,#-0x1
        LCALL   ?ALLOC_XSTACK8
        CFI CFA_XSP16 add(XSP16, 1)
//  560   uint8 startOptions;
//  561   zb_ReadConfiguration( ZCD_NV_STARTUP_OPTION, sizeof(uint8), &startOptions );
        ; Setup parameters for call to function zb_ReadConfiguration
        MOV     DPL,?XSP + 0
        MOV     DPH,?XSP + 1
        MOV     R4,DPL
        MOV     R5,DPH
        MOV     R2,#0x1
        MOV     R1,#0x3
        LCALL   ??zb_ReadConfiguration?relay
        MOV     A,R1
//  562   startOptions = ZCD_STARTOPT_AUTO_START;
        MOV     DPL,?XSP + 0
        MOV     DPH,?XSP + 1
        MOV     A,#0x4
        MOVX    @DPTR,A
//  563   zb_WriteConfiguration( ZCD_NV_STARTUP_OPTION, sizeof(uint8), &startOptions );
        ; Setup parameters for call to function zb_WriteConfiguration
        MOV     DPL,?XSP + 0
        MOV     DPH,?XSP + 1
        MOV     R4,DPL
        MOV     R5,DPH
        MOV     R2,#0x1
        MOV     R1,#0x3
        LCALL   ??zb_WriteConfiguration?relay
        MOV     A,R1
//  564  // SystemResetSoft();  
//  565   
//  566   //HAL_SYSTEM_RESET();   
//  567    osal_start_timerEx( SampleApp_TaskID,SAMPLEAPP_RESTORE_EVT,1000 );
        ; Setup parameters for call to function osal_start_timerEx
        MOV     R4,#-0x18
        MOV     R5,#0x3
        MOV     R2,#0x10
        MOV     R3,#0x0
        MOV     DPTR,#SampleApp_TaskID
        MOVX    A,@DPTR
        MOV     R1,A
        LCALL   ??osal_start_timerEx?relay
        MOV     A,R1
//  568   
//  569 }
        MOV     A,#0x1
        LCALL   ?DEALLOC_XSTACK8
        CFI CFA_XSP16 XSP16+0
        POP     DPH
        CFI DPH0 SameValue
        CFI CFA_SP SP+-4
        POP     DPL
        CFI DPL0 SameValue
        CFI CFA_SP SP+-3
        LJMP    ?BRET
        CFI EndBlock cfiBlock8
//  570 

        RSEG BANKED_CODE:CODE:NOROOT(0)
//  571 void RESTORE_TO_FACTORY(void)
RESTORE_TO_FACTORY:
        CFI Block cfiBlock9 Using cfiCommon0
        CFI Function RESTORE_TO_FACTORY
        CODE
//  572 {
        FUNCALL RESTORE_TO_FACTORY, SampleApp_GetShortAddr
        LOCFRAME ISTACK, 0, STACK
        LOCFRAME PSTACK, 0, STACK
        LOCFRAME XSTACK, 24, STACK
        LOCFRAME IOVERLAY, 0, STATIC
        LOCFRAME DOVERLAY, 0, STATIC
        ARGFRAME ISTACK, 0, STACK
        ARGFRAME PSTACK, 0, STACK
        ARGFRAME XSTACK, 24, STACK
        ARGFRAME IOVERLAY, 0, STATIC
        ARGFRAME DOVERLAY, 0, STATIC
        FUNCALL RESTORE_TO_FACTORY, AF_DataRequest
        LOCFRAME ISTACK, 0, STACK
        LOCFRAME PSTACK, 0, STACK
        LOCFRAME XSTACK, 33, STACK
        LOCFRAME IOVERLAY, 0, STATIC
        LOCFRAME DOVERLAY, 0, STATIC
        ARGFRAME ISTACK, 0, STACK
        ARGFRAME PSTACK, 0, STACK
        ARGFRAME XSTACK, 33, STACK
        ARGFRAME IOVERLAY, 0, STATIC
        ARGFRAME DOVERLAY, 0, STATIC
        FUNCALL RESTORE_TO_FACTORY, osal_nv_item_init
        LOCFRAME ISTACK, 0, STACK
        LOCFRAME PSTACK, 0, STACK
        LOCFRAME XSTACK, 26, STACK
        LOCFRAME IOVERLAY, 0, STATIC
        LOCFRAME DOVERLAY, 0, STATIC
        ARGFRAME ISTACK, 0, STACK
        ARGFRAME PSTACK, 0, STACK
        ARGFRAME XSTACK, 26, STACK
        ARGFRAME IOVERLAY, 0, STATIC
        ARGFRAME DOVERLAY, 0, STATIC
        FUNCALL RESTORE_TO_FACTORY, osal_nv_write
        LOCFRAME ISTACK, 0, STACK
        LOCFRAME PSTACK, 0, STACK
        LOCFRAME XSTACK, 28, STACK
        LOCFRAME IOVERLAY, 0, STATIC
        LOCFRAME DOVERLAY, 0, STATIC
        ARGFRAME ISTACK, 0, STACK
        ARGFRAME PSTACK, 0, STACK
        ARGFRAME XSTACK, 28, STACK
        ARGFRAME IOVERLAY, 0, STATIC
        ARGFRAME DOVERLAY, 0, STATIC
        FUNCALL RESTORE_TO_FACTORY, osal_nv_item_init
        LOCFRAME ISTACK, 0, STACK
        LOCFRAME PSTACK, 0, STACK
        LOCFRAME XSTACK, 26, STACK
        LOCFRAME IOVERLAY, 0, STATIC
        LOCFRAME DOVERLAY, 0, STATIC
        ARGFRAME ISTACK, 0, STACK
        ARGFRAME PSTACK, 0, STACK
        ARGFRAME XSTACK, 26, STACK
        ARGFRAME IOVERLAY, 0, STATIC
        ARGFRAME DOVERLAY, 0, STATIC
        FUNCALL RESTORE_TO_FACTORY, osal_nv_write
        LOCFRAME ISTACK, 0, STACK
        LOCFRAME PSTACK, 0, STACK
        LOCFRAME XSTACK, 28, STACK
        LOCFRAME IOVERLAY, 0, STATIC
        LOCFRAME DOVERLAY, 0, STATIC
        ARGFRAME ISTACK, 0, STACK
        ARGFRAME PSTACK, 0, STACK
        ARGFRAME XSTACK, 28, STACK
        ARGFRAME IOVERLAY, 0, STATIC
        ARGFRAME DOVERLAY, 0, STATIC
        FUNCALL RESTORE_TO_FACTORY, osal_nv_item_init
        LOCFRAME ISTACK, 0, STACK
        LOCFRAME PSTACK, 0, STACK
        LOCFRAME XSTACK, 26, STACK
        LOCFRAME IOVERLAY, 0, STATIC
        LOCFRAME DOVERLAY, 0, STATIC
        ARGFRAME ISTACK, 0, STACK
        ARGFRAME PSTACK, 0, STACK
        ARGFRAME XSTACK, 26, STACK
        ARGFRAME IOVERLAY, 0, STATIC
        ARGFRAME DOVERLAY, 0, STATIC
        FUNCALL RESTORE_TO_FACTORY, osal_nv_write
        LOCFRAME ISTACK, 0, STACK
        LOCFRAME PSTACK, 0, STACK
        LOCFRAME XSTACK, 28, STACK
        LOCFRAME IOVERLAY, 0, STATIC
        LOCFRAME DOVERLAY, 0, STATIC
        ARGFRAME ISTACK, 0, STACK
        ARGFRAME PSTACK, 0, STACK
        ARGFRAME XSTACK, 28, STACK
        ARGFRAME IOVERLAY, 0, STATIC
        ARGFRAME DOVERLAY, 0, STATIC
        MOV     A,#-0xb
        LCALL   ?BANKED_ENTER_XDATA
        CFI DPH0 load(1, XDATA, add(CFA_XSP16, literal(-1)))
        CFI DPL0 load(1, XDATA, add(CFA_XSP16, literal(-2)))
        CFI ?BRET_EXT load(1, XDATA, add(CFA_XSP16, literal(-3)))
        CFI ?RET_HIGH load(1, XDATA, add(CFA_XSP16, literal(-4)))
        CFI ?RET_LOW load(1, XDATA, add(CFA_XSP16, literal(-5)))
        CFI R7 load(1, XDATA, add(CFA_XSP16, literal(-6)))
        CFI V2 load(1, XDATA, add(CFA_XSP16, literal(-7)))
        CFI V1 load(1, XDATA, add(CFA_XSP16, literal(-8)))
        CFI V0 load(1, XDATA, add(CFA_XSP16, literal(-9)))
        CFI VB load(1, XDATA, add(CFA_XSP16, literal(-10)))
        CFI R6 load(1, XDATA, add(CFA_XSP16, literal(-11)))
        CFI CFA_SP SP+0
        CFI CFA_XSP16 add(XSP16, 11)
        ; Saved register size: 11
        ; Auto size: 13
        MOV     A,#-0xd
        LCALL   ?ALLOC_XSTACK8
        CFI CFA_XSP16 add(XSP16, 24)
//  573   uint8 startOptions;
//  574   startOptions=0;    
        MOV     DPL,?XSP + 0
        MOV     DPH,?XSP + 1
        MOV     A,#0x0
        MOVX    @DPTR,A
//  575   uint8 quit_str[12];
//  576   uint8 *Sample_Cmd_shorAddr;
//  577   Sample_Cmd_shorAddr=SampleApp_GetShortAddr();
        ; Setup parameters for call to function SampleApp_GetShortAddr
        LCALL   ??SampleApp_GetShortAddr?relay
        MOV     ?V0 + 0,R2
        MOV     ?V0 + 1,R3
        MOV     R6,?V0 + 0
        MOV     R7,?V0 + 1
//  578   quit_str[0]=*Sample_Cmd_shorAddr++;
        MOV     DPL,R6
        MOV     DPH,R7
        MOVX    A,@DPTR
        PUSH    A
        CFI CFA_SP SP+-1
        MOV     A,#0x1
        LCALL   ?XSTACK_DISP0_8
        POP     A
        CFI CFA_SP SP+0
        MOVX    @DPTR,A
        MOV     DPL,R6
        MOV     DPH,R7
        INC     DPTR
        MOV     R6,DPL
        MOV     R7,DPH
//  579   quit_str[1]=*Sample_Cmd_shorAddr++;
        MOV     DPL,R6
        MOV     DPH,R7
        MOVX    A,@DPTR
        PUSH    A
        CFI CFA_SP SP+-1
        MOV     A,#0x2
        LCALL   ?XSTACK_DISP0_8
        POP     A
        CFI CFA_SP SP+0
        MOVX    @DPTR,A
        MOV     DPL,R6
        MOV     DPH,R7
        INC     DPTR
        MOV     R6,DPL
        MOV     R7,DPH
//  580   quit_str[2]=*Sample_Cmd_shorAddr++;
        MOV     DPL,R6
        MOV     DPH,R7
        MOVX    A,@DPTR
        PUSH    A
        CFI CFA_SP SP+-1
        MOV     A,#0x3
        LCALL   ?XSTACK_DISP0_8
        POP     A
        CFI CFA_SP SP+0
        MOVX    @DPTR,A
        MOV     DPL,R6
        MOV     DPH,R7
        INC     DPTR
        MOV     R6,DPL
        MOV     R7,DPH
//  581   quit_str[3]=*Sample_Cmd_shorAddr;
        MOV     DPL,R6
        MOV     DPH,R7
        MOVX    A,@DPTR
        PUSH    A
        CFI CFA_SP SP+-1
        MOV     A,#0x4
        LCALL   ?XSTACK_DISP0_8
        POP     A
        CFI CFA_SP SP+0
        MOVX    @DPTR,A
//  582   quit_str[4]='/';
        MOV     A,#0x5
        LCALL   ?XSTACK_DISP0_8
        MOV     A,#0x2f
        MOVX    @DPTR,A
//  583   quit_str[5]='C';
        MOV     A,#0x6
        LCALL   ?XSTACK_DISP0_8
        MOV     A,#0x43
        MOVX    @DPTR,A
//  584   quit_str[6]='/';
        MOV     A,#0x7
        LCALL   ?XSTACK_DISP0_8
        MOV     A,#0x2f
        MOVX    @DPTR,A
//  585   quit_str[7]='U';
        MOV     A,#0x8
        LCALL   ?XSTACK_DISP0_8
        MOV     A,#0x55
        MOVX    @DPTR,A
//  586   quit_str[8]='U';
        MOV     A,#0x9
        LCALL   ?XSTACK_DISP0_8
        MOV     A,#0x55
        MOVX    @DPTR,A
//  587   quit_str[9]=0xA0;
        MOV     A,#0xa
        LCALL   ?XSTACK_DISP0_8
        MOV     A,#-0x60
        MOVX    @DPTR,A
//  588   quit_str[10]=0xBB;
        MOV     A,#0xb
        LCALL   ?XSTACK_DISP0_8
        MOV     A,#-0x45
        MOVX    @DPTR,A
//  589   quit_str[11]=0;
        MOV     A,#0xc
        LCALL   ?XSTACK_DISP0_8
        MOV     A,#0x0
        MOVX    @DPTR,A
//  590   SampleApp_SPI_SendCommand_DstAddr.addrMode = (afAddrMode_t)Addr16Bit;
        MOV     DPTR,#SampleApp_SPI_SendCommand_DstAddr + 8
        MOV     A,#0x2
        MOVX    @DPTR,A
//  591   SampleApp_SPI_SendCommand_DstAddr.endPoint = SAMPLEAPP_ENDPOINT;
        MOV     DPTR,#SampleApp_SPI_SendCommand_DstAddr + 9
        MOV     A,#0x14
        MOVX    @DPTR,A
//  592   SampleApp_SPI_SendCommand_DstAddr.addr.shortAddr = 0X0000;//发送给来的设备
        MOV     DPTR,#SampleApp_SPI_SendCommand_DstAddr
        MOV     A,#0x0
        MOVX    @DPTR,A
        INC     DPTR
        MOV     A,#0x0
        MOVX    @DPTR,A
//  593   if ( AF_DataRequest( &SampleApp_SPI_SendCommand_DstAddr,
//  594            (endPointDesc_t *)&SampleApp_epDesc,
//  595             SAMPLEAPP_COMMAND_CLUSTERID, //终端传过去，协调器处理了
//  596             12, quit_str,
//  597             &SampleApp_TransID, 
//  598             AF_DISCV_ROUTE, 
//  599             AF_DEFAULT_RADIUS ) == afStatus_SUCCESS )
        ; Setup parameters for call to function AF_DataRequest
        MOV     ?V0 + 0,#0xf
        MOV     R0,#?V0 + 0
        LCALL   ?PUSH_XSTACK_I_ONE
        CFI CFA_XSP16 add(XSP16, 25)
        MOV     ?V0 + 0,#SampleApp_TransID & 0xff
        MOV     ?V0 + 1,#(SampleApp_TransID >> 8) & 0xff
        MOV     R0,#?V0 + 0
        LCALL   ?PUSH_XSTACK_I_TWO
        CFI CFA_XSP16 add(XSP16, 27)
        MOV     A,#0x4
        LCALL   ?XSTACK_DISP0_8
        MOV     ?V0 + 0,DPL
        MOV     ?V0 + 1,DPH
        MOV     R0,#?V0 + 0
        LCALL   ?PUSH_XSTACK_I_TWO
        CFI CFA_XSP16 add(XSP16, 29)
        MOV     ?V0 + 0,#0xc
        MOV     ?V0 + 1,#0x0
        MOV     R0,#?V0 + 0
        LCALL   ?PUSH_XSTACK_I_TWO
        CFI CFA_XSP16 add(XSP16, 31)
        MOV     ?V0 + 0,#0x4
        MOV     ?V0 + 1,#0x0
        MOV     R0,#?V0 + 0
        LCALL   ?PUSH_XSTACK_I_TWO
        CFI CFA_XSP16 add(XSP16, 33)
        MOV     R1,#0x20
        MOV     R4,#SampleApp_epDesc & 0xff
        MOV     R5,#(SampleApp_epDesc >> 8) & 0xff
        MOV     R2,#SampleApp_SPI_SendCommand_DstAddr & 0xff
        MOV     R3,#(SampleApp_SPI_SendCommand_DstAddr >> 8) & 0xff
        LCALL   ??AF_DataRequest?relay
        MOV     A,#0x9
        LCALL   ?DEALLOC_XSTACK8
        CFI CFA_XSP16 add(XSP16, 24)
        MOV     A,R1
        MOV     ?V0 + 2,A
//  600   {
//  601   }
//  602   else
//  603   {
//  604   
//  605   }  
//  606   
//  607   osal_nv_item_init(ZCD_NV_STARTUP_OPTION, 1, &startOptions);    
        ; Setup parameters for call to function osal_nv_item_init
        MOV     DPL,?XSP + 0
        MOV     DPH,?XSP + 1
        MOV     ?V0 + 0,DPL
        MOV     ?V0 + 1,DPH
        MOV     R0,#?V0 + 0
        LCALL   ?PUSH_XSTACK_I_TWO
        CFI CFA_XSP16 add(XSP16, 26)
        MOV     R4,#0x1
        MOV     R5,#0x0
        MOV     R2,#0x3
        MOV     R3,#0x0
        LCALL   ??osal_nv_item_init?relay
        MOV     A,#0x2
        LCALL   ?DEALLOC_XSTACK8
        CFI CFA_XSP16 add(XSP16, 24)
        MOV     A,R1
//  608   startOptions |= ZCD_STARTOPT_DEFAULT_NETWORK_STATE;
        MOV     DPL,?XSP + 0
        MOV     DPH,?XSP + 1
        MOVX    A,@DPTR
        SETB    0xE0 /* A   */.1
        MOVX    @DPTR,A
//  609   startOptions &= ~ZCD_STARTOPT_AUTO_START;
        MOV     DPL,?XSP + 0
        MOV     DPH,?XSP + 1
        MOVX    A,@DPTR
        CLR     0xE0 /* A   */.2
        MOVX    @DPTR,A
//  610   osal_nv_write(ZCD_NV_STARTUP_OPTION, 0, 1, &startOptions); 
        ; Setup parameters for call to function osal_nv_write
        MOV     DPL,?XSP + 0
        MOV     DPH,?XSP + 1
        MOV     ?V0 + 0,DPL
        MOV     ?V0 + 1,DPH
        MOV     R0,#?V0 + 0
        LCALL   ?PUSH_XSTACK_I_TWO
        CFI CFA_XSP16 add(XSP16, 26)
        MOV     ?V0 + 0,#0x1
        MOV     ?V0 + 1,#0x0
        MOV     R0,#?V0 + 0
        LCALL   ?PUSH_XSTACK_I_TWO
        CFI CFA_XSP16 add(XSP16, 28)
        MOV     R4,#0x0
        MOV     R5,#0x0
        MOV     R2,#0x3
        MOV     R3,#0x0
        LCALL   ??osal_nv_write?relay
        MOV     A,#0x4
        LCALL   ?DEALLOC_XSTACK8
        CFI CFA_XSP16 add(XSP16, 24)
        MOV     A,R1
//  611   
//  612   Join_isset_flag  =1; 
        MOV     DPTR,#Join_isset_flag
        MOV     A,#0x1
        MOVX    @DPTR,A
//  613   osal_nv_item_init(ZCD_NV_JOIN_ISSET_FLAG, 1, &Join_isset_flag); 
        ; Setup parameters for call to function osal_nv_item_init
        MOV     ?V0 + 0,#Join_isset_flag & 0xff
        MOV     ?V0 + 1,#(Join_isset_flag >> 8) & 0xff
        MOV     R0,#?V0 + 0
        LCALL   ?PUSH_XSTACK_I_TWO
        CFI CFA_XSP16 add(XSP16, 26)
        MOV     R4,#0x1
        MOV     R5,#0x0
        MOV     R2,#0x38
        MOV     R3,#0x4
        LCALL   ??osal_nv_item_init?relay
        MOV     A,#0x2
        LCALL   ?DEALLOC_XSTACK8
        CFI CFA_XSP16 add(XSP16, 24)
        MOV     A,R1
//  614   osal_nv_write(ZCD_NV_JOIN_ISSET_FLAG, 0, 1, &Join_isset_flag);
        ; Setup parameters for call to function osal_nv_write
        MOV     ?V0 + 0,#Join_isset_flag & 0xff
        MOV     ?V0 + 1,#(Join_isset_flag >> 8) & 0xff
        MOV     R0,#?V0 + 0
        LCALL   ?PUSH_XSTACK_I_TWO
        CFI CFA_XSP16 add(XSP16, 26)
        MOV     ?V0 + 0,#0x1
        MOV     ?V0 + 1,#0x0
        MOV     R0,#?V0 + 0
        LCALL   ?PUSH_XSTACK_I_TWO
        CFI CFA_XSP16 add(XSP16, 28)
        MOV     R4,#0x0
        MOV     R5,#0x0
        MOV     R2,#0x38
        MOV     R3,#0x4
        LCALL   ??osal_nv_write?relay
        MOV     A,#0x4
        LCALL   ?DEALLOC_XSTACK8
        CFI CFA_XSP16 add(XSP16, 24)
        MOV     A,R1
//  615   
//  616   New_join_delay_time = 0xff;
        MOV     DPTR,#New_join_delay_time
        MOV     A,#-0x1
        MOVX    @DPTR,A
//  617   osal_nv_item_init(ZCD_NV_JOIN_START_TIME_VALUE, 1, &New_join_delay_time); 
        ; Setup parameters for call to function osal_nv_item_init
        MOV     ?V0 + 0,#New_join_delay_time & 0xff
        MOV     ?V0 + 1,#(New_join_delay_time >> 8) & 0xff
        MOV     R0,#?V0 + 0
        LCALL   ?PUSH_XSTACK_I_TWO
        CFI CFA_XSP16 add(XSP16, 26)
        MOV     R4,#0x1
        MOV     R5,#0x0
        MOV     R2,#0x35
        MOV     R3,#0x4
        LCALL   ??osal_nv_item_init?relay
        MOV     A,#0x2
        LCALL   ?DEALLOC_XSTACK8
        CFI CFA_XSP16 add(XSP16, 24)
        MOV     A,R1
//  618   osal_nv_write(ZCD_NV_JOIN_START_TIME_VALUE, 0, 1, &New_join_delay_time); 
        ; Setup parameters for call to function osal_nv_write
        MOV     ?V0 + 0,#New_join_delay_time & 0xff
        MOV     ?V0 + 1,#(New_join_delay_time >> 8) & 0xff
        MOV     R0,#?V0 + 0
        LCALL   ?PUSH_XSTACK_I_TWO
        CFI CFA_XSP16 add(XSP16, 26)
        MOV     ?V0 + 0,#0x1
        MOV     ?V0 + 1,#0x0
        MOV     R0,#?V0 + 0
        LCALL   ?PUSH_XSTACK_I_TWO
        CFI CFA_XSP16 add(XSP16, 28)
        MOV     R4,#0x0
        MOV     R5,#0x0
        MOV     R2,#0x35
        MOV     R3,#0x4
        LCALL   ??osal_nv_write?relay
        MOV     A,#0x4
        LCALL   ?DEALLOC_XSTACK8
        CFI CFA_XSP16 add(XSP16, 24)
        MOV     A,R1
//  619   
//  620 }
        MOV     A,#0xd
        LCALL   ?DEALLOC_XSTACK8
        CFI CFA_XSP16 add(XSP16, 11)
        MOV     R7,#0x3
        LJMP    ?BANKED_LEAVE_XDATA
        CFI EndBlock cfiBlock9
//  621 

        RSEG BANKED_CODE:CODE:NOROOT(0)
//  622 void SampleApp_SendPeriodicMessage( void )
SampleApp_SendPeriodicMessage:
        CFI Block cfiBlock10 Using cfiCommon0
        CFI Function SampleApp_SendPeriodicMessage
        CODE
//  623 {
        FUNCALL SampleApp_SendPeriodicMessage, SampleApp_GetShortAddr
        LOCFRAME ISTACK, 0, STACK
        LOCFRAME PSTACK, 0, STACK
        LOCFRAME XSTACK, 17, STACK
        LOCFRAME IOVERLAY, 0, STATIC
        LOCFRAME DOVERLAY, 0, STATIC
        ARGFRAME ISTACK, 0, STACK
        ARGFRAME PSTACK, 0, STACK
        ARGFRAME XSTACK, 17, STACK
        ARGFRAME IOVERLAY, 0, STATIC
        ARGFRAME DOVERLAY, 0, STATIC
        FUNCALL SampleApp_SendPeriodicMessage, osal_mem_free
        LOCFRAME ISTACK, 0, STACK
        LOCFRAME PSTACK, 0, STACK
        LOCFRAME XSTACK, 17, STACK
        LOCFRAME IOVERLAY, 0, STATIC
        LOCFRAME DOVERLAY, 0, STATIC
        ARGFRAME ISTACK, 0, STACK
        ARGFRAME PSTACK, 0, STACK
        ARGFRAME XSTACK, 17, STACK
        ARGFRAME IOVERLAY, 0, STATIC
        ARGFRAME DOVERLAY, 0, STATIC
        FUNCALL SampleApp_SendPeriodicMessage, AF_DataRequest
        LOCFRAME ISTACK, 0, STACK
        LOCFRAME PSTACK, 0, STACK
        LOCFRAME XSTACK, 26, STACK
        LOCFRAME IOVERLAY, 0, STATIC
        LOCFRAME DOVERLAY, 0, STATIC
        ARGFRAME ISTACK, 0, STACK
        ARGFRAME PSTACK, 0, STACK
        ARGFRAME XSTACK, 26, STACK
        ARGFRAME IOVERLAY, 0, STATIC
        ARGFRAME DOVERLAY, 0, STATIC
        FUNCALL SampleApp_SendPeriodicMessage, NLME_GetCoordShortAddr
        LOCFRAME ISTACK, 0, STACK
        LOCFRAME PSTACK, 0, STACK
        LOCFRAME XSTACK, 17, STACK
        LOCFRAME IOVERLAY, 0, STATIC
        LOCFRAME DOVERLAY, 0, STATIC
        ARGFRAME ISTACK, 0, STACK
        ARGFRAME PSTACK, 0, STACK
        ARGFRAME XSTACK, 17, STACK
        ARGFRAME IOVERLAY, 0, STATIC
        ARGFRAME DOVERLAY, 0, STATIC
        FUNCALL SampleApp_SendPeriodicMessage, AF_DataRequest
        LOCFRAME ISTACK, 0, STACK
        LOCFRAME PSTACK, 0, STACK
        LOCFRAME XSTACK, 26, STACK
        LOCFRAME IOVERLAY, 0, STATIC
        LOCFRAME DOVERLAY, 0, STATIC
        ARGFRAME ISTACK, 0, STACK
        ARGFRAME PSTACK, 0, STACK
        ARGFRAME XSTACK, 26, STACK
        ARGFRAME IOVERLAY, 0, STATIC
        ARGFRAME DOVERLAY, 0, STATIC
        MOV     A,#-0xd
        LCALL   ?BANKED_ENTER_XDATA
        CFI DPH0 load(1, XDATA, add(CFA_XSP16, literal(-1)))
        CFI DPL0 load(1, XDATA, add(CFA_XSP16, literal(-2)))
        CFI ?BRET_EXT load(1, XDATA, add(CFA_XSP16, literal(-3)))
        CFI ?RET_HIGH load(1, XDATA, add(CFA_XSP16, literal(-4)))
        CFI ?RET_LOW load(1, XDATA, add(CFA_XSP16, literal(-5)))
        CFI R7 load(1, XDATA, add(CFA_XSP16, literal(-6)))
        CFI V4 load(1, XDATA, add(CFA_XSP16, literal(-7)))
        CFI V3 load(1, XDATA, add(CFA_XSP16, literal(-8)))
        CFI V2 load(1, XDATA, add(CFA_XSP16, literal(-9)))
        CFI V1 load(1, XDATA, add(CFA_XSP16, literal(-10)))
        CFI V0 load(1, XDATA, add(CFA_XSP16, literal(-11)))
        CFI VB load(1, XDATA, add(CFA_XSP16, literal(-12)))
        CFI R6 load(1, XDATA, add(CFA_XSP16, literal(-13)))
        CFI CFA_SP SP+0
        CFI CFA_XSP16 add(XSP16, 13)
        ; Saved register size: 13
        ; Auto size: 4
        MOV     A,#-0x4
        LCALL   ?ALLOC_XSTACK8
        CFI CFA_XSP16 add(XSP16, 17)
//  624   /*##########################################*/
//  625   
//  626   uint8 buffer[4];
//  627   uint8 *Sample_Cmd_shorAddr;
//  628   uint16 parent_short_adress;
//  629   
//  630   Sample_Cmd_shorAddr=SampleApp_GetShortAddr();
        ; Setup parameters for call to function SampleApp_GetShortAddr
        LCALL   ??SampleApp_GetShortAddr?relay
        MOV     ?V0 + 2,R2
        MOV     ?V0 + 3,R3
        MOV     R6,?V0 + 2
        MOV     R7,?V0 + 3
//  631   buffer[0]=*Sample_Cmd_shorAddr++;
        MOV     DPL,R6
        MOV     DPH,R7
        MOVX    A,@DPTR
        MOV     DPL,?XSP + 0
        MOV     DPH,?XSP + 1
        MOVX    @DPTR,A
        MOV     DPL,R6
        MOV     DPH,R7
        INC     DPTR
        MOV     R6,DPL
        MOV     R7,DPH
//  632   buffer[1]=*Sample_Cmd_shorAddr++;
        MOV     DPL,R6
        MOV     DPH,R7
        MOVX    A,@DPTR
        PUSH    A
        CFI CFA_SP SP+-1
        MOV     A,#0x1
        LCALL   ?XSTACK_DISP0_8
        POP     A
        CFI CFA_SP SP+0
        MOVX    @DPTR,A
        MOV     DPL,R6
        MOV     DPH,R7
        INC     DPTR
        MOV     R6,DPL
        MOV     R7,DPH
//  633   buffer[2]=*Sample_Cmd_shorAddr++;
        MOV     DPL,R6
        MOV     DPH,R7
        MOVX    A,@DPTR
        PUSH    A
        CFI CFA_SP SP+-1
        MOV     A,#0x2
        LCALL   ?XSTACK_DISP0_8
        POP     A
        CFI CFA_SP SP+0
        MOVX    @DPTR,A
        MOV     DPL,R6
        MOV     DPH,R7
        INC     DPTR
        MOV     R6,DPL
        MOV     R7,DPH
//  634   buffer[3]=*Sample_Cmd_shorAddr;
        MOV     DPL,R6
        MOV     DPH,R7
        MOVX    A,@DPTR
        PUSH    A
        CFI CFA_SP SP+-1
        MOV     A,#0x3
        LCALL   ?XSTACK_DISP0_8
        POP     A
        CFI CFA_SP SP+0
        MOVX    @DPTR,A
//  635   
//  636   osal_mem_free( shortddr_mem );
        ; Setup parameters for call to function osal_mem_free
        MOV     DPTR,#shortddr_mem
        MOVX    A,@DPTR
        MOV     R2,A
        INC     DPTR
        MOVX    A,@DPTR
        MOV     R3,A
        LCALL   ??osal_mem_free?relay
//  637   
//  638   
//  639 
//  640   if(RTR_NWK_FLAG==1)
        MOV     DPTR,#RTR_NWK_FLAG
        MOVX    A,@DPTR
        XRL     A,#0x1
        JNZ     ??SampleApp_SendPeriodicMessage_0
//  641   {
//  642       parent_short_adress=0X0000;//如果是路由的话则直接发给协调器
        MOV     ?V0 + 0,#0x0
        MOV     ?V0 + 1,#0x0
//  643       SampleApp_Addr_SendData_DstAddr.addrMode = (afAddrMode_t)Addr16Bit;
        MOV     DPTR,#SampleApp_Addr_SendData_DstAddr + 8
        MOV     A,#0x2
        MOVX    @DPTR,A
//  644       SampleApp_Addr_SendData_DstAddr.endPoint = SAMPLEAPP_ENDPOINT;
        MOV     DPTR,#SampleApp_Addr_SendData_DstAddr + 9
        MOV     A,#0x14
        MOVX    @DPTR,A
//  645       SampleApp_Addr_SendData_DstAddr.addr.shortAddr = parent_short_adress;
        MOV     DPTR,#SampleApp_Addr_SendData_DstAddr
        MOV     A,?V0 + 0
        MOVX    @DPTR,A
        INC     DPTR
        MOV     A,?V0 + 1
        MOVX    @DPTR,A
//  646       
//  647       if ( AF_DataRequest( &SampleApp_Addr_SendData_DstAddr, &SampleApp_epDesc,
//  648                       SAMPLEAPP_PERIODIC_CLUSTERID,
//  649                       4,  //数据长度
//  650                       buffer,//###添加的发送数据        
//  651                       &SampleApp_TransID,
//  652                       AF_DISCV_ROUTE,
//  653                       AF_DEFAULT_RADIUS ) == afStatus_SUCCESS )
        ; Setup parameters for call to function AF_DataRequest
        MOV     ?V0 + 2,#0xf
        MOV     R0,#?V0 + 2
        LCALL   ?PUSH_XSTACK_I_ONE
        CFI CFA_XSP16 add(XSP16, 18)
        MOV     ?V0 + 2,#SampleApp_TransID & 0xff
        MOV     ?V0 + 3,#(SampleApp_TransID >> 8) & 0xff
        MOV     R0,#?V0 + 2
        LCALL   ?PUSH_XSTACK_I_TWO
        CFI CFA_XSP16 add(XSP16, 20)
        MOV     A,#0x3
        LCALL   ?XSTACK_DISP0_8
        MOV     ?V0 + 2,DPL
        MOV     ?V0 + 3,DPH
        MOV     R0,#?V0 + 2
        LCALL   ?PUSH_XSTACK_I_TWO
        CFI CFA_XSP16 add(XSP16, 22)
        MOV     ?V0 + 2,#0x4
        MOV     ?V0 + 3,#0x0
        MOV     R0,#?V0 + 2
        LCALL   ?PUSH_XSTACK_I_TWO
        CFI CFA_XSP16 add(XSP16, 24)
        MOV     ?V0 + 2,#0x5
        MOV     ?V0 + 3,#0x0
        MOV     R0,#?V0 + 2
        LCALL   ?PUSH_XSTACK_I_TWO
        CFI CFA_XSP16 add(XSP16, 26)
        MOV     R1,#0x20
        MOV     R4,#SampleApp_epDesc & 0xff
        MOV     R5,#(SampleApp_epDesc >> 8) & 0xff
        MOV     R2,#SampleApp_Addr_SendData_DstAddr & 0xff
        MOV     R3,#(SampleApp_Addr_SendData_DstAddr >> 8) & 0xff
        LCALL   ??AF_DataRequest?relay
        MOV     A,#0x9
        LCALL   ?DEALLOC_XSTACK8
        CFI CFA_XSP16 add(XSP16, 17)
        MOV     A,R1
        LJMP    ??SampleApp_SendPeriodicMessage_1 & 0xFFFF
//  654       {
//  655       }
//  656       else
//  657       {
//  658       
//  659       }
//  660   }
//  661   else
//  662   {
//  663       parent_short_adress= NLME_GetCoordShortAddr();//如果是终端的话先转发给父节点get the parent adress
??SampleApp_SendPeriodicMessage_0:
        ; Setup parameters for call to function NLME_GetCoordShortAddr
        LCALL   ??NLME_GetCoordShortAddr?relay
        MOV     ?V0 + 2,R2
        MOV     ?V0 + 3,R3
        MOV     ?V0 + 0,?V0 + 2
        MOV     ?V0 + 1,?V0 + 3
//  664       SampleApp_Addr_SendData_DstAddr.addrMode = (afAddrMode_t)Addr16Bit;
        MOV     DPTR,#SampleApp_Addr_SendData_DstAddr + 8
        MOV     A,#0x2
        MOVX    @DPTR,A
//  665       SampleApp_Addr_SendData_DstAddr.endPoint = SAMPLEAPP_ENDPOINT;
        MOV     DPTR,#SampleApp_Addr_SendData_DstAddr + 9
        MOV     A,#0x14
        MOVX    @DPTR,A
//  666       SampleApp_Addr_SendData_DstAddr.addr.shortAddr = parent_short_adress;
        MOV     DPTR,#SampleApp_Addr_SendData_DstAddr
        MOV     A,?V0 + 0
        MOVX    @DPTR,A
        INC     DPTR
        MOV     A,?V0 + 1
        MOVX    @DPTR,A
//  667       
//  668       uint8 OPTION_AF=0;
        MOV     ?V0 + 4,#0x0
//  669      if(HEART_NEED_ACK_FLAG==1)
        MOV     DPTR,#HEART_NEED_ACK_FLAG
        MOVX    A,@DPTR
        XRL     A,#0x1
        JNZ     ??SampleApp_SendPeriodicMessage_2
//  670      { 
//  671        HEART_NEED_ACK_FLAG = 0;
        MOV     DPTR,#HEART_NEED_ACK_FLAG
        MOV     A,#0x0
        MOVX    @DPTR,A
//  672        OPTION_AF = AF_DISCV_ROUTE|AF_ACK_REQUEST;
        MOV     ?V0 + 4,#0x30
        SJMP    ??SampleApp_SendPeriodicMessage_3
//  673      }
//  674      else
//  675      {
//  676       OPTION_AF = AF_DISCV_ROUTE;
??SampleApp_SendPeriodicMessage_2:
        MOV     ?V0 + 4,#0x20
//  677      } 
//  678       
//  679       
//  680       if ( AF_DataRequest( &SampleApp_Addr_SendData_DstAddr, &SampleApp_epDesc,
//  681                           SAMPLEAPP_PERIODIC_CLUSTERID,
//  682                           4,  //数据长度
//  683                           buffer,//###添加的发送数据        
//  684                           &SampleApp_TransID,
//  685                           OPTION_AF,
//  686                           AF_DEFAULT_RADIUS ) == afStatus_SUCCESS )
??SampleApp_SendPeriodicMessage_3:
        ; Setup parameters for call to function AF_DataRequest
        MOV     ?V0 + 2,#0xf
        MOV     R0,#?V0 + 2
        LCALL   ?PUSH_XSTACK_I_ONE
        CFI CFA_XSP16 add(XSP16, 18)
        MOV     ?V0 + 2,#SampleApp_TransID & 0xff
        MOV     ?V0 + 3,#(SampleApp_TransID >> 8) & 0xff
        MOV     R0,#?V0 + 2
        LCALL   ?PUSH_XSTACK_I_TWO
        CFI CFA_XSP16 add(XSP16, 20)
        MOV     A,#0x3
        LCALL   ?XSTACK_DISP0_8
        MOV     ?V0 + 2,DPL
        MOV     ?V0 + 3,DPH
        MOV     R0,#?V0 + 2
        LCALL   ?PUSH_XSTACK_I_TWO
        CFI CFA_XSP16 add(XSP16, 22)
        MOV     ?V0 + 2,#0x4
        MOV     ?V0 + 3,#0x0
        MOV     R0,#?V0 + 2
        LCALL   ?PUSH_XSTACK_I_TWO
        CFI CFA_XSP16 add(XSP16, 24)
        MOV     ?V0 + 2,#0x5
        MOV     ?V0 + 3,#0x0
        MOV     R0,#?V0 + 2
        LCALL   ?PUSH_XSTACK_I_TWO
        CFI CFA_XSP16 add(XSP16, 26)
        MOV     R1,?V0 + 4
        MOV     R4,#SampleApp_epDesc & 0xff
        MOV     R5,#(SampleApp_epDesc >> 8) & 0xff
        MOV     R2,#SampleApp_Addr_SendData_DstAddr & 0xff
        MOV     R3,#(SampleApp_Addr_SendData_DstAddr >> 8) & 0xff
        LCALL   ??AF_DataRequest?relay
        MOV     A,#0x9
        LCALL   ?DEALLOC_XSTACK8
        CFI CFA_XSP16 add(XSP16, 17)
        MOV     A,R1
//  687       {
//  688       }
//  689       else
//  690       {
//  691         
//  692       }
//  693 
//  694   }   
//  695 
//  696   
//  697   
//  698 }
??SampleApp_SendPeriodicMessage_1:
        MOV     A,#0x4
        LCALL   ?DEALLOC_XSTACK8
        CFI CFA_XSP16 add(XSP16, 13)
        MOV     R7,#0x5
        LJMP    ?BANKED_LEAVE_XDATA
        CFI EndBlock cfiBlock10
//  699 
//  700 
//  701 /******************************************************************************
//  702 * @fn          zb_ReadConfiguration
//  703 *
//  704 * @brief       The zb_ReadConfiguration function is used to get a
//  705 *              Configuration Protperty from Nonvolatile memory.
//  706 *
//  707 * @param       configId - The identifier for the configuration property
//  708 *              len - The size of the pValue buffer in bytes
//  709 *              pValue - A buffer to hold the configuration property
//  710 *
//  711 * @return      none
//  712 */

        RSEG BANKED_CODE:CODE:NOROOT(0)
//  713 uint8 zb_ReadConfiguration( uint8 configId, uint8 len, void *pValue )
zb_ReadConfiguration:
        CFI Block cfiBlock11 Using cfiCommon0
        CFI Function zb_ReadConfiguration
        CODE
//  714 {
        FUNCALL zb_ReadConfiguration, osal_nv_item_len
        LOCFRAME ISTACK, 0, STACK
        LOCFRAME PSTACK, 0, STACK
        LOCFRAME XSTACK, 13, STACK
        LOCFRAME IOVERLAY, 0, STATIC
        LOCFRAME DOVERLAY, 0, STATIC
        ARGFRAME ISTACK, 0, STACK
        ARGFRAME PSTACK, 0, STACK
        ARGFRAME XSTACK, 13, STACK
        ARGFRAME IOVERLAY, 0, STATIC
        ARGFRAME DOVERLAY, 0, STATIC
        FUNCALL zb_ReadConfiguration, osal_nv_read
        LOCFRAME ISTACK, 0, STACK
        LOCFRAME PSTACK, 0, STACK
        LOCFRAME XSTACK, 17, STACK
        LOCFRAME IOVERLAY, 0, STATIC
        LOCFRAME DOVERLAY, 0, STATIC
        ARGFRAME ISTACK, 0, STACK
        ARGFRAME PSTACK, 0, STACK
        ARGFRAME XSTACK, 17, STACK
        ARGFRAME IOVERLAY, 0, STATIC
        ARGFRAME DOVERLAY, 0, STATIC
        MOV     A,#-0xd
        LCALL   ?BANKED_ENTER_XDATA
        CFI DPH0 load(1, XDATA, add(CFA_XSP16, literal(-1)))
        CFI DPL0 load(1, XDATA, add(CFA_XSP16, literal(-2)))
        CFI ?BRET_EXT load(1, XDATA, add(CFA_XSP16, literal(-3)))
        CFI ?RET_HIGH load(1, XDATA, add(CFA_XSP16, literal(-4)))
        CFI ?RET_LOW load(1, XDATA, add(CFA_XSP16, literal(-5)))
        CFI R7 load(1, XDATA, add(CFA_XSP16, literal(-6)))
        CFI V4 load(1, XDATA, add(CFA_XSP16, literal(-7)))
        CFI V3 load(1, XDATA, add(CFA_XSP16, literal(-8)))
        CFI V2 load(1, XDATA, add(CFA_XSP16, literal(-9)))
        CFI V1 load(1, XDATA, add(CFA_XSP16, literal(-10)))
        CFI V0 load(1, XDATA, add(CFA_XSP16, literal(-11)))
        CFI VB load(1, XDATA, add(CFA_XSP16, literal(-12)))
        CFI R6 load(1, XDATA, add(CFA_XSP16, literal(-13)))
        CFI CFA_SP SP+0
        CFI CFA_XSP16 add(XSP16, 13)
        ; Saved register size: 13
        ; Auto size: 0
        MOV     ?V0 + 4,R1
        MOV     A,R2
        MOV     R6,A
        MOV     ?V0 + 2,R4
        MOV     ?V0 + 3,R5
//  715   uint8 size;
//  716   
//  717   size = (uint8)osal_nv_item_len( configId );
        ; Setup parameters for call to function osal_nv_item_len
        MOV     ?V0 + 0,?V0 + 4
        MOV     ?V0 + 1,#0x0
        MOV     R2,?V0 + 0
        MOV     R3,?V0 + 1
        LCALL   ??osal_nv_item_len?relay
        MOV     A,R2
        MOV     R7,A
//  718   if ( size > len )
        MOV     A,R6
        CLR     C
        SUBB    A,R7
        JNC     ??zb_ReadConfiguration_0
//  719   {
//  720     return ZFailure;
        MOV     R1,#0x1
        SJMP    ??zb_ReadConfiguration_1
//  721   }
//  722   else
//  723   {
//  724     return( osal_nv_read(configId, 0, size, pValue) );
??zb_ReadConfiguration_0:
        ; Setup parameters for call to function osal_nv_read
        MOV     R0,#?V0 + 2
        LCALL   ?PUSH_XSTACK_I_TWO
        CFI CFA_XSP16 add(XSP16, 15)
        MOV     ?V0 + 0,R7
        MOV     ?V0 + 1,#0x0
        MOV     R0,#?V0 + 0
        LCALL   ?PUSH_XSTACK_I_TWO
        CFI CFA_XSP16 add(XSP16, 17)
        MOV     R4,#0x0
        MOV     R5,#0x0
        MOV     ?V0 + 0,?V0 + 4
        MOV     ?V0 + 1,#0x0
        MOV     R2,?V0 + 0
        MOV     R3,?V0 + 1
        LCALL   ??osal_nv_read?relay
        MOV     A,#0x4
        LCALL   ?DEALLOC_XSTACK8
        CFI CFA_XSP16 add(XSP16, 13)
??zb_ReadConfiguration_1:
        MOV     R7,#0x5
        LJMP    ?BANKED_LEAVE_XDATA
        CFI EndBlock cfiBlock11
//  725   }
//  726 }
//  727 
//  728 /******************************************************************************
//  729 * @fn          zb_WriteConfiguration
//  730 *
//  731 * @brief       The zb_WriteConfiguration function is used to write a
//  732 *              Configuration Property to nonvolatile memory.
//  733 *
//  734 * @param       configId - The identifier for the configuration property
//  735 *              len - The size of the pValue buffer in bytes
//  736 *              pValue - A buffer containing the new value of the
//  737 *                       configuration property
//  738 *
//  739 * @return      none
//  740 */

        RSEG BANKED_CODE:CODE:NOROOT(0)
//  741 uint8 zb_WriteConfiguration( uint8 configId, uint8 len, void *pValue )
zb_WriteConfiguration:
        CFI Block cfiBlock12 Using cfiCommon0
        CFI Function zb_WriteConfiguration
        CODE
//  742 {
        FUNCALL zb_WriteConfiguration, osal_nv_write
        LOCFRAME ISTACK, 0, STACK
        LOCFRAME PSTACK, 0, STACK
        LOCFRAME XSTACK, 16, STACK
        LOCFRAME IOVERLAY, 0, STATIC
        LOCFRAME DOVERLAY, 0, STATIC
        ARGFRAME ISTACK, 0, STACK
        ARGFRAME PSTACK, 0, STACK
        ARGFRAME XSTACK, 16, STACK
        ARGFRAME IOVERLAY, 0, STATIC
        ARGFRAME DOVERLAY, 0, STATIC
        MOV     A,#-0xc
        LCALL   ?BANKED_ENTER_XDATA
        CFI DPH0 load(1, XDATA, add(CFA_XSP16, literal(-1)))
        CFI DPL0 load(1, XDATA, add(CFA_XSP16, literal(-2)))
        CFI ?BRET_EXT load(1, XDATA, add(CFA_XSP16, literal(-3)))
        CFI ?RET_HIGH load(1, XDATA, add(CFA_XSP16, literal(-4)))
        CFI ?RET_LOW load(1, XDATA, add(CFA_XSP16, literal(-5)))
        CFI R7 load(1, XDATA, add(CFA_XSP16, literal(-6)))
        CFI V3 load(1, XDATA, add(CFA_XSP16, literal(-7)))
        CFI V2 load(1, XDATA, add(CFA_XSP16, literal(-8)))
        CFI V1 load(1, XDATA, add(CFA_XSP16, literal(-9)))
        CFI V0 load(1, XDATA, add(CFA_XSP16, literal(-10)))
        CFI VB load(1, XDATA, add(CFA_XSP16, literal(-11)))
        CFI R6 load(1, XDATA, add(CFA_XSP16, literal(-12)))
        CFI CFA_SP SP+0
        CFI CFA_XSP16 add(XSP16, 12)
        ; Saved register size: 12
        ; Auto size: 0
        MOV     A,R1
        MOV     R7,A
        MOV     A,R2
        MOV     R6,A
        MOV     ?V0 + 2,R4
        MOV     ?V0 + 3,R5
//  743   return( osal_nv_write(configId, 0, len, pValue) );
        ; Setup parameters for call to function osal_nv_write
        MOV     R0,#?V0 + 2
        LCALL   ?PUSH_XSTACK_I_TWO
        CFI CFA_XSP16 add(XSP16, 14)
        MOV     ?V0 + 0,R6
        MOV     ?V0 + 1,#0x0
        MOV     R0,#?V0 + 0
        LCALL   ?PUSH_XSTACK_I_TWO
        CFI CFA_XSP16 add(XSP16, 16)
        MOV     R4,#0x0
        MOV     R5,#0x0
        MOV     ?V0 + 0,R7
        MOV     ?V0 + 1,#0x0
        MOV     R2,?V0 + 0
        MOV     R3,?V0 + 1
        LCALL   ??osal_nv_write?relay
        MOV     A,#0x4
        LCALL   ?DEALLOC_XSTACK8
        CFI CFA_XSP16 add(XSP16, 12)
        MOV     R7,#0x4
        LJMP    ?BANKED_LEAVE_XDATA
        CFI EndBlock cfiBlock12
//  744 }
//  745 
//  746 

        RSEG BANKED_CODE:CODE:NOROOT(0)
//  747 uint8 *SampleApp_GetShortAddr(void)
SampleApp_GetShortAddr:
        CFI Block cfiBlock13 Using cfiCommon0
        CFI Function SampleApp_GetShortAddr
        CODE
//  748 {
        FUNCALL SampleApp_GetShortAddr, osal_mem_alloc
        LOCFRAME ISTACK, 0, STACK
        LOCFRAME PSTACK, 0, STACK
        LOCFRAME XSTACK, 14, STACK
        LOCFRAME IOVERLAY, 0, STATIC
        LOCFRAME DOVERLAY, 0, STATIC
        ARGFRAME ISTACK, 0, STACK
        ARGFRAME PSTACK, 0, STACK
        ARGFRAME XSTACK, 14, STACK
        ARGFRAME IOVERLAY, 0, STATIC
        ARGFRAME DOVERLAY, 0, STATIC
        FUNCALL SampleApp_GetShortAddr, NLME_GetShortAddr
        LOCFRAME ISTACK, 0, STACK
        LOCFRAME PSTACK, 0, STACK
        LOCFRAME XSTACK, 14, STACK
        LOCFRAME IOVERLAY, 0, STATIC
        LOCFRAME DOVERLAY, 0, STATIC
        ARGFRAME ISTACK, 0, STACK
        ARGFRAME PSTACK, 0, STACK
        ARGFRAME XSTACK, 14, STACK
        ARGFRAME IOVERLAY, 0, STATIC
        ARGFRAME DOVERLAY, 0, STATIC
        FUNCALL SampleApp_GetShortAddr, hextoword1
        LOCFRAME ISTACK, 0, STACK
        LOCFRAME PSTACK, 0, STACK
        LOCFRAME XSTACK, 14, STACK
        LOCFRAME IOVERLAY, 0, STATIC
        LOCFRAME DOVERLAY, 0, STATIC
        ARGFRAME ISTACK, 0, STACK
        ARGFRAME PSTACK, 0, STACK
        ARGFRAME XSTACK, 14, STACK
        ARGFRAME IOVERLAY, 0, STATIC
        ARGFRAME DOVERLAY, 0, STATIC
        FUNCALL SampleApp_GetShortAddr, hextoword2
        LOCFRAME ISTACK, 0, STACK
        LOCFRAME PSTACK, 0, STACK
        LOCFRAME XSTACK, 14, STACK
        LOCFRAME IOVERLAY, 0, STATIC
        LOCFRAME DOVERLAY, 0, STATIC
        ARGFRAME ISTACK, 0, STACK
        ARGFRAME PSTACK, 0, STACK
        ARGFRAME XSTACK, 14, STACK
        ARGFRAME IOVERLAY, 0, STATIC
        ARGFRAME DOVERLAY, 0, STATIC
        FUNCALL SampleApp_GetShortAddr, hextoword1
        LOCFRAME ISTACK, 0, STACK
        LOCFRAME PSTACK, 0, STACK
        LOCFRAME XSTACK, 14, STACK
        LOCFRAME IOVERLAY, 0, STATIC
        LOCFRAME DOVERLAY, 0, STATIC
        ARGFRAME ISTACK, 0, STACK
        ARGFRAME PSTACK, 0, STACK
        ARGFRAME XSTACK, 14, STACK
        ARGFRAME IOVERLAY, 0, STATIC
        ARGFRAME DOVERLAY, 0, STATIC
        FUNCALL SampleApp_GetShortAddr, hextoword2
        LOCFRAME ISTACK, 0, STACK
        LOCFRAME PSTACK, 0, STACK
        LOCFRAME XSTACK, 14, STACK
        LOCFRAME IOVERLAY, 0, STATIC
        LOCFRAME DOVERLAY, 0, STATIC
        ARGFRAME ISTACK, 0, STACK
        ARGFRAME PSTACK, 0, STACK
        ARGFRAME XSTACK, 14, STACK
        ARGFRAME IOVERLAY, 0, STATIC
        ARGFRAME DOVERLAY, 0, STATIC
        MOV     A,#-0xe
        LCALL   ?BANKED_ENTER_XDATA
        CFI DPH0 load(1, XDATA, add(CFA_XSP16, literal(-1)))
        CFI DPL0 load(1, XDATA, add(CFA_XSP16, literal(-2)))
        CFI ?BRET_EXT load(1, XDATA, add(CFA_XSP16, literal(-3)))
        CFI ?RET_HIGH load(1, XDATA, add(CFA_XSP16, literal(-4)))
        CFI ?RET_LOW load(1, XDATA, add(CFA_XSP16, literal(-5)))
        CFI R7 load(1, XDATA, add(CFA_XSP16, literal(-6)))
        CFI V5 load(1, XDATA, add(CFA_XSP16, literal(-7)))
        CFI V4 load(1, XDATA, add(CFA_XSP16, literal(-8)))
        CFI V3 load(1, XDATA, add(CFA_XSP16, literal(-9)))
        CFI V2 load(1, XDATA, add(CFA_XSP16, literal(-10)))
        CFI V1 load(1, XDATA, add(CFA_XSP16, literal(-11)))
        CFI V0 load(1, XDATA, add(CFA_XSP16, literal(-12)))
        CFI VB load(1, XDATA, add(CFA_XSP16, literal(-13)))
        CFI R6 load(1, XDATA, add(CFA_XSP16, literal(-14)))
        CFI CFA_SP SP+0
        CFI CFA_XSP16 add(XSP16, 14)
        ; Saved register size: 14
        ; Auto size: 0
//  749   uint16 short_ddr;
//  750   uint8 *shortddr;
//  751   uint8 yy1;
//  752   uint8 yy2; 
//  753   //  uint8 *shortddr_mem;
//  754   
//  755   shortddr_mem=osal_mem_alloc(4); 
        ; Setup parameters for call to function osal_mem_alloc
        MOV     R2,#0x4
        MOV     R3,#0x0
        LCALL   ??osal_mem_alloc?relay
        MOV     DPTR,#shortddr_mem
        MOV     A,R2
        MOVX    @DPTR,A
        INC     DPTR
        MOV     A,R3
        MOVX    @DPTR,A
//  756   short_ddr=NLME_GetShortAddr();
        ; Setup parameters for call to function NLME_GetShortAddr
        LCALL   ??NLME_GetShortAddr?relay
        MOV     ?V0 + 4,R2
        MOV     ?V0 + 5,R3
        MOV     ?V0 + 0,?V0 + 4
        MOV     ?V0 + 1,?V0 + 5
//  757   yy1=(uint8)((short_ddr&0xff00)>>8);
        MOV     R0,?V0 + 0
        MOV     R1,?V0 + 1
        CLR     A
        MOV     A,?V0 + 1
        MOV     R0,?V0 + 1
        MOV     A,?V0 + 1
        MOV     ?V0 + 2,A
//  758   yy2=(uint8)short_ddr;
        MOV     A,?V0 + 0
        MOV     ?V0 + 3,A
//  759   shortddr_mem[0]=hextoword1(yy1);
        ; Setup parameters for call to function hextoword1
        MOV     R1,?V0 + 2
        LCALL   ??hextoword1?relay
        MOV     A,R1
        PUSH    A
        CFI CFA_SP SP+-1
        MOV     DPTR,#shortddr_mem
        MOVX    A,@DPTR
        MOV     R0,A
        INC     DPTR
        MOVX    A,@DPTR
        MOV     DPH,A
        MOV     DPL,R0
        POP     A
        CFI CFA_SP SP+0
        MOVX    @DPTR,A
//  760   shortddr_mem[1]=hextoword2(yy1);
        ; Setup parameters for call to function hextoword2
        MOV     R1,?V0 + 2
        LCALL   ??hextoword2?relay
        MOV     A,R1
        PUSH    A
        CFI CFA_SP SP+-1
        MOV     DPTR,#shortddr_mem
        MOVX    A,@DPTR
        MOV     R0,A
        INC     DPTR
        MOVX    A,@DPTR
        MOV     DPH,A
        MOV     DPL,R0
        INC     DPTR
        POP     A
        CFI CFA_SP SP+0
        MOVX    @DPTR,A
//  761   shortddr_mem[2]=hextoword1(yy2);
        ; Setup parameters for call to function hextoword1
        MOV     R1,?V0 + 3
        LCALL   ??hextoword1?relay
        MOV     A,R1
        PUSH    A
        CFI CFA_SP SP+-1
        MOV     DPTR,#shortddr_mem
        MOVX    A,@DPTR
        MOV     R0,A
        INC     DPTR
        MOVX    A,@DPTR
        MOV     DPH,A
        MOV     DPL,R0
        INC     DPTR
        INC     DPTR
        POP     A
        CFI CFA_SP SP+0
        MOVX    @DPTR,A
//  762   shortddr_mem[3]=hextoword2(yy2);
        ; Setup parameters for call to function hextoword2
        MOV     R1,?V0 + 3
        LCALL   ??hextoword2?relay
        MOV     A,R1
        PUSH    A
        CFI CFA_SP SP+-1
        MOV     DPTR,#shortddr_mem
        MOVX    A,@DPTR
        MOV     R0,A
        INC     DPTR
        MOVX    A,@DPTR
        MOV     DPH,A
        MOV     DPL,R0
        INC     DPTR
        INC     DPTR
        INC     DPTR
        POP     A
        CFI CFA_SP SP+0
        MOVX    @DPTR,A
//  763   shortddr=shortddr_mem;
        MOV     DPTR,#shortddr_mem
        MOVX    A,@DPTR
        MOV     R0,A
        INC     DPTR
        MOVX    A,@DPTR
        MOV     R1,A
        MOV     A,R0
        MOV     R6,A
        MOV     A,R1
        MOV     R7,A
//  764   
//  765   return shortddr;
        MOV     A,R6
        MOV     R2,A
        MOV     A,R7
        MOV     R3,A
        MOV     R7,#0x6
        LJMP    ?BANKED_LEAVE_XDATA
        CFI EndBlock cfiBlock13
//  766 }
//  767 
//  768 
//  769 /*********************************************************************
//  770 * @fn      SampleApp_GetExtendAddr()
//  771 *
//  772 * @brief   get the entendaddr
//  773 *
//  774 * @param   none
//  775 *
//  776 * @return  uin8 *my_extendaddr
//  777 */

        RSEG BANKED_CODE:CODE:NOROOT(0)
//  778 uint8 *SampleApp_GetExtendAddr(void)
SampleApp_GetExtendAddr:
        CFI Block cfiBlock14 Using cfiCommon0
        CFI Function SampleApp_GetExtendAddr
        CODE
//  779 {
        FUNCALL SampleApp_GetExtendAddr, osal_mem_alloc
        LOCFRAME ISTACK, 0, STACK
        LOCFRAME PSTACK, 0, STACK
        LOCFRAME XSTACK, 14, STACK
        LOCFRAME IOVERLAY, 0, STATIC
        LOCFRAME DOVERLAY, 0, STATIC
        ARGFRAME ISTACK, 0, STACK
        ARGFRAME PSTACK, 0, STACK
        ARGFRAME XSTACK, 14, STACK
        ARGFRAME IOVERLAY, 0, STATIC
        ARGFRAME DOVERLAY, 0, STATIC
        FUNCALL SampleApp_GetExtendAddr, NLME_GetExtAddr
        LOCFRAME ISTACK, 0, STACK
        LOCFRAME PSTACK, 0, STACK
        LOCFRAME XSTACK, 14, STACK
        LOCFRAME IOVERLAY, 0, STATIC
        LOCFRAME DOVERLAY, 0, STATIC
        ARGFRAME ISTACK, 0, STACK
        ARGFRAME PSTACK, 0, STACK
        ARGFRAME XSTACK, 14, STACK
        ARGFRAME IOVERLAY, 0, STATIC
        ARGFRAME DOVERLAY, 0, STATIC
        FUNCALL SampleApp_GetExtendAddr, hextoword1
        LOCFRAME ISTACK, 0, STACK
        LOCFRAME PSTACK, 0, STACK
        LOCFRAME XSTACK, 14, STACK
        LOCFRAME IOVERLAY, 0, STATIC
        LOCFRAME DOVERLAY, 0, STATIC
        ARGFRAME ISTACK, 0, STACK
        ARGFRAME PSTACK, 0, STACK
        ARGFRAME XSTACK, 14, STACK
        ARGFRAME IOVERLAY, 0, STATIC
        ARGFRAME DOVERLAY, 0, STATIC
        FUNCALL SampleApp_GetExtendAddr, hextoword2
        LOCFRAME ISTACK, 0, STACK
        LOCFRAME PSTACK, 0, STACK
        LOCFRAME XSTACK, 14, STACK
        LOCFRAME IOVERLAY, 0, STATIC
        LOCFRAME DOVERLAY, 0, STATIC
        ARGFRAME ISTACK, 0, STACK
        ARGFRAME PSTACK, 0, STACK
        ARGFRAME XSTACK, 14, STACK
        ARGFRAME IOVERLAY, 0, STATIC
        ARGFRAME DOVERLAY, 0, STATIC
        MOV     A,#-0xe
        LCALL   ?BANKED_ENTER_XDATA
        CFI DPH0 load(1, XDATA, add(CFA_XSP16, literal(-1)))
        CFI DPL0 load(1, XDATA, add(CFA_XSP16, literal(-2)))
        CFI ?BRET_EXT load(1, XDATA, add(CFA_XSP16, literal(-3)))
        CFI ?RET_HIGH load(1, XDATA, add(CFA_XSP16, literal(-4)))
        CFI ?RET_LOW load(1, XDATA, add(CFA_XSP16, literal(-5)))
        CFI R7 load(1, XDATA, add(CFA_XSP16, literal(-6)))
        CFI V5 load(1, XDATA, add(CFA_XSP16, literal(-7)))
        CFI V4 load(1, XDATA, add(CFA_XSP16, literal(-8)))
        CFI V3 load(1, XDATA, add(CFA_XSP16, literal(-9)))
        CFI V2 load(1, XDATA, add(CFA_XSP16, literal(-10)))
        CFI V1 load(1, XDATA, add(CFA_XSP16, literal(-11)))
        CFI V0 load(1, XDATA, add(CFA_XSP16, literal(-12)))
        CFI VB load(1, XDATA, add(CFA_XSP16, literal(-13)))
        CFI R6 load(1, XDATA, add(CFA_XSP16, literal(-14)))
        CFI CFA_SP SP+0
        CFI CFA_XSP16 add(XSP16, 14)
        ; Saved register size: 14
        ; Auto size: 0
//  780   uint8 i;
//  781   uint8 *ext_addr;
//  782   uint8 *extaddr;
//  783   //  uint8 *extendaddr_mem;
//  784   
//  785   extendaddr_mem=osal_mem_alloc(16);
        ; Setup parameters for call to function osal_mem_alloc
        MOV     R2,#0x10
        MOV     R3,#0x0
        LCALL   ??osal_mem_alloc?relay
        MOV     DPTR,#extendaddr_mem
        MOV     A,R2
        MOVX    @DPTR,A
        INC     DPTR
        MOV     A,R3
        MOVX    @DPTR,A
//  786   ext_addr=NLME_GetExtAddr();
        ; Setup parameters for call to function NLME_GetExtAddr
        LCALL   ??NLME_GetExtAddr?relay
        MOV     ?V0 + 4,R2
        MOV     ?V0 + 5,R3
        MOV     R6,?V0 + 4
        MOV     R7,?V0 + 5
//  787   for(i=0;i<15;i=i+2)
        MOV     ?V0 + 2,#0x0
??SampleApp_GetExtendAddr_0:
        MOV     A,?V0 + 2
        CLR     C
        SUBB    A,#0xf
        JNC     ??SampleApp_GetExtendAddr_1
//  788   {
//  789     extendaddr_mem[i]=hextoword1(*ext_addr);
        ; Setup parameters for call to function hextoword1
        MOV     DPL,R6
        MOV     DPH,R7
        MOVX    A,@DPTR
        MOV     R1,A
        LCALL   ??hextoword1?relay
        MOV     A,R1
        PUSH    A
        CFI CFA_SP SP+-1
        MOV     A,?V0 + 2
        MOV     R0,?V0 + 2
        MOV     R1,#0x0
        MOV     DPTR,#extendaddr_mem
        MOVX    A,@DPTR
        ADD     A,R0
        MOV     R2,A
        INC     DPTR
        MOVX    A,@DPTR
        ADDC    A,R1
        MOV     DPL,R2
        MOV     DPH,A
        POP     A
        CFI CFA_SP SP+0
        MOVX    @DPTR,A
//  790     extendaddr_mem[i+1]=hextoword2(*ext_addr++);
        ; Setup parameters for call to function hextoword2
        MOV     DPL,R6
        MOV     DPH,R7
        MOVX    A,@DPTR
        MOV     R1,A
        LCALL   ??hextoword2?relay
        MOV     A,R1
        MOV     R0,A
        MOV     DPL,R6
        MOV     DPH,R7
        INC     DPTR
        MOV     R6,DPL
        MOV     R7,DPH
        PUSH    A
        CFI CFA_SP SP+-1
        MOV     A,?V0 + 2
        MOV     R0,?V0 + 2
        MOV     R1,#0x0
        MOV     DPTR,#extendaddr_mem
        MOVX    A,@DPTR
        ADD     A,R0
        MOV     R2,A
        INC     DPTR
        MOVX    A,@DPTR
        ADDC    A,R1
        MOV     DPL,R2
        MOV     DPH,A
        INC     DPTR
        POP     A
        CFI CFA_SP SP+0
        MOVX    @DPTR,A
//  791   }
        INC     ?V0 + 2
        INC     ?V0 + 2
        SJMP    ??SampleApp_GetExtendAddr_0
//  792   extaddr=extendaddr_mem;
??SampleApp_GetExtendAddr_1:
        MOV     DPTR,#extendaddr_mem
        MOVX    A,@DPTR
        MOV     R0,A
        INC     DPTR
        MOVX    A,@DPTR
        MOV     R1,A
        MOV     ?V0 + 0,R0
        MOV     ?V0 + 1,R1
//  793   return extaddr;
        MOV     R2,?V0 + 0
        MOV     R3,?V0 + 1
        MOV     R7,#0x6
        LJMP    ?BANKED_LEAVE_XDATA
        CFI EndBlock cfiBlock14
//  794 }
//  795 
//  796 
//  797 /*********************************************************************
//  798 * @fn      hextoword1/2
//  799 *
//  800 * @brief   translate the hex to word.
//  801 *
//  802 * @param   uint8 t
//  803 *
//  804 * @return  none
//  805 */
//  806 //十六进制转字符函数

        RSEG BANKED_CODE:CODE:NOROOT(0)
//  807 uint8 hextoword1(uint8 t )
hextoword1:
        CFI Block cfiBlock15 Using cfiCommon0
        CFI Function hextoword1
        CODE
//  808 {
        ; Saved register size: 0
        ; Auto size: 0
        MOV     A,R1
        MOV     R0,A
//  809   uint8 abc;
//  810   uint8 cba;
//  811   uint8 xx1;
//  812   abc=t;
        MOV     R2,A
//  813   cba=0xf0;
        MOV     R3,#-0x10
//  814   abc=(abc&cba)>>4;
        ANL     A,R3
        SWAP    A
        ANL     A,#0xf
        MOV     R2,A
//  815   if(abc<10)
        MOV     A,R2
        CLR     C
        SUBB    A,#0xa
        JNC     ??hextoword1_0
//  816   {
//  817     xx1=abc+48;
        MOV     A,#0x30
        ADD     A,R2
        MOV     R1,A
        SJMP    ??hextoword1_1
//  818   }
//  819   else
//  820   {
//  821     xx1=abc+55;
??hextoword1_0:
        MOV     A,#0x37
        ADD     A,R2
        MOV     R1,A
//  822   }
//  823   return xx1;
??hextoword1_1:
        LJMP    ?BRET
        CFI EndBlock cfiBlock15
//  824 }
//  825 

        RSEG BANKED_CODE:CODE:NOROOT(0)
//  826 uint8 hextoword2(uint8 t)
hextoword2:
        CFI Block cfiBlock16 Using cfiCommon0
        CFI Function hextoword2
        CODE
//  827 {
        PUSH    ?V0 + 0
        CFI V0 Frame(CFA_SP, 4)
        CFI CFA_SP SP+-4
        ; Saved register size: 1
        ; Auto size: 0
        MOV     A,R1
        MOV     R0,A
//  828   uint8 abc;
//  829   uint8 cba;
//  830   uint8 xx2;
//  831   abc=t;
        MOV     ?V0 + 0,R0
//  832   cba=0x0f;
        MOV     R2,#0xf
//  833   abc=abc&cba;
        MOV     A,R2
        ANL     ?V0 + 0,A
//  834   if(abc<10)
        MOV     A,?V0 + 0
        CLR     C
        SUBB    A,#0xa
        JNC     ??hextoword2_0
//  835   {
//  836     xx2=abc+48;
        MOV     A,#0x30
        ADD     A,?V0 + 0
        MOV     R1,A
        SJMP    ??hextoword2_1
//  837   }
//  838   else
//  839   {
//  840     xx2=abc+55;
??hextoword2_0:
        MOV     A,#0x37
        ADD     A,?V0 + 0
        MOV     R1,A
//  841   }
//  842   return xx2;
??hextoword2_1:
        POP     ?V0 + 0
        CFI V0 SameValue
        CFI CFA_SP SP+-3
        LJMP    ?BRET
        CFI EndBlock cfiBlock16
//  843 }
//  844 
//  845 

        RSEG BANKED_CODE:CODE:NOROOT(0)
//  846 uint8 wordtohex(uint8 x,uint8 y)
wordtohex:
        CFI Block cfiBlock17 Using cfiCommon0
        CFI Function wordtohex
        CODE
//  847 {
        ; Saved register size: 0
        ; Auto size: 0
        MOV     A,R1
        MOV     R0,A
//  848   uint8 z;
//  849   if(x>0x39)
        MOV     A,R0
        CLR     C
        SUBB    A,#0x3a
        JC      ??wordtohex_0
//  850   {x=x-0x37;}		//针对16进制中的A B C D E F ASICII码A对应16进制的0X41 B对应0X42   所以 转换为16进制时应该减去0X37  (0X41-0X0A)
        MOV     A,#-0x37
        ADD     A,R0
        MOV     R0,A
        SJMP    ??wordtohex_1
//  851   else
//  852   {x=x-0x30;}		 //ASICII码0~9  对应的十六进制为0X30~0X39    减去0X30  即得到转换
??wordtohex_0:
        MOV     A,#-0x30
        ADD     A,R0
        MOV     R0,A
//  853   if(y>0x39)
??wordtohex_1:
        MOV     A,R2
        CLR     C
        SUBB    A,#0x3a
        JC      ??wordtohex_2
//  854   {y=y-0x37;}
        MOV     A,#-0x37
        ADD     A,R2
        MOV     R2,A
        SJMP    ??wordtohex_3
//  855   else
//  856   {y=y-0x30;}
??wordtohex_2:
        MOV     A,#-0x30
        ADD     A,R2
        MOV     R2,A
//  857   x=x<<4;			    //放到高位上，因为232通信的范围（除了前面的w r : n）就是在0~F几个数字之间 ，转换成16进制后，最多至为4位，半字节
??wordtohex_3:
        MOV     A,R0
        SWAP    A
        ANL     A,#0xf0
        MOV     R0,A
//  858   x=x&0xf0;
        XCH     A,R0
        ANL     A,#0xf0
        MOV     R0,A
//  859   z=y|x;
        MOV     A,R2
        ORL     A,R0
        MOV     R1,A
//  860   return(z);
        LJMP    ?BRET
        CFI EndBlock cfiBlock17
//  861 }
//  862 
//  863 /*
//  864 4位地址
//  865 uint8 command_flag_8,uint8 command_flag_13,uint8 command_flag_14,uint8 command_flag_15,uint8 command_flag_16
//  866 RSSI
//  867 
//  868 */

        RSEG BANKED_CODE:CODE:NOROOT(0)
//  869 void APP_NORMAL_COMMAND(uint8 *command_str)
APP_NORMAL_COMMAND:
        CFI Block cfiBlock18 Using cfiCommon0
        CFI Function APP_NORMAL_COMMAND
        CODE
//  870 {
        FUNCALL APP_NORMAL_COMMAND, AssocCount
        LOCFRAME ISTACK, 0, STACK
        LOCFRAME PSTACK, 0, STACK
        LOCFRAME XSTACK, 84, STACK
        LOCFRAME IOVERLAY, 0, STATIC
        LOCFRAME DOVERLAY, 0, STATIC
        ARGFRAME ISTACK, 0, STACK
        ARGFRAME PSTACK, 0, STACK
        ARGFRAME XSTACK, 84, STACK
        ARGFRAME IOVERLAY, 0, STATIC
        ARGFRAME DOVERLAY, 0, STATIC
        FUNCALL APP_NORMAL_COMMAND, osal_mem_alloc
        LOCFRAME ISTACK, 0, STACK
        LOCFRAME PSTACK, 0, STACK
        LOCFRAME XSTACK, 84, STACK
        LOCFRAME IOVERLAY, 0, STATIC
        LOCFRAME DOVERLAY, 0, STATIC
        ARGFRAME ISTACK, 0, STACK
        ARGFRAME PSTACK, 0, STACK
        ARGFRAME XSTACK, 84, STACK
        ARGFRAME IOVERLAY, 0, STATIC
        ARGFRAME DOVERLAY, 0, STATIC
        FUNCALL APP_NORMAL_COMMAND, osal_mem_alloc
        LOCFRAME ISTACK, 0, STACK
        LOCFRAME PSTACK, 0, STACK
        LOCFRAME XSTACK, 84, STACK
        LOCFRAME IOVERLAY, 0, STATIC
        LOCFRAME DOVERLAY, 0, STATIC
        ARGFRAME ISTACK, 0, STACK
        ARGFRAME PSTACK, 0, STACK
        ARGFRAME XSTACK, 84, STACK
        ARGFRAME IOVERLAY, 0, STATIC
        ARGFRAME DOVERLAY, 0, STATIC
        FUNCALL APP_NORMAL_COMMAND, NLME_GetCoordShortAddr
        LOCFRAME ISTACK, 0, STACK
        LOCFRAME PSTACK, 0, STACK
        LOCFRAME XSTACK, 84, STACK
        LOCFRAME IOVERLAY, 0, STATIC
        LOCFRAME DOVERLAY, 0, STATIC
        ARGFRAME ISTACK, 0, STACK
        ARGFRAME PSTACK, 0, STACK
        ARGFRAME XSTACK, 84, STACK
        ARGFRAME IOVERLAY, 0, STATIC
        ARGFRAME DOVERLAY, 0, STATIC
        FUNCALL APP_NORMAL_COMMAND, AF_DataRequest
        LOCFRAME ISTACK, 0, STACK
        LOCFRAME PSTACK, 0, STACK
        LOCFRAME XSTACK, 93, STACK
        LOCFRAME IOVERLAY, 0, STATIC
        LOCFRAME DOVERLAY, 0, STATIC
        ARGFRAME ISTACK, 0, STACK
        ARGFRAME PSTACK, 0, STACK
        ARGFRAME XSTACK, 93, STACK
        ARGFRAME IOVERLAY, 0, STATIC
        ARGFRAME DOVERLAY, 0, STATIC
        FUNCALL APP_NORMAL_COMMAND, osal_mem_free
        LOCFRAME ISTACK, 0, STACK
        LOCFRAME PSTACK, 0, STACK
        LOCFRAME XSTACK, 84, STACK
        LOCFRAME IOVERLAY, 0, STATIC
        LOCFRAME DOVERLAY, 0, STATIC
        ARGFRAME ISTACK, 0, STACK
        ARGFRAME PSTACK, 0, STACK
        ARGFRAME XSTACK, 84, STACK
        ARGFRAME IOVERLAY, 0, STATIC
        ARGFRAME DOVERLAY, 0, STATIC
        FUNCALL APP_NORMAL_COMMAND, osal_mem_free
        LOCFRAME ISTACK, 0, STACK
        LOCFRAME PSTACK, 0, STACK
        LOCFRAME XSTACK, 84, STACK
        LOCFRAME IOVERLAY, 0, STATIC
        LOCFRAME DOVERLAY, 0, STATIC
        ARGFRAME ISTACK, 0, STACK
        ARGFRAME PSTACK, 0, STACK
        ARGFRAME XSTACK, 84, STACK
        ARGFRAME IOVERLAY, 0, STATIC
        ARGFRAME DOVERLAY, 0, STATIC
        FUNCALL APP_NORMAL_COMMAND, osal_mem_alloc
        LOCFRAME ISTACK, 0, STACK
        LOCFRAME PSTACK, 0, STACK
        LOCFRAME XSTACK, 84, STACK
        LOCFRAME IOVERLAY, 0, STATIC
        LOCFRAME DOVERLAY, 0, STATIC
        ARGFRAME ISTACK, 0, STACK
        ARGFRAME PSTACK, 0, STACK
        ARGFRAME XSTACK, 84, STACK
        ARGFRAME IOVERLAY, 0, STATIC
        ARGFRAME DOVERLAY, 0, STATIC
        FUNCALL APP_NORMAL_COMMAND, AF_DataRequest
        LOCFRAME ISTACK, 0, STACK
        LOCFRAME PSTACK, 0, STACK
        LOCFRAME XSTACK, 93, STACK
        LOCFRAME IOVERLAY, 0, STATIC
        LOCFRAME DOVERLAY, 0, STATIC
        ARGFRAME ISTACK, 0, STACK
        ARGFRAME PSTACK, 0, STACK
        ARGFRAME XSTACK, 93, STACK
        ARGFRAME IOVERLAY, 0, STATIC
        ARGFRAME DOVERLAY, 0, STATIC
        FUNCALL APP_NORMAL_COMMAND, osal_mem_free
        LOCFRAME ISTACK, 0, STACK
        LOCFRAME PSTACK, 0, STACK
        LOCFRAME XSTACK, 84, STACK
        LOCFRAME IOVERLAY, 0, STATIC
        LOCFRAME DOVERLAY, 0, STATIC
        ARGFRAME ISTACK, 0, STACK
        ARGFRAME PSTACK, 0, STACK
        ARGFRAME XSTACK, 84, STACK
        ARGFRAME IOVERLAY, 0, STATIC
        ARGFRAME DOVERLAY, 0, STATIC
        FUNCALL APP_NORMAL_COMMAND, osal_mem_free
        LOCFRAME ISTACK, 0, STACK
        LOCFRAME PSTACK, 0, STACK
        LOCFRAME XSTACK, 84, STACK
        LOCFRAME IOVERLAY, 0, STATIC
        LOCFRAME DOVERLAY, 0, STATIC
        ARGFRAME ISTACK, 0, STACK
        ARGFRAME PSTACK, 0, STACK
        ARGFRAME XSTACK, 84, STACK
        ARGFRAME IOVERLAY, 0, STATIC
        ARGFRAME DOVERLAY, 0, STATIC
        FUNCALL APP_NORMAL_COMMAND, osal_start_timerEx
        LOCFRAME ISTACK, 0, STACK
        LOCFRAME PSTACK, 0, STACK
        LOCFRAME XSTACK, 84, STACK
        LOCFRAME IOVERLAY, 0, STATIC
        LOCFRAME DOVERLAY, 0, STATIC
        ARGFRAME ISTACK, 0, STACK
        ARGFRAME PSTACK, 0, STACK
        ARGFRAME XSTACK, 84, STACK
        ARGFRAME IOVERLAY, 0, STATIC
        ARGFRAME DOVERLAY, 0, STATIC
        FUNCALL APP_NORMAL_COMMAND, HalLedBlink
        LOCFRAME ISTACK, 0, STACK
        LOCFRAME PSTACK, 0, STACK
        LOCFRAME XSTACK, 84, STACK
        LOCFRAME IOVERLAY, 0, STATIC
        LOCFRAME DOVERLAY, 0, STATIC
        ARGFRAME ISTACK, 0, STACK
        ARGFRAME PSTACK, 0, STACK
        ARGFRAME XSTACK, 84, STACK
        ARGFRAME IOVERLAY, 0, STATIC
        ARGFRAME DOVERLAY, 0, STATIC
        FUNCALL APP_NORMAL_COMMAND, osal_nv_item_init
        LOCFRAME ISTACK, 0, STACK
        LOCFRAME PSTACK, 0, STACK
        LOCFRAME XSTACK, 86, STACK
        LOCFRAME IOVERLAY, 0, STATIC
        LOCFRAME DOVERLAY, 0, STATIC
        ARGFRAME ISTACK, 0, STACK
        ARGFRAME PSTACK, 0, STACK
        ARGFRAME XSTACK, 86, STACK
        ARGFRAME IOVERLAY, 0, STATIC
        ARGFRAME DOVERLAY, 0, STATIC
        FUNCALL APP_NORMAL_COMMAND, osal_nv_write
        LOCFRAME ISTACK, 0, STACK
        LOCFRAME PSTACK, 0, STACK
        LOCFRAME XSTACK, 88, STACK
        LOCFRAME IOVERLAY, 0, STATIC
        LOCFRAME DOVERLAY, 0, STATIC
        ARGFRAME ISTACK, 0, STACK
        ARGFRAME PSTACK, 0, STACK
        ARGFRAME XSTACK, 88, STACK
        ARGFRAME IOVERLAY, 0, STATIC
        ARGFRAME DOVERLAY, 0, STATIC
        FUNCALL APP_NORMAL_COMMAND, osal_nv_item_init
        LOCFRAME ISTACK, 0, STACK
        LOCFRAME PSTACK, 0, STACK
        LOCFRAME XSTACK, 86, STACK
        LOCFRAME IOVERLAY, 0, STATIC
        LOCFRAME DOVERLAY, 0, STATIC
        ARGFRAME ISTACK, 0, STACK
        ARGFRAME PSTACK, 0, STACK
        ARGFRAME XSTACK, 86, STACK
        ARGFRAME IOVERLAY, 0, STATIC
        ARGFRAME DOVERLAY, 0, STATIC
        FUNCALL APP_NORMAL_COMMAND, osal_nv_write
        LOCFRAME ISTACK, 0, STACK
        LOCFRAME PSTACK, 0, STACK
        LOCFRAME XSTACK, 88, STACK
        LOCFRAME IOVERLAY, 0, STATIC
        LOCFRAME DOVERLAY, 0, STATIC
        ARGFRAME ISTACK, 0, STACK
        ARGFRAME PSTACK, 0, STACK
        ARGFRAME XSTACK, 88, STACK
        ARGFRAME IOVERLAY, 0, STATIC
        ARGFRAME DOVERLAY, 0, STATIC
        FUNCALL APP_NORMAL_COMMAND, osal_nv_item_init
        LOCFRAME ISTACK, 0, STACK
        LOCFRAME PSTACK, 0, STACK
        LOCFRAME XSTACK, 86, STACK
        LOCFRAME IOVERLAY, 0, STATIC
        LOCFRAME DOVERLAY, 0, STATIC
        ARGFRAME ISTACK, 0, STACK
        ARGFRAME PSTACK, 0, STACK
        ARGFRAME XSTACK, 86, STACK
        ARGFRAME IOVERLAY, 0, STATIC
        ARGFRAME DOVERLAY, 0, STATIC
        FUNCALL APP_NORMAL_COMMAND, osal_nv_write
        LOCFRAME ISTACK, 0, STACK
        LOCFRAME PSTACK, 0, STACK
        LOCFRAME XSTACK, 88, STACK
        LOCFRAME IOVERLAY, 0, STATIC
        LOCFRAME DOVERLAY, 0, STATIC
        ARGFRAME ISTACK, 0, STACK
        ARGFRAME PSTACK, 0, STACK
        ARGFRAME XSTACK, 88, STACK
        ARGFRAME IOVERLAY, 0, STATIC
        ARGFRAME DOVERLAY, 0, STATIC
        FUNCALL APP_NORMAL_COMMAND, AF_DataRequest
        LOCFRAME ISTACK, 0, STACK
        LOCFRAME PSTACK, 0, STACK
        LOCFRAME XSTACK, 93, STACK
        LOCFRAME IOVERLAY, 0, STATIC
        LOCFRAME DOVERLAY, 0, STATIC
        ARGFRAME ISTACK, 0, STACK
        ARGFRAME PSTACK, 0, STACK
        ARGFRAME XSTACK, 93, STACK
        ARGFRAME IOVERLAY, 0, STATIC
        ARGFRAME DOVERLAY, 0, STATIC
        FUNCALL APP_NORMAL_COMMAND, osal_nv_item_init
        LOCFRAME ISTACK, 0, STACK
        LOCFRAME PSTACK, 0, STACK
        LOCFRAME XSTACK, 86, STACK
        LOCFRAME IOVERLAY, 0, STATIC
        LOCFRAME DOVERLAY, 0, STATIC
        ARGFRAME ISTACK, 0, STACK
        ARGFRAME PSTACK, 0, STACK
        ARGFRAME XSTACK, 86, STACK
        ARGFRAME IOVERLAY, 0, STATIC
        ARGFRAME DOVERLAY, 0, STATIC
        FUNCALL APP_NORMAL_COMMAND, osal_nv_write
        LOCFRAME ISTACK, 0, STACK
        LOCFRAME PSTACK, 0, STACK
        LOCFRAME XSTACK, 88, STACK
        LOCFRAME IOVERLAY, 0, STATIC
        LOCFRAME DOVERLAY, 0, STATIC
        ARGFRAME ISTACK, 0, STACK
        ARGFRAME PSTACK, 0, STACK
        ARGFRAME XSTACK, 88, STACK
        ARGFRAME IOVERLAY, 0, STATIC
        ARGFRAME DOVERLAY, 0, STATIC
        FUNCALL APP_NORMAL_COMMAND, osal_start_timerEx
        LOCFRAME ISTACK, 0, STACK
        LOCFRAME PSTACK, 0, STACK
        LOCFRAME XSTACK, 84, STACK
        LOCFRAME IOVERLAY, 0, STATIC
        LOCFRAME DOVERLAY, 0, STATIC
        ARGFRAME ISTACK, 0, STACK
        ARGFRAME PSTACK, 0, STACK
        ARGFRAME XSTACK, 84, STACK
        ARGFRAME IOVERLAY, 0, STATIC
        ARGFRAME DOVERLAY, 0, STATIC
        FUNCALL APP_NORMAL_COMMAND, ZMacSetTransmitPower
        LOCFRAME ISTACK, 0, STACK
        LOCFRAME PSTACK, 0, STACK
        LOCFRAME XSTACK, 84, STACK
        LOCFRAME IOVERLAY, 0, STATIC
        LOCFRAME DOVERLAY, 0, STATIC
        ARGFRAME ISTACK, 0, STACK
        ARGFRAME PSTACK, 0, STACK
        ARGFRAME XSTACK, 84, STACK
        ARGFRAME IOVERLAY, 0, STATIC
        ARGFRAME DOVERLAY, 0, STATIC
        FUNCALL APP_NORMAL_COMMAND, ZMacSetTransmitPower
        LOCFRAME ISTACK, 0, STACK
        LOCFRAME PSTACK, 0, STACK
        LOCFRAME XSTACK, 84, STACK
        LOCFRAME IOVERLAY, 0, STATIC
        LOCFRAME DOVERLAY, 0, STATIC
        ARGFRAME ISTACK, 0, STACK
        ARGFRAME PSTACK, 0, STACK
        ARGFRAME XSTACK, 84, STACK
        ARGFRAME IOVERLAY, 0, STATIC
        ARGFRAME DOVERLAY, 0, STATIC
        FUNCALL APP_NORMAL_COMMAND, ZMacSetTransmitPower
        LOCFRAME ISTACK, 0, STACK
        LOCFRAME PSTACK, 0, STACK
        LOCFRAME XSTACK, 84, STACK
        LOCFRAME IOVERLAY, 0, STATIC
        LOCFRAME DOVERLAY, 0, STATIC
        ARGFRAME ISTACK, 0, STACK
        ARGFRAME PSTACK, 0, STACK
        ARGFRAME XSTACK, 84, STACK
        ARGFRAME IOVERLAY, 0, STATIC
        ARGFRAME DOVERLAY, 0, STATIC
        FUNCALL APP_NORMAL_COMMAND, ZMacSetTransmitPower
        LOCFRAME ISTACK, 0, STACK
        LOCFRAME PSTACK, 0, STACK
        LOCFRAME XSTACK, 84, STACK
        LOCFRAME IOVERLAY, 0, STATIC
        LOCFRAME DOVERLAY, 0, STATIC
        ARGFRAME ISTACK, 0, STACK
        ARGFRAME PSTACK, 0, STACK
        ARGFRAME XSTACK, 84, STACK
        ARGFRAME IOVERLAY, 0, STATIC
        ARGFRAME DOVERLAY, 0, STATIC
        FUNCALL APP_NORMAL_COMMAND, NLME_SetPollRate
        LOCFRAME ISTACK, 0, STACK
        LOCFRAME PSTACK, 0, STACK
        LOCFRAME XSTACK, 84, STACK
        LOCFRAME IOVERLAY, 0, STATIC
        LOCFRAME DOVERLAY, 0, STATIC
        ARGFRAME ISTACK, 0, STACK
        ARGFRAME PSTACK, 0, STACK
        ARGFRAME XSTACK, 84, STACK
        ARGFRAME IOVERLAY, 0, STATIC
        ARGFRAME DOVERLAY, 0, STATIC
        FUNCALL APP_NORMAL_COMMAND, osal_nv_item_init
        LOCFRAME ISTACK, 0, STACK
        LOCFRAME PSTACK, 0, STACK
        LOCFRAME XSTACK, 86, STACK
        LOCFRAME IOVERLAY, 0, STATIC
        LOCFRAME DOVERLAY, 0, STATIC
        ARGFRAME ISTACK, 0, STACK
        ARGFRAME PSTACK, 0, STACK
        ARGFRAME XSTACK, 86, STACK
        ARGFRAME IOVERLAY, 0, STATIC
        ARGFRAME DOVERLAY, 0, STATIC
        FUNCALL APP_NORMAL_COMMAND, osal_nv_write
        LOCFRAME ISTACK, 0, STACK
        LOCFRAME PSTACK, 0, STACK
        LOCFRAME XSTACK, 88, STACK
        LOCFRAME IOVERLAY, 0, STATIC
        LOCFRAME DOVERLAY, 0, STATIC
        ARGFRAME ISTACK, 0, STACK
        ARGFRAME PSTACK, 0, STACK
        ARGFRAME XSTACK, 88, STACK
        ARGFRAME IOVERLAY, 0, STATIC
        ARGFRAME DOVERLAY, 0, STATIC
        FUNCALL APP_NORMAL_COMMAND, AF_DataRequest
        LOCFRAME ISTACK, 0, STACK
        LOCFRAME PSTACK, 0, STACK
        LOCFRAME XSTACK, 93, STACK
        LOCFRAME IOVERLAY, 0, STATIC
        LOCFRAME DOVERLAY, 0, STATIC
        ARGFRAME ISTACK, 0, STACK
        ARGFRAME PSTACK, 0, STACK
        ARGFRAME XSTACK, 93, STACK
        ARGFRAME IOVERLAY, 0, STATIC
        ARGFRAME DOVERLAY, 0, STATIC
        FUNCALL APP_NORMAL_COMMAND, AF_DataRequest
        LOCFRAME ISTACK, 0, STACK
        LOCFRAME PSTACK, 0, STACK
        LOCFRAME XSTACK, 93, STACK
        LOCFRAME IOVERLAY, 0, STATIC
        LOCFRAME DOVERLAY, 0, STATIC
        ARGFRAME ISTACK, 0, STACK
        ARGFRAME PSTACK, 0, STACK
        ARGFRAME XSTACK, 93, STACK
        ARGFRAME IOVERLAY, 0, STATIC
        ARGFRAME DOVERLAY, 0, STATIC
        FUNCALL APP_NORMAL_COMMAND, osal_start_timerEx
        LOCFRAME ISTACK, 0, STACK
        LOCFRAME PSTACK, 0, STACK
        LOCFRAME XSTACK, 84, STACK
        LOCFRAME IOVERLAY, 0, STATIC
        LOCFRAME DOVERLAY, 0, STATIC
        ARGFRAME ISTACK, 0, STACK
        ARGFRAME PSTACK, 0, STACK
        ARGFRAME XSTACK, 84, STACK
        ARGFRAME IOVERLAY, 0, STATIC
        ARGFRAME DOVERLAY, 0, STATIC
        FUNCALL APP_NORMAL_COMMAND, AF_DataRequest
        LOCFRAME ISTACK, 0, STACK
        LOCFRAME PSTACK, 0, STACK
        LOCFRAME XSTACK, 93, STACK
        LOCFRAME IOVERLAY, 0, STATIC
        LOCFRAME DOVERLAY, 0, STATIC
        ARGFRAME ISTACK, 0, STACK
        ARGFRAME PSTACK, 0, STACK
        ARGFRAME XSTACK, 93, STACK
        ARGFRAME IOVERLAY, 0, STATIC
        ARGFRAME DOVERLAY, 0, STATIC
        FUNCALL APP_NORMAL_COMMAND, osal_start_timerEx
        LOCFRAME ISTACK, 0, STACK
        LOCFRAME PSTACK, 0, STACK
        LOCFRAME XSTACK, 84, STACK
        LOCFRAME IOVERLAY, 0, STATIC
        LOCFRAME DOVERLAY, 0, STATIC
        ARGFRAME ISTACK, 0, STACK
        ARGFRAME PSTACK, 0, STACK
        ARGFRAME XSTACK, 84, STACK
        ARGFRAME IOVERLAY, 0, STATIC
        ARGFRAME DOVERLAY, 0, STATIC
        FUNCALL APP_NORMAL_COMMAND, AF_DataRequest
        LOCFRAME ISTACK, 0, STACK
        LOCFRAME PSTACK, 0, STACK
        LOCFRAME XSTACK, 93, STACK
        LOCFRAME IOVERLAY, 0, STATIC
        LOCFRAME DOVERLAY, 0, STATIC
        ARGFRAME ISTACK, 0, STACK
        ARGFRAME PSTACK, 0, STACK
        ARGFRAME XSTACK, 93, STACK
        ARGFRAME IOVERLAY, 0, STATIC
        ARGFRAME DOVERLAY, 0, STATIC
        MOV     A,#-0x12
        LCALL   ?BANKED_ENTER_XDATA
        CFI DPH0 load(1, XDATA, add(CFA_XSP16, literal(-1)))
        CFI DPL0 load(1, XDATA, add(CFA_XSP16, literal(-2)))
        CFI ?BRET_EXT load(1, XDATA, add(CFA_XSP16, literal(-3)))
        CFI ?RET_HIGH load(1, XDATA, add(CFA_XSP16, literal(-4)))
        CFI ?RET_LOW load(1, XDATA, add(CFA_XSP16, literal(-5)))
        CFI R7 load(1, XDATA, add(CFA_XSP16, literal(-6)))
        CFI V9 load(1, XDATA, add(CFA_XSP16, literal(-7)))
        CFI V8 load(1, XDATA, add(CFA_XSP16, literal(-8)))
        CFI V7 load(1, XDATA, add(CFA_XSP16, literal(-9)))
        CFI V6 load(1, XDATA, add(CFA_XSP16, literal(-10)))
        CFI V5 load(1, XDATA, add(CFA_XSP16, literal(-11)))
        CFI V4 load(1, XDATA, add(CFA_XSP16, literal(-12)))
        CFI V3 load(1, XDATA, add(CFA_XSP16, literal(-13)))
        CFI V2 load(1, XDATA, add(CFA_XSP16, literal(-14)))
        CFI V1 load(1, XDATA, add(CFA_XSP16, literal(-15)))
        CFI V0 load(1, XDATA, add(CFA_XSP16, literal(-16)))
        CFI VB load(1, XDATA, add(CFA_XSP16, literal(-17)))
        CFI R6 load(1, XDATA, add(CFA_XSP16, literal(-18)))
        CFI CFA_SP SP+0
        CFI CFA_XSP16 add(XSP16, 18)
        ; Saved register size: 18
        ; Auto size: 66
        MOV     A,#-0x42
        LCALL   ?ALLOC_XSTACK8
        CFI CFA_XSP16 add(XSP16, 84)
        MOV     A,R2
        MOV     R6,A
        MOV     A,R3
        MOV     R7,A
//  871   uint8 *SET_str;
//  872   //test 读取关联表信息发送到网关
//  873   
//  874   
//  875   
//  876   if(  command_str[4]==97)//a:97 读取关联表
        MOV     DPL,R6
        MOV     DPH,R7
        INC     DPTR
        INC     DPTR
        INC     DPTR
        INC     DPTR
        MOVX    A,@DPTR
        XRL     A,#0x61
        JZ      $+5
        LJMP    ??APP_NORMAL_COMMAND_0 & 0xFFFF
//  877   {
//  878     uint8 assi_count;
//  879     uint8 active_assi_count=0;
        MOV     ?V0 + 6,#0x0
//  880     uint8 total_count=0;
        MOV     ?V0 + 2,#0x0
//  881     
//  882     
//  883 //#if defined(RTR_NWK)
//  884 //#ifdef  RTR_NWK_ZDO 
//  885 //#if ( RTR_NWK_ZDO == 1)
//  886 if ( RTR_NWK_FLAG == 1)
        MOV     DPTR,#RTR_NWK_FLAG
        MOVX    A,@DPTR
        XRL     A,#0x1
        JZ      $+5
        LJMP    ??APP_NORMAL_COMMAND_1 & 0xFFFF
//  887     {
//  888     assi_count = AssocCount( (command_str[5]-0x30), (command_str[6]-0x30) );
        ; Setup parameters for call to function AssocCount
        MOV     DPL,R6
        MOV     DPH,R7
        INC     DPTR
        INC     DPTR
        INC     DPTR
        INC     DPTR
        INC     DPTR
        INC     DPTR
        MOVX    A,@DPTR
        ADD     A,#-0x30
        MOV     R2,A
        MOV     DPL,R6
        MOV     DPH,R7
        INC     DPTR
        INC     DPTR
        INC     DPTR
        INC     DPTR
        INC     DPTR
        MOVX    A,@DPTR
        ADD     A,#-0x30
        MOV     R1,A
        LCALL   ??AssocCount?relay
        MOV     A,R2
        MOV     ?V0 + 3,A
//  889     total_count=12+(assi_count*2);
        MOV     B,#0x2
        MOV     A,?V0 + 3
        MUL     AB
        ADD     A,#0xc
        MOV     ?V0 + 2,A
//  890     SET_str=osal_mem_alloc(total_count);
        ; Setup parameters for call to function osal_mem_alloc
        MOV     ?V0 + 4,?V0 + 2
        MOV     ?V0 + 5,#0x0
        MOV     R2,?V0 + 4
        MOV     R3,?V0 + 5
        LCALL   ??osal_mem_alloc?relay
        MOV     ?V0 + 4,R2
        MOV     ?V0 + 5,R3
        MOV     ?V0 + 0,?V0 + 4
        MOV     ?V0 + 1,?V0 + 5
//  891     SET_str[0]=command_str[0];
        MOV     DPL,R6
        MOV     DPH,R7
        MOVX    A,@DPTR
        MOV     DPL,?V0 + 0
        MOV     DPH,?V0 + 1
        MOVX    @DPTR,A
//  892     SET_str[1]=command_str[1];
        MOV     DPL,R6
        MOV     DPH,R7
        INC     DPTR
        MOVX    A,@DPTR
        MOV     DPL,?V0 + 0
        MOV     DPH,?V0 + 1
        INC     DPTR
        MOVX    @DPTR,A
//  893     SET_str[2]=command_str[2];
        MOV     DPL,R6
        MOV     DPH,R7
        INC     DPTR
        INC     DPTR
        MOVX    A,@DPTR
        MOV     DPL,?V0 + 0
        MOV     DPH,?V0 + 1
        INC     DPTR
        INC     DPTR
        MOVX    @DPTR,A
//  894     SET_str[3]=command_str[3];
        MOV     DPL,R6
        MOV     DPH,R7
        INC     DPTR
        INC     DPTR
        INC     DPTR
        MOVX    A,@DPTR
        MOV     DPL,?V0 + 0
        MOV     DPH,?V0 + 1
        INC     DPTR
        INC     DPTR
        INC     DPTR
        MOVX    @DPTR,A
//  895     SET_str[4]='/';
        MOV     DPL,?V0 + 0
        MOV     DPH,?V0 + 1
        INC     DPTR
        INC     DPTR
        INC     DPTR
        INC     DPTR
        MOV     A,#0x2f
        MOVX    @DPTR,A
//  896     SET_str[5]='C';
        MOV     DPL,?V0 + 0
        MOV     DPH,?V0 + 1
        INC     DPTR
        INC     DPTR
        INC     DPTR
        INC     DPTR
        INC     DPTR
        MOV     A,#0x43
        MOVX    @DPTR,A
//  897     SET_str[6]='/';
        MOV     DPL,?V0 + 0
        MOV     DPH,?V0 + 1
        INC     DPTR
        INC     DPTR
        INC     DPTR
        INC     DPTR
        INC     DPTR
        INC     DPTR
        MOV     A,#0x2f
        MOVX    @DPTR,A
//  898     SET_str[7]='U';
        MOV     DPL,?V0 + 0
        MOV     DPH,?V0 + 1
        INC     DPTR
        INC     DPTR
        INC     DPTR
        INC     DPTR
        INC     DPTR
        INC     DPTR
        INC     DPTR
        MOV     A,#0x55
        MOVX    @DPTR,A
//  899     SET_str[8]='U';
        MOV     DPL,?V0 + 0
        MOV     DPH,?V0 + 1
        INC     DPTR
        INC     DPTR
        INC     DPTR
        INC     DPTR
        INC     DPTR
        INC     DPTR
        INC     DPTR
        INC     DPTR
        MOV     A,#0x55
        MOVX    @DPTR,A
//  900     SET_str[9]=0xA0; 
        MOV     DPL,?V0 + 0
        MOV     DPH,?V0 + 1
        INC     DPTR
        INC     DPTR
        INC     DPTR
        INC     DPTR
        INC     DPTR
        INC     DPTR
        INC     DPTR
        INC     DPTR
        INC     DPTR
        MOV     A,#-0x60
        MOVX    @DPTR,A
//  901     SET_str[10]=3;
        MOV     DPL,?V0 + 0
        MOV     DPH,?V0 + 1
        INC     DPTR
        INC     DPTR
        INC     DPTR
        INC     DPTR
        INC     DPTR
        INC     DPTR
        INC     DPTR
        INC     DPTR
        INC     DPTR
        INC     DPTR
        MOV     A,#0x3
        MOVX    @DPTR,A
//  902     SET_str[11]=assi_count;
        MOV     A,?V0 + 3
        MOV     A,?V0 + 0
        ADD     A,#0xb
        MOV     DPL,A
        MOV     A,?V0 + 1
        ADDC    A,#0x0
        MOV     DPH,A
        MOV     A,?V0 + 3
        MOVX    @DPTR,A
//  903     for(uint8 i=0;i<NWK_MAX_DEVICES;i++)
        MOV     R2,#0x0
??APP_NORMAL_COMMAND_2:
        MOV     A,R2
        CLR     C
        SUBB    A,#0x15
        JC      $+5
        LJMP    ??APP_NORMAL_COMMAND_3 & 0xFFFF
//  904     {
//  905       if(AssociatedDevList[i].nodeRelation!=0xff)
        MOV     A,R2
        MOV     R0,A
        MOV     R1,#0x0
        MOV     A,R0
        MOV     B,#0x12
        MUL     AB
        XCH     A,R0
        MOV     R3,B
        MOV     B,#0x0
        MUL     AB
        ADD     A,R3
        MOV     R3,A
        MOV     B,#0x12
        MOV     A,R1
        MUL     AB
        ADD     A,R3
        MOV     R1,A
        MOV     A,#(AssociatedDevList + 4) & 0xff
        ADD     A,R0
        MOV     DPL,A
        MOV     A,#((AssociatedDevList + 4) >> 8) & 0xff
        ADDC    A,R1
        MOV     DPH,A
        MOVX    A,@DPTR
        XRL     A,#0xff
        JNZ     $+5
        LJMP    ??APP_NORMAL_COMMAND_4 & 0xFFFF
//  906       {   
//  907         
//  908         SET_str[12+(2*active_assi_count)]=HI_UINT16(AssociatedDevList[i].shortAddr);
        MOV     A,R2
        MOV     R0,A
        MOV     R1,#0x0
        MOV     A,R0
        MOV     B,#0x12
        MUL     AB
        XCH     A,R0
        MOV     R3,B
        MOV     B,#0x0
        MUL     AB
        ADD     A,R3
        MOV     R3,A
        MOV     B,#0x12
        MOV     A,R1
        MUL     AB
        ADD     A,R3
        MOV     R1,A
        MOV     A,#AssociatedDevList & 0xff
        ADD     A,R0
        MOV     DPL,A
        MOV     A,#(AssociatedDevList >> 8) & 0xff
        ADDC    A,R1
        MOV     DPH,A
        MOVX    A,@DPTR
        MOV     R0,A
        INC     DPTR
        MOVX    A,@DPTR
        MOV     R1,A
        CLR     A
        MOV     A,R1
        MOV     R0,A
        PUSH    A
        CFI CFA_SP SP+-1
        MOV     A,?V0 + 6
        MOV     R0,?V0 + 6
        MOV     R1,#0x0
        MOV     A,R0
        MOV     B,#0x2
        MUL     AB
        XCH     A,R0
        MOV     R3,B
        MOV     B,#0x0
        MUL     AB
        ADD     A,R3
        MOV     R3,A
        MOV     B,#0x2
        MOV     A,R1
        MUL     AB
        ADD     A,R3
        MOV     R1,A
        MOV     A,?V0 + 0
        ADD     A,R0
        MOV     R0,A
        MOV     A,?V0 + 1
        ADDC    A,R1
        MOV     R1,A
        MOV     A,R0
        ADD     A,#0xc
        MOV     DPL,A
        MOV     A,R1
        ADDC    A,#0x0
        MOV     DPH,A
        POP     A
        CFI CFA_SP SP+0
        MOVX    @DPTR,A
//  909         SET_str[13+(2*active_assi_count)]=LO_UINT16(AssociatedDevList[i].shortAddr);
        MOV     A,R2
        MOV     R0,A
        MOV     R1,#0x0
        MOV     A,R0
        MOV     B,#0x12
        MUL     AB
        XCH     A,R0
        MOV     R3,B
        MOV     B,#0x0
        MUL     AB
        ADD     A,R3
        MOV     R3,A
        MOV     B,#0x12
        MOV     A,R1
        MUL     AB
        ADD     A,R3
        MOV     R1,A
        MOV     A,#AssociatedDevList & 0xff
        ADD     A,R0
        MOV     DPL,A
        MOV     A,#(AssociatedDevList >> 8) & 0xff
        ADDC    A,R1
        MOV     DPH,A
        MOVX    A,@DPTR
        MOV     R0,A
        INC     DPTR
        MOVX    A,@DPTR
        MOV     R1,A
        MOV     A,R0
        PUSH    A
        CFI CFA_SP SP+-1
        MOV     A,?V0 + 6
        MOV     R0,?V0 + 6
        MOV     R1,#0x0
        MOV     A,R0
        MOV     B,#0x2
        MUL     AB
        XCH     A,R0
        MOV     R3,B
        MOV     B,#0x0
        MUL     AB
        ADD     A,R3
        MOV     R3,A
        MOV     B,#0x2
        MOV     A,R1
        MUL     AB
        ADD     A,R3
        MOV     R1,A
        MOV     A,?V0 + 0
        ADD     A,R0
        MOV     R0,A
        MOV     A,?V0 + 1
        ADDC    A,R1
        MOV     R1,A
        MOV     A,R0
        ADD     A,#0xd
        MOV     DPL,A
        MOV     A,R1
        ADDC    A,#0x0
        MOV     DPH,A
        POP     A
        CFI CFA_SP SP+0
        MOVX    @DPTR,A
//  910         active_assi_count++;
        INC     ?V0 + 6
//  911       }
//  912     }
??APP_NORMAL_COMMAND_4:
        INC     R2
        LJMP    ??APP_NORMAL_COMMAND_2 & 0xFFFF
//  913     }
//  914     else     
//  915     {
//  916     uint16 parent_short_adress;
//  917     assi_count=1;
??APP_NORMAL_COMMAND_1:
        MOV     ?V0 + 3,#0x1
//  918     total_count=14;
        MOV     ?V0 + 2,#0xe
//  919     
//  920     SET_str=osal_mem_alloc(total_count);
        ; Setup parameters for call to function osal_mem_alloc
        MOV     ?V0 + 8,?V0 + 2
        MOV     ?V0 + 9,#0x0
        MOV     R2,?V0 + 8
        MOV     R3,?V0 + 9
        LCALL   ??osal_mem_alloc?relay
        MOV     ?V0 + 8,R2
        MOV     ?V0 + 9,R3
        MOV     ?V0 + 0,?V0 + 8
        MOV     ?V0 + 1,?V0 + 9
//  921     SET_str[0]=command_str[0];
        MOV     DPL,R6
        MOV     DPH,R7
        MOVX    A,@DPTR
        MOV     DPL,?V0 + 0
        MOV     DPH,?V0 + 1
        MOVX    @DPTR,A
//  922     SET_str[1]=command_str[1];
        MOV     DPL,R6
        MOV     DPH,R7
        INC     DPTR
        MOVX    A,@DPTR
        MOV     DPL,?V0 + 0
        MOV     DPH,?V0 + 1
        INC     DPTR
        MOVX    @DPTR,A
//  923     SET_str[2]=command_str[2];
        MOV     DPL,R6
        MOV     DPH,R7
        INC     DPTR
        INC     DPTR
        MOVX    A,@DPTR
        MOV     DPL,?V0 + 0
        MOV     DPH,?V0 + 1
        INC     DPTR
        INC     DPTR
        MOVX    @DPTR,A
//  924     SET_str[3]=command_str[3];
        MOV     DPL,R6
        MOV     DPH,R7
        INC     DPTR
        INC     DPTR
        INC     DPTR
        MOVX    A,@DPTR
        MOV     DPL,?V0 + 0
        MOV     DPH,?V0 + 1
        INC     DPTR
        INC     DPTR
        INC     DPTR
        MOVX    @DPTR,A
//  925     SET_str[4]='/';
        MOV     DPL,?V0 + 0
        MOV     DPH,?V0 + 1
        INC     DPTR
        INC     DPTR
        INC     DPTR
        INC     DPTR
        MOV     A,#0x2f
        MOVX    @DPTR,A
//  926     SET_str[5]='C';
        MOV     DPL,?V0 + 0
        MOV     DPH,?V0 + 1
        INC     DPTR
        INC     DPTR
        INC     DPTR
        INC     DPTR
        INC     DPTR
        MOV     A,#0x43
        MOVX    @DPTR,A
//  927     SET_str[6]='/';
        MOV     DPL,?V0 + 0
        MOV     DPH,?V0 + 1
        INC     DPTR
        INC     DPTR
        INC     DPTR
        INC     DPTR
        INC     DPTR
        INC     DPTR
        MOV     A,#0x2f
        MOVX    @DPTR,A
//  928     SET_str[7]='U';
        MOV     DPL,?V0 + 0
        MOV     DPH,?V0 + 1
        INC     DPTR
        INC     DPTR
        INC     DPTR
        INC     DPTR
        INC     DPTR
        INC     DPTR
        INC     DPTR
        MOV     A,#0x55
        MOVX    @DPTR,A
//  929     SET_str[8]='U';
        MOV     DPL,?V0 + 0
        MOV     DPH,?V0 + 1
        INC     DPTR
        INC     DPTR
        INC     DPTR
        INC     DPTR
        INC     DPTR
        INC     DPTR
        INC     DPTR
        INC     DPTR
        MOV     A,#0x55
        MOVX    @DPTR,A
//  930     SET_str[9]=0xA0;
        MOV     DPL,?V0 + 0
        MOV     DPH,?V0 + 1
        INC     DPTR
        INC     DPTR
        INC     DPTR
        INC     DPTR
        INC     DPTR
        INC     DPTR
        INC     DPTR
        INC     DPTR
        INC     DPTR
        MOV     A,#-0x60
        MOVX    @DPTR,A
//  931     SET_str[10]=3;
        MOV     DPL,?V0 + 0
        MOV     DPH,?V0 + 1
        INC     DPTR
        INC     DPTR
        INC     DPTR
        INC     DPTR
        INC     DPTR
        INC     DPTR
        INC     DPTR
        INC     DPTR
        INC     DPTR
        INC     DPTR
        MOV     A,#0x3
        MOVX    @DPTR,A
//  932     SET_str[11]=assi_count;
        MOV     A,?V0 + 3
        MOV     A,?V0 + 0
        ADD     A,#0xb
        MOV     DPL,A
        MOV     A,?V0 + 1
        ADDC    A,#0x0
        MOV     DPH,A
        MOV     A,?V0 + 3
        MOVX    @DPTR,A
//  933     parent_short_adress=NLME_GetCoordShortAddr();
        ; Setup parameters for call to function NLME_GetCoordShortAddr
        LCALL   ??NLME_GetCoordShortAddr?relay
        MOV     ?V0 + 8,R2
        MOV     ?V0 + 9,R3
        MOV     ?V0 + 4,?V0 + 8
        MOV     ?V0 + 5,?V0 + 9
//  934     SET_str[12]=HI_UINT16(parent_short_adress);
        MOV     R0,?V0 + 4
        MOV     R1,?V0 + 5
        CLR     A
        MOV     A,?V0 + 5
        MOV     R0,?V0 + 5
        MOV     A,?V0 + 5
        MOV     A,?V0 + 0
        ADD     A,#0xc
        MOV     DPL,A
        MOV     A,?V0 + 1
        ADDC    A,#0x0
        MOV     DPH,A
        MOV     A,?V0 + 5
        MOVX    @DPTR,A
//  935     SET_str[13]=LO_UINT16(parent_short_adress);
        MOV     A,?V0 + 4
        MOV     A,?V0 + 0
        ADD     A,#0xd
        MOV     DPL,A
        MOV     A,?V0 + 1
        ADDC    A,#0x0
        MOV     DPH,A
        MOV     A,?V0 + 4
        MOVX    @DPTR,A
//  936     }
//  937 
//  938     
//  939     
//  940     //   if(data_sucess_flag==2)
//  941     {    
//  942       SampleApp_SPI_SendCommand_DstAddr.addrMode = (afAddrMode_t)Addr16Bit;
??APP_NORMAL_COMMAND_3:
        MOV     DPTR,#SampleApp_SPI_SendCommand_DstAddr + 8
        MOV     A,#0x2
        MOVX    @DPTR,A
//  943       SampleApp_SPI_SendCommand_DstAddr.endPoint = SAMPLEAPP_ENDPOINT;
        MOV     DPTR,#SampleApp_SPI_SendCommand_DstAddr + 9
        MOV     A,#0x14
        MOVX    @DPTR,A
//  944       SampleApp_SPI_SendCommand_DstAddr.addr.shortAddr = 0X0000;
        MOV     DPTR,#SampleApp_SPI_SendCommand_DstAddr
        MOV     A,#0x0
        MOVX    @DPTR,A
        INC     DPTR
        MOV     A,#0x0
        MOVX    @DPTR,A
//  945       //   SampleApp_SPI_SendCommand_DstAddr.addr.shortAddr = pkt->srcAddr.addr.shortAddr;//发送给来的设备
//  946       
//  947       if ( AF_DataRequest( &SampleApp_SPI_SendCommand_DstAddr,
//  948                           (endPointDesc_t *)&SampleApp_epDesc,
//  949                           SAMPLEAPP_COMMAND_CLUSTERID, //终端传过去，协调器处理了
//  950                           total_count, SET_str,
//  951                           &SampleApp_TransID, 
//  952                           AF_DISCV_ROUTE, 
//  953                           AF_DEFAULT_RADIUS ) == afStatus_SUCCESS )
        ; Setup parameters for call to function AF_DataRequest
        MOV     ?V0 + 4,#0xf
        MOV     R0,#?V0 + 4
        LCALL   ?PUSH_XSTACK_I_ONE
        CFI CFA_XSP16 add(XSP16, 85)
        MOV     ?V0 + 4,#SampleApp_TransID & 0xff
        MOV     ?V0 + 5,#(SampleApp_TransID >> 8) & 0xff
        MOV     R0,#?V0 + 4
        LCALL   ?PUSH_XSTACK_I_TWO
        CFI CFA_XSP16 add(XSP16, 87)
        MOV     R0,#?V0 + 0
        LCALL   ?PUSH_XSTACK_I_TWO
        CFI CFA_XSP16 add(XSP16, 89)
        MOV     ?V0 + 4,?V0 + 2
        MOV     ?V0 + 5,#0x0
        MOV     R0,#?V0 + 4
        LCALL   ?PUSH_XSTACK_I_TWO
        CFI CFA_XSP16 add(XSP16, 91)
        MOV     ?V0 + 4,#0x4
        MOV     ?V0 + 5,#0x0
        MOV     R0,#?V0 + 4
        LCALL   ?PUSH_XSTACK_I_TWO
        CFI CFA_XSP16 add(XSP16, 93)
        MOV     R1,#0x20
        MOV     R4,#SampleApp_epDesc & 0xff
        MOV     R5,#(SampleApp_epDesc >> 8) & 0xff
        MOV     R2,#SampleApp_SPI_SendCommand_DstAddr & 0xff
        MOV     R3,#(SampleApp_SPI_SendCommand_DstAddr >> 8) & 0xff
        LCALL   ??AF_DataRequest?relay
        MOV     A,#0x9
        LCALL   ?DEALLOC_XSTACK8
        CFI CFA_XSP16 add(XSP16, 84)
        MOV     A,R1
        JNZ     ??APP_NORMAL_COMMAND_5
//  954       {
//  955         osal_mem_free(SET_str);
        ; Setup parameters for call to function osal_mem_free
        MOV     R2,?V0 + 0
        MOV     R3,?V0 + 1
        LCALL   ??osal_mem_free?relay
        LJMP    ??APP_NORMAL_COMMAND_6 & 0xFFFF
//  956       }
//  957       else
//  958       {
//  959         osal_mem_free(SET_str);
??APP_NORMAL_COMMAND_5:
        ; Setup parameters for call to function osal_mem_free
        MOV     R2,?V0 + 0
        MOV     R3,?V0 + 1
        LCALL   ??osal_mem_free?relay
        LJMP    ??APP_NORMAL_COMMAND_6 & 0xFFFF
//  960       }  
//  961     }
//  962   }
//  963   
//  964   
//  965   else if(command_str[4]=='f')//f
??APP_NORMAL_COMMAND_0:
        MOV     DPL,R6
        MOV     DPH,R7
        INC     DPTR
        INC     DPTR
        INC     DPTR
        INC     DPTR
        MOVX    A,@DPTR
        XRL     A,#0x66
        JZ      $+5
        LJMP    ??APP_NORMAL_COMMAND_7 & 0xFFFF
//  966   {
//  967     
//  968     SET_str=osal_mem_alloc(12);
        ; Setup parameters for call to function osal_mem_alloc
        MOV     R2,#0xc
        MOV     R3,#0x0
        LCALL   ??osal_mem_alloc?relay
        MOV     ?V0 + 2,R2
        MOV     ?V0 + 3,R3
        MOV     ?V0 + 0,?V0 + 2
        MOV     ?V0 + 1,?V0 + 3
//  969     SET_str[0]=command_str[0];
        MOV     DPL,R6
        MOV     DPH,R7
        MOVX    A,@DPTR
        MOV     DPL,?V0 + 0
        MOV     DPH,?V0 + 1
        MOVX    @DPTR,A
//  970     SET_str[1]=command_str[1];
        MOV     DPL,R6
        MOV     DPH,R7
        INC     DPTR
        MOVX    A,@DPTR
        MOV     DPL,?V0 + 0
        MOV     DPH,?V0 + 1
        INC     DPTR
        MOVX    @DPTR,A
//  971     SET_str[2]=command_str[2];
        MOV     DPL,R6
        MOV     DPH,R7
        INC     DPTR
        INC     DPTR
        MOVX    A,@DPTR
        MOV     DPL,?V0 + 0
        MOV     DPH,?V0 + 1
        INC     DPTR
        INC     DPTR
        MOVX    @DPTR,A
//  972     SET_str[3]=command_str[3];
        MOV     DPL,R6
        MOV     DPH,R7
        INC     DPTR
        INC     DPTR
        INC     DPTR
        MOVX    A,@DPTR
        MOV     DPL,?V0 + 0
        MOV     DPH,?V0 + 1
        INC     DPTR
        INC     DPTR
        INC     DPTR
        MOVX    @DPTR,A
//  973     SET_str[4]='/';
        MOV     DPL,?V0 + 0
        MOV     DPH,?V0 + 1
        INC     DPTR
        INC     DPTR
        INC     DPTR
        INC     DPTR
        MOV     A,#0x2f
        MOVX    @DPTR,A
//  974     SET_str[5]='C';
        MOV     DPL,?V0 + 0
        MOV     DPH,?V0 + 1
        INC     DPTR
        INC     DPTR
        INC     DPTR
        INC     DPTR
        INC     DPTR
        MOV     A,#0x43
        MOVX    @DPTR,A
//  975     SET_str[6]='/';
        MOV     DPL,?V0 + 0
        MOV     DPH,?V0 + 1
        INC     DPTR
        INC     DPTR
        INC     DPTR
        INC     DPTR
        INC     DPTR
        INC     DPTR
        MOV     A,#0x2f
        MOVX    @DPTR,A
//  976     SET_str[7]='U';
        MOV     DPL,?V0 + 0
        MOV     DPH,?V0 + 1
        INC     DPTR
        INC     DPTR
        INC     DPTR
        INC     DPTR
        INC     DPTR
        INC     DPTR
        INC     DPTR
        MOV     A,#0x55
        MOVX    @DPTR,A
//  977     SET_str[8]='U';
        MOV     DPL,?V0 + 0
        MOV     DPH,?V0 + 1
        INC     DPTR
        INC     DPTR
        INC     DPTR
        INC     DPTR
        INC     DPTR
        INC     DPTR
        INC     DPTR
        INC     DPTR
        MOV     A,#0x55
        MOVX    @DPTR,A
//  978     SET_str[9]=0xA0;
        MOV     DPL,?V0 + 0
        MOV     DPH,?V0 + 1
        INC     DPTR
        INC     DPTR
        INC     DPTR
        INC     DPTR
        INC     DPTR
        INC     DPTR
        INC     DPTR
        INC     DPTR
        INC     DPTR
        MOV     A,#-0x60
        MOVX    @DPTR,A
//  979     SET_str[10]=2;
        MOV     DPL,?V0 + 0
        MOV     DPH,?V0 + 1
        INC     DPTR
        INC     DPTR
        INC     DPTR
        INC     DPTR
        INC     DPTR
        INC     DPTR
        INC     DPTR
        INC     DPTR
        INC     DPTR
        INC     DPTR
        MOV     A,#0x2
        MOVX    @DPTR,A
//  980     SET_str[11]=command_str[9];//get the rssi
        MOV     DPL,R6
        MOV     DPH,R7
        INC     DPTR
        INC     DPTR
        INC     DPTR
        INC     DPTR
        INC     DPTR
        INC     DPTR
        INC     DPTR
        INC     DPTR
        INC     DPTR
        MOVX    A,@DPTR
        PUSH    A
        CFI CFA_SP SP+-1
        MOV     A,?V0 + 0
        ADD     A,#0xb
        MOV     DPL,A
        MOV     A,?V0 + 1
        ADDC    A,#0x0
        MOV     DPH,A
        POP     A
        CFI CFA_SP SP+0
        MOVX    @DPTR,A
//  981     //   if(data_sucess_flag==3)
//  982     {    
//  983       SampleApp_SPI_SendCommand_DstAddr.addrMode = (afAddrMode_t)Addr16Bit;
        MOV     DPTR,#SampleApp_SPI_SendCommand_DstAddr + 8
        MOV     A,#0x2
        MOVX    @DPTR,A
//  984       SampleApp_SPI_SendCommand_DstAddr.endPoint = SAMPLEAPP_ENDPOINT;
        MOV     DPTR,#SampleApp_SPI_SendCommand_DstAddr + 9
        MOV     A,#0x14
        MOVX    @DPTR,A
//  985       SampleApp_SPI_SendCommand_DstAddr.addr.shortAddr = 0X0000;
        MOV     DPTR,#SampleApp_SPI_SendCommand_DstAddr
        MOV     A,#0x0
        MOVX    @DPTR,A
        INC     DPTR
        MOV     A,#0x0
        MOVX    @DPTR,A
//  986     //   SampleApp_SPI_SendCommand_DstAddr.addr.shortAddr = pkt->srcAddr.addr.shortAddr;//发送给来的设备
//  987       
//  988       if ( AF_DataRequest( &SampleApp_SPI_SendCommand_DstAddr,
//  989                           (endPointDesc_t *)&SampleApp_epDesc,
//  990                           SAMPLEAPP_COMMAND_CLUSTERID, //终端传过去，协调器处理了
//  991                           12, SET_str,
//  992                           &SampleApp_TransID, 
//  993                           AF_DISCV_ROUTE, 
//  994                           AF_DEFAULT_RADIUS ) == afStatus_SUCCESS )
        ; Setup parameters for call to function AF_DataRequest
        MOV     ?V0 + 2,#0xf
        MOV     R0,#?V0 + 2
        LCALL   ?PUSH_XSTACK_I_ONE
        CFI CFA_XSP16 add(XSP16, 85)
        MOV     ?V0 + 2,#SampleApp_TransID & 0xff
        MOV     ?V0 + 3,#(SampleApp_TransID >> 8) & 0xff
        MOV     R0,#?V0 + 2
        LCALL   ?PUSH_XSTACK_I_TWO
        CFI CFA_XSP16 add(XSP16, 87)
        MOV     R0,#?V0 + 0
        LCALL   ?PUSH_XSTACK_I_TWO
        CFI CFA_XSP16 add(XSP16, 89)
        MOV     ?V0 + 2,#0xc
        MOV     ?V0 + 3,#0x0
        MOV     R0,#?V0 + 2
        LCALL   ?PUSH_XSTACK_I_TWO
        CFI CFA_XSP16 add(XSP16, 91)
        MOV     ?V0 + 2,#0x4
        MOV     ?V0 + 3,#0x0
        MOV     R0,#?V0 + 2
        LCALL   ?PUSH_XSTACK_I_TWO
        CFI CFA_XSP16 add(XSP16, 93)
        MOV     R1,#0x20
        MOV     R4,#SampleApp_epDesc & 0xff
        MOV     R5,#(SampleApp_epDesc >> 8) & 0xff
        MOV     R2,#SampleApp_SPI_SendCommand_DstAddr & 0xff
        MOV     R3,#(SampleApp_SPI_SendCommand_DstAddr >> 8) & 0xff
        LCALL   ??AF_DataRequest?relay
        MOV     A,#0x9
        LCALL   ?DEALLOC_XSTACK8
        CFI CFA_XSP16 add(XSP16, 84)
        MOV     A,R1
        JNZ     ??APP_NORMAL_COMMAND_8
//  995       {
//  996         osal_mem_free(SET_str);
        ; Setup parameters for call to function osal_mem_free
        MOV     R2,?V0 + 0
        MOV     R3,?V0 + 1
        LCALL   ??osal_mem_free?relay
        LJMP    ??APP_NORMAL_COMMAND_6 & 0xFFFF
//  997       }
//  998       else
//  999       {
// 1000         osal_mem_free(SET_str);
??APP_NORMAL_COMMAND_8:
        ; Setup parameters for call to function osal_mem_free
        MOV     R2,?V0 + 0
        MOV     R3,?V0 + 1
        LCALL   ??osal_mem_free?relay
        LJMP    ??APP_NORMAL_COMMAND_6 & 0xFFFF
// 1001       }  
// 1002     }
// 1003   }
// 1004   
// 1005   
// 1006   
// 1007   
// 1008   else if(command_str[4]=='F')
??APP_NORMAL_COMMAND_7:
        MOV     DPL,R6
        MOV     DPH,R7
        INC     DPTR
        INC     DPTR
        INC     DPTR
        INC     DPTR
        MOVX    A,@DPTR
        XRL     A,#0x46
        JNZ     ??APP_NORMAL_COMMAND_9
// 1009   {
// 1010     osal_start_timerEx( SampleApp_TaskID,SAMPLEAPP_RESTORE_EVT,2000 );
        ; Setup parameters for call to function osal_start_timerEx
        MOV     R4,#-0x30
        MOV     R5,#0x7
        MOV     R2,#0x10
        MOV     R3,#0x0
        MOV     DPTR,#SampleApp_TaskID
        MOVX    A,@DPTR
        MOV     R1,A
        LCALL   ??osal_start_timerEx?relay
        MOV     A,R1
        LJMP    ??APP_NORMAL_COMMAND_6 & 0xFFFF
// 1011   }
// 1012   
// 1013   else if(command_str[4]=='Q')
??APP_NORMAL_COMMAND_9:
        MOV     DPL,R6
        MOV     DPH,R7
        INC     DPTR
        INC     DPTR
        INC     DPTR
        INC     DPTR
        MOVX    A,@DPTR
        XRL     A,#0x51
        JZ      $+5
        LJMP    ??APP_NORMAL_COMMAND_10 & 0xFFFF
// 1014   {
// 1015     uint8 startOptions =0;
        MOV     DPL,?XSP + 0
        MOV     DPH,?XSP + 1
        MOV     A,#0x0
        MOVX    @DPTR,A
// 1016     
// 1017     HalLedBlink ( HAL_LED_1, 4, 50, 1000 );
        ; Setup parameters for call to function HalLedBlink
        MOV     R4,#-0x18
        MOV     R5,#0x3
        MOV     R3,#0x32
        MOV     R2,#0x4
        MOV     R1,#0x1
        LCALL   ??HalLedBlink?relay
// 1018     startOptions=0;    
        MOV     DPL,?XSP + 0
        MOV     DPH,?XSP + 1
        MOV     A,#0x0
        MOVX    @DPTR,A
// 1019     
// 1020     New_join_role_flag = command_str[5]-'0';
        MOV     DPL,R6
        MOV     DPH,R7
        INC     DPTR
        INC     DPTR
        INC     DPTR
        INC     DPTR
        INC     DPTR
        MOVX    A,@DPTR
        ADD     A,#-0x30
        MOV     DPTR,#New_join_role_flag
        MOVX    @DPTR,A
// 1021     New_join_delay_time = 100*(command_str[6]-'0')+10*(command_str[7]-'0')+command_str[8]-'0';
        MOV     DPL,R6
        MOV     DPH,R7
        INC     DPTR
        INC     DPTR
        INC     DPTR
        INC     DPTR
        INC     DPTR
        INC     DPTR
        INC     DPTR
        INC     DPTR
        PUSH    DPL
        CFI CFA_SP SP+-1
        PUSH    DPH
        CFI CFA_SP SP+-2
        MOV     B,#0xa
        MOV     DPL,R6
        MOV     DPH,R7
        INC     DPTR
        INC     DPTR
        INC     DPTR
        INC     DPTR
        INC     DPTR
        INC     DPTR
        INC     DPTR
        MOVX    A,@DPTR
        MUL     AB
        MOV     R0,A
        MOV     B,#0x64
        MOV     DPL,R6
        MOV     DPH,R7
        INC     DPTR
        INC     DPTR
        INC     DPTR
        INC     DPTR
        INC     DPTR
        INC     DPTR
        MOVX    A,@DPTR
        MUL     AB
        ADD     A,R0
        POP     DPH
        CFI CFA_SP SP+-1
        POP     DPL
        CFI CFA_SP SP+0
        MOV     R0,A
        MOVX    A,@DPTR
        ADD     A,R0
        ADD     A,#0x30
        MOV     DPTR,#New_join_delay_time
        MOVX    @DPTR,A
// 1022     
// 1023     Join_isset_flag  =1; //确保能够切换角色
        MOV     DPTR,#Join_isset_flag
        MOV     A,#0x1
        MOVX    @DPTR,A
// 1024     osal_nv_item_init(ZCD_NV_JOIN_ISSET_FLAG, 1, &Join_isset_flag); 
        ; Setup parameters for call to function osal_nv_item_init
        MOV     ?V0 + 2,#Join_isset_flag & 0xff
        MOV     ?V0 + 3,#(Join_isset_flag >> 8) & 0xff
        MOV     R0,#?V0 + 2
        LCALL   ?PUSH_XSTACK_I_TWO
        CFI CFA_XSP16 add(XSP16, 86)
        MOV     R4,#0x1
        MOV     R5,#0x0
        MOV     R2,#0x38
        MOV     R3,#0x4
        LCALL   ??osal_nv_item_init?relay
        MOV     A,#0x2
        LCALL   ?DEALLOC_XSTACK8
        CFI CFA_XSP16 add(XSP16, 84)
        MOV     A,R1
// 1025     osal_nv_write(ZCD_NV_JOIN_ISSET_FLAG, 0, 1, &Join_isset_flag);
        ; Setup parameters for call to function osal_nv_write
        MOV     ?V0 + 2,#Join_isset_flag & 0xff
        MOV     ?V0 + 3,#(Join_isset_flag >> 8) & 0xff
        MOV     R0,#?V0 + 2
        LCALL   ?PUSH_XSTACK_I_TWO
        CFI CFA_XSP16 add(XSP16, 86)
        MOV     ?V0 + 2,#0x1
        MOV     ?V0 + 3,#0x0
        MOV     R0,#?V0 + 2
        LCALL   ?PUSH_XSTACK_I_TWO
        CFI CFA_XSP16 add(XSP16, 88)
        MOV     R4,#0x0
        MOV     R5,#0x0
        MOV     R2,#0x38
        MOV     R3,#0x4
        LCALL   ??osal_nv_write?relay
        MOV     A,#0x4
        LCALL   ?DEALLOC_XSTACK8
        CFI CFA_XSP16 add(XSP16, 84)
        MOV     A,R1
// 1026     
// 1027     osal_nv_item_init(ZCD_NV_JOIN_ROLE_FLAG, 1, &New_join_role_flag); 
        ; Setup parameters for call to function osal_nv_item_init
        MOV     ?V0 + 2,#New_join_role_flag & 0xff
        MOV     ?V0 + 3,#(New_join_role_flag >> 8) & 0xff
        MOV     R0,#?V0 + 2
        LCALL   ?PUSH_XSTACK_I_TWO
        CFI CFA_XSP16 add(XSP16, 86)
        MOV     R4,#0x1
        MOV     R5,#0x0
        MOV     R2,#0x30
        MOV     R3,#0x4
        LCALL   ??osal_nv_item_init?relay
        MOV     A,#0x2
        LCALL   ?DEALLOC_XSTACK8
        CFI CFA_XSP16 add(XSP16, 84)
        MOV     A,R1
// 1028     osal_nv_write(ZCD_NV_JOIN_ROLE_FLAG, 0, 1, &New_join_role_flag);
        ; Setup parameters for call to function osal_nv_write
        MOV     ?V0 + 2,#New_join_role_flag & 0xff
        MOV     ?V0 + 3,#(New_join_role_flag >> 8) & 0xff
        MOV     R0,#?V0 + 2
        LCALL   ?PUSH_XSTACK_I_TWO
        CFI CFA_XSP16 add(XSP16, 86)
        MOV     ?V0 + 2,#0x1
        MOV     ?V0 + 3,#0x0
        MOV     R0,#?V0 + 2
        LCALL   ?PUSH_XSTACK_I_TWO
        CFI CFA_XSP16 add(XSP16, 88)
        MOV     R4,#0x0
        MOV     R5,#0x0
        MOV     R2,#0x30
        MOV     R3,#0x4
        LCALL   ??osal_nv_write?relay
        MOV     A,#0x4
        LCALL   ?DEALLOC_XSTACK8
        CFI CFA_XSP16 add(XSP16, 84)
        MOV     A,R1
// 1029     
// 1030     osal_nv_item_init(ZCD_NV_JOIN_START_TIME_VALUE, 1, &New_join_delay_time); 
        ; Setup parameters for call to function osal_nv_item_init
        MOV     ?V0 + 2,#New_join_delay_time & 0xff
        MOV     ?V0 + 3,#(New_join_delay_time >> 8) & 0xff
        MOV     R0,#?V0 + 2
        LCALL   ?PUSH_XSTACK_I_TWO
        CFI CFA_XSP16 add(XSP16, 86)
        MOV     R4,#0x1
        MOV     R5,#0x0
        MOV     R2,#0x35
        MOV     R3,#0x4
        LCALL   ??osal_nv_item_init?relay
        MOV     A,#0x2
        LCALL   ?DEALLOC_XSTACK8
        CFI CFA_XSP16 add(XSP16, 84)
        MOV     A,R1
// 1031     osal_nv_write(ZCD_NV_JOIN_START_TIME_VALUE, 0, 1, &New_join_delay_time); 
        ; Setup parameters for call to function osal_nv_write
        MOV     ?V0 + 2,#New_join_delay_time & 0xff
        MOV     ?V0 + 3,#(New_join_delay_time >> 8) & 0xff
        MOV     R0,#?V0 + 2
        LCALL   ?PUSH_XSTACK_I_TWO
        CFI CFA_XSP16 add(XSP16, 86)
        MOV     ?V0 + 2,#0x1
        MOV     ?V0 + 3,#0x0
        MOV     R0,#?V0 + 2
        LCALL   ?PUSH_XSTACK_I_TWO
        CFI CFA_XSP16 add(XSP16, 88)
        MOV     R4,#0x0
        MOV     R5,#0x0
        MOV     R2,#0x35
        MOV     R3,#0x4
        LCALL   ??osal_nv_write?relay
        MOV     A,#0x4
        LCALL   ?DEALLOC_XSTACK8
        CFI CFA_XSP16 add(XSP16, 84)
        MOV     A,R1
// 1032     
// 1033     
// 1034     uint8 quit_str[12];
// 1035     
// 1036     quit_str[0]=command_str[0];
        MOV     DPL,R6
        MOV     DPH,R7
        MOVX    A,@DPTR
        PUSH    A
        CFI CFA_SP SP+-1
        MOV     A,#0x36
        LCALL   ?XSTACK_DISP0_8
        POP     A
        CFI CFA_SP SP+0
        MOVX    @DPTR,A
// 1037     quit_str[1]=command_str[1];
        MOV     DPL,R6
        MOV     DPH,R7
        INC     DPTR
        MOVX    A,@DPTR
        PUSH    A
        CFI CFA_SP SP+-1
        MOV     A,#0x37
        LCALL   ?XSTACK_DISP0_8
        POP     A
        CFI CFA_SP SP+0
        MOVX    @DPTR,A
// 1038     quit_str[2]=command_str[2];
        MOV     DPL,R6
        MOV     DPH,R7
        INC     DPTR
        INC     DPTR
        MOVX    A,@DPTR
        PUSH    A
        CFI CFA_SP SP+-1
        MOV     A,#0x38
        LCALL   ?XSTACK_DISP0_8
        POP     A
        CFI CFA_SP SP+0
        MOVX    @DPTR,A
// 1039     quit_str[3]=command_str[3];
        MOV     DPL,R6
        MOV     DPH,R7
        INC     DPTR
        INC     DPTR
        INC     DPTR
        MOVX    A,@DPTR
        PUSH    A
        CFI CFA_SP SP+-1
        MOV     A,#0x39
        LCALL   ?XSTACK_DISP0_8
        POP     A
        CFI CFA_SP SP+0
        MOVX    @DPTR,A
// 1040     
// 1041     quit_str[4]='/';
        MOV     A,#0x3a
        LCALL   ?XSTACK_DISP0_8
        MOV     A,#0x2f
        MOVX    @DPTR,A
// 1042     quit_str[5]='C';
        MOV     A,#0x3b
        LCALL   ?XSTACK_DISP0_8
        MOV     A,#0x43
        MOVX    @DPTR,A
// 1043     quit_str[6]='/';
        MOV     A,#0x3c
        LCALL   ?XSTACK_DISP0_8
        MOV     A,#0x2f
        MOVX    @DPTR,A
// 1044     quit_str[7]='U';
        MOV     A,#0x3d
        LCALL   ?XSTACK_DISP0_8
        MOV     A,#0x55
        MOVX    @DPTR,A
// 1045     quit_str[8]='U';
        MOV     A,#0x3e
        LCALL   ?XSTACK_DISP0_8
        MOV     A,#0x55
        MOVX    @DPTR,A
// 1046     quit_str[9]=0xA0;
        MOV     A,#0x3f
        LCALL   ?XSTACK_DISP0_8
        MOV     A,#-0x60
        MOVX    @DPTR,A
// 1047     quit_str[10]=0xBB;
        MOV     A,#0x40
        LCALL   ?XSTACK_DISP0_8
        MOV     A,#-0x45
        MOVX    @DPTR,A
// 1048     quit_str[11]=0;
        MOV     A,#0x41
        LCALL   ?XSTACK_DISP0_8
        MOV     A,#0x0
        MOVX    @DPTR,A
// 1049     
// 1050     SampleApp_SPI_SendCommand_DstAddr.addrMode = (afAddrMode_t)Addr16Bit;
        MOV     DPTR,#SampleApp_SPI_SendCommand_DstAddr + 8
        MOV     A,#0x2
        MOVX    @DPTR,A
// 1051     SampleApp_SPI_SendCommand_DstAddr.endPoint = SAMPLEAPP_ENDPOINT;
        MOV     DPTR,#SampleApp_SPI_SendCommand_DstAddr + 9
        MOV     A,#0x14
        MOVX    @DPTR,A
// 1052     SampleApp_SPI_SendCommand_DstAddr.addr.shortAddr = 0X0000;
        MOV     DPTR,#SampleApp_SPI_SendCommand_DstAddr
        MOV     A,#0x0
        MOVX    @DPTR,A
        INC     DPTR
        MOV     A,#0x0
        MOVX    @DPTR,A
// 1053     if ( AF_DataRequest( &SampleApp_SPI_SendCommand_DstAddr,
// 1054                         (endPointDesc_t *)&SampleApp_epDesc,
// 1055                         SAMPLEAPP_COMMAND_CLUSTERID, //终端传过去，协调器处理了
// 1056                         12, quit_str,
// 1057                         &SampleApp_TransID, 
// 1058                         AF_DISCV_ROUTE, 
// 1059                         AF_DEFAULT_RADIUS ) == afStatus_SUCCESS )
        ; Setup parameters for call to function AF_DataRequest
        MOV     ?V0 + 2,#0xf
        MOV     R0,#?V0 + 2
        LCALL   ?PUSH_XSTACK_I_ONE
        CFI CFA_XSP16 add(XSP16, 85)
        MOV     ?V0 + 2,#SampleApp_TransID & 0xff
        MOV     ?V0 + 3,#(SampleApp_TransID >> 8) & 0xff
        MOV     R0,#?V0 + 2
        LCALL   ?PUSH_XSTACK_I_TWO
        CFI CFA_XSP16 add(XSP16, 87)
        MOV     A,#0x39
        LCALL   ?XSTACK_DISP0_8
        MOV     ?V0 + 2,DPL
        MOV     ?V0 + 3,DPH
        MOV     R0,#?V0 + 2
        LCALL   ?PUSH_XSTACK_I_TWO
        CFI CFA_XSP16 add(XSP16, 89)
        MOV     ?V0 + 2,#0xc
        MOV     ?V0 + 3,#0x0
        MOV     R0,#?V0 + 2
        LCALL   ?PUSH_XSTACK_I_TWO
        CFI CFA_XSP16 add(XSP16, 91)
        MOV     ?V0 + 2,#0x4
        MOV     ?V0 + 3,#0x0
        MOV     R0,#?V0 + 2
        LCALL   ?PUSH_XSTACK_I_TWO
        CFI CFA_XSP16 add(XSP16, 93)
        MOV     R1,#0x20
        MOV     R4,#SampleApp_epDesc & 0xff
        MOV     R5,#(SampleApp_epDesc >> 8) & 0xff
        MOV     R2,#SampleApp_SPI_SendCommand_DstAddr & 0xff
        MOV     R3,#(SampleApp_SPI_SendCommand_DstAddr >> 8) & 0xff
        LCALL   ??AF_DataRequest?relay
        MOV     A,#0x9
        LCALL   ?DEALLOC_XSTACK8
        CFI CFA_XSP16 add(XSP16, 84)
        MOV     A,R1
        MOV     ?V0 + 2,A
// 1060     {
// 1061     }
// 1062     else
// 1063     {
// 1064       
// 1065     }  
// 1066     
// 1067     osal_nv_item_init(ZCD_NV_STARTUP_OPTION, 1, &startOptions);    
        ; Setup parameters for call to function osal_nv_item_init
        MOV     DPL,?XSP + 0
        MOV     DPH,?XSP + 1
        MOV     ?V0 + 4,DPL
        MOV     ?V0 + 5,DPH
        MOV     R0,#?V0 + 4
        LCALL   ?PUSH_XSTACK_I_TWO
        CFI CFA_XSP16 add(XSP16, 86)
        MOV     R4,#0x1
        MOV     R5,#0x0
        MOV     R2,#0x3
        MOV     R3,#0x0
        LCALL   ??osal_nv_item_init?relay
        MOV     A,#0x2
        LCALL   ?DEALLOC_XSTACK8
        CFI CFA_XSP16 add(XSP16, 84)
        MOV     A,R1
// 1068     startOptions |= ZCD_STARTOPT_DEFAULT_NETWORK_STATE;
        MOV     DPL,?XSP + 0
        MOV     DPH,?XSP + 1
        MOVX    A,@DPTR
        SETB    0xE0 /* A   */.1
        MOVX    @DPTR,A
// 1069     startOptions &= ~ZCD_STARTOPT_AUTO_START;
        MOV     DPL,?XSP + 0
        MOV     DPH,?XSP + 1
        MOVX    A,@DPTR
        CLR     0xE0 /* A   */.2
        MOVX    @DPTR,A
// 1070     osal_nv_write(ZCD_NV_STARTUP_OPTION, 0, 1, &startOptions);
        ; Setup parameters for call to function osal_nv_write
        MOV     DPL,?XSP + 0
        MOV     DPH,?XSP + 1
        MOV     ?V0 + 4,DPL
        MOV     ?V0 + 5,DPH
        MOV     R0,#?V0 + 4
        LCALL   ?PUSH_XSTACK_I_TWO
        CFI CFA_XSP16 add(XSP16, 86)
        MOV     ?V0 + 4,#0x1
        MOV     ?V0 + 5,#0x0
        MOV     R0,#?V0 + 4
        LCALL   ?PUSH_XSTACK_I_TWO
        CFI CFA_XSP16 add(XSP16, 88)
        MOV     R4,#0x0
        MOV     R5,#0x0
        MOV     R2,#0x3
        MOV     R3,#0x0
        LCALL   ??osal_nv_write?relay
        MOV     A,#0x4
        LCALL   ?DEALLOC_XSTACK8
        CFI CFA_XSP16 add(XSP16, 84)
        MOV     A,R1
// 1071     osal_start_timerEx( SampleApp_TaskID,SAMPLEAPP_RESTORE_EVT,5000 );
        ; Setup parameters for call to function osal_start_timerEx
        MOV     R4,#-0x78
        MOV     R5,#0x13
        MOV     R2,#0x10
        MOV     R3,#0x0
        MOV     DPTR,#SampleApp_TaskID
        MOVX    A,@DPTR
        MOV     R1,A
        LCALL   ??osal_start_timerEx?relay
        MOV     A,R1
        LJMP    ??APP_NORMAL_COMMAND_6 & 0xFFFF
// 1072   }
// 1073   
// 1074   
// 1075   else if(command_str[4]=='g')//发射功率 调整   后面跟发射功率 为 YXX Y表示正负 XX表示功率 Y为1表示负 为0表示正
??APP_NORMAL_COMMAND_10:
        MOV     DPL,R6
        MOV     DPH,R7
        INC     DPTR
        INC     DPTR
        INC     DPTR
        INC     DPTR
        MOVX    A,@DPTR
        XRL     A,#0x67
        JZ      $+5
        LJMP    ??APP_NORMAL_COMMAND_11 & 0xFFFF
// 1076   {
// 1077     uint8 fuhao_temp=0;
        MOV     ?V0 + 3,#0x0
// 1078     int8 transmitpower = 0;
        MOV     ?V0 + 2,#0x0
// 1079     fuhao_temp = command_str[5]-'0';
        MOV     DPL,R6
        MOV     DPH,R7
        INC     DPTR
        INC     DPTR
        INC     DPTR
        INC     DPTR
        INC     DPTR
        MOVX    A,@DPTR
        ADD     A,#-0x30
        MOV     ?V0 + 3,A
// 1080     transmitpower = 10*(command_str[6]-'0')+command_str[7]-'0';
        MOV     DPL,R6
        MOV     DPH,R7
        INC     DPTR
        INC     DPTR
        INC     DPTR
        INC     DPTR
        INC     DPTR
        INC     DPTR
        INC     DPTR
        PUSH    DPL
        CFI CFA_SP SP+-1
        PUSH    DPH
        CFI CFA_SP SP+-2
        MOV     B,#0xa
        MOV     DPL,R6
        MOV     DPH,R7
        INC     DPTR
        INC     DPTR
        INC     DPTR
        INC     DPTR
        INC     DPTR
        INC     DPTR
        MOVX    A,@DPTR
        MUL     AB
        POP     DPH
        CFI CFA_SP SP+-1
        POP     DPL
        CFI CFA_SP SP+0
        MOV     R0,A
        MOVX    A,@DPTR
        ADD     A,R0
        ADD     A,#-0x10
        MOV     ?V0 + 2,A
// 1081 
// 1082 if ( POWER_PA_FLAG == 1)
        MOV     DPTR,#POWER_PA_FLAG
        MOVX    A,@DPTR
        XRL     A,#0x1
        JNZ     ??APP_NORMAL_COMMAND_12
// 1083 {
// 1084     if (fuhao_temp == 1) //负值
        MOV     A,#0x1
        XRL     A,?V0 + 3
        JNZ     ??APP_NORMAL_COMMAND_13
// 1085     {
// 1086       transmitpower = 0 - transmitpower;
        MOV     A,?V0 + 2
        CPL     A
        INC     A
        MOV     ?V0 + 2,A
// 1087       ZMacSetTransmitPower((ZMacTransmitPower_t)transmitpower);
        ; Setup parameters for call to function ZMacSetTransmitPower
        MOV     R1,?V0 + 2
        LCALL   ??ZMacSetTransmitPower?relay
        MOV     A,R1
        LJMP    ??APP_NORMAL_COMMAND_6 & 0xFFFF
// 1088     }
// 1089     else
// 1090     {
// 1091       ZMacSetTransmitPower ((ZMacTransmitPower_t)transmitpower);
??APP_NORMAL_COMMAND_13:
        ; Setup parameters for call to function ZMacSetTransmitPower
        MOV     R1,?V0 + 2
        LCALL   ??ZMacSetTransmitPower?relay
        MOV     A,R1
        LJMP    ??APP_NORMAL_COMMAND_6 & 0xFFFF
// 1092     } 
// 1093 }
// 1094 //#else
// 1095   else
// 1096   {
// 1097     
// 1098     if (fuhao_temp == 1) //负值
??APP_NORMAL_COMMAND_12:
        MOV     A,#0x1
        XRL     A,?V0 + 3
        JNZ     ??APP_NORMAL_COMMAND_14
// 1099     {
// 1100       transmitpower = 0 - transmitpower;
        MOV     A,?V0 + 2
        CPL     A
        INC     A
        MOV     ?V0 + 2,A
// 1101       ZMacSetTransmitPower((ZMacTransmitPower_t)transmitpower);
        ; Setup parameters for call to function ZMacSetTransmitPower
        MOV     R1,?V0 + 2
        LCALL   ??ZMacSetTransmitPower?relay
        MOV     A,R1
        LJMP    ??APP_NORMAL_COMMAND_6 & 0xFFFF
// 1102     }
// 1103     else 
// 1104     {
// 1105       if(transmitpower >4)
??APP_NORMAL_COMMAND_14:
        MOV     A,?V0 + 2
        CLR     C
        SUBB    A,#0x5
        MOV     C,0xD0 /* PSW */.2
        XRL     A,PSW
        RLC     A
        JC      ??APP_NORMAL_COMMAND_15
// 1106       {
// 1107         transmitpower = 4;
        MOV     ?V0 + 2,#0x4
// 1108       }
// 1109       ZMacSetTransmitPower ((ZMacTransmitPower_t)transmitpower);
??APP_NORMAL_COMMAND_15:
        ; Setup parameters for call to function ZMacSetTransmitPower
        MOV     R1,?V0 + 2
        LCALL   ??ZMacSetTransmitPower?relay
        MOV     A,R1
        LJMP    ??APP_NORMAL_COMMAND_6 & 0xFFFF
// 1110     } 
// 1111   }
// 1112 //#endif
// 1113     
// 1114   }
// 1115   
// 1116       else if(command_str[4]=='O')//设置设备的POLL RATE时间
??APP_NORMAL_COMMAND_11:
        MOV     DPL,R6
        MOV     DPH,R7
        INC     DPTR
        INC     DPTR
        INC     DPTR
        INC     DPTR
        MOVX    A,@DPTR
        XRL     A,#0x4f
        JZ      $+5
        LJMP    ??APP_NORMAL_COMMAND_16 & 0xFFFF
// 1117   {
// 1118      if ( RTR_NWK_FLAG == 0)
        MOV     DPTR,#RTR_NWK_FLAG
        MOVX    A,@DPTR
        JZ      $+5
        LJMP    ??APP_NORMAL_COMMAND_6 & 0xFFFF
// 1119      {
// 1120           uint16 pollrate_time =0 ;
        MOV     ?V0 + 2,#0x0
        MOV     ?V0 + 3,#0x0
// 1121           pollrate_time = 10*(command_str[5]-'0')+command_str[6]-'0';
        MOV     DPL,R6
        MOV     DPH,R7
        INC     DPTR
        INC     DPTR
        INC     DPTR
        INC     DPTR
        INC     DPTR
        MOVX    A,@DPTR
        MOV     R0,A
        MOV     R1,#0x0
        MOV     A,R0
        MOV     B,#0xa
        MUL     AB
        XCH     A,R0
        MOV     R2,B
        MOV     B,#0x0
        MUL     AB
        ADD     A,R2
        MOV     R2,A
        MOV     B,#0xa
        MOV     A,R1
        MUL     AB
        ADD     A,R2
        MOV     R1,A
        MOV     DPL,R6
        MOV     DPH,R7
        INC     DPTR
        INC     DPTR
        INC     DPTR
        INC     DPTR
        INC     DPTR
        INC     DPTR
        MOVX    A,@DPTR
        MOV     R2,A
        MOV     R3,#0x0
        MOV     A,R0
        ADD     A,R2
        MOV     R0,A
        MOV     A,R1
        ADDC    A,R3
        MOV     R1,A
        MOV     A,R0
        ADD     A,#-0x10
        MOV     R0,A
        MOV     A,R1
        ADDC    A,#-0x3
        MOV     R1,A
        MOV     ?V0 + 2,R0
        MOV     ?V0 + 3,R1
// 1122           if(pollrate_time >60 )
        CLR     C
        MOV     A,?V0 + 2
        SUBB    A,#0x3d
        MOV     A,?V0 + 3
        SUBB    A,#0x0
        JC      ??APP_NORMAL_COMMAND_17
// 1123           {
// 1124           pollrate_time = 60;
        MOV     ?V0 + 2,#0x3c
        MOV     ?V0 + 3,#0x0
// 1125           }
// 1126           
// 1127           pollrate_time = pollrate_time *1000;
??APP_NORMAL_COMMAND_17:
        MOV     A,?V0 + 2
        MOV     B,#-0x18
        MUL     AB
        XCH     A,?V0 + 2
        MOV     R0,B
        MOV     B,#0x3
        MUL     AB
        ADD     A,R0
        MOV     R0,A
        MOV     B,#-0x18
        MOV     A,?V0 + 3
        MUL     AB
        ADD     A,R0
        MOV     ?V0 + 3,A
// 1128           
// 1129           NLME_SetPollRate( pollrate_time );
        ; Setup parameters for call to function NLME_SetPollRate
        MOV     R2,?V0 + 2
        MOV     R3,?V0 + 3
        LCALL   ??NLME_SetPollRate?relay
        LJMP    ??APP_NORMAL_COMMAND_6 & 0xFFFF
// 1130         //  DEEP_POLL_FLAG =0; 
// 1131          // osal_start_timerEx( SampleApp_TaskID, HALF_HOUR_NO_POLL_EVT,60000);//10分钟
// 1132      }
// 1133      
// 1134   }
// 1135   
// 1136     else if(command_str[4]=='b')//修改设备的心跳上报时间
??APP_NORMAL_COMMAND_16:
        MOV     DPL,R6
        MOV     DPH,R7
        INC     DPTR
        INC     DPTR
        INC     DPTR
        INC     DPTR
        MOVX    A,@DPTR
        XRL     A,#0x62
        JZ      $+5
        LJMP    ??APP_NORMAL_COMMAND_18 & 0xFFFF
// 1137   {
// 1138     //uint8 startOptions =0;
// 1139     Heart_mesg_flag = 100*(command_str[5]-'0')+10*(command_str[6]-'0')+command_str[7]-'0';
        MOV     DPL,R6
        MOV     DPH,R7
        INC     DPTR
        INC     DPTR
        INC     DPTR
        INC     DPTR
        INC     DPTR
        INC     DPTR
        INC     DPTR
        PUSH    DPL
        CFI CFA_SP SP+-1
        PUSH    DPH
        CFI CFA_SP SP+-2
        MOV     B,#0xa
        MOV     DPL,R6
        MOV     DPH,R7
        INC     DPTR
        INC     DPTR
        INC     DPTR
        INC     DPTR
        INC     DPTR
        INC     DPTR
        MOVX    A,@DPTR
        MUL     AB
        MOV     R0,A
        MOV     B,#0x64
        MOV     DPL,R6
        MOV     DPH,R7
        INC     DPTR
        INC     DPTR
        INC     DPTR
        INC     DPTR
        INC     DPTR
        MOVX    A,@DPTR
        MUL     AB
        ADD     A,R0
        POP     DPH
        CFI CFA_SP SP+-1
        POP     DPL
        CFI CFA_SP SP+0
        MOV     R0,A
        MOVX    A,@DPTR
        ADD     A,R0
        ADD     A,#0x30
        MOV     DPTR,#Heart_mesg_flag
        MOVX    @DPTR,A
// 1140     
// 1141      if( (Heart_mesg_flag<1) || (Heart_mesg_flag>10))
        MOV     DPTR,#Heart_mesg_flag
        MOVX    A,@DPTR
        CLR     C
        SUBB    A,#0x1
        JC      ??APP_NORMAL_COMMAND_19
        MOV     DPTR,#Heart_mesg_flag
        MOVX    A,@DPTR
        CLR     C
        SUBB    A,#0xb
        JC      ??APP_NORMAL_COMMAND_20
// 1142      {
// 1143        Heart_mesg_flag = 10;
??APP_NORMAL_COMMAND_19:
        MOV     DPTR,#Heart_mesg_flag
        MOV     A,#0xa
        MOVX    @DPTR,A
// 1144      }
// 1145      
