///////////////////////////////////////////////////////////////////////////////
//                                                                            /
// IAR C/C++ Compiler V8.10.1.10194/W32 for 8051        19/Apr/2012  20:28:46 /
// Copyright 2004-2011 IAR Systems AB.                                        /
//                                                                            /
//    Core               =  plain                                             /
//    Code model         =  banked                                            /
//    Data model         =  large                                             /
//    Calling convention =  xdata reentrant                                   /
//    Constant location  =  data_rom                                          /
//    Dptr setup         =  1,16                                              /
//    Source file        =  C:\Texas Instruments\ZStack-CC2530-2.5.1\Componen /
//                          ts\mt\MT_UTIL.c                                   /
//    Command line       =  -f "C:\Texas Instruments\ZStack-CC2530-2.5.1\Proj /
//                          ects\zstack\ZNP\CC253x\..\Source\znp.cfg"         /
//                          (-DMAC_CFG_APP_PENDING_QUEUE=TRUE                 /
//                          "-DZSTACK_DEVICE_BUILD=(DEVICE_BUILD_COORDINATOR  /
//                          | DEVICE_BUILD_ROUTER | DEVICE_BUILD_ENDDEVICE)"  /
//                          -DNWK_AUTO_POLL -DZNP_RUN_WDOG=FALSE              /
//                          -DZNP_UART_BAUD=HAL_UART_BR_115200 -DZIGBEEPRO    /
//                          -DZIGBEE_FRAGMENTATION -DINTER_PAN -DOSAL_CLOCK   /
//                          -DOSAL_SAPI=FALSE -DSAPI_CB_FUNC=FALSE            /
//                          -DHOLD_AUTO_START -DNV_RESTORE -DNV_INIT          /
//                          -DNUM_DISC_ATTEMPTS=0 -DMT_UTIL_FUNC              /
//                          -DMT_SYS_FUNC -DMT_AF_FUNC -DMT_SAPI_FUNC         /
//                          -DMT_SAPI_CB_FUNC -DMT_ZDO_CB_FUNC -DMT_ZDO_FUNC  /
//                          -DMT_ZDO_MGMT -DMT_APP_FUNC) -f "C:\Texas         /
//                          Instruments\ZStack-CC2530-2.5.1\Projects\zstack\Z /
//                          NP\CC253x\..\..\Tools\CC2530DB\f8wConfig.cfg"     /
//                          (-DZIGBEEPRO -DSECURE=0 -DZG_SECURE_DYNAMIC=0     /
//                          -DREFLECTOR -DDEFAULT_CHANLIST=0x00000800         /
//                          -DZDAPP_CONFIG_PAN_ID=0xFFFF                      /
//                          -DNWK_START_DELAY=100 -DEXTENDED_JOINING_RANDOM_M /
//                          ASK=0x007F -DBEACON_REQUEST_DELAY=100             /
//                          -DBEACON_REQ_DELAY_MASK=0x00FF                    /
//                          -DLINK_STATUS_JITTER_MASK=0x007F                  /
//                          -DROUTE_EXPIRY_TIME=30 -DAPSC_ACK_WAIT_DURATION_P /
//                          OLLED=3000 -DNWK_INDIRECT_MSG_TIMEOUT=7           /
//                          -DMAX_RREQ_ENTRIES=8 -DAPSC_MAX_FRAME_RETRIES=3   /
//                          -DNWK_MAX_DATA_RETRIES=2                          /
//                          -DMAX_POLL_FAILURE_RETRIES=2 -DMAX_BCAST=9        /
//                          -DAPS_MAX_GROUPS=16 -DMAX_RTG_ENTRIES=40          /
//                          -DNWK_MAX_BINDING_ENTRIES=4                       /
//                          -DMAX_BINDING_CLUSTER_IDS=4                       /
//                          "-DDEFAULT_KEY={0x01, 0x03, 0x05, 0x07, 0x09,     /
//                          0x0B, 0x0D, 0x0F, 0x00, 0x02, 0x04, 0x06, 0x08,   /
//                          0x0A, 0x0C, 0x0D}" -DMAC_MAX_FRAME_SIZE=116       /
//                          -DZDNWKMGR_MIN_TRANSMISSIONS=20 "-DCONST=const    /
//                          __code" -DGENERIC=__generic                       /
//                          -DRFD_RCVC_ALWAYS_ON=FALSE -DPOLL_RATE=1000       /
//                          -DQUEUED_POLL_RATE=100 -DRESPONSE_POLL_RATE=100   /
//                          -DREJOIN_POLL_RATE=440) -f "C:\Texas              /
//                          Instruments\ZStack-CC2530-2.5.1\Projects\zstack\Z /
//                          NP\CC253x\..\..\Tools\CC2530DB\f8wZCL.cfg"        /
//                          (-DZCL_READ -DZCL_WRITE -DZCL_BASIC               /
//                          -DZCL_IDENTIFY -DZCL_ON_OFF -DZCL_KEY_ESTABLISH   /
//                          -DZCL_KEY_ESTABLISHMENT_KEY_GENERATE_TIMEOUT=4    /
//                          -DZCL_KEY_ESTABLISHMENT_MAC_GENERATE_TIMEOUT=10   /
//                          -DZCL_KEY_ESTABLISHMENT_EKEY_GENERATE_TIMEOUT=10  /
//                          -DZCL_LOAD_CONTROL -DZCL_SIMPLE_METERING          /
//                          -DZCL_PRICING -DZCL_MESSAGE -DZCL_TUNNELING       /
//                          -DZCL_TOU) -DZCL_DEVICE_MGMT "C:\Texas            /
//                          Instruments\ZStack-CC2530-2.5.1\Components\mt\MT_ /
//                          UTIL.c" -D CC2531ZNP -D POWER_SAVING -lC          /
//                          "C:\Texas Instruments\ZStack-CC2530-2.5.1\Project /
//                          s\zstack\ZNP\CC253x\CC2531-Debug\List\" -lA       /
//                          "C:\Texas Instruments\ZStack-CC2530-2.5.1\Project /
//                          s\zstack\ZNP\CC253x\CC2531-Debug\List\"           /
//                          --diag_suppress Pe001,Pa010 -o "C:\Texas          /
//                          Instruments\ZStack-CC2530-2.5.1\Projects\zstack\Z /
//                          NP\CC253x\CC2531-Debug\Obj\" -e --no_code_motion  /
//                          --debug --core=plain --dptr=16,1                  /
//                          --data_model=large --code_model=banked            /
//                          --calling_convention=xdata_reentrant              /
//                          --place_constants=data_rom --nr_virtual_regs 16   /
//                          -I "C:\Texas Instruments\ZStack-CC2530-2.5.1\Proj /
//                          ects\zstack\ZNP\CC253x\" -I "C:\Texas             /
//                          Instruments\ZStack-CC2530-2.5.1\Projects\zstack\Z /
//                          NP\CC253x\Source\" -I "C:\Texas                   /
//                          Instruments\ZStack-CC2530-2.5.1\Projects\zstack\Z /
//                          NP\CC253x\..\Source\" -I "C:\Texas                /
//                          Instruments\ZStack-CC2530-2.5.1\Projects\zstack\Z /
//                          NP\CC253x\..\..\SE\Source\" -I "C:\Texas          /
//                          Instruments\ZStack-CC2530-2.5.1\Projects\zstack\Z /
//                          NP\CC253x\..\..\ZMain\TI2530ZNP\" -I "C:\Texas    /
//                          Instruments\ZStack-CC2530-2.5.1\Projects\zstack\Z /
//                          NP\CC253x\..\..\..\..\Components\hal\include\"    /
//                          -I "C:\Texas Instruments\ZStack-CC2530-2.5.1\Proj /
//                          ects\zstack\ZNP\CC253x\..\..\..\..\Components\hal /
//                          \target\CC2530USB\" -I "C:\Texas                  /
//                          Instruments\ZStack-CC2530-2.5.1\Projects\zstack\Z /
//                          NP\CC253x\..\..\..\..\Components\hal\target\CC253 /
//                          0USB\usb\library\" -I "C:\Texas                   /
//                          Instruments\ZStack-CC2530-2.5.1\Projects\zstack\Z /
//                          NP\CC253x\..\..\..\..\Components\hal\target\CC253 /
//                          0USB\usb\library\cc2531\" -I "C:\Texas            /
//                          Instruments\ZStack-CC2530-2.5.1\Projects\zstack\Z /
//                          NP\CC253x\..\..\..\..\Components\hal\target\CC253 /
//                          0USB\usb\class_cdc\" -I "C:\Texas                 /
//                          Instruments\ZStack-CC2530-2.5.1\Projects\zstack\Z /
//                          NP\CC253x\..\..\..\..\Components\mac\include\"    /
//                          -I "C:\Texas Instruments\ZStack-CC2530-2.5.1\Proj /
//                          ects\zstack\ZNP\CC253x\..\..\..\..\Components\mac /
//                          \high_level\" -I "C:\Texas                        /
//                          Instruments\ZStack-CC2530-2.5.1\Projects\zstack\Z /
//                          NP\CC253x\..\..\..\..\Components\mac\low_level\sr /
//                          f04\" -I "C:\Texas Instruments\ZStack-CC2530-2.5. /
//                          1\Projects\zstack\ZNP\CC253x\..\..\..\..\Componen /
//                          ts\mac\low_level\srf04\single_chip\" -I           /
//                          "C:\Texas Instruments\ZStack-CC2530-2.5.1\Project /
//                          s\zstack\ZNP\CC253x\..\..\..\..\Components\mt\"   /
//                          -I "C:\Texas Instruments\ZStack-CC2530-2.5.1\Proj /
//                          ects\zstack\ZNP\CC253x\..\..\..\..\Components\osa /
//                          l\include\" -I "C:\Texas                          /
//                          Instruments\ZStack-CC2530-2.5.1\Projects\zstack\Z /
//                          NP\CC253x\..\..\..\..\Components\services\saddr\" /
//                           -I "C:\Texas Instruments\ZStack-CC2530-2.5.1\Pro /
//                          jects\zstack\ZNP\CC253x\..\..\..\..\Components\se /
//                          rvices\sdata\" -I "C:\Texas                       /
//                          Instruments\ZStack-CC2530-2.5.1\Projects\zstack\Z /
//                          NP\CC253x\..\..\..\..\Components\stack\af\" -I    /
//                          "C:\Texas Instruments\ZStack-CC2530-2.5.1\Project /
//                          s\zstack\ZNP\CC253x\..\..\..\..\Components\stack\ /
//                          nwk\" -I "C:\Texas Instruments\ZStack-CC2530-2.5. /
//                          1\Projects\zstack\ZNP\CC253x\..\..\..\..\Componen /
//                          ts\stack\sapi\" -I "C:\Texas                      /
//                          Instruments\ZStack-CC2530-2.5.1\Projects\zstack\Z /
//                          NP\CC253x\..\..\..\..\Components\stack\sec\" -I   /
//                          "C:\Texas Instruments\ZStack-CC2530-2.5.1\Project /
//                          s\zstack\ZNP\CC253x\..\..\..\..\Components\stack\ /
//                          sys\" -I "C:\Texas Instruments\ZStack-CC2530-2.5. /
//                          1\Projects\zstack\ZNP\CC253x\..\..\..\..\Componen /
//                          ts\stack\zcl\" -I "C:\Texas                       /
//                          Instruments\ZStack-CC2530-2.5.1\Projects\zstack\Z /
//                          NP\CC253x\..\..\..\..\Components\stack\zdo\" -I   /
//                          "C:\Texas Instruments\ZStack-CC2530-2.5.1\Project /
//                          s\zstack\ZNP\CC253x\..\..\..\..\Components\zmac\" /
//                           -I "C:\Texas Instruments\ZStack-CC2530-2.5.1\Pro /
//                          jects\zstack\ZNP\CC253x\..\..\..\..\Components\zm /
//                          ac\f8w\" -Ohz --require_prototypes                /
//    List file          =  C:\Texas Instruments\ZStack-CC2530-2.5.1\Projects /
//                          \zstack\ZNP\CC253x\CC2531-Debug\List\MT_UTIL.s51  /
//                                                                            /
//                                                                            /
///////////////////////////////////////////////////////////////////////////////

        NAME MT_UTIL

        RTMODEL "__SystemLibrary", "CLib"
        RTMODEL "__calling_convention", "xdata_reentrant"
        RTMODEL "__code_model", "banked"
        RTMODEL "__core", "plain"
        RTMODEL "__data_model", "large"
        RTMODEL "__dptr_size", "16"
        RTMODEL "__extended_stack", "disabled"
        RTMODEL "__location_for_constants", "data"
        RTMODEL "__number_of_dptrs", "1"
        RTMODEL "__rt_version", "1"

        RSEG DOVERLAY:DATA:NOROOT(0)
        RSEG IOVERLAY:IDATA:NOROOT(0)
        RSEG ISTACK:IDATA:NOROOT(0)
        RSEG PSTACK:XDATA:NOROOT(0)
        RSEG XSTACK:XDATA:NOROOT(0)

        EXTERN ?ALLOC_XSTACK8
        EXTERN ?BANKED_ENTER_XDATA
        EXTERN ?BANKED_LEAVE_XDATA
        EXTERN ?BDISPATCH
        EXTERN ?BRET
        EXTERN ?DEALLOC_XSTACK8
        EXTERN ?L_ADD
        EXTERN ?L_MOV_TO_X
        EXTERN ?L_MOV_X
        EXTERN ?L_SHL
        EXTERN ?PUSH_XSTACK_I_THREE
        EXTERN ?PUSH_XSTACK_I_TWO
        EXTERN ?UL_DIV_MOD
        EXTERN ?UL_SHR
        EXTERN ?V0
        EXTERN ?XLOAD_R2345
        EXTERN ?XSP
        EXTERN ?XSTACK_DISP0_8
        EXTERN ?XSTORE_R2345
        EXTERN __INIT_XDATA_Z

        FUNCTION ??MT_UtilAddrMgrEntryLookupExt?relay,0203H
        FUNCTION ??MT_UtilAssocFindDevice?relay,0203H
        FUNCTION ??MT_UtilAssocGetWithAddress?relay,0203H
        PUBLIC ??MT_UtilCallbackSub?relay
        FUNCTION ??MT_UtilCallbackSub?relay,0203H
        PUBLIC ??MT_UtilCommandProcessing?relay
        FUNCTION ??MT_UtilCommandProcessing?relay,0203H
        PUBLIC ??MT_UtilDataReq?relay
        FUNCTION ??MT_UtilDataReq?relay,0203H
        PUBLIC ??MT_UtilGetDeviceInfo?relay
        FUNCTION ??MT_UtilGetDeviceInfo?relay,0203H
        PUBLIC ??MT_UtilGetNvInfo?relay
        FUNCTION ??MT_UtilGetNvInfo?relay,0203H
        PUBLIC ??MT_UtilKeyEstablishInd?relay
        FUNCTION ??MT_UtilKeyEstablishInd?relay,0203H
        PUBLIC ??MT_UtilKeyEvent?relay
        FUNCTION ??MT_UtilKeyEvent?relay,0203H
        PUBLIC ??MT_UtilLedControl?relay
        FUNCTION ??MT_UtilLedControl?relay,0203H
        PUBLIC ??MT_UtilSetChannels?relay
        FUNCTION ??MT_UtilSetChannels?relay,0203H
        PUBLIC ??MT_UtilSetPanID?relay
        FUNCTION ??MT_UtilSetPanID?relay,0203H
        PUBLIC ??MT_UtilSetPreCfgKey?relay
        FUNCTION ??MT_UtilSetPreCfgKey?relay,0203H
        PUBLIC ??MT_UtilSetSecLevel?relay
        FUNCTION ??MT_UtilSetSecLevel?relay,0203H
        PUBLIC ??MT_UtilSrcMatchAckAllPending?relay
        FUNCTION ??MT_UtilSrcMatchAckAllPending?relay,0203H
        PUBLIC ??MT_UtilSrcMatchAddEntry?relay
        FUNCTION ??MT_UtilSrcMatchAddEntry?relay,0203H
        PUBLIC ??MT_UtilSrcMatchCheckAllPending?relay
        FUNCTION ??MT_UtilSrcMatchCheckAllPending?relay,0203H
        PUBLIC ??MT_UtilSrcMatchCheckSrcAddr?relay
        FUNCTION ??MT_UtilSrcMatchCheckSrcAddr?relay,0203H
        PUBLIC ??MT_UtilSrcMatchDeleteEntry?relay
        FUNCTION ??MT_UtilSrcMatchDeleteEntry?relay,0203H
        PUBLIC ??MT_UtilSrcMatchEnable?relay
        FUNCTION ??MT_UtilSrcMatchEnable?relay,0203H
        PUBLIC ??MT_UtilTimeAlive?relay
        FUNCTION ??MT_UtilTimeAlive?relay,0203H
        FUNCTION ??MT_UtilzclGeneral_KeyEstablish_InitiateKeyEst,0203H
        FUNCTION ??packDev_t?relay,0203H
        FUNCTION MT_UtilAddrMgrEntryLookupExt,021203H
        ARGFRAME XSTACK, 37, STACK
        ARGFRAME IOVERLAY, 0, STATIC
        ARGFRAME DOVERLAY, 0, STATIC
        LOCFRAME ISTACK, 1, STACK
        LOCFRAME XSTACK, 29, STACK
        FUNCTION MT_UtilAssocFindDevice,021203H
        ARGFRAME XSTACK, 37, STACK
        ARGFRAME IOVERLAY, 0, STATIC
        ARGFRAME DOVERLAY, 0, STATIC
        LOCFRAME XSTACK, 27, STACK
        FUNCTION MT_UtilAssocGetWithAddress,021203H
        ARGFRAME XSTACK, 37, STACK
        ARGFRAME IOVERLAY, 0, STATIC
        ARGFRAME DOVERLAY, 0, STATIC
        LOCFRAME XSTACK, 27, STACK
        PUBLIC MT_UtilCallbackSub
        FUNCTION MT_UtilCallbackSub,021203H
        ARGFRAME XSTACK, 37, STACK
        ARGFRAME IOVERLAY, 0, STATIC
        ARGFRAME DOVERLAY, 0, STATIC
        LOCFRAME XSTACK, 10, STACK
        PUBLIC MT_UtilCommandProcessing
        FUNCTION MT_UtilCommandProcessing,021203H
        ARGFRAME XSTACK, 0, STACK
        LOCFRAME ISTACK, 1, STACK
        LOCFRAME XSTACK, 40, STACK
        PUBLIC MT_UtilDataReq
        FUNCTION MT_UtilDataReq,021203H
        ARGFRAME XSTACK, 37, STACK
        ARGFRAME IOVERLAY, 0, STATIC
        ARGFRAME DOVERLAY, 0, STATIC
        LOCFRAME ISTACK, 3, STACK
        LOCFRAME XSTACK, 1, STACK
        PUBLIC MT_UtilGetDeviceInfo
        FUNCTION MT_UtilGetDeviceInfo,021203H
        ARGFRAME XSTACK, 37, STACK
        ARGFRAME IOVERLAY, 0, STATIC
        ARGFRAME DOVERLAY, 0, STATIC
        LOCFRAME ISTACK, 1, STACK
        LOCFRAME XSTACK, 21, STACK
        PUBLIC MT_UtilGetNvInfo
        FUNCTION MT_UtilGetNvInfo,021203H
        ARGFRAME XSTACK, 37, STACK
        ARGFRAME IOVERLAY, 0, STATIC
        ARGFRAME DOVERLAY, 0, STATIC
        LOCFRAME ISTACK, 1, STACK
        LOCFRAME XSTACK, 26, STACK
        PUBLIC MT_UtilKeyEstablishInd
        FUNCTION MT_UtilKeyEstablishInd,021203H
        ARGFRAME XSTACK, 0, STACK
        LOCFRAME ISTACK, 3, STACK
        LOCFRAME XSTACK, 6, STACK
        PUBLIC MT_UtilKeyEvent
        FUNCTION MT_UtilKeyEvent,021203H
        ARGFRAME XSTACK, 37, STACK
        ARGFRAME IOVERLAY, 0, STATIC
        ARGFRAME DOVERLAY, 0, STATIC
        LOCFRAME ISTACK, 1, STACK
        LOCFRAME XSTACK, 10, STACK
        PUBLIC MT_UtilLedControl
        FUNCTION MT_UtilLedControl,021203H
        ARGFRAME XSTACK, 37, STACK
        ARGFRAME IOVERLAY, 0, STATIC
        ARGFRAME DOVERLAY, 0, STATIC
        LOCFRAME XSTACK, 10, STACK
        PUBLIC MT_UtilSetChannels
        FUNCTION MT_UtilSetChannels,021203H
        ARGFRAME XSTACK, 37, STACK
        ARGFRAME IOVERLAY, 0, STATIC
        ARGFRAME DOVERLAY, 0, STATIC
        LOCFRAME ISTACK, 1, STACK
        LOCFRAME XSTACK, 25, STACK
        PUBLIC MT_UtilSetPanID
        FUNCTION MT_UtilSetPanID,021203H
        ARGFRAME XSTACK, 37, STACK
        ARGFRAME IOVERLAY, 0, STATIC
        ARGFRAME DOVERLAY, 0, STATIC
        LOCFRAME ISTACK, 1, STACK
        LOCFRAME XSTACK, 17, STACK
        PUBLIC MT_UtilSetPreCfgKey
        FUNCTION MT_UtilSetPreCfgKey,021203H
        ARGFRAME XSTACK, 37, STACK
        ARGFRAME IOVERLAY, 0, STATIC
        ARGFRAME DOVERLAY, 0, STATIC
        LOCFRAME ISTACK, 1, STACK
        LOCFRAME XSTACK, 15, STACK
        PUBLIC MT_UtilSetSecLevel
        FUNCTION MT_UtilSetSecLevel,021203H
        ARGFRAME XSTACK, 37, STACK
        ARGFRAME IOVERLAY, 0, STATIC
        ARGFRAME DOVERLAY, 0, STATIC
        LOCFRAME ISTACK, 1, STACK
        LOCFRAME XSTACK, 15, STACK
        PUBLIC MT_UtilSrcMatchAckAllPending
        FUNCTION MT_UtilSrcMatchAckAllPending,021203H
        ARGFRAME XSTACK, 37, STACK
        ARGFRAME IOVERLAY, 0, STATIC
        ARGFRAME DOVERLAY, 0, STATIC
        LOCFRAME ISTACK, 2, STACK
        LOCFRAME XSTACK, 1, STACK
        PUBLIC MT_UtilSrcMatchAddEntry
        FUNCTION MT_UtilSrcMatchAddEntry,021203H
        ARGFRAME XSTACK, 37, STACK
        ARGFRAME IOVERLAY, 0, STATIC
        ARGFRAME DOVERLAY, 0, STATIC
        LOCFRAME ISTACK, 2, STACK
        LOCFRAME XSTACK, 1, STACK
        PUBLIC MT_UtilSrcMatchCheckAllPending
        FUNCTION MT_UtilSrcMatchCheckAllPending,021203H
        ARGFRAME XSTACK, 37, STACK
        ARGFRAME IOVERLAY, 0, STATIC
        ARGFRAME DOVERLAY, 0, STATIC
        LOCFRAME ISTACK, 2, STACK
        LOCFRAME XSTACK, 2, STACK
        PUBLIC MT_UtilSrcMatchCheckSrcAddr
        FUNCTION MT_UtilSrcMatchCheckSrcAddr,021203H
        ARGFRAME XSTACK, 37, STACK
        ARGFRAME IOVERLAY, 0, STATIC
        ARGFRAME DOVERLAY, 0, STATIC
        LOCFRAME ISTACK, 2, STACK
        LOCFRAME XSTACK, 2, STACK
        PUBLIC MT_UtilSrcMatchDeleteEntry
        FUNCTION MT_UtilSrcMatchDeleteEntry,021203H
        ARGFRAME XSTACK, 37, STACK
        ARGFRAME IOVERLAY, 0, STATIC
        ARGFRAME DOVERLAY, 0, STATIC
        LOCFRAME ISTACK, 2, STACK
        LOCFRAME XSTACK, 1, STACK
        PUBLIC MT_UtilSrcMatchEnable
        FUNCTION MT_UtilSrcMatchEnable,021203H
        ARGFRAME XSTACK, 37, STACK
        ARGFRAME IOVERLAY, 0, STATIC
        ARGFRAME DOVERLAY, 0, STATIC
        LOCFRAME ISTACK, 2, STACK
        LOCFRAME XSTACK, 1, STACK
        PUBLIC MT_UtilTimeAlive
        FUNCTION MT_UtilTimeAlive,021203H
        ARGFRAME XSTACK, 37, STACK
        ARGFRAME IOVERLAY, 0, STATIC
        ARGFRAME DOVERLAY, 0, STATIC
        LOCFRAME ISTACK, 1, STACK
        LOCFRAME XSTACK, 20, STACK
        FUNCTION MT_UtilzclGeneral_KeyEstablish_InitiateKeyEstablishment,021203H
        ARGFRAME XSTACK, 37, STACK
        ARGFRAME IOVERLAY, 0, STATIC
        ARGFRAME DOVERLAY, 0, STATIC
        LOCFRAME ISTACK, 1, STACK
        LOCFRAME XSTACK, 27, STACK
        PUBWEAK __Constant_0
        PUBWEAK __Constant_3e8
        PUBWEAK __Constant_ffffffff
        FUNCTION packDev_t,0203H
        ARGFRAME XSTACK, 27, STACK
        ARGFRAME IOVERLAY, 0, STATIC
        ARGFRAME DOVERLAY, 0, STATIC
        LOCFRAME ISTACK, 1, STACK
        LOCFRAME XSTACK, 12, STACK
        PUBLIC zcl_key_establish_task_id
        
        CFI Names cfiNames0
        CFI StackFrame CFA_SP SP IDATA
        CFI StackFrame CFA_PSP16 PSP16 XDATA
        CFI StackFrame CFA_XSP16 XSP16 XDATA
        CFI StaticOverlayFrame CFA_IOVERLAY IOVERLAY
        CFI StaticOverlayFrame CFA_DOVERLAY DOVERLAY
        CFI Resource `PSW.CY`:1, `B.BR0`:1, `B.BR1`:1, `B.BR2`:1, `B.BR3`:1
        CFI Resource `B.BR4`:1, `B.BR5`:1, `B.BR6`:1, `B.BR7`:1, `VB.BR8`:1
        CFI Resource `VB.BR9`:1, `VB.BR10`:1, `VB.BR11`:1, `VB.BR12`:1
        CFI Resource `VB.BR13`:1, `VB.BR14`:1, `VB.BR15`:1, VB:8, B:8, A:8
        CFI Resource PSW:8, DPL0:8, DPH0:8, R0:8, R1:8, R2:8, R3:8, R4:8, R5:8
        CFI Resource R6:8, R7:8, V0:8, V1:8, V2:8, V3:8, V4:8, V5:8, V6:8, V7:8
        CFI Resource V8:8, V9:8, V10:8, V11:8, V12:8, V13:8, V14:8, V15:8, SP:8
        CFI Resource PSPH:8, PSPL:8, PSP16:16, XSPH:8, XSPL:8, XSP16:16
        CFI VirtualResource ?RET:24
        CFI Resource ?BRET_EXT:8
        CFI VirtualResource ?RET_HIGH:8, ?RET_LOW:8
        CFI ResourceParts PSP16 PSPH, PSPL
        CFI ResourceParts XSP16 XSPH, XSPL
        CFI ResourceParts ?RET ?BRET_EXT, ?RET_HIGH, ?RET_LOW
        CFI EndNames cfiNames0
        
        CFI Common cfiCommon0 Using cfiNames0
        CFI CodeAlign 1
        CFI DataAlign -1
        CFI ReturnAddress ?RET CODE
        CFI CFA_DOVERLAY Used
        CFI CFA_IOVERLAY Used
        CFI CFA_SP SP+-3
        CFI CFA_PSP16 PSP16+0
        CFI CFA_XSP16 XSP16+0
        CFI `PSW.CY` SameValue
        CFI `B.BR0` SameValue
        CFI `B.BR1` SameValue
        CFI `B.BR2` SameValue
        CFI `B.BR3` SameValue
        CFI `B.BR4` SameValue
        CFI `B.BR5` SameValue
        CFI `B.BR6` SameValue
        CFI `B.BR7` SameValue
        CFI `VB.BR8` SameValue
        CFI `VB.BR9` SameValue
        CFI `VB.BR10` SameValue
        CFI `VB.BR11` SameValue
        CFI `VB.BR12` SameValue
        CFI `VB.BR13` SameValue
        CFI `VB.BR14` SameValue
        CFI `VB.BR15` SameValue
        CFI VB SameValue
        CFI B Undefined
        CFI A Undefined
        CFI PSW SameValue
        CFI DPL0 SameValue
        CFI DPH0 SameValue
        CFI R0 Undefined
        CFI R1 Undefined
        CFI R2 Undefined
        CFI R3 Undefined
        CFI R4 Undefined
        CFI R5 Undefined
        CFI R6 SameValue
        CFI R7 SameValue
        CFI V0 SameValue
        CFI V1 SameValue
        CFI V2 SameValue
        CFI V3 SameValue
        CFI V4 SameValue
        CFI V5 SameValue
        CFI V6 SameValue
        CFI V7 SameValue
        CFI V8 SameValue
        CFI V9 SameValue
        CFI V10 SameValue
        CFI V11 SameValue
        CFI V12 SameValue
        CFI V13 SameValue
        CFI V14 SameValue
        CFI V15 SameValue
        CFI PSPH Undefined
        CFI PSPL Undefined
        CFI XSPH Undefined
        CFI XSPL Undefined
        CFI ?RET Concat
        CFI ?BRET_EXT Frame(CFA_SP, 3)
        CFI ?RET_HIGH Frame(CFA_SP, 2)
        CFI ?RET_LOW Frame(CFA_SP, 1)
        CFI EndCommon cfiCommon0
        
        
        CFI Common cfiCommon1 Using cfiNames0
        CFI CodeAlign 1
        CFI DataAlign -1
        CFI ReturnAddress ?RET CODE
        CFI CFA_DOVERLAY Used
        CFI CFA_IOVERLAY Used
        CFI CFA_SP SP+-2
        CFI CFA_PSP16 PSP16+0
        CFI CFA_XSP16 XSP16+0
        CFI `PSW.CY` SameValue
        CFI `B.BR0` SameValue
        CFI `B.BR1` SameValue
        CFI `B.BR2` SameValue
        CFI `B.BR3` SameValue
        CFI `B.BR4` SameValue
        CFI `B.BR5` SameValue
        CFI `B.BR6` SameValue
        CFI `B.BR7` SameValue
        CFI `VB.BR8` SameValue
        CFI `VB.BR9` SameValue
        CFI `VB.BR10` SameValue
        CFI `VB.BR11` SameValue
        CFI `VB.BR12` SameValue
        CFI `VB.BR13` SameValue
        CFI `VB.BR14` SameValue
        CFI `VB.BR15` SameValue
        CFI VB SameValue
        CFI B SameValue
        CFI A SameValue
        CFI PSW SameValue
        CFI DPL0 SameValue
        CFI DPH0 SameValue
        CFI R0 SameValue
        CFI R1 SameValue
        CFI R2 SameValue
        CFI R3 SameValue
        CFI R4 SameValue
        CFI R5 SameValue
        CFI R6 SameValue
        CFI R7 SameValue
        CFI V0 SameValue
        CFI V1 SameValue
        CFI V2 SameValue
        CFI V3 SameValue
        CFI V4 SameValue
        CFI V5 SameValue
        CFI V6 SameValue
        CFI V7 SameValue
        CFI V8 SameValue
        CFI V9 SameValue
        CFI V10 SameValue
        CFI V11 SameValue
        CFI V12 SameValue
        CFI V13 SameValue
        CFI V14 SameValue
        CFI V15 SameValue
        CFI PSPH Undefined
        CFI PSPL Undefined
        CFI XSPH Undefined
        CFI XSPL Undefined
        CFI ?RET Concat
        CFI ?BRET_EXT SameValue
        CFI ?RET_HIGH Frame(CFA_SP, 2)
        CFI ?RET_LOW Frame(CFA_SP, 1)
        CFI EndCommon cfiCommon1
        
MT_BuildAndSendZToolResponse SYMBOL "MT_BuildAndSendZToolResponse"
AddrMgrEntryLookupNwk SYMBOL "AddrMgrEntryLookupNwk"
osal_memcpy         SYMBOL "osal_memcpy"
ZDSecMgrRequestAppKey SYMBOL "ZDSecMgrRequestAppKey"
AssocCount          SYMBOL "AssocCount"
AssocMakeList       SYMBOL "AssocMakeList"
osal_mem_alloc      SYMBOL "osal_mem_alloc"
osal_nv_read        SYMBOL "osal_nv_read"
NLME_GetShortAddr   SYMBOL "NLME_GetShortAddr"
osal_mem_free       SYMBOL "osal_mem_free"
osal_memset         SYMBOL "osal_memset"
osal_nv_item_len    SYMBOL "osal_nv_item_len"
osal_nv_write       SYMBOL "osal_nv_write"
OnBoard_SendKeys    SYMBOL "OnBoard_SendKeys"
osal_GetSystemClock SYMBOL "osal_GetSystemClock"
HalLedSet           SYMBOL "HalLedSet"
NwkPollReq          SYMBOL "NwkPollReq"
AddrMgrEntryLookupExt SYMBOL "AddrMgrEntryLookupExt"
AssocFindDevice     SYMBOL "AssocFindDevice"
AddrMgrExtAddrValid SYMBOL "AddrMgrExtAddrValid"
AssocGetWithAddress SYMBOL "AssocGetWithAddress"
zclGeneral_KeyEstablish_InitiateKeyEstablishment SYMBOL "zclGeneral_KeyEstablish_InitiateKeyEstablishment"
??AddrMgrEntryLookupExt?relay SYMBOL "?relay", AddrMgrEntryLookupExt
??AddrMgrEntryLookupNwk?relay SYMBOL "?relay", AddrMgrEntryLookupNwk
??AddrMgrExtAddrValid?relay SYMBOL "?relay", AddrMgrExtAddrValid
??AssocCount?relay  SYMBOL "?relay", AssocCount
??AssocFindDevice?relay SYMBOL "?relay", AssocFindDevice
??AssocGetWithAddress?relay SYMBOL "?relay", AssocGetWithAddress
??AssocMakeList?relay SYMBOL "?relay", AssocMakeList
??HalLedSet?relay   SYMBOL "?relay", HalLedSet
??MT_BuildAndSendZToolResponse?relay SYMBOL "?relay", MT_BuildAndSendZToolResponse
??NLME_GetShortAddr?relay SYMBOL "?relay", NLME_GetShortAddr
??NwkPollReq?relay  SYMBOL "?relay", NwkPollReq
??OnBoard_SendKeys?relay SYMBOL "?relay", OnBoard_SendKeys
??ZDSecMgrRequestAppKey?relay SYMBOL "?relay", ZDSecMgrRequestAppKey
??osal_GetSystemClock?relay SYMBOL "?relay", osal_GetSystemClock
??osal_mem_alloc?relay SYMBOL "?relay", osal_mem_alloc
??osal_mem_free?relay SYMBOL "?relay", osal_mem_free
??osal_memcpy?relay SYMBOL "?relay", osal_memcpy
??osal_memset?relay SYMBOL "?relay", osal_memset
??osal_nv_item_len?relay SYMBOL "?relay", osal_nv_item_len
??osal_nv_read?relay SYMBOL "?relay", osal_nv_read
??osal_nv_write?relay SYMBOL "?relay", osal_nv_write
??zclGeneral_KeyEstablish_InitiateKeyEstablishm SYMBOL "?relay", zclGeneral_KeyEstablish_InitiateKeyEstablishment
MT_UtilCallbackSub  SYMBOL "MT_UtilCallbackSub"
??MT_UtilCallbackSub?relay SYMBOL "?relay", MT_UtilCallbackSub
MT_UtilCommandProcessing SYMBOL "MT_UtilCommandProcessing"
??MT_UtilCommandProcessing?relay SYMBOL "?relay", MT_UtilCommandProcessing
MT_UtilDataReq      SYMBOL "MT_UtilDataReq"
??MT_UtilDataReq?relay SYMBOL "?relay", MT_UtilDataReq
MT_UtilGetDeviceInfo SYMBOL "MT_UtilGetDeviceInfo"
??MT_UtilGetDeviceInfo?relay SYMBOL "?relay", MT_UtilGetDeviceInfo
MT_UtilGetNvInfo    SYMBOL "MT_UtilGetNvInfo"
??MT_UtilGetNvInfo?relay SYMBOL "?relay", MT_UtilGetNvInfo
MT_UtilKeyEstablishInd SYMBOL "MT_UtilKeyEstablishInd"
??MT_UtilKeyEstablishInd?relay SYMBOL "?relay", MT_UtilKeyEstablishInd
MT_UtilKeyEvent     SYMBOL "MT_UtilKeyEvent"
??MT_UtilKeyEvent?relay SYMBOL "?relay", MT_UtilKeyEvent
MT_UtilLedControl   SYMBOL "MT_UtilLedControl"
??MT_UtilLedControl?relay SYMBOL "?relay", MT_UtilLedControl
MT_UtilSetChannels  SYMBOL "MT_UtilSetChannels"
??MT_UtilSetChannels?relay SYMBOL "?relay", MT_UtilSetChannels
MT_UtilSetPanID     SYMBOL "MT_UtilSetPanID"
??MT_UtilSetPanID?relay SYMBOL "?relay", MT_UtilSetPanID
MT_UtilSetPreCfgKey SYMBOL "MT_UtilSetPreCfgKey"
??MT_UtilSetPreCfgKey?relay SYMBOL "?relay", MT_UtilSetPreCfgKey
MT_UtilSetSecLevel  SYMBOL "MT_UtilSetSecLevel"
??MT_UtilSetSecLevel?relay SYMBOL "?relay", MT_UtilSetSecLevel
MT_UtilSrcMatchAckAllPending SYMBOL "MT_UtilSrcMatchAckAllPending"
??MT_UtilSrcMatchAckAllPending?relay SYMBOL "?relay", MT_UtilSrcMatchAckAllPending
MT_UtilSrcMatchAddEntry SYMBOL "MT_UtilSrcMatchAddEntry"
??MT_UtilSrcMatchAddEntry?relay SYMBOL "?relay", MT_UtilSrcMatchAddEntry
MT_UtilSrcMatchCheckAllPending SYMBOL "MT_UtilSrcMatchCheckAllPending"
??MT_UtilSrcMatchCheckAllPending?relay SYMBOL "?relay", MT_UtilSrcMatchCheckAllPending
MT_UtilSrcMatchCheckSrcAddr SYMBOL "MT_UtilSrcMatchCheckSrcAddr"
??MT_UtilSrcMatchCheckSrcAddr?relay SYMBOL "?relay", MT_UtilSrcMatchCheckSrcAddr
MT_UtilSrcMatchDeleteEntry SYMBOL "MT_UtilSrcMatchDeleteEntry"
??MT_UtilSrcMatchDeleteEntry?relay SYMBOL "?relay", MT_UtilSrcMatchDeleteEntry
MT_UtilSrcMatchEnable SYMBOL "MT_UtilSrcMatchEnable"
??MT_UtilSrcMatchEnable?relay SYMBOL "?relay", MT_UtilSrcMatchEnable
MT_UtilTimeAlive    SYMBOL "MT_UtilTimeAlive"
??MT_UtilTimeAlive?relay SYMBOL "?relay", MT_UtilTimeAlive

        EXTERN MT_BuildAndSendZToolResponse
        FUNCTION MT_BuildAndSendZToolResponse,0202H
        ARGFRAME ISTACK, 2, STACK
        ARGFRAME PSTACK, 0, STACK
        ARGFRAME XSTACK, 37, STACK
        ARGFRAME IOVERLAY, 0, STATIC
        ARGFRAME DOVERLAY, 0, STATIC
        EXTERN AddrMgrEntryLookupNwk
        FUNCTION AddrMgrEntryLookupNwk,0202H
        ARGFRAME ISTACK, 0, STACK
        ARGFRAME PSTACK, 0, STACK
        ARGFRAME XSTACK, 37, STACK
        ARGFRAME IOVERLAY, 0, STATIC
        ARGFRAME DOVERLAY, 0, STATIC
        EXTERN osal_memcpy
        FUNCTION osal_memcpy,0202H
        ARGFRAME ISTACK, 0, STACK
        ARGFRAME PSTACK, 0, STACK
        ARGFRAME XSTACK, 40, STACK
        ARGFRAME IOVERLAY, 0, STATIC
        ARGFRAME DOVERLAY, 0, STATIC
        EXTERN ZDSecMgrRequestAppKey
        FUNCTION ZDSecMgrRequestAppKey,0202H
        ARGFRAME ISTACK, 0, STACK
        ARGFRAME PSTACK, 0, STACK
        ARGFRAME XSTACK, 37, STACK
        ARGFRAME IOVERLAY, 0, STATIC
        ARGFRAME DOVERLAY, 0, STATIC
        EXTERN AssocCount
        FUNCTION AssocCount,0202H
        ARGFRAME ISTACK, 0, STACK
        ARGFRAME PSTACK, 0, STACK
        ARGFRAME XSTACK, 37, STACK
        ARGFRAME IOVERLAY, 0, STATIC
        ARGFRAME DOVERLAY, 0, STATIC
        EXTERN AssocMakeList
        FUNCTION AssocMakeList,0202H
        ARGFRAME ISTACK, 0, STACK
        ARGFRAME PSTACK, 0, STACK
        ARGFRAME XSTACK, 17, STACK
        ARGFRAME IOVERLAY, 0, STATIC
        ARGFRAME DOVERLAY, 0, STATIC
        EXTERN osal_mem_alloc
        FUNCTION osal_mem_alloc,0202H
        ARGFRAME ISTACK, 0, STACK
        ARGFRAME PSTACK, 0, STACK
        ARGFRAME XSTACK, 22, STACK
        ARGFRAME IOVERLAY, 0, STATIC
        ARGFRAME DOVERLAY, 0, STATIC
        EXTERN osal_nv_read
        FUNCTION osal_nv_read,0202H
        ARGFRAME ISTACK, 0, STACK
        ARGFRAME PSTACK, 0, STACK
        ARGFRAME XSTACK, 26, STACK
        ARGFRAME IOVERLAY, 0, STATIC
        ARGFRAME DOVERLAY, 0, STATIC
        EXTERN NLME_GetShortAddr
        FUNCTION NLME_GetShortAddr,0202H
        ARGFRAME ISTACK, 0, STACK
        ARGFRAME PSTACK, 0, STACK
        ARGFRAME XSTACK, 17, STACK
        ARGFRAME IOVERLAY, 0, STATIC
        ARGFRAME DOVERLAY, 0, STATIC
        EXTERN osal_mem_free
        FUNCTION osal_mem_free,0202H
        ARGFRAME ISTACK, 0, STACK
        ARGFRAME PSTACK, 0, STACK
        ARGFRAME XSTACK, 22, STACK
        ARGFRAME IOVERLAY, 0, STATIC
        ARGFRAME DOVERLAY, 0, STATIC
        EXTERN osal_memset
        FUNCTION osal_memset,0202H
        ARGFRAME ISTACK, 0, STACK
        ARGFRAME PSTACK, 0, STACK
        ARGFRAME XSTACK, 22, STACK
        ARGFRAME IOVERLAY, 0, STATIC
        ARGFRAME DOVERLAY, 0, STATIC
        EXTERN osal_nv_item_len
        FUNCTION osal_nv_item_len,0202H
        ARGFRAME ISTACK, 0, STACK
        ARGFRAME PSTACK, 0, STACK
        ARGFRAME XSTACK, 23, STACK
        ARGFRAME IOVERLAY, 0, STATIC
        ARGFRAME DOVERLAY, 0, STATIC
        EXTERN osal_nv_write
        FUNCTION osal_nv_write,0202H
        ARGFRAME ISTACK, 0, STACK
        ARGFRAME PSTACK, 0, STACK
        ARGFRAME XSTACK, 25, STACK
        ARGFRAME IOVERLAY, 0, STATIC
        ARGFRAME DOVERLAY, 0, STATIC
        EXTERN OnBoard_SendKeys
        FUNCTION OnBoard_SendKeys,0202H
        ARGFRAME ISTACK, 0, STACK
        ARGFRAME PSTACK, 0, STACK
        ARGFRAME XSTACK, 10, STACK
        ARGFRAME IOVERLAY, 0, STATIC
        ARGFRAME DOVERLAY, 0, STATIC
        EXTERN osal_GetSystemClock
        FUNCTION osal_GetSystemClock,0202H
        ARGFRAME ISTACK, 0, STACK
        ARGFRAME PSTACK, 0, STACK
        ARGFRAME XSTACK, 20, STACK
        ARGFRAME IOVERLAY, 0, STATIC
        ARGFRAME DOVERLAY, 0, STATIC
        EXTERN HalLedSet
        FUNCTION HalLedSet,0202H
        ARGFRAME ISTACK, 0, STACK
        ARGFRAME PSTACK, 0, STACK
        ARGFRAME XSTACK, 10, STACK
        ARGFRAME IOVERLAY, 0, STATIC
        ARGFRAME DOVERLAY, 0, STATIC
        EXTERN NwkPollReq
        FUNCTION NwkPollReq,0202H
        ARGFRAME ISTACK, 2, STACK
        ARGFRAME PSTACK, 0, STACK
        ARGFRAME XSTACK, 1, STACK
        ARGFRAME IOVERLAY, 0, STATIC
        ARGFRAME DOVERLAY, 0, STATIC
        EXTERN AddrMgrEntryLookupExt
        FUNCTION AddrMgrEntryLookupExt,0202H
        ARGFRAME ISTACK, 0, STACK
        ARGFRAME PSTACK, 0, STACK
        ARGFRAME XSTACK, 26, STACK
        ARGFRAME IOVERLAY, 0, STATIC
        ARGFRAME DOVERLAY, 0, STATIC
        EXTERN AssocFindDevice
        FUNCTION AssocFindDevice,0202H
        ARGFRAME ISTACK, 0, STACK
        ARGFRAME PSTACK, 0, STACK
        ARGFRAME XSTACK, 27, STACK
        ARGFRAME IOVERLAY, 0, STATIC
        ARGFRAME DOVERLAY, 0, STATIC
        EXTERN AddrMgrExtAddrValid
        FUNCTION AddrMgrExtAddrValid,0202H
        ARGFRAME ISTACK, 0, STACK
        ARGFRAME PSTACK, 0, STACK
        ARGFRAME XSTACK, 27, STACK
        ARGFRAME IOVERLAY, 0, STATIC
        ARGFRAME DOVERLAY, 0, STATIC
        EXTERN AssocGetWithAddress
        FUNCTION AssocGetWithAddress,0202H
        ARGFRAME ISTACK, 0, STACK
        ARGFRAME PSTACK, 0, STACK
        ARGFRAME XSTACK, 27, STACK
        ARGFRAME IOVERLAY, 0, STATIC
        ARGFRAME DOVERLAY, 0, STATIC
        EXTERN zclGeneral_KeyEstablish_InitiateKeyEstablishment
        FUNCTION zclGeneral_KeyEstablish_InitiateKeyEstablishment,0202H
        ARGFRAME ISTACK, 0, STACK
        ARGFRAME PSTACK, 0, STACK
        ARGFRAME XSTACK, 24, STACK
        ARGFRAME IOVERLAY, 0, STATIC
        ARGFRAME DOVERLAY, 0, STATIC
        EXTERN ??AddrMgrEntryLookupExt?relay
        FUNCTION ??AddrMgrEntryLookupExt?relay,00H
        EXTERN ??AddrMgrEntryLookupNwk?relay
        FUNCTION ??AddrMgrEntryLookupNwk?relay,00H
        EXTERN ??AddrMgrExtAddrValid?relay
        FUNCTION ??AddrMgrExtAddrValid?relay,00H
        EXTERN ??AssocCount?relay
        FUNCTION ??AssocCount?relay,00H
        EXTERN ??AssocFindDevice?relay
        FUNCTION ??AssocFindDevice?relay,00H
        EXTERN ??AssocGetWithAddress?relay
        FUNCTION ??AssocGetWithAddress?relay,00H
        EXTERN ??AssocMakeList?relay
        FUNCTION ??AssocMakeList?relay,00H
        EXTERN ??HalLedSet?relay
        FUNCTION ??HalLedSet?relay,00H
        EXTERN ??MT_BuildAndSendZToolResponse?relay
        FUNCTION ??MT_BuildAndSendZToolResponse?relay,00H
        EXTERN ??NLME_GetShortAddr?relay
        FUNCTION ??NLME_GetShortAddr?relay,00H
        EXTERN ??NwkPollReq?relay
        FUNCTION ??NwkPollReq?relay,00H
        EXTERN ??OnBoard_SendKeys?relay
        FUNCTION ??OnBoard_SendKeys?relay,00H
        EXTERN ??ZDSecMgrRequestAppKey?relay
        FUNCTION ??ZDSecMgrRequestAppKey?relay,00H
        EXTERN ??osal_GetSystemClock?relay
        FUNCTION ??osal_GetSystemClock?relay,00H
        EXTERN ??osal_mem_alloc?relay
        FUNCTION ??osal_mem_alloc?relay,00H
        EXTERN ??osal_mem_free?relay
        FUNCTION ??osal_mem_free?relay,00H
        EXTERN ??osal_memcpy?relay
        FUNCTION ??osal_memcpy?relay,00H
        EXTERN ??osal_memset?relay
        FUNCTION ??osal_memset?relay,00H
        EXTERN ??osal_nv_item_len?relay
        FUNCTION ??osal_nv_item_len?relay,00H
        EXTERN ??osal_nv_read?relay
        FUNCTION ??osal_nv_read?relay,00H
        EXTERN ??osal_nv_write?relay
        FUNCTION ??osal_nv_write?relay,00H
        EXTERN ??zclGeneral_KeyEstablish_InitiateKeyEstablishm
        FUNCTION ??zclGeneral_KeyEstablish_InitiateKeyEstablishm,00H
        EXTERN MT_TaskID
        EXTERN _sapiCallbackSub
        EXTERN _zdoCallbackSub
        EXTERN devState
        EXTERN zgDeviceLogicalType

// C:\Texas Instruments\ZStack-CC2530-2.5.1\Components\mt\MT_UTIL.c
//    1 /***************************************************************************************************
//    2   Filename:       MT_UTIL.c
//    3   Revised:        $Date: 2012-02-25 17:43:09 -0800 (Sat, 25 Feb 2012) $
//    4   Revision:       $Revision: 29520 $
//    5 
//    6   Description:    MonitorTest Utility Functions
//    7 
//    8   Copyright 2007-2012 Texas Instruments Incorporated. All rights reserved.
//    9 
//   10   IMPORTANT: Your use of this Software is limited to those specific rights
//   11   granted under the terms of a software license agreement between the user
//   12   who downloaded the software, his/her employer (which must be your employer)
//   13   and Texas Instruments Incorporated (the "License"). You may not use this
//   14   Software unless you agree to abide by the terms of the License. The License
//   15   limits your use, and you acknowledge, that the Software may not be modified,
//   16   copied or distributed unless embedded on a Texas Instruments microcontroller
//   17   or used solely and exclusively in conjunction with a Texas Instruments radio
//   18   frequency transceiver, which is integrated into your product. Other than for
//   19   the foregoing purpose, you may not use, reproduce, copy, prepare derivative
//   20   works of, modify, distribute, perform, display or sell this Software and/or
//   21   its documentation for any purpose.
//   22 
//   23   YOU FURTHER ACKNOWLEDGE AND AGREE THAT THE SOFTWARE AND DOCUMENTATION ARE
//   24   PROVIDED “AS IS” WITHOUT WARRANTY OF ANY KIND, EITHER EXPRESS OR IMPLIED,
//   25   INCLUDING WITHOUT LIMITATION, ANY WARRANTY OF MERCHANTABILITY, TITLE,
//   26   NON-INFRINGEMENT AND FITNESS FOR A PARTICULAR PURPOSE. IN NO EVENT SHALL
//   27   TEXAS INSTRUMENTS OR ITS LICENSORS BE LIABLE OR OBLIGATED UNDER CONTRACT,
//   28   NEGLIGENCE, STRICT LIABILITY, CONTRIBUTION, BREACH OF WARRANTY, OR OTHER
//   29   LEGAL EQUITABLE THEORY ANY DIRECT OR INDIRECT DAMAGES OR EXPENSES
//   30   INCLUDING BUT NOT LIMITED TO ANY INCIDENTAL, SPECIAL, INDIRECT, PUNITIVE
//   31   OR CONSEQUENTIAL DAMAGES, LOST PROFITS OR LOST DATA, COST OF PROCUREMENT
//   32   OF SUBSTITUTE GOODS, TECHNOLOGY, SERVICES, OR ANY CLAIMS BY THIRD PARTIES
//   33   (INCLUDING BUT NOT LIMITED TO ANY DEFENSE THEREOF), OR OTHER SIMILAR COSTS.
//   34 
//   35   Should you have any questions regarding your right to use this Software,
//   36   contact Texas Instruments Incorporated at www.TI.com.
//   37 
//   38  ***************************************************************************************************/
//   39 
//   40 /***************************************************************************************************
//   41  * INCLUDES
//   42  ***************************************************************************************************/
//   43 #include "ZComDef.h"
//   44 
//   45 #include "AddrMgr.h"
//   46 
//   47 #include "OnBoard.h"   /* This is here because of the key reading */
//   48 #include "hal_key.h"
//   49 #include "hal_led.h"
//   50 #include "OSAL_Nv.h"
//   51 #include "osal.h"
//   52 #include "NLMEDE.h"
//   53 #include "MT.h"
//   54 #include "MT_UTIL.h"
//   55 #include "MT_MAC.h"
//   56 #include "ssp.h"
//   57 #if defined ZCL_KEY_ESTABLISH
//   58 #include "zcl_key_establish.h"
//   59 #endif
//   60 #if defined TC_LINKKEY_JOIN
//   61 #include "zcl_se.h"
//   62 #endif
//   63 
//   64 #if !defined NONWK
//   65 #include "MT_ZDO.h"
//   66 #include "MT_SAPI.h"
//   67 #include "MT_NWK.h"
//   68 #include "MT_AF.h"
//   69 #include "AssocList.h"
//   70 #include "ZDApp.h"
//   71 #include "ZDSecMgr.h"
//   72 #endif
//   73 /***************************************************************************************************
//   74  * CONSTANTS
//   75  ***************************************************************************************************/
//   76 #define MT_UTIL_DEVICE_INFO_RESPONSE_LEN 14
//   77 #define MT_UTIL_STATUS_LEN    1
//   78 #define MT_UTIL_FRM_CTR_LEN   4
//   79 // Status + LinkKeyDataLen + Tx+Rx Frame counter.
//   80 #define MT_APSME_LINKKEY_GET_RSP_LEN (MT_UTIL_STATUS_LEN + SEC_KEY_LEN + (MT_UTIL_FRM_CTR_LEN * 2))
//   81 // Status + NV id
//   82 #define MT_APSME_LINKKEY_NV_ID_GET_RSP_LEN (MT_UTIL_STATUS_LEN + 2)
//   83 
//   84 /***************************************************************************************************
//   85  * LOCAL VARIABLES
//   86  ***************************************************************************************************/
//   87 #if defined ZCL_KEY_ESTABLISH

        RSEG XDATA_Z:XDATA:NOROOT(0)
        DATA8
//   88 uint8 zcl_key_establish_task_id;
zcl_key_establish_task_id:
        DS 1
        REQUIRE __INIT_XDATA_Z
//   89 #endif
//   90 
//   91 /***************************************************************************************************
//   92  * LOCAL FUNCTIONS
//   93  ***************************************************************************************************/
//   94 #ifdef AUTO_PEND
//   95 static void MT_UtilRevExtCpy( uint8 *pDst, uint8 *pSrc );
//   96 static void MT_UtilSpi2Addr( zAddrType_t *pDst, uint8 *pSrc );
//   97 #endif
//   98 
//   99 #if defined (MT_UTIL_FUNC)
//  100 void MT_UtilGetDeviceInfo(void);
//  101 void MT_UtilGetNvInfo(void);
//  102 void MT_UtilSetPanID(uint8 *pBuf);
//  103 void MT_UtilSetChannels(uint8 *pBuf);
//  104 void MT_UtilSetSecLevel(uint8 *pBuf);
//  105 void MT_UtilSetPreCfgKey(uint8 *pBuf);
//  106 void MT_UtilCallbackSub(uint8 *pData);
//  107 void MT_UtilKeyEvent(uint8 *pBuf);
//  108 void MT_UtilTimeAlive(void);
//  109 void MT_UtilLedControl(uint8 *pBuf);
//  110 void MT_UtilSrcMatchEnable (uint8 *pBuf);
//  111 void MT_UtilSrcMatchAddEntry (uint8 *pBuf);
//  112 void MT_UtilSrcMatchDeleteEntry (uint8 *pBuf);
//  113 void MT_UtilSrcMatchCheckSrcAddr (uint8 *pBuf);
//  114 void MT_UtilSrcMatchAckAllPending (uint8 *pBuf);
//  115 void MT_UtilSrcMatchCheckAllPending (uint8 *pBuf);
//  116 
//  117 #if !defined NONWK
//  118 void MT_UtilDataReq(uint8 *pBuf);
//  119 static void MT_UtilAddrMgrEntryLookupExt(uint8 *pBuf);
//  120 static void MT_UtilAddrMgrEntryLookupNwk(uint8 *pBuf);
//  121 #if defined MT_SYS_KEY_MANAGEMENT
//  122 static void MT_UtilAPSME_LinkKeyDataGet(uint8 *pBuf);
//  123 static void MT_UtilAPSME_LinkKeyNvIdGet(uint8 *pBuf);
//  124 #endif //MT_SYS_KEY_MANAGEMENT
//  125 static void MT_UtilAPSME_RequestKeyCmd(uint8 *pBuf);
//  126 static void MT_UtilAssocCount(uint8 *pBuf);
//  127 static void MT_UtilAssocFindDevice(uint8 *pBuf);
//  128 static void MT_UtilAssocGetWithAddress(uint8 *pBuf);
//  129 static void packDev_t(uint8 *pBuf, associated_devices_t *pDev);
//  130 #if defined ZCL_KEY_ESTABLISH
//  131 static void MT_UtilzclGeneral_KeyEstablish_InitiateKeyEstablishment(uint8 *pBuf);
//  132 static void MT_UtilzclGeneral_KeyEstablishment_ECDSASign(uint8 *pBuf);
//  133 #endif // ZCL_KEY_ESTABLISH
//  134 static void MT_UtilSync(void);
//  135 #endif // !defined NONWK
//  136 #endif // MT_UTIL_FUNC
//  137 
//  138 #if defined (MT_UTIL_FUNC)
//  139 /***************************************************************************************************
//  140  * @fn      MT_UtilProcessing
//  141  *
//  142  * @brief   Process all the DEBUG commands that are issued by test tool
//  143  *
//  144  * @param   pBuf  - pointer to received SPI data message
//  145  *
//  146  * @return  status
//  147  ***************************************************************************************************/

        RSEG BANKED_CODE:CODE:NOROOT(0)
//  148 uint8 MT_UtilCommandProcessing(uint8 *pBuf)
MT_UtilCommandProcessing:
        CFI Block cfiBlock0 Using cfiCommon0
        CFI Function MT_UtilCommandProcessing
        CODE
//  149 {
        FUNCALL MT_UtilCommandProcessing, MT_UtilGetDeviceInfo
        LOCFRAME ISTACK, 0, STACK
        LOCFRAME PSTACK, 0, STACK
        LOCFRAME XSTACK, 37, STACK
        LOCFRAME IOVERLAY, 0, STATIC
        LOCFRAME DOVERLAY, 0, STATIC
        ARGFRAME ISTACK, 0, STACK
        ARGFRAME PSTACK, 0, STACK
        ARGFRAME XSTACK, 37, STACK
        ARGFRAME IOVERLAY, 0, STATIC
        ARGFRAME DOVERLAY, 0, STATIC
        FUNCALL MT_UtilCommandProcessing, MT_UtilGetNvInfo
        LOCFRAME ISTACK, 0, STACK
        LOCFRAME PSTACK, 0, STACK
        LOCFRAME XSTACK, 37, STACK
        LOCFRAME IOVERLAY, 0, STATIC
        LOCFRAME DOVERLAY, 0, STATIC
        ARGFRAME ISTACK, 0, STACK
        ARGFRAME PSTACK, 0, STACK
        ARGFRAME XSTACK, 37, STACK
        ARGFRAME IOVERLAY, 0, STATIC
        ARGFRAME DOVERLAY, 0, STATIC
        FUNCALL MT_UtilCommandProcessing, MT_UtilSetPanID
        LOCFRAME ISTACK, 0, STACK
        LOCFRAME PSTACK, 0, STACK
        LOCFRAME XSTACK, 37, STACK
        LOCFRAME IOVERLAY, 0, STATIC
        LOCFRAME DOVERLAY, 0, STATIC
        ARGFRAME ISTACK, 0, STACK
        ARGFRAME PSTACK, 0, STACK
        ARGFRAME XSTACK, 37, STACK
        ARGFRAME IOVERLAY, 0, STATIC
        ARGFRAME DOVERLAY, 0, STATIC
        FUNCALL MT_UtilCommandProcessing, MT_UtilSetChannels
        LOCFRAME ISTACK, 0, STACK
        LOCFRAME PSTACK, 0, STACK
        LOCFRAME XSTACK, 37, STACK
        LOCFRAME IOVERLAY, 0, STATIC
        LOCFRAME DOVERLAY, 0, STATIC
        ARGFRAME ISTACK, 0, STACK
        ARGFRAME PSTACK, 0, STACK
        ARGFRAME XSTACK, 37, STACK
        ARGFRAME IOVERLAY, 0, STATIC
        ARGFRAME DOVERLAY, 0, STATIC
        FUNCALL MT_UtilCommandProcessing, MT_UtilSetSecLevel
        LOCFRAME ISTACK, 0, STACK
        LOCFRAME PSTACK, 0, STACK
        LOCFRAME XSTACK, 37, STACK
        LOCFRAME IOVERLAY, 0, STATIC
        LOCFRAME DOVERLAY, 0, STATIC
        ARGFRAME ISTACK, 0, STACK
        ARGFRAME PSTACK, 0, STACK
        ARGFRAME XSTACK, 37, STACK
        ARGFRAME IOVERLAY, 0, STATIC
        ARGFRAME DOVERLAY, 0, STATIC
        FUNCALL MT_UtilCommandProcessing, MT_UtilSetPreCfgKey
        LOCFRAME ISTACK, 0, STACK
        LOCFRAME PSTACK, 0, STACK
        LOCFRAME XSTACK, 37, STACK
        LOCFRAME IOVERLAY, 0, STATIC
        LOCFRAME DOVERLAY, 0, STATIC
        ARGFRAME ISTACK, 0, STACK
        ARGFRAME PSTACK, 0, STACK
        ARGFRAME XSTACK, 37, STACK
        ARGFRAME IOVERLAY, 0, STATIC
        ARGFRAME DOVERLAY, 0, STATIC
        FUNCALL MT_UtilCommandProcessing, MT_UtilCallbackSub
        LOCFRAME ISTACK, 0, STACK
        LOCFRAME PSTACK, 0, STACK
        LOCFRAME XSTACK, 37, STACK
        LOCFRAME IOVERLAY, 0, STATIC
        LOCFRAME DOVERLAY, 0, STATIC
        ARGFRAME ISTACK, 0, STACK
        ARGFRAME PSTACK, 0, STACK
        ARGFRAME XSTACK, 37, STACK
        ARGFRAME IOVERLAY, 0, STATIC
        ARGFRAME DOVERLAY, 0, STATIC
        FUNCALL MT_UtilCommandProcessing, MT_UtilKeyEvent
        LOCFRAME ISTACK, 0, STACK
        LOCFRAME PSTACK, 0, STACK
        LOCFRAME XSTACK, 37, STACK
        LOCFRAME IOVERLAY, 0, STATIC
        LOCFRAME DOVERLAY, 0, STATIC
        ARGFRAME ISTACK, 0, STACK
        ARGFRAME PSTACK, 0, STACK
        ARGFRAME XSTACK, 37, STACK
        ARGFRAME IOVERLAY, 0, STATIC
        ARGFRAME DOVERLAY, 0, STATIC
        FUNCALL MT_UtilCommandProcessing, MT_UtilTimeAlive
        LOCFRAME ISTACK, 0, STACK
        LOCFRAME PSTACK, 0, STACK
        LOCFRAME XSTACK, 37, STACK
        LOCFRAME IOVERLAY, 0, STATIC
        LOCFRAME DOVERLAY, 0, STATIC
        ARGFRAME ISTACK, 0, STACK
        ARGFRAME PSTACK, 0, STACK
        ARGFRAME XSTACK, 37, STACK
        ARGFRAME IOVERLAY, 0, STATIC
        ARGFRAME DOVERLAY, 0, STATIC
        FUNCALL MT_UtilCommandProcessing, MT_UtilLedControl
        LOCFRAME ISTACK, 0, STACK
        LOCFRAME PSTACK, 0, STACK
        LOCFRAME XSTACK, 37, STACK
        LOCFRAME IOVERLAY, 0, STATIC
        LOCFRAME DOVERLAY, 0, STATIC
        ARGFRAME ISTACK, 0, STACK
        ARGFRAME PSTACK, 0, STACK
        ARGFRAME XSTACK, 37, STACK
        ARGFRAME IOVERLAY, 0, STATIC
        ARGFRAME DOVERLAY, 0, STATIC
        FUNCALL MT_UtilCommandProcessing, MT_UtilSrcMatchEnable
        LOCFRAME ISTACK, 0, STACK
        LOCFRAME PSTACK, 0, STACK
        LOCFRAME XSTACK, 37, STACK
        LOCFRAME IOVERLAY, 0, STATIC
        LOCFRAME DOVERLAY, 0, STATIC
        ARGFRAME ISTACK, 0, STACK
        ARGFRAME PSTACK, 0, STACK
        ARGFRAME XSTACK, 37, STACK
        ARGFRAME IOVERLAY, 0, STATIC
        ARGFRAME DOVERLAY, 0, STATIC
        FUNCALL MT_UtilCommandProcessing, MT_UtilSrcMatchAddEntry
        LOCFRAME ISTACK, 0, STACK
        LOCFRAME PSTACK, 0, STACK
        LOCFRAME XSTACK, 37, STACK
        LOCFRAME IOVERLAY, 0, STATIC
        LOCFRAME DOVERLAY, 0, STATIC
        ARGFRAME ISTACK, 0, STACK
        ARGFRAME PSTACK, 0, STACK
        ARGFRAME XSTACK, 37, STACK
        ARGFRAME IOVERLAY, 0, STATIC
        ARGFRAME DOVERLAY, 0, STATIC
        FUNCALL MT_UtilCommandProcessing, MT_UtilSrcMatchDeleteEntry
        LOCFRAME ISTACK, 0, STACK
        LOCFRAME PSTACK, 0, STACK
        LOCFRAME XSTACK, 37, STACK
        LOCFRAME IOVERLAY, 0, STATIC
        LOCFRAME DOVERLAY, 0, STATIC
        ARGFRAME ISTACK, 0, STACK
        ARGFRAME PSTACK, 0, STACK
        ARGFRAME XSTACK, 37, STACK
        ARGFRAME IOVERLAY, 0, STATIC
        ARGFRAME DOVERLAY, 0, STATIC
        FUNCALL MT_UtilCommandProcessing, MT_UtilSrcMatchCheckSrcAddr
        LOCFRAME ISTACK, 0, STACK
        LOCFRAME PSTACK, 0, STACK
        LOCFRAME XSTACK, 37, STACK
        LOCFRAME IOVERLAY, 0, STATIC
        LOCFRAME DOVERLAY, 0, STATIC
        ARGFRAME ISTACK, 0, STACK
        ARGFRAME PSTACK, 0, STACK
        ARGFRAME XSTACK, 37, STACK
        ARGFRAME IOVERLAY, 0, STATIC
        ARGFRAME DOVERLAY, 0, STATIC
        FUNCALL MT_UtilCommandProcessing, MT_UtilSrcMatchAckAllPending
        LOCFRAME ISTACK, 0, STACK
        LOCFRAME PSTACK, 0, STACK
        LOCFRAME XSTACK, 37, STACK
        LOCFRAME IOVERLAY, 0, STATIC
        LOCFRAME DOVERLAY, 0, STATIC
        ARGFRAME ISTACK, 0, STACK
        ARGFRAME PSTACK, 0, STACK
        ARGFRAME XSTACK, 37, STACK
        ARGFRAME IOVERLAY, 0, STATIC
        ARGFRAME DOVERLAY, 0, STATIC
        FUNCALL MT_UtilCommandProcessing, MT_UtilSrcMatchCheckAllPending
        LOCFRAME ISTACK, 0, STACK
        LOCFRAME PSTACK, 0, STACK
        LOCFRAME XSTACK, 37, STACK
        LOCFRAME IOVERLAY, 0, STATIC
        LOCFRAME DOVERLAY, 0, STATIC
        ARGFRAME ISTACK, 0, STACK
        ARGFRAME PSTACK, 0, STACK
        ARGFRAME XSTACK, 37, STACK
        ARGFRAME IOVERLAY, 0, STATIC
        ARGFRAME DOVERLAY, 0, STATIC
        FUNCALL MT_UtilCommandProcessing, MT_BuildAndSendZToolResponse
        LOCFRAME ISTACK, 0, STACK
        LOCFRAME PSTACK, 0, STACK
        LOCFRAME XSTACK, 37, STACK
        LOCFRAME IOVERLAY, 0, STATIC
        LOCFRAME DOVERLAY, 0, STATIC
        ARGFRAME ISTACK, 0, STACK
        ARGFRAME PSTACK, 0, STACK
        ARGFRAME XSTACK, 37, STACK
        ARGFRAME IOVERLAY, 0, STATIC
        ARGFRAME DOVERLAY, 0, STATIC
        FUNCALL MT_UtilCommandProcessing, MT_UtilDataReq
        LOCFRAME ISTACK, 0, STACK
        LOCFRAME PSTACK, 0, STACK
        LOCFRAME XSTACK, 37, STACK
        LOCFRAME IOVERLAY, 0, STATIC
        LOCFRAME DOVERLAY, 0, STATIC
        ARGFRAME ISTACK, 0, STACK
        ARGFRAME PSTACK, 0, STACK
        ARGFRAME XSTACK, 37, STACK
        ARGFRAME IOVERLAY, 0, STATIC
        ARGFRAME DOVERLAY, 0, STATIC
        FUNCALL MT_UtilCommandProcessing, MT_UtilAddrMgrEntryLookupExt
        LOCFRAME ISTACK, 0, STACK
        LOCFRAME PSTACK, 0, STACK
        LOCFRAME XSTACK, 37, STACK
        LOCFRAME IOVERLAY, 0, STATIC
        LOCFRAME DOVERLAY, 0, STATIC
        ARGFRAME ISTACK, 0, STACK
        ARGFRAME PSTACK, 0, STACK
        ARGFRAME XSTACK, 37, STACK
        ARGFRAME IOVERLAY, 0, STATIC
        ARGFRAME DOVERLAY, 0, STATIC
        FUNCALL MT_UtilCommandProcessing, AddrMgrEntryLookupNwk
        LOCFRAME ISTACK, 0, STACK
        LOCFRAME PSTACK, 0, STACK
        LOCFRAME XSTACK, 37, STACK
        LOCFRAME IOVERLAY, 0, STATIC
        LOCFRAME DOVERLAY, 0, STATIC
        ARGFRAME ISTACK, 0, STACK
        ARGFRAME PSTACK, 0, STACK
        ARGFRAME XSTACK, 37, STACK
        ARGFRAME IOVERLAY, 0, STATIC
        ARGFRAME DOVERLAY, 0, STATIC
        FUNCALL MT_UtilCommandProcessing, MT_BuildAndSendZToolResponse
        LOCFRAME ISTACK, 0, STACK
        LOCFRAME PSTACK, 0, STACK
        LOCFRAME XSTACK, 37, STACK
        LOCFRAME IOVERLAY, 0, STATIC
        LOCFRAME DOVERLAY, 0, STATIC
        ARGFRAME ISTACK, 0, STACK
        ARGFRAME PSTACK, 0, STACK
        ARGFRAME XSTACK, 37, STACK
        ARGFRAME IOVERLAY, 0, STATIC
        ARGFRAME DOVERLAY, 0, STATIC
        FUNCALL MT_UtilCommandProcessing, osal_memcpy
        LOCFRAME ISTACK, 0, STACK
        LOCFRAME PSTACK, 0, STACK
        LOCFRAME XSTACK, 40, STACK
        LOCFRAME IOVERLAY, 0, STATIC
        LOCFRAME DOVERLAY, 0, STATIC
        ARGFRAME ISTACK, 0, STACK
        ARGFRAME PSTACK, 0, STACK
        ARGFRAME XSTACK, 40, STACK
        ARGFRAME IOVERLAY, 0, STATIC
        ARGFRAME DOVERLAY, 0, STATIC
        FUNCALL MT_UtilCommandProcessing, ZDSecMgrRequestAppKey
        LOCFRAME ISTACK, 0, STACK
        LOCFRAME PSTACK, 0, STACK
        LOCFRAME XSTACK, 37, STACK
        LOCFRAME IOVERLAY, 0, STATIC
        LOCFRAME DOVERLAY, 0, STATIC
        ARGFRAME ISTACK, 0, STACK
        ARGFRAME PSTACK, 0, STACK
        ARGFRAME XSTACK, 37, STACK
        ARGFRAME IOVERLAY, 0, STATIC
        ARGFRAME DOVERLAY, 0, STATIC
        FUNCALL MT_UtilCommandProcessing, MT_BuildAndSendZToolResponse
        LOCFRAME ISTACK, 0, STACK
        LOCFRAME PSTACK, 0, STACK
        LOCFRAME XSTACK, 37, STACK
        LOCFRAME IOVERLAY, 0, STATIC
        LOCFRAME DOVERLAY, 0, STATIC
        ARGFRAME ISTACK, 0, STACK
        ARGFRAME PSTACK, 0, STACK
        ARGFRAME XSTACK, 37, STACK
        ARGFRAME IOVERLAY, 0, STATIC
        ARGFRAME DOVERLAY, 0, STATIC
        FUNCALL MT_UtilCommandProcessing, AssocCount
        LOCFRAME ISTACK, 0, STACK
        LOCFRAME PSTACK, 0, STACK
        LOCFRAME XSTACK, 37, STACK
        LOCFRAME IOVERLAY, 0, STATIC
        LOCFRAME DOVERLAY, 0, STATIC
        ARGFRAME ISTACK, 0, STACK
        ARGFRAME PSTACK, 0, STACK
        ARGFRAME XSTACK, 37, STACK
        ARGFRAME IOVERLAY, 0, STATIC
        ARGFRAME DOVERLAY, 0, STATIC
        FUNCALL MT_UtilCommandProcessing, MT_BuildAndSendZToolResponse
        LOCFRAME ISTACK, 0, STACK
        LOCFRAME PSTACK, 0, STACK
        LOCFRAME XSTACK, 37, STACK
        LOCFRAME IOVERLAY, 0, STATIC
        LOCFRAME DOVERLAY, 0, STATIC
        ARGFRAME ISTACK, 0, STACK
        ARGFRAME PSTACK, 0, STACK
        ARGFRAME XSTACK, 37, STACK
        ARGFRAME IOVERLAY, 0, STATIC
        ARGFRAME DOVERLAY, 0, STATIC
        FUNCALL MT_UtilCommandProcessing, MT_UtilAssocFindDevice
        LOCFRAME ISTACK, 0, STACK
        LOCFRAME PSTACK, 0, STACK
        LOCFRAME XSTACK, 37, STACK
        LOCFRAME IOVERLAY, 0, STATIC
        LOCFRAME DOVERLAY, 0, STATIC
        ARGFRAME ISTACK, 0, STACK
        ARGFRAME PSTACK, 0, STACK
        ARGFRAME XSTACK, 37, STACK
        ARGFRAME IOVERLAY, 0, STATIC
        ARGFRAME DOVERLAY, 0, STATIC
        FUNCALL MT_UtilCommandProcessing, MT_UtilAssocGetWithAddress
        LOCFRAME ISTACK, 0, STACK
        LOCFRAME PSTACK, 0, STACK
        LOCFRAME XSTACK, 37, STACK
        LOCFRAME IOVERLAY, 0, STATIC
        LOCFRAME DOVERLAY, 0, STATIC
        ARGFRAME ISTACK, 0, STACK
        ARGFRAME PSTACK, 0, STACK
        ARGFRAME XSTACK, 37, STACK
        ARGFRAME IOVERLAY, 0, STATIC
        ARGFRAME DOVERLAY, 0, STATIC
        FUNCALL MT_UtilCommandProcessing, MT_UtilzclGeneral_KeyEstablish_InitiateKeyEstablishment
        LOCFRAME ISTACK, 0, STACK
        LOCFRAME PSTACK, 0, STACK
        LOCFRAME XSTACK, 37, STACK
        LOCFRAME IOVERLAY, 0, STATIC
        LOCFRAME DOVERLAY, 0, STATIC
        ARGFRAME ISTACK, 0, STACK
        ARGFRAME PSTACK, 0, STACK
        ARGFRAME XSTACK, 37, STACK
        ARGFRAME IOVERLAY, 0, STATIC
        ARGFRAME DOVERLAY, 0, STATIC
        FUNCALL MT_UtilCommandProcessing, MT_BuildAndSendZToolResponse
        LOCFRAME ISTACK, 0, STACK
        LOCFRAME PSTACK, 0, STACK
        LOCFRAME XSTACK, 37, STACK
        LOCFRAME IOVERLAY, 0, STATIC
        LOCFRAME DOVERLAY, 0, STATIC
        ARGFRAME ISTACK, 0, STACK
        ARGFRAME PSTACK, 0, STACK
        ARGFRAME XSTACK, 37, STACK
        ARGFRAME IOVERLAY, 0, STATIC
        ARGFRAME DOVERLAY, 0, STATIC
        MOV     A,#-0xf
        LCALL   ?BANKED_ENTER_XDATA
        CFI DPH0 load(1, XDATA, add(CFA_XSP16, literal(-1)))
        CFI DPL0 load(1, XDATA, add(CFA_XSP16, literal(-2)))
        CFI ?BRET_EXT load(1, XDATA, add(CFA_XSP16, literal(-3)))
        CFI ?RET_HIGH load(1, XDATA, add(CFA_XSP16, literal(-4)))
        CFI ?RET_LOW load(1, XDATA, add(CFA_XSP16, literal(-5)))
        CFI R7 load(1, XDATA, add(CFA_XSP16, literal(-6)))
        CFI V6 load(1, XDATA, add(CFA_XSP16, literal(-7)))
        CFI V5 load(1, XDATA, add(CFA_XSP16, literal(-8)))
        CFI V4 load(1, XDATA, add(CFA_XSP16, literal(-9)))
        CFI V3 load(1, XDATA, add(CFA_XSP16, literal(-10)))
        CFI V2 load(1, XDATA, add(CFA_XSP16, literal(-11)))
        CFI V1 load(1, XDATA, add(CFA_XSP16, literal(-12)))
        CFI V0 load(1, XDATA, add(CFA_XSP16, literal(-13)))
        CFI VB load(1, XDATA, add(CFA_XSP16, literal(-14)))
        CFI R6 load(1, XDATA, add(CFA_XSP16, literal(-15)))
        CFI CFA_SP SP+0
        CFI CFA_XSP16 add(XSP16, 15)
        ; Saved register size: 15
        ; Auto size: 22
        MOV     A,#-0x16
        LCALL   ?ALLOC_XSTACK8
        CFI CFA_XSP16 add(XSP16, 37)
//  150   uint8 status = MT_RPC_SUCCESS;
        MOV     ?V0 + 2,#0x0
//  151 
//  152   switch (pBuf[MT_RPC_POS_CMD1])
        MOV     DPL,R2
        MOV     DPH,R3
        INC     DPTR
        INC     DPTR
        MOVX    A,@DPTR
        JNZ     $+5
        LJMP    ??MT_UtilCommandProcessing_0 & 0xFFFF
        DEC     A
        JNZ     $+5
        LJMP    ??MT_UtilCommandProcessing_1 & 0xFFFF
        DEC     A
        JNZ     $+5
        LJMP    ??MT_UtilCommandProcessing_2 & 0xFFFF
        DEC     A
        JNZ     $+5
        LJMP    ??MT_UtilCommandProcessing_3 & 0xFFFF
        DEC     A
        JNZ     $+5
        LJMP    ??MT_UtilCommandProcessing_4 & 0xFFFF
        DEC     A
        JNZ     $+5
        LJMP    ??MT_UtilCommandProcessing_5 & 0xFFFF
        DEC     A
        JNZ     $+5
        LJMP    ??MT_UtilCommandProcessing_6 & 0xFFFF
        DEC     A
        JNZ     $+5
        LJMP    ??MT_UtilCommandProcessing_7 & 0xFFFF
        ADD     A,#-0x2
        JNZ     $+5
        LJMP    ??MT_UtilCommandProcessing_8 & 0xFFFF
        DEC     A
        JNZ     $+5
        LJMP    ??MT_UtilCommandProcessing_9 & 0xFFFF
        ADD     A,#-0x6
        JNZ     $+5
        LJMP    ??MT_UtilCommandProcessing_10 & 0xFFFF
        DEC     A
        JNZ     $+5
        LJMP    ??MT_UtilCommandProcessing_11 & 0xFFFF
        ADD     A,#-0xf
        JNZ     $+5
        LJMP    ??MT_UtilCommandProcessing_12 & 0xFFFF
        DEC     A
        JNZ     $+5
        LJMP    ??MT_UtilCommandProcessing_13 & 0xFFFF
        DEC     A
        JNZ     $+5
        LJMP    ??MT_UtilCommandProcessing_14 & 0xFFFF
        DEC     A
        JNZ     $+5
        LJMP    ??MT_UtilCommandProcessing_15 & 0xFFFF
        DEC     A
        JNZ     $+5
        LJMP    ??MT_UtilCommandProcessing_16 & 0xFFFF
        DEC     A
        JNZ     $+5
        LJMP    ??MT_UtilCommandProcessing_17 & 0xFFFF
        ADD     A,#-0x1b
        JNZ     $+5
        LJMP    ??MT_UtilCommandProcessing_18 & 0xFFFF
        DEC     A
        JNZ     $+5
        LJMP    ??MT_UtilCommandProcessing_19 & 0xFFFF
        ADD     A,#-0x7
        JNZ     $+5
        LJMP    ??MT_UtilCommandProcessing_20 & 0xFFFF
        DEC     A
        JNZ     $+5
        LJMP    ??MT_UtilCommandProcessing_21 & 0xFFFF
        DEC     A
        JNZ     $+5
        LJMP    ??MT_UtilCommandProcessing_22 & 0xFFFF
        DEC     A
        JNZ     $+5
        LJMP    ??MT_UtilCommandProcessing_23 & 0xFFFF
        ADD     A,#-0x35
        JNZ     $+5
        LJMP    ??MT_UtilCommandProcessing_24 & 0xFFFF
        DEC     A
        JNZ     $+5
        LJMP    ??MT_UtilCommandProcessing_25 & 0xFFFF
        ADD     A,#-0x5f
        JNZ     $+5
        LJMP    ??MT_UtilCommandProcessing_26 & 0xFFFF
        LJMP    ??MT_UtilCommandProcessing_27 & 0xFFFF
//  153   {
//  154 // CC253X MAC Network Processor does not have NV support
//  155 #if !defined(CC253X_MACNP)
//  156     case MT_UTIL_GET_DEVICE_INFO:
//  157       MT_UtilGetDeviceInfo();
??MT_UtilCommandProcessing_0:
        ; Setup parameters for call to function MT_UtilGetDeviceInfo
        LCALL   ??MT_UtilGetDeviceInfo?relay
//  158       break;
        LJMP    ??MT_UtilCommandProcessing_25 & 0xFFFF
//  159 
//  160     case MT_UTIL_GET_NV_INFO:
//  161       MT_UtilGetNvInfo();
??MT_UtilCommandProcessing_1:
        ; Setup parameters for call to function MT_UtilGetNvInfo
        LCALL   ??MT_UtilGetNvInfo?relay
//  162       break;
        LJMP    ??MT_UtilCommandProcessing_25 & 0xFFFF
//  163 
//  164     case MT_UTIL_SET_PANID:
//  165       MT_UtilSetPanID(pBuf);
??MT_UtilCommandProcessing_2:
        ; Setup parameters for call to function MT_UtilSetPanID
        LCALL   ??MT_UtilSetPanID?relay
//  166       break;
        LJMP    ??MT_UtilCommandProcessing_25 & 0xFFFF
//  167 
//  168     case MT_UTIL_SET_CHANNELS:
//  169       MT_UtilSetChannels(pBuf);
??MT_UtilCommandProcessing_3:
        ; Setup parameters for call to function MT_UtilSetChannels
        LCALL   ??MT_UtilSetChannels?relay
//  170       break;
        LJMP    ??MT_UtilCommandProcessing_25 & 0xFFFF
//  171 
//  172     case MT_UTIL_SET_SECLEVEL:
//  173       MT_UtilSetSecLevel(pBuf);
??MT_UtilCommandProcessing_4:
        ; Setup parameters for call to function MT_UtilSetSecLevel
        LCALL   ??MT_UtilSetSecLevel?relay
//  174       break;
        LJMP    ??MT_UtilCommandProcessing_25 & 0xFFFF
//  175 
//  176     case MT_UTIL_SET_PRECFGKEY:
//  177       MT_UtilSetPreCfgKey(pBuf);
??MT_UtilCommandProcessing_5:
        ; Setup parameters for call to function MT_UtilSetPreCfgKey
        LCALL   ??MT_UtilSetPreCfgKey?relay
//  178       break;
        LJMP    ??MT_UtilCommandProcessing_25 & 0xFFFF
//  179 #endif
//  180     case MT_UTIL_CALLBACK_SUB_CMD:
//  181       MT_UtilCallbackSub(pBuf);
??MT_UtilCommandProcessing_6:
        ; Setup parameters for call to function MT_UtilCallbackSub
        LCALL   ??MT_UtilCallbackSub?relay
//  182       break;
        LJMP    ??MT_UtilCommandProcessing_25 & 0xFFFF
//  183 
//  184     case MT_UTIL_KEY_EVENT:
//  185 #if (defined HAL_KEY) && (HAL_KEY == TRUE)
//  186       MT_UtilKeyEvent(pBuf);
??MT_UtilCommandProcessing_7:
        ; Setup parameters for call to function MT_UtilKeyEvent
        LCALL   ??MT_UtilKeyEvent?relay
//  187 #endif
//  188       break;
        LJMP    ??MT_UtilCommandProcessing_25 & 0xFFFF
//  189 
//  190     case MT_UTIL_TIME_ALIVE:
//  191       MT_UtilTimeAlive();
??MT_UtilCommandProcessing_8:
        ; Setup parameters for call to function MT_UtilTimeAlive
        LCALL   ??MT_UtilTimeAlive?relay
//  192       break;
        LJMP    ??MT_UtilCommandProcessing_25 & 0xFFFF
//  193 
//  194     case MT_UTIL_LED_CONTROL:
//  195 #if (defined HAL_LED) && (HAL_LED == TRUE)
//  196       MT_UtilLedControl(pBuf);
??MT_UtilCommandProcessing_9:
        ; Setup parameters for call to function MT_UtilLedControl
        LCALL   ??MT_UtilLedControl?relay
//  197 #endif
//  198       break;
        LJMP    ??MT_UtilCommandProcessing_25 & 0xFFFF
//  199 
//  200     case MT_UTIL_SRC_MATCH_ENABLE:
//  201       MT_UtilSrcMatchEnable(pBuf);
??MT_UtilCommandProcessing_12:
        ; Setup parameters for call to function MT_UtilSrcMatchEnable
        LCALL   ??MT_UtilSrcMatchEnable?relay
//  202       break;
        LJMP    ??MT_UtilCommandProcessing_25 & 0xFFFF
//  203 
//  204     case MT_UTIL_SRC_MATCH_ADD_ENTRY:
//  205       MT_UtilSrcMatchAddEntry(pBuf);
??MT_UtilCommandProcessing_13:
        ; Setup parameters for call to function MT_UtilSrcMatchAddEntry
        LCALL   ??MT_UtilSrcMatchAddEntry?relay
//  206       break;
        LJMP    ??MT_UtilCommandProcessing_25 & 0xFFFF
//  207 
//  208     case MT_UTIL_SRC_MATCH_DEL_ENTRY:
//  209       MT_UtilSrcMatchDeleteEntry(pBuf);
??MT_UtilCommandProcessing_14:
        ; Setup parameters for call to function MT_UtilSrcMatchDeleteEntry
        LCALL   ??MT_UtilSrcMatchDeleteEntry?relay
//  210       break;
        LJMP    ??MT_UtilCommandProcessing_25 & 0xFFFF
//  211 
//  212     case MT_UTIL_SRC_MATCH_CHECK_SRC_ADDR:
//  213       MT_UtilSrcMatchCheckSrcAddr(pBuf);
??MT_UtilCommandProcessing_15:
        ; Setup parameters for call to function MT_UtilSrcMatchCheckSrcAddr
        LCALL   ??MT_UtilSrcMatchCheckSrcAddr?relay
//  214       break;
        LJMP    ??MT_UtilCommandProcessing_25 & 0xFFFF
//  215 
//  216     case MT_UTIL_SRC_MATCH_ACK_ALL_PENDING:
//  217       MT_UtilSrcMatchAckAllPending(pBuf);
??MT_UtilCommandProcessing_16:
        ; Setup parameters for call to function MT_UtilSrcMatchAckAllPending
        LCALL   ??MT_UtilSrcMatchAckAllPending?relay
//  218       break;
        LJMP    ??MT_UtilCommandProcessing_25 & 0xFFFF
//  219 
//  220     case MT_UTIL_SRC_MATCH_CHECK_ALL_PENDING:
//  221       MT_UtilSrcMatchCheckAllPending(pBuf);
??MT_UtilCommandProcessing_17:
        ; Setup parameters for call to function MT_UtilSrcMatchCheckAllPending
        LCALL   ??MT_UtilSrcMatchCheckAllPending?relay
//  222       break;
        LJMP    ??MT_UtilCommandProcessing_25 & 0xFFFF
//  223 
//  224     case MT_UTIL_TEST_LOOPBACK:
//  225       MT_BuildAndSendZToolResponse((MT_RPC_CMD_SRSP|(uint8)MT_RPC_SYS_UTIL), MT_UTIL_TEST_LOOPBACK,
//  226                                     pBuf[MT_RPC_POS_LEN], (pBuf+MT_RPC_FRAME_HDR_SZ));
??MT_UtilCommandProcessing_10:
        ; Setup parameters for call to function MT_BuildAndSendZToolResponse
        MOV     A,R2
        ADD     A,#0x3
        MOV     R4,A
        MOV     A,R3
        ADDC    A,#0x0
        MOV     R5,A
        MOV     DPL,R2
        MOV     DPH,R3
        MOVX    A,@DPTR
        MOV     R3,A
        MOV     R2,#0x10
??MT_UtilCommandProcessing_28:
        MOV     R1,#0x67
??MT_UtilCommandProcessing_29:
        LCALL   ??MT_BuildAndSendZToolResponse?relay
//  227       break;
        LJMP    ??MT_UtilCommandProcessing_25 & 0xFFFF
//  228 
//  229 #if !defined NONWK
//  230     case MT_UTIL_DATA_REQ:
//  231       MT_UtilDataReq(pBuf);
??MT_UtilCommandProcessing_11:
        ; Setup parameters for call to function MT_UtilDataReq
        LCALL   ??MT_UtilDataReq?relay
//  232       break;
        LJMP    ??MT_UtilCommandProcessing_25 & 0xFFFF
//  233 
//  234     case MT_UTIL_ADDRMGR_EXT_ADDR_LOOKUP:
//  235       MT_UtilAddrMgrEntryLookupExt(pBuf);
??MT_UtilCommandProcessing_18:
        ; Setup parameters for call to function MT_UtilAddrMgrEntryLookupExt
        LCALL   ??MT_UtilAddrMgrEntryLookupExt?relay
//  236       break;
        LJMP    ??MT_UtilCommandProcessing_25 & 0xFFFF
//  237 
//  238     case MT_UTIL_ADDRMGR_NWK_ADDR_LOOKUP:
//  239       MT_UtilAddrMgrEntryLookupNwk(pBuf);
??MT_UtilCommandProcessing_19:
        MOV     DPL,R2
        MOV     DPH,R3
        INC     DPTR
        INC     DPTR
        MOVX    A,@DPTR
        MOV     R6,A
        MOV     A,R2
        ADD     A,#0x3
        MOV     DPL,A
        MOV     A,R3
        ADDC    A,#0x0
        MOV     DPH,A
        MOVX    A,@DPTR
        MOV     R2,A
        INC     DPTR
        MOVX    A,@DPTR
        MOV     R1,A
        MOV     A,R2
        MOV     R0,A
        MOV     A,#0xa
        LCALL   ?XSTACK_DISP0_8
        MOV     A,R0
        MOVX    @DPTR,A
        INC     DPTR
        MOV     A,R1
        MOVX    @DPTR,A
        ; Setup parameters for call to function AddrMgrEntryLookupNwk
        MOV     A,#0x9
        LCALL   ?XSTACK_DISP0_8
        MOV     R2,DPL
        MOV     R3,DPH
        LCALL   ??AddrMgrEntryLookupNwk?relay
        ; Setup parameters for call to function MT_BuildAndSendZToolResponse
        MOV     A,#0xc
        LCALL   ?XSTACK_DISP0_8
        MOV     R4,DPL
        MOV     R5,DPH
        MOV     R3,#0x8
??MT_UtilCommandProcessing_30:
        MOV     A,R6
        MOV     R2,A
        SJMP    ??MT_UtilCommandProcessing_28
//  240       break;
//  241 
//  242 #if defined MT_SYS_KEY_MANAGEMENT
//  243     case MT_UTIL_APSME_LINK_KEY_DATA_GET:
//  244       MT_UtilAPSME_LinkKeyDataGet(pBuf);
//  245       break;
//  246 
//  247     case MT_UTIL_APSME_LINK_KEY_NV_ID_GET:
//  248       MT_UtilAPSME_LinkKeyNvIdGet(pBuf);
//  249       break;
//  250 #endif // MT_SYS_KEY_MANAGEMENT
//  251 
//  252     case MT_UTIL_APSME_REQUEST_KEY_CMD:
//  253       MT_UtilAPSME_RequestKeyCmd(pBuf);
??MT_UtilCommandProcessing_23:
        LCALL   ?Subroutine15 & 0xFFFF
??CrossCallReturnLabel_18:
        MOV     ?V0 + 4,R1
        MOV     ?V0 + 5,R2
        MOV     ?V0 + 6,#0x0
        MOV     R0,#?V0 + 4
        LCALL   ?PUSH_XSTACK_I_THREE
        CFI CFA_XSP16 add(XSP16, 40)
        MOV     R4,#0x8
        MOV     R5,#0x0
        MOV     A,#0x4
        LCALL   ?XSTACK_DISP0_8
        MOV     R2,DPL
        MOV     R3,DPH
        LCALL   ??osal_memcpy?relay
        MOV     A,#0x3
        LCALL   ?DEALLOC_XSTACK8
        CFI CFA_XSP16 add(XSP16, 37)
        ; Setup parameters for call to function ZDSecMgrRequestAppKey
        MOV     A,#0x1
        LCALL   ?XSTACK_DISP0_8
        MOV     R2,DPL
        MOV     R3,DPH
        LCALL   ??ZDSecMgrRequestAppKey?relay
        LCALL   ?Subroutine24 & 0xFFFF
??CrossCallReturnLabel_62:
        SJMP    ??MT_UtilCommandProcessing_30
//  254       break;
//  255 
//  256     case MT_UTIL_ASSOC_COUNT:
//  257       MT_UtilAssocCount(pBuf);
??MT_UtilCommandProcessing_20:
        MOV     DPL,R2
        MOV     DPH,R3
        INC     DPTR
        INC     DPTR
        MOVX    A,@DPTR
        MOV     ?V0 + 3,A
        MOV     A,R2
        ADD     A,#0x3
        MOV     R0,A
        MOV     A,R3
        LCALL   ?Subroutine19 & 0xFFFF
??CrossCallReturnLabel_26:
        INC     DPTR
        MOV     ?V0 + 0,DPL
        MOV     ?V0 + 1,DPH
        ; Setup parameters for call to function AssocCount
        MOVX    A,@DPTR
        MOV     R2,A
        MOV     DPL,R6
        MOV     DPH,R7
        MOVX    A,@DPTR
        MOV     R1,A
        LCALL   ??AssocCount?relay
        MOV     A,R2
        MOV     DPL,R6
        MOV     DPH,R7
        MOVX    @DPTR,A
        MOV     DPL,?V0 + 0
        MOV     DPH,?V0 + 1
        MOV     A,R3
        MOVX    @DPTR,A
        ; Setup parameters for call to function MT_BuildAndSendZToolResponse
        MOV     A,R6
        MOV     R4,A
        MOV     A,R7
        MOV     R5,A
        MOV     R3,#0x2
        MOV     R2,?V0 + 3
        LJMP    ??MT_UtilCommandProcessing_28 & 0xFFFF
//  258       break;
//  259 
//  260     case MT_UTIL_ASSOC_FIND_DEVICE:
//  261       MT_UtilAssocFindDevice(pBuf);
??MT_UtilCommandProcessing_21:
        ; Setup parameters for call to function MT_UtilAssocFindDevice
        LCALL   ??MT_UtilAssocFindDevice?relay
//  262       break;
        SJMP    ??MT_UtilCommandProcessing_25
//  263 
//  264     case MT_UTIL_ASSOC_GET_WITH_ADDRESS:
//  265       MT_UtilAssocGetWithAddress(pBuf);
??MT_UtilCommandProcessing_22:
        ; Setup parameters for call to function MT_UtilAssocGetWithAddress
        LCALL   ??MT_UtilAssocGetWithAddress?relay
//  266       break;
        SJMP    ??MT_UtilCommandProcessing_25
//  267 
//  268 #if defined ZCL_KEY_ESTABLISH
//  269     case MT_UTIL_ZCL_KEY_EST_INIT_EST:
//  270       MT_UtilzclGeneral_KeyEstablish_InitiateKeyEstablishment(pBuf);
??MT_UtilCommandProcessing_24:
        ; Setup parameters for call to function MT_UtilzclGeneral_KeyEstablish_InitiateKeyEstablishment
        LCALL   ??MT_UtilzclGeneral_KeyEstablish_InitiateKeyEst
//  271       break;
        SJMP    ??MT_UtilCommandProcessing_25
//  272 
//  273     case MT_UTIL_ZCL_KEY_EST_SIGN:
//  274       MT_UtilzclGeneral_KeyEstablishment_ECDSASign(pBuf);
//  275       break;
//  276 #endif
//  277 
//  278     case MT_UTIL_SYNC_REQ:
//  279       MT_UtilSync();
??MT_UtilCommandProcessing_26:
        ; Setup parameters for call to function MT_BuildAndSendZToolResponse
        MOV     R4,#0x0
        MOV     R5,#0x0
        MOV     R3,#0x0
        MOV     R2,#-0x20
        MOV     R1,#0x47
        LJMP    ??MT_UtilCommandProcessing_29 & 0xFFFF
//  280       break;
//  281 #endif /* !defined NONWK */
//  282 
//  283     default:
//  284       status = MT_RPC_ERR_COMMAND_ID;
??MT_UtilCommandProcessing_27:
        MOV     ?V0 + 2,#0x2
//  285       break;
//  286   }
//  287 
//  288   return status;
??MT_UtilCommandProcessing_25:
        MOV     R1,?V0 + 2
        MOV     A,#0x16
        LCALL   ?DEALLOC_XSTACK8
        CFI CFA_XSP16 add(XSP16, 15)
        MOV     R7,#0x7
        LJMP    ?BANKED_LEAVE_XDATA
        CFI EndBlock cfiBlock0
//  289 }

        RSEG BANKED_CODE:CODE:NOROOT(0)
?Subroutine24:
        CFI Block cfiCond1 Using cfiCommon0
        CFI NoFunction
        CFI Conditional ??CrossCallReturnLabel_62
        CFI R6 load(1, XDATA, add(CFA_XSP16, literal(-15)))
        CFI VB load(1, XDATA, add(CFA_XSP16, literal(-14)))
        CFI V0 load(1, XDATA, add(CFA_XSP16, literal(-13)))
        CFI V1 load(1, XDATA, add(CFA_XSP16, literal(-12)))
        CFI V2 load(1, XDATA, add(CFA_XSP16, literal(-11)))
        CFI V3 load(1, XDATA, add(CFA_XSP16, literal(-10)))
        CFI V4 load(1, XDATA, add(CFA_XSP16, literal(-9)))
        CFI V5 load(1, XDATA, add(CFA_XSP16, literal(-8)))
        CFI V6 load(1, XDATA, add(CFA_XSP16, literal(-7)))
        CFI R7 load(1, XDATA, add(CFA_XSP16, literal(-6)))
        CFI ?RET_LOW load(1, XDATA, add(CFA_XSP16, literal(-5)))
        CFI ?RET_HIGH load(1, XDATA, add(CFA_XSP16, literal(-4)))
        CFI ?BRET_EXT load(1, XDATA, add(CFA_XSP16, literal(-3)))
        CFI DPL0 load(1, XDATA, add(CFA_XSP16, literal(-2)))
        CFI DPH0 load(1, XDATA, add(CFA_XSP16, literal(-1)))
        CFI CFA_SP SP+0
        CFI CFA_XSP16 add(XSP16, 37)
        CFI Block cfiCond2 Using cfiCommon0
        CFI (cfiCond2) NoFunction
        CFI (cfiCond2) Conditional ??CrossCallReturnLabel_63
        CFI (cfiCond2) DPL0 Frame(CFA_SP, 4)
        CFI (cfiCond2) DPH0 Frame(CFA_SP, 5)
        CFI (cfiCond2) CFA_SP SP+-5
        CFI (cfiCond2) CFA_XSP16 add(XSP16, 1)
        CFI Block cfiPicker3 Using cfiCommon1
        CFI (cfiPicker3) NoFunction
        CFI (cfiPicker3) Picker
        MOV     A,R1
        MOV     DPL,?XSP + 0
        MOV     DPH,?XSP + 1
        CFI EndBlock cfiCond1
        CFI EndBlock cfiCond2
        CFI EndBlock cfiPicker3
        REQUIRE ??Subroutine41_0
        ; // Fall through to label ??Subroutine41_0

        RSEG BANKED_CODE:CODE:NOROOT(0)
??Subroutine41_0:
        CFI Block cfiCond4 Using cfiCommon0
        CFI NoFunction
        CFI Conditional ??CrossCallReturnLabel_64
        CFI DPL0 Frame(CFA_SP, 4)
        CFI DPH0 Frame(CFA_SP, 5)
        CFI CFA_SP SP+-5
        CFI CFA_XSP16 add(XSP16, 1)
        CFI Block cfiCond5 Using cfiCommon0
        CFI (cfiCond5) NoFunction
        CFI (cfiCond5) Conditional ??CrossCallReturnLabel_64
        CFI (cfiCond5) DPL0 Frame(CFA_SP, 4)
        CFI (cfiCond5) DPH0 Frame(CFA_SP, 5)
        CFI (cfiCond5) CFA_SP SP+-5
        CFI (cfiCond5) CFA_XSP16 add(XSP16, 1)
        CFI Block cfiCond6 Using cfiCommon0
        CFI (cfiCond6) NoFunction
        CFI (cfiCond6) Conditional ??CrossCallReturnLabel_64
        CFI (cfiCond6) DPL0 Frame(CFA_SP, 4)
        CFI (cfiCond6) DPH0 Frame(CFA_SP, 5)
        CFI (cfiCond6) CFA_SP SP+-5
        CFI (cfiCond6) CFA_XSP16 add(XSP16, 1)
        CFI Block cfiCond7 Using cfiCommon0
        CFI (cfiCond7) NoFunction
        CFI (cfiCond7) Conditional ??CrossCallReturnLabel_64
        CFI (cfiCond7) DPL0 Frame(CFA_SP, 4)
        CFI (cfiCond7) DPH0 Frame(CFA_SP, 5)
        CFI (cfiCond7) CFA_SP SP+-5
        CFI (cfiCond7) CFA_XSP16 add(XSP16, 1)
        CFI Block cfiCond8 Using cfiCommon0
        CFI (cfiCond8) NoFunction
        CFI (cfiCond8) Conditional ??CrossCallReturnLabel_62
        CFI (cfiCond8) R6 load(1, XDATA, add(CFA_XSP16, literal(-15)))
        CFI (cfiCond8) VB load(1, XDATA, add(CFA_XSP16, literal(-14)))
        CFI (cfiCond8) V0 load(1, XDATA, add(CFA_XSP16, literal(-13)))
        CFI (cfiCond8) V1 load(1, XDATA, add(CFA_XSP16, literal(-12)))
        CFI (cfiCond8) V2 load(1, XDATA, add(CFA_XSP16, literal(-11)))
        CFI (cfiCond8) V3 load(1, XDATA, add(CFA_XSP16, literal(-10)))
        CFI (cfiCond8) V4 load(1, XDATA, add(CFA_XSP16, literal(-9)))
        CFI (cfiCond8) V5 load(1, XDATA, add(CFA_XSP16, literal(-8)))
        CFI (cfiCond8) V6 load(1, XDATA, add(CFA_XSP16, literal(-7)))
        CFI (cfiCond8) R7 load(1, XDATA, add(CFA_XSP16, literal(-6)))
        CFI (cfiCond8) ?RET_LOW load(1, XDATA, add(CFA_XSP16, literal(-5)))
        CFI (cfiCond8) ?RET_HIGH load(1, XDATA, add(CFA_XSP16, literal(-4)))
        CFI (cfiCond8) ?BRET_EXT load(1, XDATA, add(CFA_XSP16, literal(-3)))
        CFI (cfiCond8) DPL0 load(1, XDATA, add(CFA_XSP16, literal(-2)))
        CFI (cfiCond8) DPH0 load(1, XDATA, add(CFA_XSP16, literal(-1)))
        CFI (cfiCond8) CFA_SP SP+0
        CFI (cfiCond8) CFA_XSP16 add(XSP16, 37)
        CFI Block cfiCond9 Using cfiCommon0
        CFI (cfiCond9) NoFunction
        CFI (cfiCond9) Conditional ??CrossCallReturnLabel_63
        CFI (cfiCond9) DPL0 Frame(CFA_SP, 4)
        CFI (cfiCond9) DPH0 Frame(CFA_SP, 5)
        CFI (cfiCond9) CFA_SP SP+-5
        CFI (cfiCond9) CFA_XSP16 add(XSP16, 1)
        CFI Block cfiPicker10 Using cfiCommon1
        CFI (cfiPicker10) NoFunction
        CFI (cfiPicker10) Picker
        MOVX    @DPTR,A
        ; Setup parameters for call to function MT_BuildAndSendZToolResponse
        ; Setup parameters for call to function MT_BuildAndSendZToolResponse
        ; Setup parameters for call to function MT_BuildAndSendZToolResponse
        ; Setup parameters for call to function MT_BuildAndSendZToolResponse
        ; Setup parameters for call to function MT_BuildAndSendZToolResponse
        ; Setup parameters for call to function MT_BuildAndSendZToolResponse
        MOV     R4,DPL
        MOV     R5,DPH
        MOV     R3,#0x1
        RET
        CFI EndBlock cfiCond4
        CFI EndBlock cfiCond5
        CFI EndBlock cfiCond6
        CFI EndBlock cfiCond7
        CFI EndBlock cfiCond8
        CFI EndBlock cfiCond9
        CFI EndBlock cfiPicker10
//  290 
//  291 /***************************************************************************************************
//  292  * @fn      MT_UtilGetDeviceInfo
//  293  *
//  294  * @brief   The Get Device Info serial message.
//  295  *
//  296  * @param   None.
//  297  *
//  298  * @return  void
//  299  ***************************************************************************************************/

        RSEG BANKED_CODE:CODE:NOROOT(0)
//  300 void MT_UtilGetDeviceInfo(void)
MT_UtilGetDeviceInfo:
        CFI Block cfiBlock11 Using cfiCommon0
        CFI Function MT_UtilGetDeviceInfo
        CODE
//  301 {
        FUNCALL MT_UtilGetDeviceInfo, AssocMakeList
        LOCFRAME ISTACK, 0, STACK
        LOCFRAME PSTACK, 0, STACK
        LOCFRAME XSTACK, 17, STACK
        LOCFRAME IOVERLAY, 0, STATIC
        LOCFRAME DOVERLAY, 0, STATIC
        ARGFRAME ISTACK, 0, STACK
        ARGFRAME PSTACK, 0, STACK
        ARGFRAME XSTACK, 17, STACK
        ARGFRAME IOVERLAY, 0, STATIC
        ARGFRAME DOVERLAY, 0, STATIC
        FUNCALL MT_UtilGetDeviceInfo, osal_mem_alloc
        LOCFRAME ISTACK, 0, STACK
        LOCFRAME PSTACK, 0, STACK
        LOCFRAME XSTACK, 17, STACK
        LOCFRAME IOVERLAY, 0, STATIC
        LOCFRAME DOVERLAY, 0, STATIC
        ARGFRAME ISTACK, 0, STACK
        ARGFRAME PSTACK, 0, STACK
        ARGFRAME XSTACK, 17, STACK
        ARGFRAME IOVERLAY, 0, STATIC
        ARGFRAME DOVERLAY, 0, STATIC
        FUNCALL MT_UtilGetDeviceInfo, osal_nv_read
        LOCFRAME ISTACK, 0, STACK
        LOCFRAME PSTACK, 0, STACK
        LOCFRAME XSTACK, 21, STACK
        LOCFRAME IOVERLAY, 0, STATIC
        LOCFRAME DOVERLAY, 0, STATIC
        ARGFRAME ISTACK, 0, STACK
        ARGFRAME PSTACK, 0, STACK
        ARGFRAME XSTACK, 21, STACK
        ARGFRAME IOVERLAY, 0, STATIC
        ARGFRAME DOVERLAY, 0, STATIC
        FUNCALL MT_UtilGetDeviceInfo, NLME_GetShortAddr
        LOCFRAME ISTACK, 0, STACK
        LOCFRAME PSTACK, 0, STACK
        LOCFRAME XSTACK, 17, STACK
        LOCFRAME IOVERLAY, 0, STATIC
        LOCFRAME DOVERLAY, 0, STATIC
        ARGFRAME ISTACK, 0, STACK
        ARGFRAME PSTACK, 0, STACK
        ARGFRAME XSTACK, 17, STACK
        ARGFRAME IOVERLAY, 0, STATIC
        ARGFRAME DOVERLAY, 0, STATIC
        FUNCALL MT_UtilGetDeviceInfo, MT_BuildAndSendZToolResponse
        LOCFRAME ISTACK, 0, STACK
        LOCFRAME PSTACK, 0, STACK
        LOCFRAME XSTACK, 17, STACK
        LOCFRAME IOVERLAY, 0, STATIC
        LOCFRAME DOVERLAY, 0, STATIC
        ARGFRAME ISTACK, 0, STACK
        ARGFRAME PSTACK, 0, STACK
        ARGFRAME XSTACK, 17, STACK
        ARGFRAME IOVERLAY, 0, STATIC
        ARGFRAME DOVERLAY, 0, STATIC
        FUNCALL MT_UtilGetDeviceInfo, osal_mem_free
        LOCFRAME ISTACK, 0, STACK
        LOCFRAME PSTACK, 0, STACK
        LOCFRAME XSTACK, 17, STACK
        LOCFRAME IOVERLAY, 0, STATIC
        LOCFRAME DOVERLAY, 0, STATIC
        ARGFRAME ISTACK, 0, STACK
        ARGFRAME PSTACK, 0, STACK
        ARGFRAME XSTACK, 17, STACK
        ARGFRAME IOVERLAY, 0, STATIC
        ARGFRAME DOVERLAY, 0, STATIC
        FUNCALL MT_UtilGetDeviceInfo, osal_mem_free
        LOCFRAME ISTACK, 0, STACK
        LOCFRAME PSTACK, 0, STACK
        LOCFRAME XSTACK, 17, STACK
        LOCFRAME IOVERLAY, 0, STATIC
        LOCFRAME DOVERLAY, 0, STATIC
        ARGFRAME ISTACK, 0, STACK
        ARGFRAME PSTACK, 0, STACK
        ARGFRAME XSTACK, 17, STACK
        ARGFRAME IOVERLAY, 0, STATIC
        ARGFRAME DOVERLAY, 0, STATIC
        MOV     A,#-0x10
        LCALL   ?BANKED_ENTER_XDATA
        CFI DPH0 load(1, XDATA, add(CFA_XSP16, literal(-1)))
        CFI DPL0 load(1, XDATA, add(CFA_XSP16, literal(-2)))
        CFI ?BRET_EXT load(1, XDATA, add(CFA_XSP16, literal(-3)))
        CFI ?RET_HIGH load(1, XDATA, add(CFA_XSP16, literal(-4)))
        CFI ?RET_LOW load(1, XDATA, add(CFA_XSP16, literal(-5)))
        CFI R7 load(1, XDATA, add(CFA_XSP16, literal(-6)))
        CFI V7 load(1, XDATA, add(CFA_XSP16, literal(-7)))
        CFI V6 load(1, XDATA, add(CFA_XSP16, literal(-8)))
        CFI V5 load(1, XDATA, add(CFA_XSP16, literal(-9)))
        CFI V4 load(1, XDATA, add(CFA_XSP16, literal(-10)))
        CFI V3 load(1, XDATA, add(CFA_XSP16, literal(-11)))
        CFI V2 load(1, XDATA, add(CFA_XSP16, literal(-12)))
        CFI V1 load(1, XDATA, add(CFA_XSP16, literal(-13)))
        CFI V0 load(1, XDATA, add(CFA_XSP16, literal(-14)))
        CFI VB load(1, XDATA, add(CFA_XSP16, literal(-15)))
        CFI R6 load(1, XDATA, add(CFA_XSP16, literal(-16)))
        CFI CFA_SP SP+0
        CFI CFA_XSP16 add(XSP16, 16)
        ; Saved register size: 16
        ; Auto size: 1
        MOV     A,#-0x1
        LCALL   ?ALLOC_XSTACK8
        CFI CFA_XSP16 add(XSP16, 17)
//  302   uint8  *buf;
//  303   uint8  *pBuf;
//  304   uint8  bufLen = MT_UTIL_DEVICE_INFO_RESPONSE_LEN;
        MOV     ?V0 + 2,#0xe
//  305   uint16 *assocList = NULL;
        MOV     R6,#0x0
        MOV     R7,#0x0
//  306 
//  307 #if !defined NONWK
//  308   uint8  assocCnt = 0;
        MOV     DPL,?XSP + 0
        MOV     DPH,?XSP + 1
        CLR     A
        MOVX    @DPTR,A
//  309 
//  310   if (ZG_DEVICE_RTR_TYPE)
        MOV     DPTR,#zgDeviceLogicalType
        MOVX    A,@DPTR
        JZ      ??MT_UtilGetDeviceInfo_0
        XRL     A,#0x1
        JNZ     ??MT_UtilGetDeviceInfo_1
//  311   {
//  312     assocList = AssocMakeList( &assocCnt );
??MT_UtilGetDeviceInfo_0:
        ; Setup parameters for call to function AssocMakeList
        MOV     DPL,?XSP + 0
        MOV     DPH,?XSP + 1
        MOV     R2,DPL
        MOV     R3,DPH
        LCALL   ??AssocMakeList?relay
        MOV     ?V0 + 0,R2
        MOV     ?V0 + 1,R3
        MOV     R6,?V0 + 0
        MOV     R7,?V0 + 1
//  313     bufLen += (assocCnt * sizeof(uint16));
        MOV     DPL,?XSP + 0
        MOV     DPH,?XSP + 1
        MOVX    A,@DPTR
        CLR     C
        RLC     A
        ADD     A,#0xe
        MOV     ?V0 + 2,A
//  314   }
//  315 #endif
//  316 
//  317   buf = osal_mem_alloc( bufLen );
??MT_UtilGetDeviceInfo_1:
        ; Setup parameters for call to function osal_mem_alloc
        MOV     ?V0 + 0,?V0 + 2
        MOV     R2,?V0 + 0
        MOV     R3,#0x0
        LCALL   ??osal_mem_alloc?relay
        MOV     ?V0 + 0,R2
        MOV     ?V0 + 1,R3
//  318   if ( buf )
        MOV     A,R2
        ORL     A,?V0 + 1
        JNZ     $+5
        LJMP    ??MT_UtilGetDeviceInfo_2 & 0xFFFF
//  319   {
//  320     pBuf = buf;
//  321 
//  322     *pBuf++ = ZSUCCESS; // Status
        MOV     DPL,R2
        MOV     DPH,R3
        CLR     A
        LCALL   ?Subroutine27 & 0xFFFF
//  323 
//  324     osal_nv_read( ZCD_NV_EXTADDR, 0, Z_EXTADDR_LEN, pBuf );
??CrossCallReturnLabel_38:
        ; Setup parameters for call to function osal_nv_read
        MOV     R0,#?V0 + 4
        LCALL   ?PUSH_XSTACK_I_TWO
        CFI CFA_XSP16 add(XSP16, 19)
        MOV     ?V0 + 6,#0x8
        MOV     ?V0 + 7,#0x0
        MOV     R0,#?V0 + 6
        LCALL   ?PUSH_XSTACK_I_TWO
        CFI CFA_XSP16 add(XSP16, 21)
        LCALL   ?Subroutine23 & 0xFFFF
??CrossCallReturnLabel_65:
        LCALL   ?DEALLOC_XSTACK8
        CFI CFA_XSP16 add(XSP16, 17)
//  325     pBuf += Z_EXTADDR_LEN;
        MOV     A,?V0 + 4
        ADD     A,#0x8
        MOV     ?V0 + 4,A
        MOV     A,?V0 + 5
        ADDC    A,#0x0
        MOV     ?V0 + 5,A
//  326 
//  327 #if defined NONWK
//  328     // Skip past ZStack only parameters for NONWK
//  329     *pBuf++ = 0;
//  330     *pBuf++ = 0;
//  331     *pBuf++ = 0;
//  332     *pBuf++ = 0;
//  333     *pBuf = 0;
//  334 #else
//  335     {
//  336       uint16 shortAddr = NLME_GetShortAddr();
        ; Setup parameters for call to function NLME_GetShortAddr
        LCALL   ??NLME_GetShortAddr?relay
//  337       *pBuf++ = LO_UINT16( shortAddr );
        MOV     A,R2
        MOV     DPL,?V0 + 4
        MOV     DPH,?V0 + 5
        MOVX    @DPTR,A
        INC     DPTR
//  338       *pBuf++ = HI_UINT16( shortAddr );
        MOV     A,R3
        MOVX    @DPTR,A
        INC     DPTR
//  339     }
//  340 
//  341     /* Return device type */
//  342     *pBuf++ = ZSTACK_DEVICE_BUILD;
        MOV     A,#0x7
        LCALL   ?Subroutine27 & 0xFFFF
//  343 
//  344     /*Return device state */
//  345     *pBuf++ = (uint8)devState;
??CrossCallReturnLabel_39:
        MOV     DPTR,#devState
        LCALL   ?Subroutine8 & 0xFFFF
//  346 
//  347     if (ZG_DEVICE_RTR_TYPE)
??CrossCallReturnLabel_4:
        MOV     DPTR,#zgDeviceLogicalType
        MOVX    A,@DPTR
        JZ      ??MT_UtilGetDeviceInfo_3
        XRL     A,#0x1
        JNZ     ??MT_UtilGetDeviceInfo_4
//  348     {
//  349       *pBuf++ = assocCnt;
??MT_UtilGetDeviceInfo_3:
        MOV     DPL,?XSP + 0
        MOV     DPH,?XSP + 1
        LCALL   ?Subroutine8 & 0xFFFF
//  350 
//  351       if ( assocCnt )
??CrossCallReturnLabel_5:
        MOV     DPL,?XSP + 0
        MOV     DPH,?XSP + 1
        MOVX    A,@DPTR
        JZ      ??MT_UtilGetDeviceInfo_5
//  352       {
//  353         uint8 x;
//  354         uint16 *puint16 = assocList;
        MOV     A,R6
        MOV     R0,A
        MOV     A,R7
        MOV     R1,A
//  355 
//  356         for ( x = 0; x < assocCnt; x++, puint16++ )
        MOV     R4,#0x0
??MT_UtilGetDeviceInfo_6:
        MOV     DPL,?XSP + 0
        MOV     DPH,?XSP + 1
        MOVX    A,@DPTR
        MOV     R2,A
        MOV     A,R4
        CLR     C
        SUBB    A,R2
        JNC     ??MT_UtilGetDeviceInfo_5
//  357         {
//  358           *pBuf++ = LO_UINT16( *puint16 );
        MOV     DPL,R0
        MOV     DPH,R1
        LCALL   ?Subroutine8 & 0xFFFF
//  359           *pBuf++ = HI_UINT16( *puint16 );
??CrossCallReturnLabel_6:
        MOV     DPL,R0
        MOV     DPH,R1
        INC     DPTR
        LCALL   ?Subroutine8 & 0xFFFF
//  360         }
??CrossCallReturnLabel_7:
        INC     R4
        MOV     A,R0
        ADD     A,#0x2
        INC     R0
        INC     R0
        MOV     A,R1
        ADDC    A,#0x0
        MOV     R1,A
        SJMP    ??MT_UtilGetDeviceInfo_6
//  361       }
//  362     }
//  363     else
//  364     {
//  365       *pBuf++ = 0;
??MT_UtilGetDeviceInfo_4:
        MOV     DPL,?V0 + 4
        MOV     DPH,?V0 + 5
        CLR     A
        MOVX    @DPTR,A
//  366     }
//  367 #endif
//  368 
//  369     MT_BuildAndSendZToolResponse( ((uint8)MT_RPC_CMD_SRSP | (uint8)MT_RPC_SYS_UTIL),
//  370                                  MT_UTIL_GET_DEVICE_INFO,
//  371                                  bufLen, buf );
??MT_UtilGetDeviceInfo_5:
        ; Setup parameters for call to function MT_BuildAndSendZToolResponse
        MOV     R4,?V0 + 0
        MOV     R5,?V0 + 1
        MOV     R3,?V0 + 2
        MOV     R2,#0x0
        MOV     R1,#0x67
        LCALL   ??MT_BuildAndSendZToolResponse?relay
//  372 
//  373     osal_mem_free( buf );
        ; Setup parameters for call to function osal_mem_free
        MOV     R2,?V0 + 0
        MOV     R3,?V0 + 1
        LCALL   ??osal_mem_free?relay
//  374   }
//  375 
//  376   if ( assocList )
??MT_UtilGetDeviceInfo_2:
        MOV     A,R6
        ORL     A,R7
        JZ      ??MT_UtilGetDeviceInfo_7
//  377   {
//  378     osal_mem_free( assocList );
        ; Setup parameters for call to function osal_mem_free
        MOV     A,R6
        MOV     R2,A
        MOV     A,R7
        MOV     R3,A
        LCALL   ??osal_mem_free?relay
//  379   }
//  380 }
??MT_UtilGetDeviceInfo_7:
        MOV     A,#0x1
        LJMP    ?Subroutine0 & 0xFFFF
        CFI EndBlock cfiBlock11

        RSEG BANKED_CODE:CODE:NOROOT(0)
?Subroutine27:
        CFI Block cfiCond12 Using cfiCommon0
        CFI NoFunction
        CFI Conditional ??CrossCallReturnLabel_38
        CFI R6 load(1, XDATA, add(CFA_XSP16, literal(-16)))
        CFI VB load(1, XDATA, add(CFA_XSP16, literal(-15)))
        CFI V0 load(1, XDATA, add(CFA_XSP16, literal(-14)))
        CFI V1 load(1, XDATA, add(CFA_XSP16, literal(-13)))
        CFI V2 load(1, XDATA, add(CFA_XSP16, literal(-12)))
        CFI V3 load(1, XDATA, add(CFA_XSP16, literal(-11)))
        CFI V4 load(1, XDATA, add(CFA_XSP16, literal(-10)))
        CFI V5 load(1, XDATA, add(CFA_XSP16, literal(-9)))
        CFI V6 load(1, XDATA, add(CFA_XSP16, literal(-8)))
        CFI V7 load(1, XDATA, add(CFA_XSP16, literal(-7)))
        CFI R7 load(1, XDATA, add(CFA_XSP16, literal(-6)))
        CFI ?RET_LOW load(1, XDATA, add(CFA_XSP16, literal(-5)))
        CFI ?RET_HIGH load(1, XDATA, add(CFA_XSP16, literal(-4)))
        CFI ?BRET_EXT load(1, XDATA, add(CFA_XSP16, literal(-3)))
        CFI DPL0 load(1, XDATA, add(CFA_XSP16, literal(-2)))
        CFI DPH0 load(1, XDATA, add(CFA_XSP16, literal(-1)))
        CFI CFA_SP SP+0
        CFI CFA_XSP16 add(XSP16, 17)
        CFI Block cfiCond13 Using cfiCommon0
        CFI (cfiCond13) NoFunction
        CFI (cfiCond13) Conditional ??CrossCallReturnLabel_39
        CFI (cfiCond13) R6 load(1, XDATA, add(CFA_XSP16, literal(-16)))
        CFI (cfiCond13) VB load(1, XDATA, add(CFA_XSP16, literal(-15)))
        CFI (cfiCond13) V0 load(1, XDATA, add(CFA_XSP16, literal(-14)))
        CFI (cfiCond13) V1 load(1, XDATA, add(CFA_XSP16, literal(-13)))
        CFI (cfiCond13) V2 load(1, XDATA, add(CFA_XSP16, literal(-12)))
        CFI (cfiCond13) V3 load(1, XDATA, add(CFA_XSP16, literal(-11)))
        CFI (cfiCond13) V4 load(1, XDATA, add(CFA_XSP16, literal(-10)))
        CFI (cfiCond13) V5 load(1, XDATA, add(CFA_XSP16, literal(-9)))
        CFI (cfiCond13) V6 load(1, XDATA, add(CFA_XSP16, literal(-8)))
        CFI (cfiCond13) V7 load(1, XDATA, add(CFA_XSP16, literal(-7)))
        CFI (cfiCond13) R7 load(1, XDATA, add(CFA_XSP16, literal(-6)))
        CFI (cfiCond13) ?RET_LOW load(1, XDATA, add(CFA_XSP16, literal(-5)))
        CFI (cfiCond13) ?RET_HIGH load(1, XDATA, add(CFA_XSP16, literal(-4)))
        CFI (cfiCond13) ?BRET_EXT load(1, XDATA, add(CFA_XSP16, literal(-3)))
        CFI (cfiCond13) DPL0 load(1, XDATA, add(CFA_XSP16, literal(-2)))
        CFI (cfiCond13) DPH0 load(1, XDATA, add(CFA_XSP16, literal(-1)))
        CFI (cfiCond13) CFA_SP SP+0
        CFI (cfiCond13) CFA_XSP16 add(XSP16, 17)
        CFI Block cfiPicker14 Using cfiCommon1
        CFI (cfiPicker14) NoFunction
        CFI (cfiPicker14) Picker
        LCALL   ?Subroutine37 & 0xFFFF
??CrossCallReturnLabel_59:
        RET
        CFI EndBlock cfiCond12
        CFI EndBlock cfiCond13
        CFI EndBlock cfiPicker14

        RSEG BANKED_CODE:CODE:NOROOT(0)
?Subroutine23:
        CFI Block cfiCond15 Using cfiCommon0
        CFI NoFunction
        CFI Conditional ??CrossCallReturnLabel_65
        CFI R6 load(1, XDATA, add(CFA_XSP16, literal(-16)))
        CFI VB load(1, XDATA, add(CFA_XSP16, literal(-15)))
        CFI V0 load(1, XDATA, add(CFA_XSP16, literal(-14)))
        CFI V1 load(1, XDATA, add(CFA_XSP16, literal(-13)))
        CFI V2 load(1, XDATA, add(CFA_XSP16, literal(-12)))
        CFI V3 load(1, XDATA, add(CFA_XSP16, literal(-11)))
        CFI V4 load(1, XDATA, add(CFA_XSP16, literal(-10)))
        CFI V5 load(1, XDATA, add(CFA_XSP16, literal(-9)))
        CFI V6 load(1, XDATA, add(CFA_XSP16, literal(-8)))
        CFI V7 load(1, XDATA, add(CFA_XSP16, literal(-7)))
        CFI R7 load(1, XDATA, add(CFA_XSP16, literal(-6)))
        CFI ?RET_LOW load(1, XDATA, add(CFA_XSP16, literal(-5)))
        CFI ?RET_HIGH load(1, XDATA, add(CFA_XSP16, literal(-4)))
        CFI ?BRET_EXT load(1, XDATA, add(CFA_XSP16, literal(-3)))
        CFI DPL0 load(1, XDATA, add(CFA_XSP16, literal(-2)))
        CFI DPH0 load(1, XDATA, add(CFA_XSP16, literal(-1)))
        CFI CFA_SP SP+0
        CFI CFA_XSP16 add(XSP16, 21)
        CFI Block cfiCond16 Using cfiCommon0
        CFI (cfiCond16) NoFunction
        CFI (cfiCond16) Conditional ??CrossCallReturnLabel_66
        CFI (cfiCond16) R6 load(1, XDATA, add(CFA_XSP16, literal(-16)))
        CFI (cfiCond16) VB load(1, XDATA, add(CFA_XSP16, literal(-15)))
        CFI (cfiCond16) V0 load(1, XDATA, add(CFA_XSP16, literal(-14)))
        CFI (cfiCond16) V1 load(1, XDATA, add(CFA_XSP16, literal(-13)))
        CFI (cfiCond16) V2 load(1, XDATA, add(CFA_XSP16, literal(-12)))
        CFI (cfiCond16) V3 load(1, XDATA, add(CFA_XSP16, literal(-11)))
        CFI (cfiCond16) V4 load(1, XDATA, add(CFA_XSP16, literal(-10)))
        CFI (cfiCond16) V5 load(1, XDATA, add(CFA_XSP16, literal(-9)))
        CFI (cfiCond16) V6 load(1, XDATA, add(CFA_XSP16, literal(-8)))
        CFI (cfiCond16) V7 load(1, XDATA, add(CFA_XSP16, literal(-7)))
        CFI (cfiCond16) R7 load(1, XDATA, add(CFA_XSP16, literal(-6)))
        CFI (cfiCond16) ?RET_LOW load(1, XDATA, add(CFA_XSP16, literal(-5)))
        CFI (cfiCond16) ?RET_HIGH load(1, XDATA, add(CFA_XSP16, literal(-4)))
        CFI (cfiCond16) ?BRET_EXT load(1, XDATA, add(CFA_XSP16, literal(-3)))
        CFI (cfiCond16) DPL0 load(1, XDATA, add(CFA_XSP16, literal(-2)))
        CFI (cfiCond16) DPH0 load(1, XDATA, add(CFA_XSP16, literal(-1)))
        CFI (cfiCond16) CFA_SP SP+0
        CFI (cfiCond16) CFA_XSP16 add(XSP16, 26)
        CFI Block cfiPicker17 Using cfiCommon1
        CFI (cfiPicker17) NoFunction
        CFI (cfiPicker17) Picker
        MOV     R4,#0x0
        MOV     R5,#0x0
        MOV     R2,#0x1
        CFI EndBlock cfiCond15
        CFI EndBlock cfiCond16
        CFI EndBlock cfiPicker17
        REQUIRE ??Subroutine42_0
        ; // Fall through to label ??Subroutine42_0

        RSEG BANKED_CODE:CODE:NOROOT(0)
??Subroutine42_0:
        CFI Block cfiCond18 Using cfiCommon0
        CFI NoFunction
        CFI Conditional ??CrossCallReturnLabel_67
        CFI R6 load(1, XDATA, add(CFA_XSP16, literal(-16)))
        CFI VB load(1, XDATA, add(CFA_XSP16, literal(-15)))
        CFI V0 load(1, XDATA, add(CFA_XSP16, literal(-14)))
        CFI V1 load(1, XDATA, add(CFA_XSP16, literal(-13)))
        CFI V2 load(1, XDATA, add(CFA_XSP16, literal(-12)))
        CFI V3 load(1, XDATA, add(CFA_XSP16, literal(-11)))
        CFI V4 load(1, XDATA, add(CFA_XSP16, literal(-10)))
        CFI V5 load(1, XDATA, add(CFA_XSP16, literal(-9)))
        CFI V6 load(1, XDATA, add(CFA_XSP16, literal(-8)))
        CFI V7 load(1, XDATA, add(CFA_XSP16, literal(-7)))
        CFI R7 load(1, XDATA, add(CFA_XSP16, literal(-6)))
        CFI ?RET_LOW load(1, XDATA, add(CFA_XSP16, literal(-5)))
        CFI ?RET_HIGH load(1, XDATA, add(CFA_XSP16, literal(-4)))
        CFI ?BRET_EXT load(1, XDATA, add(CFA_XSP16, literal(-3)))
        CFI DPL0 load(1, XDATA, add(CFA_XSP16, literal(-2)))
        CFI DPH0 load(1, XDATA, add(CFA_XSP16, literal(-1)))
        CFI CFA_SP SP+0
        CFI CFA_XSP16 add(XSP16, 26)
        CFI Block cfiCond19 Using cfiCommon0
        CFI (cfiCond19) NoFunction
        CFI (cfiCond19) Conditional ??CrossCallReturnLabel_68
        CFI (cfiCond19) R6 load(1, XDATA, add(CFA_XSP16, literal(-16)))
        CFI (cfiCond19) VB load(1, XDATA, add(CFA_XSP16, literal(-15)))
        CFI (cfiCond19) V0 load(1, XDATA, add(CFA_XSP16, literal(-14)))
        CFI (cfiCond19) V1 load(1, XDATA, add(CFA_XSP16, literal(-13)))
        CFI (cfiCond19) V2 load(1, XDATA, add(CFA_XSP16, literal(-12)))
        CFI (cfiCond19) V3 load(1, XDATA, add(CFA_XSP16, literal(-11)))
        CFI (cfiCond19) V4 load(1, XDATA, add(CFA_XSP16, literal(-10)))
        CFI (cfiCond19) V5 load(1, XDATA, add(CFA_XSP16, literal(-9)))
        CFI (cfiCond19) V6 load(1, XDATA, add(CFA_XSP16, literal(-8)))
        CFI (cfiCond19) V7 load(1, XDATA, add(CFA_XSP16, literal(-7)))
        CFI (cfiCond19) R7 load(1, XDATA, add(CFA_XSP16, literal(-6)))
        CFI (cfiCond19) ?RET_LOW load(1, XDATA, add(CFA_XSP16, literal(-5)))
        CFI (cfiCond19) ?RET_HIGH load(1, XDATA, add(CFA_XSP16, literal(-4)))
        CFI (cfiCond19) ?BRET_EXT load(1, XDATA, add(CFA_XSP16, literal(-3)))
        CFI (cfiCond19) DPL0 load(1, XDATA, add(CFA_XSP16, literal(-2)))
        CFI (cfiCond19) DPH0 load(1, XDATA, add(CFA_XSP16, literal(-1)))
        CFI (cfiCond19) CFA_SP SP+0
        CFI (cfiCond19) CFA_XSP16 add(XSP16, 26)
        CFI Block cfiCond20 Using cfiCommon0
        CFI (cfiCond20) NoFunction
        CFI (cfiCond20) Conditional ??CrossCallReturnLabel_69
        CFI (cfiCond20) R6 load(1, XDATA, add(CFA_XSP16, literal(-16)))
        CFI (cfiCond20) VB load(1, XDATA, add(CFA_XSP16, literal(-15)))
        CFI (cfiCond20) V0 load(1, XDATA, add(CFA_XSP16, literal(-14)))
        CFI (cfiCond20) V1 load(1, XDATA, add(CFA_XSP16, literal(-13)))
        CFI (cfiCond20) V2 load(1, XDATA, add(CFA_XSP16, literal(-12)))
        CFI (cfiCond20) V3 load(1, XDATA, add(CFA_XSP16, literal(-11)))
        CFI (cfiCond20) V4 load(1, XDATA, add(CFA_XSP16, literal(-10)))
        CFI (cfiCond20) V5 load(1, XDATA, add(CFA_XSP16, literal(-9)))
        CFI (cfiCond20) V6 load(1, XDATA, add(CFA_XSP16, literal(-8)))
        CFI (cfiCond20) V7 load(1, XDATA, add(CFA_XSP16, literal(-7)))
        CFI (cfiCond20) R7 load(1, XDATA, add(CFA_XSP16, literal(-6)))
        CFI (cfiCond20) ?RET_LOW load(1, XDATA, add(CFA_XSP16, literal(-5)))
        CFI (cfiCond20) ?RET_HIGH load(1, XDATA, add(CFA_XSP16, literal(-4)))
        CFI (cfiCond20) ?BRET_EXT load(1, XDATA, add(CFA_XSP16, literal(-3)))
        CFI (cfiCond20) DPL0 load(1, XDATA, add(CFA_XSP16, literal(-2)))
        CFI (cfiCond20) DPH0 load(1, XDATA, add(CFA_XSP16, literal(-1)))
        CFI (cfiCond20) CFA_SP SP+0
        CFI (cfiCond20) CFA_XSP16 add(XSP16, 26)
        CFI Block cfiCond21 Using cfiCommon0
        CFI (cfiCond21) NoFunction
        CFI (cfiCond21) Conditional ??CrossCallReturnLabel_70
        CFI (cfiCond21) R6 load(1, XDATA, add(CFA_XSP16, literal(-16)))
        CFI (cfiCond21) VB load(1, XDATA, add(CFA_XSP16, literal(-15)))
        CFI (cfiCond21) V0 load(1, XDATA, add(CFA_XSP16, literal(-14)))
        CFI (cfiCond21) V1 load(1, XDATA, add(CFA_XSP16, literal(-13)))
        CFI (cfiCond21) V2 load(1, XDATA, add(CFA_XSP16, literal(-12)))
        CFI (cfiCond21) V3 load(1, XDATA, add(CFA_XSP16, literal(-11)))
        CFI (cfiCond21) V4 load(1, XDATA, add(CFA_XSP16, literal(-10)))
        CFI (cfiCond21) V5 load(1, XDATA, add(CFA_XSP16, literal(-9)))
        CFI (cfiCond21) V6 load(1, XDATA, add(CFA_XSP16, literal(-8)))
        CFI (cfiCond21) V7 load(1, XDATA, add(CFA_XSP16, literal(-7)))
        CFI (cfiCond21) R7 load(1, XDATA, add(CFA_XSP16, literal(-6)))
        CFI (cfiCond21) ?RET_LOW load(1, XDATA, add(CFA_XSP16, literal(-5)))
        CFI (cfiCond21) ?RET_HIGH load(1, XDATA, add(CFA_XSP16, literal(-4)))
        CFI (cfiCond21) ?BRET_EXT load(1, XDATA, add(CFA_XSP16, literal(-3)))
        CFI (cfiCond21) DPL0 load(1, XDATA, add(CFA_XSP16, literal(-2)))
        CFI (cfiCond21) DPH0 load(1, XDATA, add(CFA_XSP16, literal(-1)))
        CFI (cfiCond21) CFA_SP SP+0
        CFI (cfiCond21) CFA_XSP16 add(XSP16, 26)
        CFI Block cfiCond22 Using cfiCommon0
        CFI (cfiCond22) NoFunction
        CFI (cfiCond22) Conditional ??CrossCallReturnLabel_65
        CFI (cfiCond22) R6 load(1, XDATA, add(CFA_XSP16, literal(-16)))
        CFI (cfiCond22) VB load(1, XDATA, add(CFA_XSP16, literal(-15)))
        CFI (cfiCond22) V0 load(1, XDATA, add(CFA_XSP16, literal(-14)))
        CFI (cfiCond22) V1 load(1, XDATA, add(CFA_XSP16, literal(-13)))
        CFI (cfiCond22) V2 load(1, XDATA, add(CFA_XSP16, literal(-12)))
        CFI (cfiCond22) V3 load(1, XDATA, add(CFA_XSP16, literal(-11)))
        CFI (cfiCond22) V4 load(1, XDATA, add(CFA_XSP16, literal(-10)))
        CFI (cfiCond22) V5 load(1, XDATA, add(CFA_XSP16, literal(-9)))
        CFI (cfiCond22) V6 load(1, XDATA, add(CFA_XSP16, literal(-8)))
        CFI (cfiCond22) V7 load(1, XDATA, add(CFA_XSP16, literal(-7)))
        CFI (cfiCond22) R7 load(1, XDATA, add(CFA_XSP16, literal(-6)))
        CFI (cfiCond22) ?RET_LOW load(1, XDATA, add(CFA_XSP16, literal(-5)))
        CFI (cfiCond22) ?RET_HIGH load(1, XDATA, add(CFA_XSP16, literal(-4)))
        CFI (cfiCond22) ?BRET_EXT load(1, XDATA, add(CFA_XSP16, literal(-3)))
        CFI (cfiCond22) DPL0 load(1, XDATA, add(CFA_XSP16, literal(-2)))
        CFI (cfiCond22) DPH0 load(1, XDATA, add(CFA_XSP16, literal(-1)))
        CFI (cfiCond22) CFA_SP SP+0
        CFI (cfiCond22) CFA_XSP16 add(XSP16, 21)
        CFI Block cfiCond23 Using cfiCommon0
        CFI (cfiCond23) NoFunction
        CFI (cfiCond23) Conditional ??CrossCallReturnLabel_66
        CFI (cfiCond23) R6 load(1, XDATA, add(CFA_XSP16, literal(-16)))
        CFI (cfiCond23) VB load(1, XDATA, add(CFA_XSP16, literal(-15)))
        CFI (cfiCond23) V0 load(1, XDATA, add(CFA_XSP16, literal(-14)))
        CFI (cfiCond23) V1 load(1, XDATA, add(CFA_XSP16, literal(-13)))
        CFI (cfiCond23) V2 load(1, XDATA, add(CFA_XSP16, literal(-12)))
        CFI (cfiCond23) V3 load(1, XDATA, add(CFA_XSP16, literal(-11)))
        CFI (cfiCond23) V4 load(1, XDATA, add(CFA_XSP16, literal(-10)))
        CFI (cfiCond23) V5 load(1, XDATA, add(CFA_XSP16, literal(-9)))
        CFI (cfiCond23) V6 load(1, XDATA, add(CFA_XSP16, literal(-8)))
        CFI (cfiCond23) V7 load(1, XDATA, add(CFA_XSP16, literal(-7)))
        CFI (cfiCond23) R7 load(1, XDATA, add(CFA_XSP16, literal(-6)))
        CFI (cfiCond23) ?RET_LOW load(1, XDATA, add(CFA_XSP16, literal(-5)))
        CFI (cfiCond23) ?RET_HIGH load(1, XDATA, add(CFA_XSP16, literal(-4)))
        CFI (cfiCond23) ?BRET_EXT load(1, XDATA, add(CFA_XSP16, literal(-3)))
        CFI (cfiCond23) DPL0 load(1, XDATA, add(CFA_XSP16, literal(-2)))
        CFI (cfiCond23) DPH0 load(1, XDATA, add(CFA_XSP16, literal(-1)))
        CFI (cfiCond23) CFA_SP SP+0
        CFI (cfiCond23) CFA_XSP16 add(XSP16, 26)
        CFI Block cfiPicker24 Using cfiCommon1
        CFI (cfiPicker24) NoFunction
        CFI (cfiPicker24) Picker
        MOV     R3,#0x0
        LCALL   ??osal_nv_read?relay
        MOV     A,#0x4
        RET
        CFI EndBlock cfiCond18
        CFI EndBlock cfiCond19
        CFI EndBlock cfiCond20
        CFI EndBlock cfiCond21
        CFI EndBlock cfiCond22
        CFI EndBlock cfiCond23
        CFI EndBlock cfiPicker24

        RSEG BANKED_CODE:CODE:NOROOT(0)
?Subroutine8:
        CFI Block cfiCond25 Using cfiCommon0
        CFI NoFunction
        CFI Conditional ??CrossCallReturnLabel_4
        CFI R6 load(1, XDATA, add(CFA_XSP16, literal(-16)))
        CFI VB load(1, XDATA, add(CFA_XSP16, literal(-15)))
        CFI V0 load(1, XDATA, add(CFA_XSP16, literal(-14)))
        CFI V1 load(1, XDATA, add(CFA_XSP16, literal(-13)))
        CFI V2 load(1, XDATA, add(CFA_XSP16, literal(-12)))
        CFI V3 load(1, XDATA, add(CFA_XSP16, literal(-11)))
        CFI V4 load(1, XDATA, add(CFA_XSP16, literal(-10)))
        CFI V5 load(1, XDATA, add(CFA_XSP16, literal(-9)))
        CFI V6 load(1, XDATA, add(CFA_XSP16, literal(-8)))
        CFI V7 load(1, XDATA, add(CFA_XSP16, literal(-7)))
        CFI R7 load(1, XDATA, add(CFA_XSP16, literal(-6)))
        CFI ?RET_LOW load(1, XDATA, add(CFA_XSP16, literal(-5)))
        CFI ?RET_HIGH load(1, XDATA, add(CFA_XSP16, literal(-4)))
        CFI ?BRET_EXT load(1, XDATA, add(CFA_XSP16, literal(-3)))
        CFI DPL0 load(1, XDATA, add(CFA_XSP16, literal(-2)))
        CFI DPH0 load(1, XDATA, add(CFA_XSP16, literal(-1)))
        CFI CFA_SP SP+0
        CFI CFA_XSP16 add(XSP16, 17)
        CFI Block cfiCond26 Using cfiCommon0
        CFI (cfiCond26) NoFunction
        CFI (cfiCond26) Conditional ??CrossCallReturnLabel_5
        CFI (cfiCond26) R6 load(1, XDATA, add(CFA_XSP16, literal(-16)))
        CFI (cfiCond26) VB load(1, XDATA, add(CFA_XSP16, literal(-15)))
        CFI (cfiCond26) V0 load(1, XDATA, add(CFA_XSP16, literal(-14)))
        CFI (cfiCond26) V1 load(1, XDATA, add(CFA_XSP16, literal(-13)))
        CFI (cfiCond26) V2 load(1, XDATA, add(CFA_XSP16, literal(-12)))
        CFI (cfiCond26) V3 load(1, XDATA, add(CFA_XSP16, literal(-11)))
        CFI (cfiCond26) V4 load(1, XDATA, add(CFA_XSP16, literal(-10)))
        CFI (cfiCond26) V5 load(1, XDATA, add(CFA_XSP16, literal(-9)))
        CFI (cfiCond26) V6 load(1, XDATA, add(CFA_XSP16, literal(-8)))
        CFI (cfiCond26) V7 load(1, XDATA, add(CFA_XSP16, literal(-7)))
        CFI (cfiCond26) R7 load(1, XDATA, add(CFA_XSP16, literal(-6)))
        CFI (cfiCond26) ?RET_LOW load(1, XDATA, add(CFA_XSP16, literal(-5)))
        CFI (cfiCond26) ?RET_HIGH load(1, XDATA, add(CFA_XSP16, literal(-4)))
        CFI (cfiCond26) ?BRET_EXT load(1, XDATA, add(CFA_XSP16, literal(-3)))
        CFI (cfiCond26) DPL0 load(1, XDATA, add(CFA_XSP16, literal(-2)))
        CFI (cfiCond26) DPH0 load(1, XDATA, add(CFA_XSP16, literal(-1)))
        CFI (cfiCond26) CFA_SP SP+0
        CFI (cfiCond26) CFA_XSP16 add(XSP16, 17)
        CFI Block cfiCond27 Using cfiCommon0
        CFI (cfiCond27) NoFunction
        CFI (cfiCond27) Conditional ??CrossCallReturnLabel_6
        CFI (cfiCond27) R6 load(1, XDATA, add(CFA_XSP16, literal(-16)))
        CFI (cfiCond27) VB load(1, XDATA, add(CFA_XSP16, literal(-15)))
        CFI (cfiCond27) V0 load(1, XDATA, add(CFA_XSP16, literal(-14)))
        CFI (cfiCond27) V1 load(1, XDATA, add(CFA_XSP16, literal(-13)))
        CFI (cfiCond27) V2 load(1, XDATA, add(CFA_XSP16, literal(-12)))
        CFI (cfiCond27) V3 load(1, XDATA, add(CFA_XSP16, literal(-11)))
        CFI (cfiCond27) V4 load(1, XDATA, add(CFA_XSP16, literal(-10)))
        CFI (cfiCond27) V5 load(1, XDATA, add(CFA_XSP16, literal(-9)))
        CFI (cfiCond27) V6 load(1, XDATA, add(CFA_XSP16, literal(-8)))
        CFI (cfiCond27) V7 load(1, XDATA, add(CFA_XSP16, literal(-7)))
        CFI (cfiCond27) R7 load(1, XDATA, add(CFA_XSP16, literal(-6)))
        CFI (cfiCond27) ?RET_LOW load(1, XDATA, add(CFA_XSP16, literal(-5)))
        CFI (cfiCond27) ?RET_HIGH load(1, XDATA, add(CFA_XSP16, literal(-4)))
        CFI (cfiCond27) ?BRET_EXT load(1, XDATA, add(CFA_XSP16, literal(-3)))
        CFI (cfiCond27) DPL0 load(1, XDATA, add(CFA_XSP16, literal(-2)))
        CFI (cfiCond27) DPH0 load(1, XDATA, add(CFA_XSP16, literal(-1)))
        CFI (cfiCond27) CFA_SP SP+0
        CFI (cfiCond27) CFA_XSP16 add(XSP16, 17)
        CFI Block cfiCond28 Using cfiCommon0
        CFI (cfiCond28) NoFunction
        CFI (cfiCond28) Conditional ??CrossCallReturnLabel_7
        CFI (cfiCond28) R6 load(1, XDATA, add(CFA_XSP16, literal(-16)))
        CFI (cfiCond28) VB load(1, XDATA, add(CFA_XSP16, literal(-15)))
        CFI (cfiCond28) V0 load(1, XDATA, add(CFA_XSP16, literal(-14)))
        CFI (cfiCond28) V1 load(1, XDATA, add(CFA_XSP16, literal(-13)))
        CFI (cfiCond28) V2 load(1, XDATA, add(CFA_XSP16, literal(-12)))
        CFI (cfiCond28) V3 load(1, XDATA, add(CFA_XSP16, literal(-11)))
        CFI (cfiCond28) V4 load(1, XDATA, add(CFA_XSP16, literal(-10)))
        CFI (cfiCond28) V5 load(1, XDATA, add(CFA_XSP16, literal(-9)))
        CFI (cfiCond28) V6 load(1, XDATA, add(CFA_XSP16, literal(-8)))
        CFI (cfiCond28) V7 load(1, XDATA, add(CFA_XSP16, literal(-7)))
        CFI (cfiCond28) R7 load(1, XDATA, add(CFA_XSP16, literal(-6)))
        CFI (cfiCond28) ?RET_LOW load(1, XDATA, add(CFA_XSP16, literal(-5)))
        CFI (cfiCond28) ?RET_HIGH load(1, XDATA, add(CFA_XSP16, literal(-4)))
        CFI (cfiCond28) ?BRET_EXT load(1, XDATA, add(CFA_XSP16, literal(-3)))
        CFI (cfiCond28) DPL0 load(1, XDATA, add(CFA_XSP16, literal(-2)))
        CFI (cfiCond28) DPH0 load(1, XDATA, add(CFA_XSP16, literal(-1)))
        CFI (cfiCond28) CFA_SP SP+0
        CFI (cfiCond28) CFA_XSP16 add(XSP16, 17)
        CFI Block cfiPicker29 Using cfiCommon1
        CFI (cfiPicker29) NoFunction
        CFI (cfiPicker29) Picker
        MOVX    A,@DPTR
        MOV     DPL,?V0 + 4
        MOV     DPH,?V0 + 5
        LCALL   ?Subroutine37 & 0xFFFF
??CrossCallReturnLabel_58:
        RET
        CFI EndBlock cfiCond25
        CFI EndBlock cfiCond26
        CFI EndBlock cfiCond27
        CFI EndBlock cfiCond28
        CFI EndBlock cfiPicker29

        RSEG BANKED_CODE:CODE:NOROOT(0)
?Subroutine37:
        CFI Block cfiCond30 Using cfiCommon0
        CFI NoFunction
        CFI Conditional ??CrossCallReturnLabel_59, ??CrossCallReturnLabel_38
        CFI R6 load(1, XDATA, add(CFA_XSP16, literal(-16)))
        CFI VB load(1, XDATA, add(CFA_XSP16, literal(-15)))
        CFI V0 load(1, XDATA, add(CFA_XSP16, literal(-14)))
        CFI V1 load(1, XDATA, add(CFA_XSP16, literal(-13)))
        CFI V2 load(1, XDATA, add(CFA_XSP16, literal(-12)))
        CFI V3 load(1, XDATA, add(CFA_XSP16, literal(-11)))
        CFI V4 load(1, XDATA, add(CFA_XSP16, literal(-10)))
        CFI V5 load(1, XDATA, add(CFA_XSP16, literal(-9)))
        CFI V6 load(1, XDATA, add(CFA_XSP16, literal(-8)))
        CFI V7 load(1, XDATA, add(CFA_XSP16, literal(-7)))
        CFI R7 load(1, XDATA, add(CFA_XSP16, literal(-6)))
        CFI ?RET_LOW load(1, XDATA, add(CFA_XSP16, literal(-5)))
        CFI ?RET_HIGH load(1, XDATA, add(CFA_XSP16, literal(-4)))
        CFI ?BRET_EXT load(1, XDATA, add(CFA_XSP16, literal(-3)))
        CFI DPL0 load(1, XDATA, add(CFA_XSP16, literal(-2)))
        CFI DPH0 load(1, XDATA, add(CFA_XSP16, literal(-1)))
        CFI CFA_SP SP+0
        CFI CFA_XSP16 add(XSP16, 17)
        CFI Block cfiCond31 Using cfiCommon0
        CFI (cfiCond31) NoFunction
        CFI (cfiCond31) Conditional ??CrossCallReturnLabel_59, ??CrossCallReturnLabel_39
        CFI (cfiCond31) R6 load(1, XDATA, add(CFA_XSP16, literal(-16)))
        CFI (cfiCond31) VB load(1, XDATA, add(CFA_XSP16, literal(-15)))
        CFI (cfiCond31) V0 load(1, XDATA, add(CFA_XSP16, literal(-14)))
        CFI (cfiCond31) V1 load(1, XDATA, add(CFA_XSP16, literal(-13)))
        CFI (cfiCond31) V2 load(1, XDATA, add(CFA_XSP16, literal(-12)))
        CFI (cfiCond31) V3 load(1, XDATA, add(CFA_XSP16, literal(-11)))
        CFI (cfiCond31) V4 load(1, XDATA, add(CFA_XSP16, literal(-10)))
        CFI (cfiCond31) V5 load(1, XDATA, add(CFA_XSP16, literal(-9)))
        CFI (cfiCond31) V6 load(1, XDATA, add(CFA_XSP16, literal(-8)))
        CFI (cfiCond31) V7 load(1, XDATA, add(CFA_XSP16, literal(-7)))
        CFI (cfiCond31) R7 load(1, XDATA, add(CFA_XSP16, literal(-6)))
        CFI (cfiCond31) ?RET_LOW load(1, XDATA, add(CFA_XSP16, literal(-5)))
        CFI (cfiCond31) ?RET_HIGH load(1, XDATA, add(CFA_XSP16, literal(-4)))
        CFI (cfiCond31) ?BRET_EXT load(1, XDATA, add(CFA_XSP16, literal(-3)))
        CFI (cfiCond31) DPL0 load(1, XDATA, add(CFA_XSP16, literal(-2)))
        CFI (cfiCond31) DPH0 load(1, XDATA, add(CFA_XSP16, literal(-1)))
        CFI (cfiCond31) CFA_SP SP+0
        CFI (cfiCond31) CFA_XSP16 add(XSP16, 17)
        CFI Block cfiCond32 Using cfiCommon0
        CFI (cfiCond32) NoFunction
        CFI (cfiCond32) Conditional ??CrossCallReturnLabel_58, ??CrossCallReturnLabel_4
        CFI (cfiCond32) R6 load(1, XDATA, add(CFA_XSP16, literal(-16)))
        CFI (cfiCond32) VB load(1, XDATA, add(CFA_XSP16, literal(-15)))
        CFI (cfiCond32) V0 load(1, XDATA, add(CFA_XSP16, literal(-14)))
        CFI (cfiCond32) V1 load(1, XDATA, add(CFA_XSP16, literal(-13)))
        CFI (cfiCond32) V2 load(1, XDATA, add(CFA_XSP16, literal(-12)))
        CFI (cfiCond32) V3 load(1, XDATA, add(CFA_XSP16, literal(-11)))
        CFI (cfiCond32) V4 load(1, XDATA, add(CFA_XSP16, literal(-10)))
        CFI (cfiCond32) V5 load(1, XDATA, add(CFA_XSP16, literal(-9)))
        CFI (cfiCond32) V6 load(1, XDATA, add(CFA_XSP16, literal(-8)))
        CFI (cfiCond32) V7 load(1, XDATA, add(CFA_XSP16, literal(-7)))
        CFI (cfiCond32) R7 load(1, XDATA, add(CFA_XSP16, literal(-6)))
        CFI (cfiCond32) ?RET_LOW load(1, XDATA, add(CFA_XSP16, literal(-5)))
        CFI (cfiCond32) ?RET_HIGH load(1, XDATA, add(CFA_XSP16, literal(-4)))
        CFI (cfiCond32) ?BRET_EXT load(1, XDATA, add(CFA_XSP16, literal(-3)))
        CFI (cfiCond32) DPL0 load(1, XDATA, add(CFA_XSP16, literal(-2)))
        CFI (cfiCond32) DPH0 load(1, XDATA, add(CFA_XSP16, literal(-1)))
        CFI (cfiCond32) CFA_SP SP+0
        CFI (cfiCond32) CFA_XSP16 add(XSP16, 17)
        CFI Block cfiCond33 Using cfiCommon0
        CFI (cfiCond33) NoFunction
        CFI (cfiCond33) Conditional ??CrossCallReturnLabel_58, ??CrossCallReturnLabel_5
        CFI (cfiCond33) R6 load(1, XDATA, add(CFA_XSP16, literal(-16)))
        CFI (cfiCond33) VB load(1, XDATA, add(CFA_XSP16, literal(-15)))
        CFI (cfiCond33) V0 load(1, XDATA, add(CFA_XSP16, literal(-14)))
        CFI (cfiCond33) V1 load(1, XDATA, add(CFA_XSP16, literal(-13)))
        CFI (cfiCond33) V2 load(1, XDATA, add(CFA_XSP16, literal(-12)))
        CFI (cfiCond33) V3 load(1, XDATA, add(CFA_XSP16, literal(-11)))
        CFI (cfiCond33) V4 load(1, XDATA, add(CFA_XSP16, literal(-10)))
        CFI (cfiCond33) V5 load(1, XDATA, add(CFA_XSP16, literal(-9)))
        CFI (cfiCond33) V6 load(1, XDATA, add(CFA_XSP16, literal(-8)))
        CFI (cfiCond33) V7 load(1, XDATA, add(CFA_XSP16, literal(-7)))
        CFI (cfiCond33) R7 load(1, XDATA, add(CFA_XSP16, literal(-6)))
        CFI (cfiCond33) ?RET_LOW load(1, XDATA, add(CFA_XSP16, literal(-5)))
        CFI (cfiCond33) ?RET_HIGH load(1, XDATA, add(CFA_XSP16, literal(-4)))
        CFI (cfiCond33) ?BRET_EXT load(1, XDATA, add(CFA_XSP16, literal(-3)))
        CFI (cfiCond33) DPL0 load(1, XDATA, add(CFA_XSP16, literal(-2)))
        CFI (cfiCond33) DPH0 load(1, XDATA, add(CFA_XSP16, literal(-1)))
        CFI (cfiCond33) CFA_SP SP+0
        CFI (cfiCond33) CFA_XSP16 add(XSP16, 17)
        CFI Block cfiCond34 Using cfiCommon0
        CFI (cfiCond34) NoFunction
        CFI (cfiCond34) Conditional ??CrossCallReturnLabel_58, ??CrossCallReturnLabel_6
        CFI (cfiCond34) R6 load(1, XDATA, add(CFA_XSP16, literal(-16)))
        CFI (cfiCond34) VB load(1, XDATA, add(CFA_XSP16, literal(-15)))
        CFI (cfiCond34) V0 load(1, XDATA, add(CFA_XSP16, literal(-14)))
        CFI (cfiCond34) V1 load(1, XDATA, add(CFA_XSP16, literal(-13)))
        CFI (cfiCond34) V2 load(1, XDATA, add(CFA_XSP16, literal(-12)))
        CFI (cfiCond34) V3 load(1, XDATA, add(CFA_XSP16, literal(-11)))
        CFI (cfiCond34) V4 load(1, XDATA, add(CFA_XSP16, literal(-10)))
        CFI (cfiCond34) V5 load(1, XDATA, add(CFA_XSP16, literal(-9)))
        CFI (cfiCond34) V6 load(1, XDATA, add(CFA_XSP16, literal(-8)))
        CFI (cfiCond34) V7 load(1, XDATA, add(CFA_XSP16, literal(-7)))
        CFI (cfiCond34) R7 load(1, XDATA, add(CFA_XSP16, literal(-6)))
        CFI (cfiCond34) ?RET_LOW load(1, XDATA, add(CFA_XSP16, literal(-5)))
        CFI (cfiCond34) ?RET_HIGH load(1, XDATA, add(CFA_XSP16, literal(-4)))
        CFI (cfiCond34) ?BRET_EXT load(1, XDATA, add(CFA_XSP16, literal(-3)))
        CFI (cfiCond34) DPL0 load(1, XDATA, add(CFA_XSP16, literal(-2)))
        CFI (cfiCond34) DPH0 load(1, XDATA, add(CFA_XSP16, literal(-1)))
        CFI (cfiCond34) CFA_SP SP+0
        CFI (cfiCond34) CFA_XSP16 add(XSP16, 17)
        CFI Block cfiCond35 Using cfiCommon0
        CFI (cfiCond35) NoFunction
        CFI (cfiCond35) Conditional ??CrossCallReturnLabel_58, ??CrossCallReturnLabel_7
        CFI (cfiCond35) R6 load(1, XDATA, add(CFA_XSP16, literal(-16)))
        CFI (cfiCond35) VB load(1, XDATA, add(CFA_XSP16, literal(-15)))
        CFI (cfiCond35) V0 load(1, XDATA, add(CFA_XSP16, literal(-14)))
        CFI (cfiCond35) V1 load(1, XDATA, add(CFA_XSP16, literal(-13)))
        CFI (cfiCond35) V2 load(1, XDATA, add(CFA_XSP16, literal(-12)))
        CFI (cfiCond35) V3 load(1, XDATA, add(CFA_XSP16, literal(-11)))
        CFI (cfiCond35) V4 load(1, XDATA, add(CFA_XSP16, literal(-10)))
        CFI (cfiCond35) V5 load(1, XDATA, add(CFA_XSP16, literal(-9)))
        CFI (cfiCond35) V6 load(1, XDATA, add(CFA_XSP16, literal(-8)))
        CFI (cfiCond35) V7 load(1, XDATA, add(CFA_XSP16, literal(-7)))
        CFI (cfiCond35) R7 load(1, XDATA, add(CFA_XSP16, literal(-6)))
        CFI (cfiCond35) ?RET_LOW load(1, XDATA, add(CFA_XSP16, literal(-5)))
        CFI (cfiCond35) ?RET_HIGH load(1, XDATA, add(CFA_XSP16, literal(-4)))
        CFI (cfiCond35) ?BRET_EXT load(1, XDATA, add(CFA_XSP16, literal(-3)))
        CFI (cfiCond35) DPL0 load(1, XDATA, add(CFA_XSP16, literal(-2)))
        CFI (cfiCond35) DPH0 load(1, XDATA, add(CFA_XSP16, literal(-1)))
        CFI (cfiCond35) CFA_SP SP+0
        CFI (cfiCond35) CFA_XSP16 add(XSP16, 17)
        CFI Block cfiPicker36 Using cfiCommon1
        CFI (cfiPicker36) NoFunction
        CFI (cfiPicker36) Picker
        MOVX    @DPTR,A
        INC     DPTR
        MOV     ?V0 + 4,DPL
        MOV     ?V0 + 5,DPH
        RET
        CFI EndBlock cfiCond30
        CFI EndBlock cfiCond31
        CFI EndBlock cfiCond32
        CFI EndBlock cfiCond33
        CFI EndBlock cfiCond34
        CFI EndBlock cfiCond35
        CFI EndBlock cfiPicker36
//  381 
//  382 /***************************************************************************************************
//  383  * @fn      MT_UtilGetNvInfo
//  384  *
//  385  * @brief   The Get NV Info serial message.
//  386  *
//  387  * @param   None.
//  388  *
//  389  * @return  void
//  390  ***************************************************************************************************/

        RSEG BANKED_CODE:CODE:NOROOT(0)
//  391 void MT_UtilGetNvInfo(void)
MT_UtilGetNvInfo:
        CFI Block cfiBlock37 Using cfiCommon0
        CFI Function MT_UtilGetNvInfo
        CODE
//  392 {
        FUNCALL MT_UtilGetNvInfo, osal_mem_alloc
        LOCFRAME ISTACK, 0, STACK
        LOCFRAME PSTACK, 0, STACK
        LOCFRAME XSTACK, 22, STACK
        LOCFRAME IOVERLAY, 0, STATIC
        LOCFRAME DOVERLAY, 0, STATIC
        ARGFRAME ISTACK, 0, STACK
        ARGFRAME PSTACK, 0, STACK
        ARGFRAME XSTACK, 22, STACK
        ARGFRAME IOVERLAY, 0, STATIC
        ARGFRAME DOVERLAY, 0, STATIC
        FUNCALL MT_UtilGetNvInfo, osal_memset
        LOCFRAME ISTACK, 0, STACK
        LOCFRAME PSTACK, 0, STACK
        LOCFRAME XSTACK, 22, STACK
        LOCFRAME IOVERLAY, 0, STATIC
        LOCFRAME DOVERLAY, 0, STATIC
        ARGFRAME ISTACK, 0, STACK
        ARGFRAME PSTACK, 0, STACK
        ARGFRAME XSTACK, 22, STACK
        ARGFRAME IOVERLAY, 0, STATIC
        ARGFRAME DOVERLAY, 0, STATIC
        FUNCALL MT_UtilGetNvInfo, osal_nv_read
        LOCFRAME ISTACK, 0, STACK
        LOCFRAME PSTACK, 0, STACK
        LOCFRAME XSTACK, 26, STACK
        LOCFRAME IOVERLAY, 0, STATIC
        LOCFRAME DOVERLAY, 0, STATIC
        ARGFRAME ISTACK, 0, STACK
        ARGFRAME PSTACK, 0, STACK
        ARGFRAME XSTACK, 26, STACK
        ARGFRAME IOVERLAY, 0, STATIC
        ARGFRAME DOVERLAY, 0, STATIC
        FUNCALL MT_UtilGetNvInfo, osal_nv_read
        LOCFRAME ISTACK, 0, STACK
        LOCFRAME PSTACK, 0, STACK
        LOCFRAME XSTACK, 26, STACK
        LOCFRAME IOVERLAY, 0, STATIC
        LOCFRAME DOVERLAY, 0, STATIC
        ARGFRAME ISTACK, 0, STACK
        ARGFRAME PSTACK, 0, STACK
        ARGFRAME XSTACK, 26, STACK
        ARGFRAME IOVERLAY, 0, STATIC
        ARGFRAME DOVERLAY, 0, STATIC
        FUNCALL MT_UtilGetNvInfo, osal_nv_read
        LOCFRAME ISTACK, 0, STACK
        LOCFRAME PSTACK, 0, STACK
        LOCFRAME XSTACK, 26, STACK
        LOCFRAME IOVERLAY, 0, STATIC
        LOCFRAME DOVERLAY, 0, STATIC
        ARGFRAME ISTACK, 0, STACK
        ARGFRAME PSTACK, 0, STACK
        ARGFRAME XSTACK, 26, STACK
        ARGFRAME IOVERLAY, 0, STATIC
        ARGFRAME DOVERLAY, 0, STATIC
        FUNCALL MT_UtilGetNvInfo, osal_nv_read
        LOCFRAME ISTACK, 0, STACK
        LOCFRAME PSTACK, 0, STACK
        LOCFRAME XSTACK, 26, STACK
        LOCFRAME IOVERLAY, 0, STATIC
        LOCFRAME DOVERLAY, 0, STATIC
        ARGFRAME ISTACK, 0, STACK
        ARGFRAME PSTACK, 0, STACK
        ARGFRAME XSTACK, 26, STACK
        ARGFRAME IOVERLAY, 0, STATIC
        ARGFRAME DOVERLAY, 0, STATIC
        FUNCALL MT_UtilGetNvInfo, osal_nv_read
        LOCFRAME ISTACK, 0, STACK
        LOCFRAME PSTACK, 0, STACK
        LOCFRAME XSTACK, 26, STACK
        LOCFRAME IOVERLAY, 0, STATIC
        LOCFRAME DOVERLAY, 0, STATIC
        ARGFRAME ISTACK, 0, STACK
        ARGFRAME PSTACK, 0, STACK
        ARGFRAME XSTACK, 26, STACK
        ARGFRAME IOVERLAY, 0, STATIC
        ARGFRAME DOVERLAY, 0, STATIC
        FUNCALL MT_UtilGetNvInfo, MT_BuildAndSendZToolResponse
        LOCFRAME ISTACK, 0, STACK
        LOCFRAME PSTACK, 0, STACK
        LOCFRAME XSTACK, 22, STACK
        LOCFRAME IOVERLAY, 0, STATIC
        LOCFRAME DOVERLAY, 0, STATIC
        ARGFRAME ISTACK, 0, STACK
        ARGFRAME PSTACK, 0, STACK
        ARGFRAME XSTACK, 22, STACK
        ARGFRAME IOVERLAY, 0, STATIC
        ARGFRAME DOVERLAY, 0, STATIC
        FUNCALL MT_UtilGetNvInfo, osal_mem_free
        LOCFRAME ISTACK, 0, STACK
        LOCFRAME PSTACK, 0, STACK
        LOCFRAME XSTACK, 22, STACK
        LOCFRAME IOVERLAY, 0, STATIC
        LOCFRAME DOVERLAY, 0, STATIC
        ARGFRAME ISTACK, 0, STACK
        ARGFRAME PSTACK, 0, STACK
        ARGFRAME XSTACK, 22, STACK
        ARGFRAME IOVERLAY, 0, STATIC
        ARGFRAME DOVERLAY, 0, STATIC
        MOV     A,#-0x10
        LCALL   ?BANKED_ENTER_XDATA
        CFI DPH0 load(1, XDATA, add(CFA_XSP16, literal(-1)))
        CFI DPL0 load(1, XDATA, add(CFA_XSP16, literal(-2)))
        CFI ?BRET_EXT load(1, XDATA, add(CFA_XSP16, literal(-3)))
        CFI ?RET_HIGH load(1, XDATA, add(CFA_XSP16, literal(-4)))
        CFI ?RET_LOW load(1, XDATA, add(CFA_XSP16, literal(-5)))
        CFI R7 load(1, XDATA, add(CFA_XSP16, literal(-6)))
        CFI V7 load(1, XDATA, add(CFA_XSP16, literal(-7)))
        CFI V6 load(1, XDATA, add(CFA_XSP16, literal(-8)))
        CFI V5 load(1, XDATA, add(CFA_XSP16, literal(-9)))
        CFI V4 load(1, XDATA, add(CFA_XSP16, literal(-10)))
        CFI V3 load(1, XDATA, add(CFA_XSP16, literal(-11)))
        CFI V2 load(1, XDATA, add(CFA_XSP16, literal(-12)))
        CFI V1 load(1, XDATA, add(CFA_XSP16, literal(-13)))
        CFI V0 load(1, XDATA, add(CFA_XSP16, literal(-14)))
        CFI VB load(1, XDATA, add(CFA_XSP16, literal(-15)))
        CFI R6 load(1, XDATA, add(CFA_XSP16, literal(-16)))
        CFI CFA_SP SP+0
        CFI CFA_XSP16 add(XSP16, 16)
        ; Saved register size: 16
        ; Auto size: 6
        MOV     A,#-0x6
        LCALL   ?ALLOC_XSTACK8
        CFI CFA_XSP16 add(XSP16, 22)
//  393   uint8 len;
//  394   uint8 stat;
//  395   uint8 *buf;
//  396   uint8 *pBuf;
//  397   uint16 tmp16;
//  398   uint32 tmp32;
//  399 
//  400   /*
//  401     Get required length of buffer
//  402     Status + ExtAddr + ChanList + PanID  + SecLevel + PreCfgKey
//  403   */
//  404   len = 1 + Z_EXTADDR_LEN + 4 + 2 + 1 + SEC_KEY_LEN;
//  405 
//  406   buf = osal_mem_alloc( len );
        ; Setup parameters for call to function osal_mem_alloc
        MOV     R2,#0x20
        MOV     R3,#0x0
        LCALL   ??osal_mem_alloc?relay
        MOV     ?V0 + 0,R2
        MOV     ?V0 + 1,R3
        MOV     R6,?V0 + 0
        MOV     R7,?V0 + 1
//  407   if ( buf )
        MOV     A,R6
        ORL     A,R7
        JNZ     $+5
        LJMP    ??MT_UtilGetNvInfo_0 & 0xFFFF
//  408   {
//  409     /* Assume NV not available */
//  410     osal_memset( buf, 0xFF, len );
        ; Setup parameters for call to function osal_memset
        MOV     R4,#0x20
        MOV     R5,#0x0
        MOV     R1,#-0x1
        LCALL   ??osal_memset?relay
//  411 
//  412     /* Skip over status */
//  413     pBuf = buf + 1;
        MOV     DPL,R6
        MOV     DPH,R7
        INC     DPTR
        MOV     ?V0 + 2,DPL
        MOV     ?V0 + 3,DPH
//  414 
//  415     /* Start with 64-bit extended address */
//  416     stat = osal_nv_read( ZCD_NV_EXTADDR, 0, Z_EXTADDR_LEN, pBuf );
        ; Setup parameters for call to function osal_nv_read
        MOV     R0,#?V0 + 2
        LCALL   ?PUSH_XSTACK_I_TWO
        CFI CFA_XSP16 add(XSP16, 24)
        MOV     ?V0 + 0,#0x8
        MOV     ?V0 + 1,#0x0
        MOV     R0,#?V0 + 0
        LCALL   ?PUSH_XSTACK_I_TWO
        CFI CFA_XSP16 add(XSP16, 26)
        LCALL   ?Subroutine23 & 0xFFFF
??CrossCallReturnLabel_66:
        LCALL   ?DEALLOC_XSTACK8
        CFI CFA_XSP16 add(XSP16, 22)
        MOV     A,R1
        MOV     ?V0 + 0,A
//  417     if ( stat ) stat = 0x01;
        JZ      ??MT_UtilGetNvInfo_1
        MOV     ?V0 + 0,#0x1
//  418     pBuf += Z_EXTADDR_LEN;
??MT_UtilGetNvInfo_1:
        MOV     A,?V0 + 2
        ADD     A,#0x8
        MOV     ?V0 + 2,A
        MOV     A,?V0 + 3
        ADDC    A,#0x0
        MOV     ?V0 + 3,A
//  419 
//  420     /* Scan channel list (bit mask) */
//  421     if (  osal_nv_read( ZCD_NV_CHANLIST, 0, sizeof( tmp32 ), &tmp32 ) )
        ; Setup parameters for call to function osal_nv_read
        MOV     A,#0x2
        LCALL   ?XSTACK_DISP0_8
        MOV     ?V0 + 4,DPL
        MOV     ?V0 + 5,DPH
        MOV     R0,#?V0 + 4
        LCALL   ?PUSH_XSTACK_I_TWO
        CFI CFA_XSP16 add(XSP16, 24)
        MOV     ?V0 + 4,#0x4
        MOV     ?V0 + 5,#0x0
        MOV     R0,#?V0 + 4
        LCALL   ?PUSH_XSTACK_I_TWO
        CFI CFA_XSP16 add(XSP16, 26)
        MOV     R4,#0x0
        MOV     R5,#0x0
        MOV     R2,#-0x7c
        LCALL   ??Subroutine42_0 & 0xFFFF
??CrossCallReturnLabel_67:
        LCALL   ?DEALLOC_XSTACK8
        CFI CFA_XSP16 add(XSP16, 22)
        MOV     A,R1
        JZ      ??MT_UtilGetNvInfo_2
//  422       stat |= 0x02;
        MOV     A,?V0 + 0
        SETB    0xE0 /* A   */.1
        MOV     ?V0 + 0,A
        SJMP    ??MT_UtilGetNvInfo_3
//  423     else
//  424     {
//  425       pBuf[0] = BREAK_UINT32( tmp32, 3 );
??MT_UtilGetNvInfo_2:
        MOV     A,#0x2
        LCALL   ?XSTACK_DISP0_8
        MOV     R0,#?V0 + 4
        LCALL   ?L_MOV_X
        MOV     A,#0x18
        MOV     R0,#?V0 + 4
        LCALL   ?UL_SHR
        MOV     DPL,?V0 + 2
        MOV     DPH,?V0 + 3
        MOV     A,?V0 + 4
        MOVX    @DPTR,A
//  426       pBuf[1] = BREAK_UINT32( tmp32, 2 );
        MOV     A,#0x2
        LCALL   ?XSTACK_DISP0_8
        MOV     R0,#?V0 + 4
        LCALL   ?L_MOV_X
        MOV     A,#0x10
        MOV     R0,#?V0 + 4
        LCALL   ?UL_SHR
        MOV     DPL,?V0 + 2
        MOV     DPH,?V0 + 3
        INC     DPTR
        MOV     A,?V0 + 4
        MOVX    @DPTR,A
//  427       pBuf[2] = BREAK_UINT32( tmp32, 1 );
        MOV     A,#0x2
        LCALL   ?XSTACK_DISP0_8
        MOV     R0,#?V0 + 4
        LCALL   ?L_MOV_X
        MOV     A,?V0 + 5
        MOV     DPL,?V0 + 2
        MOV     DPH,?V0 + 3
        INC     DPTR
        INC     DPTR
        MOVX    @DPTR,A
//  428       pBuf[3] = BREAK_UINT32( tmp32, 0 );
        MOV     A,#0x2
        LCALL   ?XSTACK_DISP0_8
        MOV     R0,#?V0 + 4
        LCALL   ?L_MOV_X
        MOV     DPL,?V0 + 2
        MOV     DPH,?V0 + 3
        INC     DPTR
        INC     DPTR
        INC     DPTR
        MOV     A,?V0 + 4
        MOVX    @DPTR,A
//  429     }
//  430     pBuf += sizeof( tmp32 );
??MT_UtilGetNvInfo_3:
        MOV     A,?V0 + 2
        ADD     A,#0x4
        MOV     ?V0 + 2,A
        MOV     A,?V0 + 3
        ADDC    A,#0x0
        MOV     ?V0 + 3,A
//  431 
//  432     /* ZigBee PanID */
//  433     if ( osal_nv_read( ZCD_NV_PANID, 0, sizeof( tmp16 ), &tmp16 ) )
        ; Setup parameters for call to function osal_nv_read
        MOV     DPL,?XSP + 0
        MOV     DPH,?XSP + 1
        MOV     ?V0 + 4,DPL
        MOV     ?V0 + 5,DPH
        MOV     R0,#?V0 + 4
        LCALL   ?PUSH_XSTACK_I_TWO
        CFI CFA_XSP16 add(XSP16, 24)
        MOV     ?V0 + 4,#0x2
        MOV     ?V0 + 5,#0x0
        MOV     R0,#?V0 + 4
        LCALL   ?PUSH_XSTACK_I_TWO
        CFI CFA_XSP16 add(XSP16, 26)
        MOV     R4,#0x0
        MOV     R5,#0x0
        MOV     R2,#-0x7d
        LCALL   ??Subroutine42_0 & 0xFFFF
??CrossCallReturnLabel_68:
        LCALL   ?DEALLOC_XSTACK8
        CFI CFA_XSP16 add(XSP16, 22)
        MOV     A,R1
        JZ      ??MT_UtilGetNvInfo_4
//  434       stat |= 0x04;
        MOV     A,?V0 + 0
        SETB    0xE0 /* A   */.2
        MOV     ?V0 + 0,A
        SJMP    ??MT_UtilGetNvInfo_5
//  435     else
//  436     {
//  437       pBuf[0] = LO_UINT16( tmp16 );
??MT_UtilGetNvInfo_4:
        MOV     DPL,?XSP + 0
        MOV     DPH,?XSP + 1
        MOVX    A,@DPTR
        MOV     DPL,?V0 + 2
        MOV     DPH,?V0 + 3
        MOVX    @DPTR,A
//  438       pBuf[1] = HI_UINT16( tmp16 );
        MOV     DPL,?XSP + 0
        MOV     DPH,?XSP + 1
        INC     DPTR
        MOVX    A,@DPTR
        MOV     DPL,?V0 + 2
        MOV     DPH,?V0 + 3
        INC     DPTR
        MOVX    @DPTR,A
//  439     }
//  440     pBuf += sizeof( tmp16 );
??MT_UtilGetNvInfo_5:
        MOV     A,?V0 + 2
        ADD     A,#0x2
        MOV     ?V0 + 2,A
        MOV     A,?V0 + 3
        ADDC    A,#0x0
        MOV     ?V0 + 3,A
//  441 
//  442     /* Security level */
//  443     if ( osal_nv_read( ZCD_NV_SECURITY_LEVEL, 0, sizeof( uint8 ), pBuf++ ) )
        ; Setup parameters for call to function osal_nv_read
        MOV     R0,#?V0 + 2
        LCALL   ?PUSH_XSTACK_I_TWO
        CFI CFA_XSP16 add(XSP16, 24)
        MOV     ?V0 + 4,#0x1
        MOV     R0,#?V0 + 4
        LCALL   ?PUSH_XSTACK_I_TWO
        CFI CFA_XSP16 add(XSP16, 26)
        MOV     R4,#0x0
        MOV     R5,#0x0
        MOV     R2,#0x61
        LCALL   ??Subroutine42_0 & 0xFFFF
??CrossCallReturnLabel_69:
        LCALL   ?DEALLOC_XSTACK8
        CFI CFA_XSP16 add(XSP16, 22)
        MOV     A,R1
        MOV     DPL,?V0 + 2
        MOV     DPH,?V0 + 3
        INC     DPTR
        MOV     ?V0 + 2,DPL
        MOV     ?V0 + 3,DPH
        JZ      ??MT_UtilGetNvInfo_6
//  444       stat |= 0x08;
        MOV     A,?V0 + 0
        SETB    0xE0 /* A   */.3
        MOV     ?V0 + 0,A
//  445 
//  446     /* Pre-configured security key */
//  447     if ( osal_nv_read( ZCD_NV_PRECFGKEY, 0, SEC_KEY_LEN, pBuf ) )
??MT_UtilGetNvInfo_6:
        ; Setup parameters for call to function osal_nv_read
        MOV     R0,#?V0 + 2
        LCALL   ?PUSH_XSTACK_I_TWO
        CFI CFA_XSP16 add(XSP16, 24)
        MOV     ?V0 + 2,#0x10
        MOV     ?V0 + 3,#0x0
        MOV     R0,#?V0 + 2
        LCALL   ?PUSH_XSTACK_I_TWO
        CFI CFA_XSP16 add(XSP16, 26)
        MOV     R4,#0x0
        MOV     R5,#0x0
        MOV     R2,#0x62
        LCALL   ??Subroutine42_0 & 0xFFFF
??CrossCallReturnLabel_70:
        LCALL   ?DEALLOC_XSTACK8
        CFI CFA_XSP16 add(XSP16, 22)
        MOV     A,R1
        JZ      ??MT_UtilGetNvInfo_7
//  448       stat |= 0x10;
        MOV     A,?V0 + 0
        SETB    0xE0 /* A   */.4
        MOV     ?V0 + 0,A
//  449 
//  450     /* Status bit mask - bit=1 indicates failure */
//  451     *buf = stat;
??MT_UtilGetNvInfo_7:
        MOV     DPL,R6
        MOV     DPH,R7
        MOV     A,?V0 + 0
        MOVX    @DPTR,A
//  452 
//  453     MT_BuildAndSendZToolResponse(((uint8)MT_RPC_CMD_SRSP | (uint8)MT_RPC_SYS_UTIL), MT_UTIL_GET_NV_INFO,
//  454                                   len, buf );
        ; Setup parameters for call to function MT_BuildAndSendZToolResponse
        MOV     A,R6
        MOV     R4,A
        MOV     A,R7
        MOV     R5,A
        MOV     R3,#0x20
        MOV     R2,#0x1
        MOV     R1,#0x67
        LCALL   ??MT_BuildAndSendZToolResponse?relay
//  455 
//  456     osal_mem_free( buf );
        ; Setup parameters for call to function osal_mem_free
        MOV     A,R6
        MOV     R2,A
        MOV     A,R7
        MOV     R3,A
        LCALL   ??osal_mem_free?relay
//  457   }
//  458 }
??MT_UtilGetNvInfo_0:
        MOV     A,#0x6
        LJMP    ?Subroutine0 & 0xFFFF
        CFI EndBlock cfiBlock37
//  459 
//  460 /***************************************************************************************************
//  461  * @fn      MT_UtilSetPanID
//  462  *
//  463  * @brief   Set PanID message
//  464  *
//  465  * @param   pBuf - pointer to the data
//  466  *
//  467  * @return  void
//  468  ***************************************************************************************************/

        RSEG BANKED_CODE:CODE:NOROOT(0)
//  469 void MT_UtilSetPanID(uint8 *pBuf)
MT_UtilSetPanID:
        CFI Block cfiBlock38 Using cfiCommon0
        CFI Function MT_UtilSetPanID
        CODE
//  470 {
        FUNCALL MT_UtilSetPanID, osal_nv_item_len
        LOCFRAME ISTACK, 0, STACK
        LOCFRAME PSTACK, 0, STACK
        LOCFRAME XSTACK, 15, STACK
        LOCFRAME IOVERLAY, 0, STATIC
        LOCFRAME DOVERLAY, 0, STATIC
        ARGFRAME ISTACK, 0, STACK
        ARGFRAME PSTACK, 0, STACK
        ARGFRAME XSTACK, 15, STACK
        ARGFRAME IOVERLAY, 0, STATIC
        ARGFRAME DOVERLAY, 0, STATIC
        FUNCALL MT_UtilSetPanID, osal_nv_write
        LOCFRAME ISTACK, 0, STACK
        LOCFRAME PSTACK, 0, STACK
        LOCFRAME XSTACK, 17, STACK
        LOCFRAME IOVERLAY, 0, STATIC
        LOCFRAME DOVERLAY, 0, STATIC
        ARGFRAME ISTACK, 0, STACK
        ARGFRAME PSTACK, 0, STACK
        ARGFRAME XSTACK, 17, STACK
        ARGFRAME IOVERLAY, 0, STATIC
        ARGFRAME DOVERLAY, 0, STATIC
        FUNCALL MT_UtilSetPanID, MT_BuildAndSendZToolResponse
        LOCFRAME ISTACK, 0, STACK
        LOCFRAME PSTACK, 0, STACK
        LOCFRAME XSTACK, 13, STACK
        LOCFRAME IOVERLAY, 0, STATIC
        LOCFRAME DOVERLAY, 0, STATIC
        ARGFRAME ISTACK, 0, STACK
        ARGFRAME PSTACK, 0, STACK
        ARGFRAME XSTACK, 13, STACK
        ARGFRAME IOVERLAY, 0, STATIC
        ARGFRAME DOVERLAY, 0, STATIC
        MOV     A,#-0xa
        LCALL   ?BANKED_ENTER_XDATA
        CFI DPH0 load(1, XDATA, add(CFA_XSP16, literal(-1)))
        CFI DPL0 load(1, XDATA, add(CFA_XSP16, literal(-2)))
        CFI ?BRET_EXT load(1, XDATA, add(CFA_XSP16, literal(-3)))
        CFI ?RET_HIGH load(1, XDATA, add(CFA_XSP16, literal(-4)))
        CFI ?RET_LOW load(1, XDATA, add(CFA_XSP16, literal(-5)))
        CFI R7 load(1, XDATA, add(CFA_XSP16, literal(-6)))
        CFI V1 load(1, XDATA, add(CFA_XSP16, literal(-7)))
        CFI V0 load(1, XDATA, add(CFA_XSP16, literal(-8)))
        CFI VB load(1, XDATA, add(CFA_XSP16, literal(-9)))
        CFI R6 load(1, XDATA, add(CFA_XSP16, literal(-10)))
        CFI CFA_SP SP+0
        CFI CFA_XSP16 add(XSP16, 10)
        ; Saved register size: 10
        ; Auto size: 3
        MOV     A,#-0x3
        LCALL   ?ALLOC_XSTACK8
        CFI CFA_XSP16 add(XSP16, 13)
//  471   uint16 temp16;
//  472   uint8 retValue = ZFailure;
        LCALL   ?Subroutine7 & 0xFFFF
//  473   uint8 cmdId;
//  474 
//  475   /* parse header */
//  476   cmdId = pBuf[MT_RPC_POS_CMD1];
//  477   pBuf += MT_RPC_FRAME_HDR_SZ;
//  478 
//  479   temp16 = BUILD_UINT16(pBuf[0], pBuf[1]);
??CrossCallReturnLabel_0:
        MOV     R4,A
        INC     DPTR
        MOVX    A,@DPTR
        MOV     R1,A
        MOV     A,R4
        MOV     R0,A
        MOV     A,#0x1
        LCALL   ?XSTACK_DISP0_8
        MOV     A,R0
        MOVX    @DPTR,A
        INC     DPTR
        MOV     A,R1
        MOVX    @DPTR,A
//  480   pBuf += sizeof(uint16);
//  481 
//  482   retValue = osal_nv_write(ZCD_NV_PANID, 0, osal_nv_item_len( ZCD_NV_PANID ), &temp16);
        ; Setup parameters for call to function osal_nv_write
        MOV     A,#0x1
        LCALL   ?XSTACK_DISP0_8
        MOV     ?V0 + 0,DPL
        MOV     ?V0 + 1,DPH
        MOV     R0,#?V0 + 0
        LCALL   ?PUSH_XSTACK_I_TWO
        CFI CFA_XSP16 add(XSP16, 15)
        ; Setup parameters for call to function osal_nv_item_len
        MOV     R2,#-0x7d
        LCALL   ?Subroutine28 & 0xFFFF
??CrossCallReturnLabel_40:
        LCALL   ?PUSH_XSTACK_I_TWO
        CFI CFA_XSP16 add(XSP16, 17)
        MOV     R4,#0x0
        MOV     R5,#0x0
        MOV     R2,#-0x7d
        MOV     R3,#0x0
        LCALL   ??osal_nv_write?relay
        MOV     A,#0x4
        LCALL   ?DEALLOC_XSTACK8
        CFI CFA_XSP16 add(XSP16, 13)
        LCALL   ?Subroutine20 & 0xFFFF
//  483 
//  484   /* Build and send back the response */
//  485   MT_BuildAndSendZToolResponse(((uint8)MT_RPC_CMD_SRSP | (uint8)MT_RPC_SYS_UTIL), cmdId, 1, &retValue);
//  486 }
??CrossCallReturnLabel_28:
        MOV     A,#0x3
        LJMP    ??Subroutine43_0 & 0xFFFF
        CFI EndBlock cfiBlock38
//  487 
//  488 /***************************************************************************************************
//  489  * @fn      MT_UtilSetChannels
//  490  *
//  491  * @brief   Set Channels
//  492  *
//  493  * @param   pBuf - pointer to the data
//  494  *
//  495  * @return  void
//  496  ***************************************************************************************************/

        RSEG BANKED_CODE:CODE:NOROOT(0)
//  497 void MT_UtilSetChannels(uint8 *pBuf)
MT_UtilSetChannels:
        CFI Block cfiBlock39 Using cfiCommon0
        CFI Function MT_UtilSetChannels
        CODE
//  498 {
        FUNCALL MT_UtilSetChannels, osal_nv_item_len
        LOCFRAME ISTACK, 0, STACK
        LOCFRAME PSTACK, 0, STACK
        LOCFRAME XSTACK, 23, STACK
        LOCFRAME IOVERLAY, 0, STATIC
        LOCFRAME DOVERLAY, 0, STATIC
        ARGFRAME ISTACK, 0, STACK
        ARGFRAME PSTACK, 0, STACK
        ARGFRAME XSTACK, 23, STACK
        ARGFRAME IOVERLAY, 0, STATIC
        ARGFRAME DOVERLAY, 0, STATIC
        FUNCALL MT_UtilSetChannels, osal_nv_write
        LOCFRAME ISTACK, 0, STACK
        LOCFRAME PSTACK, 0, STACK
        LOCFRAME XSTACK, 25, STACK
        LOCFRAME IOVERLAY, 0, STATIC
        LOCFRAME DOVERLAY, 0, STATIC
        ARGFRAME ISTACK, 0, STACK
        ARGFRAME PSTACK, 0, STACK
        ARGFRAME XSTACK, 25, STACK
        ARGFRAME IOVERLAY, 0, STATIC
        ARGFRAME DOVERLAY, 0, STATIC
        FUNCALL MT_UtilSetChannels, MT_BuildAndSendZToolResponse
        LOCFRAME ISTACK, 0, STACK
        LOCFRAME PSTACK, 0, STACK
        LOCFRAME XSTACK, 21, STACK
        LOCFRAME IOVERLAY, 0, STATIC
        LOCFRAME DOVERLAY, 0, STATIC
        ARGFRAME ISTACK, 0, STACK
        ARGFRAME PSTACK, 0, STACK
        ARGFRAME XSTACK, 21, STACK
        ARGFRAME IOVERLAY, 0, STATIC
        ARGFRAME DOVERLAY, 0, STATIC
        MOV     A,#-0x10
        LCALL   ?BANKED_ENTER_XDATA
        CFI DPH0 load(1, XDATA, add(CFA_XSP16, literal(-1)))
        CFI DPL0 load(1, XDATA, add(CFA_XSP16, literal(-2)))
        CFI ?BRET_EXT load(1, XDATA, add(CFA_XSP16, literal(-3)))
        CFI ?RET_HIGH load(1, XDATA, add(CFA_XSP16, literal(-4)))
        CFI ?RET_LOW load(1, XDATA, add(CFA_XSP16, literal(-5)))
        CFI R7 load(1, XDATA, add(CFA_XSP16, literal(-6)))
        CFI V7 load(1, XDATA, add(CFA_XSP16, literal(-7)))
        CFI V6 load(1, XDATA, add(CFA_XSP16, literal(-8)))
        CFI V5 load(1, XDATA, add(CFA_XSP16, literal(-9)))
        CFI V4 load(1, XDATA, add(CFA_XSP16, literal(-10)))
        CFI V3 load(1, XDATA, add(CFA_XSP16, literal(-11)))
        CFI V2 load(1, XDATA, add(CFA_XSP16, literal(-12)))
        CFI V1 load(1, XDATA, add(CFA_XSP16, literal(-13)))
        CFI V0 load(1, XDATA, add(CFA_XSP16, literal(-14)))
        CFI VB load(1, XDATA, add(CFA_XSP16, literal(-15)))
        CFI R6 load(1, XDATA, add(CFA_XSP16, literal(-16)))
        CFI CFA_SP SP+0
        CFI CFA_XSP16 add(XSP16, 16)
        ; Saved register size: 16
        ; Auto size: 5
        MOV     A,#-0x5
        LCALL   ?ALLOC_XSTACK8
        CFI CFA_XSP16 add(XSP16, 21)
//  499   uint32 tmp32;
//  500   uint8 retValue = ZFailure;
        LCALL   ?Subroutine7 & 0xFFFF
//  501   uint8 cmdId;
//  502 
//  503   /* parse header */
//  504   cmdId = pBuf[MT_RPC_POS_CMD1];
//  505   pBuf += MT_RPC_FRAME_HDR_SZ;
//  506 
//  507   tmp32 = BUILD_UINT32(pBuf[0], pBuf[1], pBuf[2], pBuf[3]);
??CrossCallReturnLabel_1:
        MOV     ?V0 + 0,A
        CLR     A
        MOV     ?V0 + 1,A
        MOV     ?V0 + 2,A
        MOV     ?V0 + 3,A
        INC     DPTR
        MOVX    A,@DPTR
        MOV     ?V0 + 4,A
        CLR     A
        MOV     ?V0 + 5,A
        MOV     ?V0 + 6,A
        MOV     ?V0 + 7,A
        MOV     A,#0x8
        MOV     R0,#?V0 + 4
        LCALL   ?L_SHL
        MOV     R0,#?V0 + 0
        MOV     R1,#?V0 + 4
        LCALL   ?L_ADD
        MOV     DPL,R2
        MOV     DPH,R3
        INC     DPTR
        INC     DPTR
        MOVX    A,@DPTR
        MOV     ?V0 + 4,A
        CLR     A
        MOV     ?V0 + 5,A
        MOV     A,#0x10
        MOV     R0,#?V0 + 4
        LCALL   ?L_SHL
        MOV     R0,#?V0 + 0
        MOV     R1,#?V0 + 4
        LCALL   ?L_ADD
        MOV     DPL,R2
        MOV     DPH,R3
        INC     DPTR
        INC     DPTR
        INC     DPTR
        MOVX    A,@DPTR
        MOV     ?V0 + 4,A
        CLR     A
        MOV     ?V0 + 6,A
        MOV     A,#0x18
        MOV     R0,#?V0 + 4
        LCALL   ?L_SHL
        MOV     R0,#?V0 + 0
        MOV     R1,#?V0 + 4
        LCALL   ?L_ADD
        MOV     A,#0x1
        LCALL   ?XSTACK_DISP0_8
        MOV     R0,#?V0 + 0
        LCALL   ?L_MOV_TO_X
//  508 
//  509   retValue = osal_nv_write(ZCD_NV_CHANLIST, 0, osal_nv_item_len( ZCD_NV_CHANLIST ), &tmp32);
        ; Setup parameters for call to function osal_nv_write
        MOV     A,#0x1
        LCALL   ?XSTACK_DISP0_8
        MOV     ?V0 + 0,DPL
        MOV     ?V0 + 1,DPH
        MOV     R0,#?V0 + 0
        LCALL   ?PUSH_XSTACK_I_TWO
        CFI CFA_XSP16 add(XSP16, 23)
        ; Setup parameters for call to function osal_nv_item_len
        MOV     R2,#-0x7c
        LCALL   ?Subroutine28 & 0xFFFF
??CrossCallReturnLabel_41:
        LCALL   ?PUSH_XSTACK_I_TWO
        CFI CFA_XSP16 add(XSP16, 25)
        MOV     R4,#0x0
        MOV     R5,#0x0
        MOV     R2,#-0x7c
        MOV     R3,#0x0
        LCALL   ??osal_nv_write?relay
        MOV     A,#0x4
        LCALL   ?DEALLOC_XSTACK8
        CFI CFA_XSP16 add(XSP16, 21)
        LCALL   ?Subroutine20 & 0xFFFF
//  510 
//  511   /* Build and send back the response */
//  512   MT_BuildAndSendZToolResponse(((uint8)MT_RPC_CMD_SRSP | (uint8)MT_RPC_SYS_UTIL), cmdId, 1, &retValue);
//  513 }
??CrossCallReturnLabel_29:
        MOV     A,#0x5
        CFI EndBlock cfiBlock39
        REQUIRE ?Subroutine0
        ; // Fall through to label ?Subroutine0

        RSEG BANKED_CODE:CODE:NOROOT(0)
?Subroutine0:
        CFI Block cfiBlock40 Using cfiCommon0
        CFI NoFunction
        CFI CFA_SP SP+0
        CFI CFA_XSP16 add(XSP16, 17)
        CFI VB load(1, XDATA, add(CFA_XSP16, literal(-15)))
        CFI DPL0 load(1, XDATA, add(CFA_XSP16, literal(-2)))
        CFI DPH0 load(1, XDATA, add(CFA_XSP16, literal(-1)))
        CFI R6 load(1, XDATA, add(CFA_XSP16, literal(-16)))
        CFI R7 load(1, XDATA, add(CFA_XSP16, literal(-6)))
        CFI V0 load(1, XDATA, add(CFA_XSP16, literal(-14)))
        CFI V1 load(1, XDATA, add(CFA_XSP16, literal(-13)))
        CFI V2 load(1, XDATA, add(CFA_XSP16, literal(-12)))
        CFI V3 load(1, XDATA, add(CFA_XSP16, literal(-11)))
        CFI V4 load(1, XDATA, add(CFA_XSP16, literal(-10)))
        CFI V5 load(1, XDATA, add(CFA_XSP16, literal(-9)))
        CFI V6 load(1, XDATA, add(CFA_XSP16, literal(-8)))
        CFI V7 load(1, XDATA, add(CFA_XSP16, literal(-7)))
        CFI ?BRET_EXT load(1, XDATA, add(CFA_XSP16, literal(-3)))
        CFI ?RET_HIGH load(1, XDATA, add(CFA_XSP16, literal(-4)))
        CFI ?RET_LOW load(1, XDATA, add(CFA_XSP16, literal(-5)))
        CFI Invalid
        LCALL   ?DEALLOC_XSTACK8
        CFI CFA_XSP16 add(XSP16, 16)
        CFI Valid
        MOV     R7,#0x8
        LJMP    ?BANKED_LEAVE_XDATA
        CFI EndBlock cfiBlock40

        RSEG BANKED_CODE:CODE:NOROOT(0)
?Subroutine20:
        CFI Block cfiCond41 Using cfiCommon0
        CFI NoFunction
        CFI Conditional ??CrossCallReturnLabel_28
        CFI R6 load(1, XDATA, add(CFA_XSP16, literal(-10)))
        CFI VB load(1, XDATA, add(CFA_XSP16, literal(-9)))
        CFI V0 load(1, XDATA, add(CFA_XSP16, literal(-8)))
        CFI V1 load(1, XDATA, add(CFA_XSP16, literal(-7)))
        CFI R7 load(1, XDATA, add(CFA_XSP16, literal(-6)))
        CFI ?RET_LOW load(1, XDATA, add(CFA_XSP16, literal(-5)))
        CFI ?RET_HIGH load(1, XDATA, add(CFA_XSP16, literal(-4)))
        CFI ?BRET_EXT load(1, XDATA, add(CFA_XSP16, literal(-3)))
        CFI DPL0 load(1, XDATA, add(CFA_XSP16, literal(-2)))
        CFI DPH0 load(1, XDATA, add(CFA_XSP16, literal(-1)))
        CFI CFA_SP SP+0
        CFI CFA_XSP16 add(XSP16, 13)
        CFI Block cfiCond42 Using cfiCommon0
        CFI (cfiCond42) NoFunction
        CFI (cfiCond42) Conditional ??CrossCallReturnLabel_29
        CFI (cfiCond42) R6 load(1, XDATA, add(CFA_XSP16, literal(-16)))
        CFI (cfiCond42) VB load(1, XDATA, add(CFA_XSP16, literal(-15)))
        CFI (cfiCond42) V0 load(1, XDATA, add(CFA_XSP16, literal(-14)))
        CFI (cfiCond42) V1 load(1, XDATA, add(CFA_XSP16, literal(-13)))
        CFI (cfiCond42) V2 load(1, XDATA, add(CFA_XSP16, literal(-12)))
        CFI (cfiCond42) V3 load(1, XDATA, add(CFA_XSP16, literal(-11)))
        CFI (cfiCond42) V4 load(1, XDATA, add(CFA_XSP16, literal(-10)))
        CFI (cfiCond42) V5 load(1, XDATA, add(CFA_XSP16, literal(-9)))
        CFI (cfiCond42) V6 load(1, XDATA, add(CFA_XSP16, literal(-8)))
        CFI (cfiCond42) V7 load(1, XDATA, add(CFA_XSP16, literal(-7)))
        CFI (cfiCond42) R7 load(1, XDATA, add(CFA_XSP16, literal(-6)))
        CFI (cfiCond42) ?RET_LOW load(1, XDATA, add(CFA_XSP16, literal(-5)))
        CFI (cfiCond42) ?RET_HIGH load(1, XDATA, add(CFA_XSP16, literal(-4)))
        CFI (cfiCond42) ?BRET_EXT load(1, XDATA, add(CFA_XSP16, literal(-3)))
        CFI (cfiCond42) DPL0 load(1, XDATA, add(CFA_XSP16, literal(-2)))
        CFI (cfiCond42) DPH0 load(1, XDATA, add(CFA_XSP16, literal(-1)))
        CFI (cfiCond42) CFA_SP SP+0
        CFI (cfiCond42) CFA_XSP16 add(XSP16, 21)
        CFI Block cfiCond43 Using cfiCommon0
        CFI (cfiCond43) NoFunction
        CFI (cfiCond43) Conditional ??CrossCallReturnLabel_30
        CFI (cfiCond43) R6 load(1, XDATA, add(CFA_XSP16, literal(-10)))
        CFI (cfiCond43) VB load(1, XDATA, add(CFA_XSP16, literal(-9)))
        CFI (cfiCond43) V0 load(1, XDATA, add(CFA_XSP16, literal(-8)))
        CFI (cfiCond43) V1 load(1, XDATA, add(CFA_XSP16, literal(-7)))
        CFI (cfiCond43) R7 load(1, XDATA, add(CFA_XSP16, literal(-6)))
        CFI (cfiCond43) ?RET_LOW load(1, XDATA, add(CFA_XSP16, literal(-5)))
        CFI (cfiCond43) ?RET_HIGH load(1, XDATA, add(CFA_XSP16, literal(-4)))
        CFI (cfiCond43) ?BRET_EXT load(1, XDATA, add(CFA_XSP16, literal(-3)))
        CFI (cfiCond43) DPL0 load(1, XDATA, add(CFA_XSP16, literal(-2)))
        CFI (cfiCond43) DPH0 load(1, XDATA, add(CFA_XSP16, literal(-1)))
        CFI (cfiCond43) CFA_SP SP+0
        CFI (cfiCond43) CFA_XSP16 add(XSP16, 11)
        CFI Block cfiCond44 Using cfiCommon0
        CFI (cfiCond44) NoFunction
        CFI (cfiCond44) Conditional ??CrossCallReturnLabel_30
        CFI (cfiCond44) R6 load(1, XDATA, add(CFA_XSP16, literal(-10)))
        CFI (cfiCond44) VB load(1, XDATA, add(CFA_XSP16, literal(-9)))
        CFI (cfiCond44) V0 load(1, XDATA, add(CFA_XSP16, literal(-8)))
        CFI (cfiCond44) V1 load(1, XDATA, add(CFA_XSP16, literal(-7)))
        CFI (cfiCond44) R7 load(1, XDATA, add(CFA_XSP16, literal(-6)))
        CFI (cfiCond44) ?RET_LOW load(1, XDATA, add(CFA_XSP16, literal(-5)))
        CFI (cfiCond44) ?RET_HIGH load(1, XDATA, add(CFA_XSP16, literal(-4)))
        CFI (cfiCond44) ?BRET_EXT load(1, XDATA, add(CFA_XSP16, literal(-3)))
        CFI (cfiCond44) DPL0 load(1, XDATA, add(CFA_XSP16, literal(-2)))
        CFI (cfiCond44) DPH0 load(1, XDATA, add(CFA_XSP16, literal(-1)))
        CFI (cfiCond44) CFA_SP SP+0
        CFI (cfiCond44) CFA_XSP16 add(XSP16, 11)
        CFI Block cfiPicker45 Using cfiCommon1
        CFI (cfiPicker45) NoFunction
        CFI (cfiPicker45) Picker
        MOV     A,R1
        MOV     DPL,?XSP + 0
        MOV     DPH,?XSP + 1
        MOVX    @DPTR,A
        ; Setup parameters for call to function MT_BuildAndSendZToolResponse
        ; Setup parameters for call to function MT_BuildAndSendZToolResponse
        ; Setup parameters for call to function MT_BuildAndSendZToolResponse
        ; Setup parameters for call to function MT_BuildAndSendZToolResponse
        MOV     R4,DPL
        MOV     R5,DPH
        MOV     R3,#0x1
        MOV     A,R6
        MOV     R2,A
        MOV     R1,#0x67
        LCALL   ??MT_BuildAndSendZToolResponse?relay
        RET
        CFI EndBlock cfiCond41
        CFI EndBlock cfiCond42
        CFI EndBlock cfiCond43
        CFI EndBlock cfiCond44
        CFI EndBlock cfiPicker45
//  514 
//  515 /***************************************************************************************************
//  516  * @fn      MT_UtilSetSecLevel
//  517  *
//  518  * @brief   Set Sec Level
//  519  *
//  520  * @param   byte *msg - pointer to the data
//  521  *
//  522  * @return  void
//  523  ***************************************************************************************************/

        RSEG BANKED_CODE:CODE:NOROOT(0)
//  524 void MT_UtilSetSecLevel(uint8 *pBuf)
MT_UtilSetSecLevel:
        CFI Block cfiBlock46 Using cfiCommon0
        CFI Function MT_UtilSetSecLevel
        CODE
//  525 {
        FUNCALL MT_UtilSetSecLevel, osal_nv_item_len
        LOCFRAME ISTACK, 0, STACK
        LOCFRAME PSTACK, 0, STACK
        LOCFRAME XSTACK, 13, STACK
        LOCFRAME IOVERLAY, 0, STATIC
        LOCFRAME DOVERLAY, 0, STATIC
        ARGFRAME ISTACK, 0, STACK
        ARGFRAME PSTACK, 0, STACK
        ARGFRAME XSTACK, 13, STACK
        ARGFRAME IOVERLAY, 0, STATIC
        ARGFRAME DOVERLAY, 0, STATIC
        FUNCALL MT_UtilSetSecLevel, osal_nv_write
        LOCFRAME ISTACK, 0, STACK
        LOCFRAME PSTACK, 0, STACK
        LOCFRAME XSTACK, 15, STACK
        LOCFRAME IOVERLAY, 0, STATIC
        LOCFRAME DOVERLAY, 0, STATIC
        ARGFRAME ISTACK, 0, STACK
        ARGFRAME PSTACK, 0, STACK
        ARGFRAME XSTACK, 15, STACK
        ARGFRAME IOVERLAY, 0, STATIC
        ARGFRAME DOVERLAY, 0, STATIC
        FUNCALL MT_UtilSetSecLevel, MT_BuildAndSendZToolResponse
        LOCFRAME ISTACK, 0, STACK
        LOCFRAME PSTACK, 0, STACK
        LOCFRAME XSTACK, 11, STACK
        LOCFRAME IOVERLAY, 0, STATIC
        LOCFRAME DOVERLAY, 0, STATIC
        ARGFRAME ISTACK, 0, STACK
        ARGFRAME PSTACK, 0, STACK
        ARGFRAME XSTACK, 11, STACK
        ARGFRAME IOVERLAY, 0, STATIC
        ARGFRAME DOVERLAY, 0, STATIC
        MOV     A,#-0xa
        LCALL   ?BANKED_ENTER_XDATA
        CFI DPH0 load(1, XDATA, add(CFA_XSP16, literal(-1)))
        CFI DPL0 load(1, XDATA, add(CFA_XSP16, literal(-2)))
        CFI ?BRET_EXT load(1, XDATA, add(CFA_XSP16, literal(-3)))
        CFI ?RET_HIGH load(1, XDATA, add(CFA_XSP16, literal(-4)))
        CFI ?RET_LOW load(1, XDATA, add(CFA_XSP16, literal(-5)))
        CFI R7 load(1, XDATA, add(CFA_XSP16, literal(-6)))
        CFI V1 load(1, XDATA, add(CFA_XSP16, literal(-7)))
        CFI V0 load(1, XDATA, add(CFA_XSP16, literal(-8)))
        CFI VB load(1, XDATA, add(CFA_XSP16, literal(-9)))
        CFI R6 load(1, XDATA, add(CFA_XSP16, literal(-10)))
        CFI CFA_SP SP+0
        CFI CFA_XSP16 add(XSP16, 10)
        ; Saved register size: 10
        ; Auto size: 1
        MOV     A,#-0x1
        LCALL   ?ALLOC_XSTACK8
        CFI CFA_XSP16 add(XSP16, 11)
//  526   uint8 retValue = ZFailure;
        LCALL   ?Subroutine14 & 0xFFFF
//  527   uint8 cmdId;
//  528 
//  529   /* parse header */
//  530   cmdId = pBuf[MT_RPC_POS_CMD1];
//  531   pBuf += MT_RPC_FRAME_HDR_SZ;
//  532 
//  533   retValue = osal_nv_write( ZCD_NV_SECURITY_LEVEL, 0, osal_nv_item_len( ZCD_NV_SECURITY_LEVEL ), pBuf);
??CrossCallReturnLabel_16:
        LCALL   ?PUSH_XSTACK_I_TWO
        CFI CFA_XSP16 add(XSP16, 13)
        ; Setup parameters for call to function osal_nv_item_len
        MOV     R2,#0x61
        LCALL   ?Subroutine28 & 0xFFFF
??CrossCallReturnLabel_42:
        LCALL   ?PUSH_XSTACK_I_TWO
        CFI CFA_XSP16 add(XSP16, 15)
        MOV     R4,#0x0
        MOV     R5,#0x0
        MOV     R2,#0x61
        CFI EndBlock cfiBlock46
        REQUIRE ?Subroutine1
        ; // Fall through to label ?Subroutine1
//  534 
//  535   /* Build and send back the response */
//  536   MT_BuildAndSendZToolResponse(((uint8)MT_RPC_CMD_SRSP | (uint8)MT_RPC_SYS_UTIL), cmdId, 1, &retValue );
//  537 
//  538 }

        RSEG BANKED_CODE:CODE:NOROOT(0)
?Subroutine1:
        CFI Block cfiBlock47 Using cfiCommon0
        CFI NoFunction
        CFI CFA_SP SP+0
        CFI CFA_XSP16 add(XSP16, 15)
        CFI VB load(1, XDATA, add(CFA_XSP16, literal(-9)))
        CFI DPL0 load(1, XDATA, add(CFA_XSP16, literal(-2)))
        CFI DPH0 load(1, XDATA, add(CFA_XSP16, literal(-1)))
        CFI R6 load(1, XDATA, add(CFA_XSP16, literal(-10)))
        CFI R7 load(1, XDATA, add(CFA_XSP16, literal(-6)))
        CFI V0 load(1, XDATA, add(CFA_XSP16, literal(-8)))
        CFI V1 load(1, XDATA, add(CFA_XSP16, literal(-7)))
        CFI ?BRET_EXT load(1, XDATA, add(CFA_XSP16, literal(-3)))
        CFI ?RET_HIGH load(1, XDATA, add(CFA_XSP16, literal(-4)))
        CFI ?RET_LOW load(1, XDATA, add(CFA_XSP16, literal(-5)))
        MOV     R3,#0x0
        LCALL   ??osal_nv_write?relay
        MOV     A,#0x4
        LCALL   ?DEALLOC_XSTACK8
        CFI CFA_XSP16 add(XSP16, 11)
        LCALL   ?Subroutine20 & 0xFFFF
??CrossCallReturnLabel_30:
        MOV     A,#0x1
        CFI EndBlock cfiBlock47
        REQUIRE ??Subroutine43_0
        ; // Fall through to label ??Subroutine43_0

        RSEG BANKED_CODE:CODE:NOROOT(0)
??Subroutine43_0:
        CFI Block cfiBlock48 Using cfiCommon0
        CFI NoFunction
        CFI CFA_SP SP+0
        CFI CFA_XSP16 add(XSP16, 13)
        CFI VB load(1, XDATA, add(CFA_XSP16, literal(-9)))
        CFI DPL0 load(1, XDATA, add(CFA_XSP16, literal(-2)))
        CFI DPH0 load(1, XDATA, add(CFA_XSP16, literal(-1)))
        CFI R6 load(1, XDATA, add(CFA_XSP16, literal(-10)))
        CFI R7 load(1, XDATA, add(CFA_XSP16, literal(-6)))
        CFI V0 load(1, XDATA, add(CFA_XSP16, literal(-8)))
        CFI V1 load(1, XDATA, add(CFA_XSP16, literal(-7)))
        CFI ?BRET_EXT load(1, XDATA, add(CFA_XSP16, literal(-3)))
        CFI ?RET_HIGH load(1, XDATA, add(CFA_XSP16, literal(-4)))
        CFI ?RET_LOW load(1, XDATA, add(CFA_XSP16, literal(-5)))
        CFI Invalid
        LCALL   ?DEALLOC_XSTACK8
        CFI CFA_XSP16 add(XSP16, 10)
        CFI Valid
        MOV     R7,#0x2
        LJMP    ?BANKED_LEAVE_XDATA
        CFI EndBlock cfiBlock48

        RSEG BANKED_CODE:CODE:NOROOT(0)
?Subroutine28:
        CFI Block cfiCond49 Using cfiCommon0
        CFI NoFunction
        CFI Conditional ??CrossCallReturnLabel_40
        CFI R6 load(1, XDATA, add(CFA_XSP16, literal(-10)))
        CFI VB load(1, XDATA, add(CFA_XSP16, literal(-9)))
        CFI V0 load(1, XDATA, add(CFA_XSP16, literal(-8)))
        CFI V1 load(1, XDATA, add(CFA_XSP16, literal(-7)))
        CFI R7 load(1, XDATA, add(CFA_XSP16, literal(-6)))
        CFI ?RET_LOW load(1, XDATA, add(CFA_XSP16, literal(-5)))
        CFI ?RET_HIGH load(1, XDATA, add(CFA_XSP16, literal(-4)))
        CFI ?BRET_EXT load(1, XDATA, add(CFA_XSP16, literal(-3)))
        CFI DPL0 load(1, XDATA, add(CFA_XSP16, literal(-2)))
        CFI DPH0 load(1, XDATA, add(CFA_XSP16, literal(-1)))
        CFI CFA_SP SP+0
        CFI CFA_XSP16 add(XSP16, 15)
        CFI Block cfiCond50 Using cfiCommon0
        CFI (cfiCond50) NoFunction
        CFI (cfiCond50) Conditional ??CrossCallReturnLabel_41
        CFI (cfiCond50) R6 load(1, XDATA, add(CFA_XSP16, literal(-16)))
        CFI (cfiCond50) VB load(1, XDATA, add(CFA_XSP16, literal(-15)))
        CFI (cfiCond50) V0 load(1, XDATA, add(CFA_XSP16, literal(-14)))
        CFI (cfiCond50) V1 load(1, XDATA, add(CFA_XSP16, literal(-13)))
        CFI (cfiCond50) V2 load(1, XDATA, add(CFA_XSP16, literal(-12)))
        CFI (cfiCond50) V3 load(1, XDATA, add(CFA_XSP16, literal(-11)))
        CFI (cfiCond50) V4 load(1, XDATA, add(CFA_XSP16, literal(-10)))
        CFI (cfiCond50) V5 load(1, XDATA, add(CFA_XSP16, literal(-9)))
        CFI (cfiCond50) V6 load(1, XDATA, add(CFA_XSP16, literal(-8)))
        CFI (cfiCond50) V7 load(1, XDATA, add(CFA_XSP16, literal(-7)))
        CFI (cfiCond50) R7 load(1, XDATA, add(CFA_XSP16, literal(-6)))
        CFI (cfiCond50) ?RET_LOW load(1, XDATA, add(CFA_XSP16, literal(-5)))
        CFI (cfiCond50) ?RET_HIGH load(1, XDATA, add(CFA_XSP16, literal(-4)))
        CFI (cfiCond50) ?BRET_EXT load(1, XDATA, add(CFA_XSP16, literal(-3)))
        CFI (cfiCond50) DPL0 load(1, XDATA, add(CFA_XSP16, literal(-2)))
        CFI (cfiCond50) DPH0 load(1, XDATA, add(CFA_XSP16, literal(-1)))
        CFI (cfiCond50) CFA_SP SP+0
        CFI (cfiCond50) CFA_XSP16 add(XSP16, 23)
        CFI Block cfiCond51 Using cfiCommon0
        CFI (cfiCond51) NoFunction
        CFI (cfiCond51) Conditional ??CrossCallReturnLabel_42
        CFI (cfiCond51) R6 load(1, XDATA, add(CFA_XSP16, literal(-10)))
        CFI (cfiCond51) VB load(1, XDATA, add(CFA_XSP16, literal(-9)))
        CFI (cfiCond51) V0 load(1, XDATA, add(CFA_XSP16, literal(-8)))
        CFI (cfiCond51) V1 load(1, XDATA, add(CFA_XSP16, literal(-7)))
        CFI (cfiCond51) R7 load(1, XDATA, add(CFA_XSP16, literal(-6)))
        CFI (cfiCond51) ?RET_LOW load(1, XDATA, add(CFA_XSP16, literal(-5)))
        CFI (cfiCond51) ?RET_HIGH load(1, XDATA, add(CFA_XSP16, literal(-4)))
        CFI (cfiCond51) ?BRET_EXT load(1, XDATA, add(CFA_XSP16, literal(-3)))
        CFI (cfiCond51) DPL0 load(1, XDATA, add(CFA_XSP16, literal(-2)))
        CFI (cfiCond51) DPH0 load(1, XDATA, add(CFA_XSP16, literal(-1)))
        CFI (cfiCond51) CFA_SP SP+0
        CFI (cfiCond51) CFA_XSP16 add(XSP16, 13)
        CFI Block cfiCond52 Using cfiCommon0
        CFI (cfiCond52) NoFunction
        CFI (cfiCond52) Conditional ??CrossCallReturnLabel_43
        CFI (cfiCond52) R6 load(1, XDATA, add(CFA_XSP16, literal(-10)))
        CFI (cfiCond52) VB load(1, XDATA, add(CFA_XSP16, literal(-9)))
        CFI (cfiCond52) V0 load(1, XDATA, add(CFA_XSP16, literal(-8)))
        CFI (cfiCond52) V1 load(1, XDATA, add(CFA_XSP16, literal(-7)))
        CFI (cfiCond52) R7 load(1, XDATA, add(CFA_XSP16, literal(-6)))
        CFI (cfiCond52) ?RET_LOW load(1, XDATA, add(CFA_XSP16, literal(-5)))
        CFI (cfiCond52) ?RET_HIGH load(1, XDATA, add(CFA_XSP16, literal(-4)))
        CFI (cfiCond52) ?BRET_EXT load(1, XDATA, add(CFA_XSP16, literal(-3)))
        CFI (cfiCond52) DPL0 load(1, XDATA, add(CFA_XSP16, literal(-2)))
        CFI (cfiCond52) DPH0 load(1, XDATA, add(CFA_XSP16, literal(-1)))
        CFI (cfiCond52) CFA_SP SP+0
        CFI (cfiCond52) CFA_XSP16 add(XSP16, 13)
        CFI Block cfiPicker53 Using cfiCommon1
        CFI (cfiPicker53) NoFunction
        CFI (cfiPicker53) Picker
        MOV     R3,#0x0
        LCALL   ??osal_nv_item_len?relay
        MOV     ?V0 + 0,R2
        MOV     ?V0 + 1,R3
        MOV     R0,#?V0 + 0
        RET
        CFI EndBlock cfiCond49
        CFI EndBlock cfiCond50
        CFI EndBlock cfiCond51
        CFI EndBlock cfiCond52
        CFI EndBlock cfiPicker53
//  539 
//  540 /***************************************************************************************************
//  541  * @fn      MT_UtilSetPreCfgKey
//  542  *
//  543  * @brief   Set Pre Cfg Key
//  544  *
//  545  * @param   pBuf - pointer to the data
//  546  *
//  547  * @return  void
//  548  ***************************************************************************************************/

        RSEG BANKED_CODE:CODE:NOROOT(0)
//  549 void MT_UtilSetPreCfgKey(uint8 *pBuf)
MT_UtilSetPreCfgKey:
        CFI Block cfiBlock54 Using cfiCommon0
        CFI Function MT_UtilSetPreCfgKey
        CODE
//  550 {
        FUNCALL MT_UtilSetPreCfgKey, osal_nv_item_len
        LOCFRAME ISTACK, 0, STACK
        LOCFRAME PSTACK, 0, STACK
        LOCFRAME XSTACK, 13, STACK
        LOCFRAME IOVERLAY, 0, STATIC
        LOCFRAME DOVERLAY, 0, STATIC
        ARGFRAME ISTACK, 0, STACK
        ARGFRAME PSTACK, 0, STACK
        ARGFRAME XSTACK, 13, STACK
        ARGFRAME IOVERLAY, 0, STATIC
        ARGFRAME DOVERLAY, 0, STATIC
        FUNCALL MT_UtilSetPreCfgKey, osal_nv_write
        LOCFRAME ISTACK, 0, STACK
        LOCFRAME PSTACK, 0, STACK
        LOCFRAME XSTACK, 15, STACK
        LOCFRAME IOVERLAY, 0, STATIC
        LOCFRAME DOVERLAY, 0, STATIC
        ARGFRAME ISTACK, 0, STACK
        ARGFRAME PSTACK, 0, STACK
        ARGFRAME XSTACK, 15, STACK
        ARGFRAME IOVERLAY, 0, STATIC
        ARGFRAME DOVERLAY, 0, STATIC
        FUNCALL MT_UtilSetPreCfgKey, MT_BuildAndSendZToolResponse
        LOCFRAME ISTACK, 0, STACK
        LOCFRAME PSTACK, 0, STACK
        LOCFRAME XSTACK, 11, STACK
        LOCFRAME IOVERLAY, 0, STATIC
        LOCFRAME DOVERLAY, 0, STATIC
        ARGFRAME ISTACK, 0, STACK
        ARGFRAME PSTACK, 0, STACK
        ARGFRAME XSTACK, 11, STACK
        ARGFRAME IOVERLAY, 0, STATIC
        ARGFRAME DOVERLAY, 0, STATIC
        MOV     A,#-0xa
        LCALL   ?BANKED_ENTER_XDATA
        CFI DPH0 load(1, XDATA, add(CFA_XSP16, literal(-1)))
        CFI DPL0 load(1, XDATA, add(CFA_XSP16, literal(-2)))
        CFI ?BRET_EXT load(1, XDATA, add(CFA_XSP16, literal(-3)))
        CFI ?RET_HIGH load(1, XDATA, add(CFA_XSP16, literal(-4)))
        CFI ?RET_LOW load(1, XDATA, add(CFA_XSP16, literal(-5)))
        CFI R7 load(1, XDATA, add(CFA_XSP16, literal(-6)))
        CFI V1 load(1, XDATA, add(CFA_XSP16, literal(-7)))
        CFI V0 load(1, XDATA, add(CFA_XSP16, literal(-8)))
        CFI VB load(1, XDATA, add(CFA_XSP16, literal(-9)))
        CFI R6 load(1, XDATA, add(CFA_XSP16, literal(-10)))
        CFI CFA_SP SP+0
        CFI CFA_XSP16 add(XSP16, 10)
        ; Saved register size: 10
        ; Auto size: 1
        MOV     A,#-0x1
        LCALL   ?ALLOC_XSTACK8
        CFI CFA_XSP16 add(XSP16, 11)
//  551   uint8 retValue = ZFailure;
        LCALL   ?Subroutine14 & 0xFFFF
//  552   uint8 cmdId;
//  553 
//  554   /* parse header */
//  555   cmdId = pBuf[MT_RPC_POS_CMD1];
//  556   pBuf += MT_RPC_FRAME_HDR_SZ;
//  557 
//  558   retValue = osal_nv_write( ZCD_NV_PRECFGKEY, 0, osal_nv_item_len( ZCD_NV_PRECFGKEY ), pBuf);
??CrossCallReturnLabel_17:
        LCALL   ?PUSH_XSTACK_I_TWO
        CFI CFA_XSP16 add(XSP16, 13)
        ; Setup parameters for call to function osal_nv_item_len
        MOV     R2,#0x62
        LCALL   ?Subroutine28 & 0xFFFF
??CrossCallReturnLabel_43:
        LCALL   ?PUSH_XSTACK_I_TWO
        CFI CFA_XSP16 add(XSP16, 15)
        MOV     R4,#0x0
        MOV     R5,#0x0
        MOV     R2,#0x62
        SJMP    ?Subroutine1
        CFI EndBlock cfiBlock54
//  559 
//  560   /* Build and send back the response */
//  561   MT_BuildAndSendZToolResponse(((uint8)MT_RPC_CMD_SRSP | (uint8)MT_RPC_SYS_UTIL), cmdId, 1, &retValue );
//  562 
//  563 }

        RSEG BANKED_CODE:CODE:NOROOT(0)
?Subroutine14:
        CFI Block cfiCond55 Using cfiCommon0
        CFI NoFunction
        CFI Conditional ??CrossCallReturnLabel_16
        CFI R6 load(1, XDATA, add(CFA_XSP16, literal(-10)))
        CFI VB load(1, XDATA, add(CFA_XSP16, literal(-9)))
        CFI V0 load(1, XDATA, add(CFA_XSP16, literal(-8)))
        CFI V1 load(1, XDATA, add(CFA_XSP16, literal(-7)))
        CFI R7 load(1, XDATA, add(CFA_XSP16, literal(-6)))
        CFI ?RET_LOW load(1, XDATA, add(CFA_XSP16, literal(-5)))
        CFI ?RET_HIGH load(1, XDATA, add(CFA_XSP16, literal(-4)))
        CFI ?BRET_EXT load(1, XDATA, add(CFA_XSP16, literal(-3)))
        CFI DPL0 load(1, XDATA, add(CFA_XSP16, literal(-2)))
        CFI DPH0 load(1, XDATA, add(CFA_XSP16, literal(-1)))
        CFI CFA_SP SP+0
        CFI CFA_XSP16 add(XSP16, 11)
        CFI Block cfiCond56 Using cfiCommon0
        CFI (cfiCond56) NoFunction
        CFI (cfiCond56) Conditional ??CrossCallReturnLabel_17
        CFI (cfiCond56) R6 load(1, XDATA, add(CFA_XSP16, literal(-10)))
        CFI (cfiCond56) VB load(1, XDATA, add(CFA_XSP16, literal(-9)))
        CFI (cfiCond56) V0 load(1, XDATA, add(CFA_XSP16, literal(-8)))
        CFI (cfiCond56) V1 load(1, XDATA, add(CFA_XSP16, literal(-7)))
        CFI (cfiCond56) R7 load(1, XDATA, add(CFA_XSP16, literal(-6)))
        CFI (cfiCond56) ?RET_LOW load(1, XDATA, add(CFA_XSP16, literal(-5)))
        CFI (cfiCond56) ?RET_HIGH load(1, XDATA, add(CFA_XSP16, literal(-4)))
        CFI (cfiCond56) ?BRET_EXT load(1, XDATA, add(CFA_XSP16, literal(-3)))
        CFI (cfiCond56) DPL0 load(1, XDATA, add(CFA_XSP16, literal(-2)))
        CFI (cfiCond56) DPH0 load(1, XDATA, add(CFA_XSP16, literal(-1)))
        CFI (cfiCond56) CFA_SP SP+0
        CFI (cfiCond56) CFA_XSP16 add(XSP16, 11)
        CFI Block cfiPicker57 Using cfiCommon1
        CFI (cfiPicker57) NoFunction
        CFI (cfiPicker57) Picker
        LCALL   ?Subroutine36 & 0xFFFF
??CrossCallReturnLabel_56:
        ; Setup parameters for call to function osal_nv_write
        ; Setup parameters for call to function osal_nv_write
        MOV     A,R2
        ADD     A,#0x3
        MOV     ?V0 + 0,A
        MOV     A,R3
        ADDC    A,#0x0
        MOV     ?V0 + 1,A
        MOV     R0,#?V0 + 0
        RET
        CFI EndBlock cfiCond55
        CFI EndBlock cfiCond56
        CFI EndBlock cfiPicker57
//  564 
//  565 /***************************************************************************************************
//  566  * @fn      MT_UtilCallbackSub
//  567  *
//  568  * @brief   The Callback subscribe.
//  569  *
//  570  * @param   pBuf - pointer to the data
//  571  *
//  572  * @return  void
//  573  ***************************************************************************************************/

        RSEG BANKED_CODE:CODE:NOROOT(0)
//  574 void MT_UtilCallbackSub(uint8 *pBuf)
MT_UtilCallbackSub:
        CFI Block cfiBlock58 Using cfiCommon0
        CFI Function MT_UtilCallbackSub
        CODE
//  575 {
        FUNCALL MT_UtilCallbackSub, MT_BuildAndSendZToolResponse
        LOCFRAME ISTACK, 0, STACK
        LOCFRAME PSTACK, 0, STACK
        LOCFRAME XSTACK, 10, STACK
        LOCFRAME IOVERLAY, 0, STATIC
        LOCFRAME DOVERLAY, 0, STATIC
        ARGFRAME ISTACK, 0, STACK
        ARGFRAME PSTACK, 0, STACK
        ARGFRAME XSTACK, 10, STACK
        ARGFRAME IOVERLAY, 0, STATIC
        ARGFRAME DOVERLAY, 0, STATIC
        MOV     A,#-0x9
        LCALL   ?BANKED_ENTER_XDATA
        CFI DPH0 load(1, XDATA, add(CFA_XSP16, literal(-1)))
        CFI DPL0 load(1, XDATA, add(CFA_XSP16, literal(-2)))
        CFI ?BRET_EXT load(1, XDATA, add(CFA_XSP16, literal(-3)))
        CFI ?RET_HIGH load(1, XDATA, add(CFA_XSP16, literal(-4)))
        CFI ?RET_LOW load(1, XDATA, add(CFA_XSP16, literal(-5)))
        CFI R7 load(1, XDATA, add(CFA_XSP16, literal(-6)))
        CFI V0 load(1, XDATA, add(CFA_XSP16, literal(-7)))
        CFI VB load(1, XDATA, add(CFA_XSP16, literal(-8)))
        CFI R6 load(1, XDATA, add(CFA_XSP16, literal(-9)))
        CFI CFA_SP SP+0
        CFI CFA_XSP16 add(XSP16, 9)
        ; Saved register size: 9
        ; Auto size: 1
        MOV     A,#-0x1
        LCALL   ?ALLOC_XSTACK8
        CFI CFA_XSP16 add(XSP16, 10)
//  576   uint8 cmdId = pBuf[MT_RPC_POS_CMD1];
        MOV     DPL,R2
        MOV     DPH,R3
        INC     DPTR
        INC     DPTR
        MOVX    A,@DPTR
        MOV     R6,A
//  577   uint8 retValue = ZFailure;
//  578 
//  579 #if defined(MT_MAC_CB_FUNC) || defined(MT_NWK_CB_FUNC) || defined(MT_ZDO_CB_FUNC) || defined(MT_AF_CB_FUNC) || defined(MT_SAPI_CB_FUNC)
//  580   uint8 subSystem;
//  581   uint16 subscribed_command;
//  582 
//  583   // Move past header
//  584   retValue = ZSuccess;
        MOV     DPL,?XSP + 0
        MOV     DPH,?XSP + 1
        CLR     A
        MOVX    @DPTR,A
//  585   pBuf += MT_RPC_FRAME_HDR_SZ;
        LCALL   ?Subroutine32 & 0xFFFF
//  586 
//  587   /* Command */
//  588   subscribed_command = BUILD_UINT16(pBuf[0], pBuf[1]);
??CrossCallReturnLabel_48:
        MOV     R4,A
        INC     DPTR
        MOVX    A,@DPTR
        MOV     R1,A
        MOV     A,R4
        ADD     A,#0x0
        MOV     R0,A
        CLR     A
        ADDC    A,R1
//  589   pBuf += 2;
//  590 
//  591   /* Subsystem - 5 bits on the MSB of the command */
//  592   subSystem = HI_UINT16(subscribed_command) & 0x1F ;
        ANL     A,#0x1f
        MOV     R7,A
//  593 
//  594   /* What is the action - SUBSCRIBE or !SUBSCRIBE */
//  595   if (*pBuf)
        MOV     DPL,R2
        MOV     DPH,R3
        INC     DPTR
        INC     DPTR
        MOVX    A,@DPTR
        JZ      ??MT_UtilCallbackSub_0
//  596   {
//  597     /* Turn ON */
//  598   #if defined( MT_MAC_CB_FUNC )
//  599     if ((subSystem == MT_RPC_SYS_MAC) || (subscribed_command == 0xFFFF))
//  600       _macCallbackSub = 0xFFFF;
//  601   #endif
//  602 
//  603   #if defined( MT_NWK_CB_FUNC )
//  604     if ((subSystem == MT_RPC_SYS_NWK) || (subscribed_command == 0xFFFF))
//  605       _nwkCallbackSub = 0xFFFF;
//  606   #endif
//  607 
//  608   #if defined( MT_ZDO_CB_FUNC )
//  609     if ((subSystem == MT_RPC_SYS_ZDO) || (subscribed_command == 0xFFFF))
        MOV     A,#0x5
        XRL     A,R7
        JZ      ??MT_UtilCallbackSub_1
        MOV     A,#-0x1
        XRL     A,R0
        JNZ     ??MT_UtilCallbackSub_2
        MOV     A,#-0x1
        XRL     A,R1
??MT_UtilCallbackSub_2:
        JNZ     ??MT_UtilCallbackSub_3
//  610       _zdoCallbackSub = 0xFFFFFFFF;
??MT_UtilCallbackSub_1:
        MOV     DPTR,#__Constant_ffffffff
        LCALL   ?XLOAD_R2345
        MOV     DPTR,#_zdoCallbackSub
        LCALL   ?XSTORE_R2345
//  611   #endif
//  612 
//  613   #if defined( MT_AF_CB_FUNC )
//  614     if ((subSystem == MT_RPC_SYS_AF) || (subscribed_command == 0xFFFF))
//  615       _afCallbackSub = 0xFFFF;
//  616   #endif
//  617 
//  618   #if defined( MT_SAPI_CB_FUNC )
//  619     if ((subSystem == MT_RPC_SYS_SAPI) || (subscribed_command == 0xFFFF))
??MT_UtilCallbackSub_3:
        MOV     A,#0x6
        XRL     A,R7
        JZ      ??MT_UtilCallbackSub_4
        MOV     A,#-0x1
        XRL     A,R0
        JNZ     ??MT_UtilCallbackSub_5
        MOV     A,#-0x1
        XRL     A,R1
??MT_UtilCallbackSub_5:
        JNZ     ??MT_UtilCallbackSub_6
//  620       _sapiCallbackSub = 0xFFFF;
??MT_UtilCallbackSub_4:
        MOV     DPTR,#_sapiCallbackSub
        MOV     A,#-0x1
        SJMP    ??MT_UtilCallbackSub_7
//  621   #endif
//  622   }
//  623   else
//  624   {
//  625     /* Turn OFF */
//  626   #if defined( MT_MAC_CB_FUNC )
//  627     if ((subSystem == MT_RPC_SYS_MAC) || (subscribed_command == 0xFFFF))
//  628       _macCallbackSub = 0x0000;
//  629   #endif
//  630 
//  631   #if defined( MT_NWK_CB_FUNC )
//  632     if ((subSystem == MT_RPC_SYS_NWK) || (subscribed_command == 0xFFFF))
//  633       _nwkCallbackSub = 0x0000;
//  634   #endif
//  635 
//  636   #if defined( MT_ZDO_CB_FUNC )
//  637     if ((subSystem == MT_RPC_SYS_ZDO) || (subscribed_command == 0xFFFF))
??MT_UtilCallbackSub_0:
        MOV     A,#0x5
        XRL     A,R7
        JZ      ??MT_UtilCallbackSub_8
        MOV     A,#-0x1
        XRL     A,R0
        JNZ     ??MT_UtilCallbackSub_9
        MOV     A,#-0x1
        XRL     A,R1
??MT_UtilCallbackSub_9:
        JNZ     ??MT_UtilCallbackSub_10
//  638       _zdoCallbackSub = 0x00000000;
??MT_UtilCallbackSub_8:
        MOV     DPTR,#__Constant_0
        LCALL   ?XLOAD_R2345
        MOV     DPTR,#_zdoCallbackSub
        LCALL   ?XSTORE_R2345
//  639   #endif
//  640 
//  641   #if defined( MT_AF_CB_FUNC )
//  642     if ((subSystem == MT_RPC_SYS_AF) || (subscribed_command == 0xFFFF))
//  643       _afCallbackSub = 0x0000;
//  644   #endif
//  645 
//  646   #if defined( MT_SAPI_CB_FUNC )
//  647     if ((subSystem == MT_RPC_SYS_SAPI) || (subscribed_command == 0xFFFF))
??MT_UtilCallbackSub_10:
        MOV     A,#0x6
        XRL     A,R7
        JZ      ??MT_UtilCallbackSub_11
        MOV     A,#-0x1
        XRL     A,R0
        JNZ     ??MT_UtilCallbackSub_12
        MOV     A,#-0x1
        XRL     A,R1
??MT_UtilCallbackSub_12:
        JNZ     ??MT_UtilCallbackSub_6
//  648         _sapiCallbackSub = 0x0000;
??MT_UtilCallbackSub_11:
        MOV     DPTR,#_sapiCallbackSub
        CLR     A
??MT_UtilCallbackSub_7:
        MOVX    @DPTR,A
        INC     DPTR
        MOVX    @DPTR,A
//  649   #endif
//  650   }
//  651 #endif  // MT_MAC_CB_FUNC || MT_NWK_CB_FUNC || MT_ZDO_CB_FUNC || MT_AF_CB_FUNC || MT_SAPI_CB_FUNC || MT_SAPI_CB_FUNC
//  652 
//  653   /* Build and send back the response */
//  654   MT_BuildAndSendZToolResponse(((uint8)MT_RPC_CMD_SRSP | (uint8)MT_RPC_SYS_UTIL), cmdId, 1, &retValue );
??MT_UtilCallbackSub_6:
        ; Setup parameters for call to function MT_BuildAndSendZToolResponse
        SJMP    ?Subroutine2
        CFI EndBlock cfiBlock58
//  655 }
//  656 
//  657 #if (defined HAL_KEY) && (HAL_KEY == TRUE)
//  658 /***************************************************************************************************
//  659  * @fn      MT_UtilKeyEvent
//  660  *
//  661  * @brief   Process Key Event
//  662  *
//  663  * @param   pBuf - pointer to the data
//  664  *
//  665  * @return  void
//  666  ***************************************************************************************************/

        RSEG BANKED_CODE:CODE:NOROOT(0)
//  667 void MT_UtilKeyEvent(uint8 *pBuf)
MT_UtilKeyEvent:
        CFI Block cfiBlock59 Using cfiCommon0
        CFI Function MT_UtilKeyEvent
        CODE
//  668 {
        FUNCALL MT_UtilKeyEvent, OnBoard_SendKeys
        LOCFRAME ISTACK, 0, STACK
        LOCFRAME PSTACK, 0, STACK
        LOCFRAME XSTACK, 10, STACK
        LOCFRAME IOVERLAY, 0, STATIC
        LOCFRAME DOVERLAY, 0, STATIC
        ARGFRAME ISTACK, 0, STACK
        ARGFRAME PSTACK, 0, STACK
        ARGFRAME XSTACK, 10, STACK
        ARGFRAME IOVERLAY, 0, STATIC
        ARGFRAME DOVERLAY, 0, STATIC
        FUNCALL MT_UtilKeyEvent, MT_BuildAndSendZToolResponse
        LOCFRAME ISTACK, 0, STACK
        LOCFRAME PSTACK, 0, STACK
        LOCFRAME XSTACK, 10, STACK
        LOCFRAME IOVERLAY, 0, STATIC
        LOCFRAME DOVERLAY, 0, STATIC
        ARGFRAME ISTACK, 0, STACK
        ARGFRAME PSTACK, 0, STACK
        ARGFRAME XSTACK, 10, STACK
        ARGFRAME IOVERLAY, 0, STATIC
        ARGFRAME DOVERLAY, 0, STATIC
        MOV     A,#-0x9
        LCALL   ?BANKED_ENTER_XDATA
        CFI DPH0 load(1, XDATA, add(CFA_XSP16, literal(-1)))
        CFI DPL0 load(1, XDATA, add(CFA_XSP16, literal(-2)))
        CFI ?BRET_EXT load(1, XDATA, add(CFA_XSP16, literal(-3)))
        CFI ?RET_HIGH load(1, XDATA, add(CFA_XSP16, literal(-4)))
        CFI ?RET_LOW load(1, XDATA, add(CFA_XSP16, literal(-5)))
        CFI R7 load(1, XDATA, add(CFA_XSP16, literal(-6)))
        CFI V0 load(1, XDATA, add(CFA_XSP16, literal(-7)))
        CFI VB load(1, XDATA, add(CFA_XSP16, literal(-8)))
        CFI R6 load(1, XDATA, add(CFA_XSP16, literal(-9)))
        CFI CFA_SP SP+0
        CFI CFA_XSP16 add(XSP16, 9)
        ; Saved register size: 9
        ; Auto size: 1
        MOV     A,#-0x1
        LCALL   ?ALLOC_XSTACK8
        CFI CFA_XSP16 add(XSP16, 10)
//  669   uint8 x = 0;
        MOV     R1,#0x0
//  670   uint8 retValue = ZFailure;
        LCALL   ?Subroutine7 & 0xFFFF
//  671   uint8 cmdId;
//  672 
//  673   /* parse header */
//  674   cmdId = pBuf[MT_RPC_POS_CMD1];
//  675   pBuf += MT_RPC_FRAME_HDR_SZ;
//  676 
//  677   /* Translate between SPI values to device values */
//  678   if ( *pBuf & 0x01 )
??CrossCallReturnLabel_2:
        MOV     C,0xE0 /* A   */.0
        JNC     ??MT_UtilKeyEvent_0
//  679     x |= HAL_KEY_SW_1;
        INC     R1
//  680   if ( *pBuf & 0x02 )
??MT_UtilKeyEvent_0:
        MOV     C,0xE0 /* A   */.1
        JNC     ??MT_UtilKeyEvent_1
//  681     x |= HAL_KEY_SW_2;
        MOV     A,R1
        SETB    0xE0 /* A   */.1
        MOV     R1,A
//  682   if ( *pBuf & 0x04 )
??MT_UtilKeyEvent_1:
        MOVX    A,@DPTR
        MOV     C,0xE0 /* A   */.2
        JNC     ??MT_UtilKeyEvent_2
//  683     x |= HAL_KEY_SW_3;
        MOV     A,R1
        SETB    0xE0 /* A   */.4
        MOV     R1,A
//  684   if ( *pBuf & 0x08 )
??MT_UtilKeyEvent_2:
        MOVX    A,@DPTR
        MOV     C,0xE0 /* A   */.3
        JNC     ??MT_UtilKeyEvent_3
//  685   x |= HAL_KEY_SW_4;
        MOV     A,R1
        SETB    0xE0 /* A   */.3
        MOV     R1,A
//  686 #if defined ( HAL_KEY_SW_5 )
//  687   if ( *pBuf & 0x10 )
??MT_UtilKeyEvent_3:
        MOVX    A,@DPTR
        MOV     C,0xE0 /* A   */.4
        JNC     ??MT_UtilKeyEvent_4
//  688     x |= HAL_KEY_SW_5;
        MOV     A,R1
        SETB    0xE0 /* A   */.2
        MOV     R1,A
//  689 #endif
//  690 #if defined ( HAL_KEY_SW_6 )
//  691   if ( *pBuf & 0x20 )
??MT_UtilKeyEvent_4:
        MOVX    A,@DPTR
        MOV     C,0xE0 /* A   */.5
        JNC     ??MT_UtilKeyEvent_5
//  692     x |= HAL_KEY_SW_6;
        MOV     A,R1
        SETB    0xE0 /* A   */.5
        MOV     R1,A
//  693 #endif
//  694 #if defined ( HAL_KEY_SW_7 )
//  695   if ( *pBuf & 0x40 )
??MT_UtilKeyEvent_5:
        MOVX    A,@DPTR
        MOV     C,0xE0 /* A   */.6
        JNC     ??MT_UtilKeyEvent_6
//  696     x |= HAL_KEY_SW_7;
        MOV     A,R1
        SETB    0xE0 /* A   */.6
        MOV     R1,A
//  697 #endif
//  698 #if defined ( HAL_KEY_SW_8 )
//  699   if ( *pBuf & 0x80 )
//  700     x |= HAL_KEY_SW_8;
//  701 #endif
//  702   pBuf++;
//  703 
//  704   retValue = OnBoard_SendKeys(x, *pBuf);
??MT_UtilKeyEvent_6:
        ; Setup parameters for call to function OnBoard_SendKeys
        INC     DPTR
        MOVX    A,@DPTR
        MOV     R2,A
        LCALL   ??OnBoard_SendKeys?relay
        MOV     A,R1
        MOV     DPL,?XSP + 0
        MOV     DPH,?XSP + 1
        MOVX    @DPTR,A
//  705 
//  706   /* Build and send back the response */
//  707   MT_BuildAndSendZToolResponse(((uint8)MT_RPC_CMD_SRSP | (uint8)MT_RPC_SYS_UTIL), cmdId, 1, &retValue );
        ; Setup parameters for call to function MT_BuildAndSendZToolResponse
        SJMP    ??Subroutine44_0
        CFI EndBlock cfiBlock59
//  708 }

        RSEG BANKED_CODE:CODE:NOROOT(0)
?Subroutine7:
        CFI Block cfiCond60 Using cfiCommon0
        CFI NoFunction
        CFI Conditional ??CrossCallReturnLabel_0
        CFI R6 load(1, XDATA, add(CFA_XSP16, literal(-10)))
        CFI VB load(1, XDATA, add(CFA_XSP16, literal(-9)))
        CFI V0 load(1, XDATA, add(CFA_XSP16, literal(-8)))
        CFI V1 load(1, XDATA, add(CFA_XSP16, literal(-7)))
        CFI R7 load(1, XDATA, add(CFA_XSP16, literal(-6)))
        CFI ?RET_LOW load(1, XDATA, add(CFA_XSP16, literal(-5)))
        CFI ?RET_HIGH load(1, XDATA, add(CFA_XSP16, literal(-4)))
        CFI ?BRET_EXT load(1, XDATA, add(CFA_XSP16, literal(-3)))
        CFI DPL0 load(1, XDATA, add(CFA_XSP16, literal(-2)))
        CFI DPH0 load(1, XDATA, add(CFA_XSP16, literal(-1)))
        CFI CFA_SP SP+0
        CFI CFA_XSP16 add(XSP16, 13)
        CFI Block cfiCond61 Using cfiCommon0
        CFI (cfiCond61) NoFunction
        CFI (cfiCond61) Conditional ??CrossCallReturnLabel_1
        CFI (cfiCond61) R6 load(1, XDATA, add(CFA_XSP16, literal(-16)))
        CFI (cfiCond61) VB load(1, XDATA, add(CFA_XSP16, literal(-15)))
        CFI (cfiCond61) V0 load(1, XDATA, add(CFA_XSP16, literal(-14)))
        CFI (cfiCond61) V1 load(1, XDATA, add(CFA_XSP16, literal(-13)))
        CFI (cfiCond61) V2 load(1, XDATA, add(CFA_XSP16, literal(-12)))
        CFI (cfiCond61) V3 load(1, XDATA, add(CFA_XSP16, literal(-11)))
        CFI (cfiCond61) V4 load(1, XDATA, add(CFA_XSP16, literal(-10)))
        CFI (cfiCond61) V5 load(1, XDATA, add(CFA_XSP16, literal(-9)))
        CFI (cfiCond61) V6 load(1, XDATA, add(CFA_XSP16, literal(-8)))
        CFI (cfiCond61) V7 load(1, XDATA, add(CFA_XSP16, literal(-7)))
        CFI (cfiCond61) R7 load(1, XDATA, add(CFA_XSP16, literal(-6)))
        CFI (cfiCond61) ?RET_LOW load(1, XDATA, add(CFA_XSP16, literal(-5)))
        CFI (cfiCond61) ?RET_HIGH load(1, XDATA, add(CFA_XSP16, literal(-4)))
        CFI (cfiCond61) ?BRET_EXT load(1, XDATA, add(CFA_XSP16, literal(-3)))
        CFI (cfiCond61) DPL0 load(1, XDATA, add(CFA_XSP16, literal(-2)))
        CFI (cfiCond61) DPH0 load(1, XDATA, add(CFA_XSP16, literal(-1)))
        CFI (cfiCond61) CFA_SP SP+0
        CFI (cfiCond61) CFA_XSP16 add(XSP16, 21)
        CFI Block cfiCond62 Using cfiCommon0
        CFI (cfiCond62) NoFunction
        CFI (cfiCond62) Conditional ??CrossCallReturnLabel_2
        CFI (cfiCond62) R6 load(1, XDATA, add(CFA_XSP16, literal(-9)))
        CFI (cfiCond62) VB load(1, XDATA, add(CFA_XSP16, literal(-8)))
        CFI (cfiCond62) V0 load(1, XDATA, add(CFA_XSP16, literal(-7)))
        CFI (cfiCond62) R7 load(1, XDATA, add(CFA_XSP16, literal(-6)))
        CFI (cfiCond62) ?RET_LOW load(1, XDATA, add(CFA_XSP16, literal(-5)))
        CFI (cfiCond62) ?RET_HIGH load(1, XDATA, add(CFA_XSP16, literal(-4)))
        CFI (cfiCond62) ?BRET_EXT load(1, XDATA, add(CFA_XSP16, literal(-3)))
        CFI (cfiCond62) DPL0 load(1, XDATA, add(CFA_XSP16, literal(-2)))
        CFI (cfiCond62) DPH0 load(1, XDATA, add(CFA_XSP16, literal(-1)))
        CFI (cfiCond62) CFA_SP SP+0
        CFI (cfiCond62) CFA_XSP16 add(XSP16, 10)
        CFI Block cfiCond63 Using cfiCommon0
        CFI (cfiCond63) NoFunction
        CFI (cfiCond63) Conditional ??CrossCallReturnLabel_3
        CFI (cfiCond63) R6 load(1, XDATA, add(CFA_XSP16, literal(-9)))
        CFI (cfiCond63) VB load(1, XDATA, add(CFA_XSP16, literal(-8)))
        CFI (cfiCond63) V0 load(1, XDATA, add(CFA_XSP16, literal(-7)))
        CFI (cfiCond63) R7 load(1, XDATA, add(CFA_XSP16, literal(-6)))
        CFI (cfiCond63) ?RET_LOW load(1, XDATA, add(CFA_XSP16, literal(-5)))
        CFI (cfiCond63) ?RET_HIGH load(1, XDATA, add(CFA_XSP16, literal(-4)))
        CFI (cfiCond63) ?BRET_EXT load(1, XDATA, add(CFA_XSP16, literal(-3)))
        CFI (cfiCond63) DPL0 load(1, XDATA, add(CFA_XSP16, literal(-2)))
        CFI (cfiCond63) DPH0 load(1, XDATA, add(CFA_XSP16, literal(-1)))
        CFI (cfiCond63) CFA_SP SP+0
        CFI (cfiCond63) CFA_XSP16 add(XSP16, 10)
        CFI Block cfiPicker64 Using cfiCommon1
        CFI (cfiPicker64) NoFunction
        CFI (cfiPicker64) Picker
        LCALL   ?Subroutine36 & 0xFFFF
??CrossCallReturnLabel_57:
        LCALL   ?Subroutine32 & 0xFFFF
??CrossCallReturnLabel_49:
        RET
        CFI EndBlock cfiCond60
        CFI EndBlock cfiCond61
        CFI EndBlock cfiCond62
        CFI EndBlock cfiCond63
        CFI EndBlock cfiPicker64

        RSEG BANKED_CODE:CODE:NOROOT(0)
?Subroutine36:
        CFI Block cfiCond65 Using cfiCommon0
        CFI NoFunction
        CFI Conditional ??CrossCallReturnLabel_56, ??CrossCallReturnLabel_16
        CFI R6 load(1, XDATA, add(CFA_XSP16, literal(-10)))
        CFI VB load(1, XDATA, add(CFA_XSP16, literal(-9)))
        CFI V0 load(1, XDATA, add(CFA_XSP16, literal(-8)))
        CFI V1 load(1, XDATA, add(CFA_XSP16, literal(-7)))
        CFI R7 load(1, XDATA, add(CFA_XSP16, literal(-6)))
        CFI ?RET_LOW load(1, XDATA, add(CFA_XSP16, literal(-5)))
        CFI ?RET_HIGH load(1, XDATA, add(CFA_XSP16, literal(-4)))
        CFI ?BRET_EXT load(1, XDATA, add(CFA_XSP16, literal(-3)))
        CFI DPL0 load(1, XDATA, add(CFA_XSP16, literal(-2)))
        CFI DPH0 load(1, XDATA, add(CFA_XSP16, literal(-1)))
        CFI CFA_SP SP+0
        CFI CFA_XSP16 add(XSP16, 11)
        CFI Block cfiCond66 Using cfiCommon0
        CFI (cfiCond66) NoFunction
        CFI (cfiCond66) Conditional ??CrossCallReturnLabel_56, ??CrossCallReturnLabel_17
        CFI (cfiCond66) R6 load(1, XDATA, add(CFA_XSP16, literal(-10)))
        CFI (cfiCond66) VB load(1, XDATA, add(CFA_XSP16, literal(-9)))
        CFI (cfiCond66) V0 load(1, XDATA, add(CFA_XSP16, literal(-8)))
        CFI (cfiCond66) V1 load(1, XDATA, add(CFA_XSP16, literal(-7)))
        CFI (cfiCond66) R7 load(1, XDATA, add(CFA_XSP16, literal(-6)))
        CFI (cfiCond66) ?RET_LOW load(1, XDATA, add(CFA_XSP16, literal(-5)))
        CFI (cfiCond66) ?RET_HIGH load(1, XDATA, add(CFA_XSP16, literal(-4)))
        CFI (cfiCond66) ?BRET_EXT load(1, XDATA, add(CFA_XSP16, literal(-3)))
        CFI (cfiCond66) DPL0 load(1, XDATA, add(CFA_XSP16, literal(-2)))
        CFI (cfiCond66) DPH0 load(1, XDATA, add(CFA_XSP16, literal(-1)))
        CFI (cfiCond66) CFA_SP SP+0
        CFI (cfiCond66) CFA_XSP16 add(XSP16, 11)
        CFI Block cfiCond67 Using cfiCommon0
        CFI (cfiCond67) NoFunction
        CFI (cfiCond67) Conditional ??CrossCallReturnLabel_57, ??CrossCallReturnLabel_0
        CFI (cfiCond67) R6 load(1, XDATA, add(CFA_XSP16, literal(-10)))
        CFI (cfiCond67) VB load(1, XDATA, add(CFA_XSP16, literal(-9)))
        CFI (cfiCond67) V0 load(1, XDATA, add(CFA_XSP16, literal(-8)))
        CFI (cfiCond67) V1 load(1, XDATA, add(CFA_XSP16, literal(-7)))
        CFI (cfiCond67) R7 load(1, XDATA, add(CFA_XSP16, literal(-6)))
        CFI (cfiCond67) ?RET_LOW load(1, XDATA, add(CFA_XSP16, literal(-5)))
        CFI (cfiCond67) ?RET_HIGH load(1, XDATA, add(CFA_XSP16, literal(-4)))
        CFI (cfiCond67) ?BRET_EXT load(1, XDATA, add(CFA_XSP16, literal(-3)))
        CFI (cfiCond67) DPL0 load(1, XDATA, add(CFA_XSP16, literal(-2)))
        CFI (cfiCond67) DPH0 load(1, XDATA, add(CFA_XSP16, literal(-1)))
        CFI (cfiCond67) CFA_SP SP+0
        CFI (cfiCond67) CFA_XSP16 add(XSP16, 13)
        CFI Block cfiCond68 Using cfiCommon0
        CFI (cfiCond68) NoFunction
        CFI (cfiCond68) Conditional ??CrossCallReturnLabel_57, ??CrossCallReturnLabel_1
        CFI (cfiCond68) R6 load(1, XDATA, add(CFA_XSP16, literal(-16)))
        CFI (cfiCond68) VB load(1, XDATA, add(CFA_XSP16, literal(-15)))
        CFI (cfiCond68) V0 load(1, XDATA, add(CFA_XSP16, literal(-14)))
        CFI (cfiCond68) V1 load(1, XDATA, add(CFA_XSP16, literal(-13)))
        CFI (cfiCond68) V2 load(1, XDATA, add(CFA_XSP16, literal(-12)))
        CFI (cfiCond68) V3 load(1, XDATA, add(CFA_XSP16, literal(-11)))
        CFI (cfiCond68) V4 load(1, XDATA, add(CFA_XSP16, literal(-10)))
        CFI (cfiCond68) V5 load(1, XDATA, add(CFA_XSP16, literal(-9)))
        CFI (cfiCond68) V6 load(1, XDATA, add(CFA_XSP16, literal(-8)))
        CFI (cfiCond68) V7 load(1, XDATA, add(CFA_XSP16, literal(-7)))
        CFI (cfiCond68) R7 load(1, XDATA, add(CFA_XSP16, literal(-6)))
        CFI (cfiCond68) ?RET_LOW load(1, XDATA, add(CFA_XSP16, literal(-5)))
        CFI (cfiCond68) ?RET_HIGH load(1, XDATA, add(CFA_XSP16, literal(-4)))
        CFI (cfiCond68) ?BRET_EXT load(1, XDATA, add(CFA_XSP16, literal(-3)))
        CFI (cfiCond68) DPL0 load(1, XDATA, add(CFA_XSP16, literal(-2)))
        CFI (cfiCond68) DPH0 load(1, XDATA, add(CFA_XSP16, literal(-1)))
        CFI (cfiCond68) CFA_SP SP+0
        CFI (cfiCond68) CFA_XSP16 add(XSP16, 21)
        CFI Block cfiCond69 Using cfiCommon0
        CFI (cfiCond69) NoFunction
        CFI (cfiCond69) Conditional ??CrossCallReturnLabel_57, ??CrossCallReturnLabel_2
        CFI (cfiCond69) R6 load(1, XDATA, add(CFA_XSP16, literal(-9)))
        CFI (cfiCond69) VB load(1, XDATA, add(CFA_XSP16, literal(-8)))
        CFI (cfiCond69) V0 load(1, XDATA, add(CFA_XSP16, literal(-7)))
        CFI (cfiCond69) R7 load(1, XDATA, add(CFA_XSP16, literal(-6)))
        CFI (cfiCond69) ?RET_LOW load(1, XDATA, add(CFA_XSP16, literal(-5)))
        CFI (cfiCond69) ?RET_HIGH load(1, XDATA, add(CFA_XSP16, literal(-4)))
        CFI (cfiCond69) ?BRET_EXT load(1, XDATA, add(CFA_XSP16, literal(-3)))
        CFI (cfiCond69) DPL0 load(1, XDATA, add(CFA_XSP16, literal(-2)))
        CFI (cfiCond69) DPH0 load(1, XDATA, add(CFA_XSP16, literal(-1)))
        CFI (cfiCond69) CFA_SP SP+0
        CFI (cfiCond69) CFA_XSP16 add(XSP16, 10)
        CFI Block cfiCond70 Using cfiCommon0
        CFI (cfiCond70) NoFunction
        CFI (cfiCond70) Conditional ??CrossCallReturnLabel_57, ??CrossCallReturnLabel_3
        CFI (cfiCond70) R6 load(1, XDATA, add(CFA_XSP16, literal(-9)))
        CFI (cfiCond70) VB load(1, XDATA, add(CFA_XSP16, literal(-8)))
        CFI (cfiCond70) V0 load(1, XDATA, add(CFA_XSP16, literal(-7)))
        CFI (cfiCond70) R7 load(1, XDATA, add(CFA_XSP16, literal(-6)))
        CFI (cfiCond70) ?RET_LOW load(1, XDATA, add(CFA_XSP16, literal(-5)))
        CFI (cfiCond70) ?RET_HIGH load(1, XDATA, add(CFA_XSP16, literal(-4)))
        CFI (cfiCond70) ?BRET_EXT load(1, XDATA, add(CFA_XSP16, literal(-3)))
        CFI (cfiCond70) DPL0 load(1, XDATA, add(CFA_XSP16, literal(-2)))
        CFI (cfiCond70) DPH0 load(1, XDATA, add(CFA_XSP16, literal(-1)))
        CFI (cfiCond70) CFA_SP SP+0
        CFI (cfiCond70) CFA_XSP16 add(XSP16, 10)
        CFI Block cfiPicker71 Using cfiCommon1
        CFI (cfiPicker71) NoFunction
        CFI (cfiPicker71) Picker
        MOV     DPL,?XSP + 0
        MOV     DPH,?XSP + 1
        MOV     A,#0x1
        LCALL   ?Subroutine39 & 0xFFFF
??CrossCallReturnLabel_60:
        MOV     R6,A
        RET
        CFI EndBlock cfiCond65
        CFI EndBlock cfiCond66
        CFI EndBlock cfiCond67
        CFI EndBlock cfiCond68
        CFI EndBlock cfiCond69
        CFI EndBlock cfiCond70
        CFI EndBlock cfiPicker71

        RSEG BANKED_CODE:CODE:NOROOT(0)
?Subroutine32:
        CFI Block cfiCond72 Using cfiCommon0
        CFI NoFunction
        CFI Conditional ??CrossCallReturnLabel_48
        CFI R6 load(1, XDATA, add(CFA_XSP16, literal(-9)))
        CFI VB load(1, XDATA, add(CFA_XSP16, literal(-8)))
        CFI V0 load(1, XDATA, add(CFA_XSP16, literal(-7)))
        CFI R7 load(1, XDATA, add(CFA_XSP16, literal(-6)))
        CFI ?RET_LOW load(1, XDATA, add(CFA_XSP16, literal(-5)))
        CFI ?RET_HIGH load(1, XDATA, add(CFA_XSP16, literal(-4)))
        CFI ?BRET_EXT load(1, XDATA, add(CFA_XSP16, literal(-3)))
        CFI DPL0 load(1, XDATA, add(CFA_XSP16, literal(-2)))
        CFI DPH0 load(1, XDATA, add(CFA_XSP16, literal(-1)))
        CFI CFA_SP SP+0
        CFI CFA_XSP16 add(XSP16, 10)
        CFI Block cfiCond73 Using cfiCommon0
        CFI (cfiCond73) NoFunction
        CFI (cfiCond73) Conditional ??CrossCallReturnLabel_49, ??CrossCallReturnLabel_0
        CFI (cfiCond73) R6 load(1, XDATA, add(CFA_XSP16, literal(-10)))
        CFI (cfiCond73) VB load(1, XDATA, add(CFA_XSP16, literal(-9)))
        CFI (cfiCond73) V0 load(1, XDATA, add(CFA_XSP16, literal(-8)))
        CFI (cfiCond73) V1 load(1, XDATA, add(CFA_XSP16, literal(-7)))
        CFI (cfiCond73) R7 load(1, XDATA, add(CFA_XSP16, literal(-6)))
        CFI (cfiCond73) ?RET_LOW load(1, XDATA, add(CFA_XSP16, literal(-5)))
        CFI (cfiCond73) ?RET_HIGH load(1, XDATA, add(CFA_XSP16, literal(-4)))
        CFI (cfiCond73) ?BRET_EXT load(1, XDATA, add(CFA_XSP16, literal(-3)))
        CFI (cfiCond73) DPL0 load(1, XDATA, add(CFA_XSP16, literal(-2)))
        CFI (cfiCond73) DPH0 load(1, XDATA, add(CFA_XSP16, literal(-1)))
        CFI (cfiCond73) CFA_SP SP+0
        CFI (cfiCond73) CFA_XSP16 add(XSP16, 13)
        CFI Block cfiCond74 Using cfiCommon0
        CFI (cfiCond74) NoFunction
        CFI (cfiCond74) Conditional ??CrossCallReturnLabel_49, ??CrossCallReturnLabel_1
        CFI (cfiCond74) R6 load(1, XDATA, add(CFA_XSP16, literal(-16)))
        CFI (cfiCond74) VB load(1, XDATA, add(CFA_XSP16, literal(-15)))
        CFI (cfiCond74) V0 load(1, XDATA, add(CFA_XSP16, literal(-14)))
        CFI (cfiCond74) V1 load(1, XDATA, add(CFA_XSP16, literal(-13)))
        CFI (cfiCond74) V2 load(1, XDATA, add(CFA_XSP16, literal(-12)))
        CFI (cfiCond74) V3 load(1, XDATA, add(CFA_XSP16, literal(-11)))
        CFI (cfiCond74) V4 load(1, XDATA, add(CFA_XSP16, literal(-10)))
        CFI (cfiCond74) V5 load(1, XDATA, add(CFA_XSP16, literal(-9)))
        CFI (cfiCond74) V6 load(1, XDATA, add(CFA_XSP16, literal(-8)))
        CFI (cfiCond74) V7 load(1, XDATA, add(CFA_XSP16, literal(-7)))
        CFI (cfiCond74) R7 load(1, XDATA, add(CFA_XSP16, literal(-6)))
        CFI (cfiCond74) ?RET_LOW load(1, XDATA, add(CFA_XSP16, literal(-5)))
        CFI (cfiCond74) ?RET_HIGH load(1, XDATA, add(CFA_XSP16, literal(-4)))
        CFI (cfiCond74) ?BRET_EXT load(1, XDATA, add(CFA_XSP16, literal(-3)))
        CFI (cfiCond74) DPL0 load(1, XDATA, add(CFA_XSP16, literal(-2)))
        CFI (cfiCond74) DPH0 load(1, XDATA, add(CFA_XSP16, literal(-1)))
        CFI (cfiCond74) CFA_SP SP+0
        CFI (cfiCond74) CFA_XSP16 add(XSP16, 21)
        CFI Block cfiCond75 Using cfiCommon0
        CFI (cfiCond75) NoFunction
        CFI (cfiCond75) Conditional ??CrossCallReturnLabel_49, ??CrossCallReturnLabel_2
        CFI (cfiCond75) R6 load(1, XDATA, add(CFA_XSP16, literal(-9)))
        CFI (cfiCond75) VB load(1, XDATA, add(CFA_XSP16, literal(-8)))
        CFI (cfiCond75) V0 load(1, XDATA, add(CFA_XSP16, literal(-7)))
        CFI (cfiCond75) R7 load(1, XDATA, add(CFA_XSP16, literal(-6)))
        CFI (cfiCond75) ?RET_LOW load(1, XDATA, add(CFA_XSP16, literal(-5)))
        CFI (cfiCond75) ?RET_HIGH load(1, XDATA, add(CFA_XSP16, literal(-4)))
        CFI (cfiCond75) ?BRET_EXT load(1, XDATA, add(CFA_XSP16, literal(-3)))
        CFI (cfiCond75) DPL0 load(1, XDATA, add(CFA_XSP16, literal(-2)))
        CFI (cfiCond75) DPH0 load(1, XDATA, add(CFA_XSP16, literal(-1)))
        CFI (cfiCond75) CFA_SP SP+0
        CFI (cfiCond75) CFA_XSP16 add(XSP16, 10)
        CFI Block cfiCond76 Using cfiCommon0
        CFI (cfiCond76) NoFunction
        CFI (cfiCond76) Conditional ??CrossCallReturnLabel_49, ??CrossCallReturnLabel_3
        CFI (cfiCond76) R6 load(1, XDATA, add(CFA_XSP16, literal(-9)))
        CFI (cfiCond76) VB load(1, XDATA, add(CFA_XSP16, literal(-8)))
        CFI (cfiCond76) V0 load(1, XDATA, add(CFA_XSP16, literal(-7)))
        CFI (cfiCond76) R7 load(1, XDATA, add(CFA_XSP16, literal(-6)))
        CFI (cfiCond76) ?RET_LOW load(1, XDATA, add(CFA_XSP16, literal(-5)))
        CFI (cfiCond76) ?RET_HIGH load(1, XDATA, add(CFA_XSP16, literal(-4)))
        CFI (cfiCond76) ?BRET_EXT load(1, XDATA, add(CFA_XSP16, literal(-3)))
        CFI (cfiCond76) DPL0 load(1, XDATA, add(CFA_XSP16, literal(-2)))
        CFI (cfiCond76) DPH0 load(1, XDATA, add(CFA_XSP16, literal(-1)))
        CFI (cfiCond76) CFA_SP SP+0
        CFI (cfiCond76) CFA_XSP16 add(XSP16, 10)
        CFI Block cfiPicker77 Using cfiCommon1
        CFI (cfiPicker77) NoFunction
        CFI (cfiPicker77) Picker
        MOV     A,R2
        ADD     A,#0x3
        INC     R2
        INC     R2
        INC     R2
        MOV     A,R3
        ADDC    A,#0x0
        MOV     R3,A
        MOV     DPL,R2
        MOV     DPH,R3
        MOVX    A,@DPTR
        RET
        CFI EndBlock cfiCond72
        CFI EndBlock cfiCond73
        CFI EndBlock cfiCond74
        CFI EndBlock cfiCond75
        CFI EndBlock cfiCond76
        CFI EndBlock cfiPicker77

        RSEG BANKED_CODE:CODE:NOROOT(0)
?Subroutine2:
        CFI Block cfiBlock78 Using cfiCommon0
        CFI NoFunction
        CFI CFA_SP SP+0
        CFI CFA_XSP16 add(XSP16, 10)
        CFI VB load(1, XDATA, add(CFA_XSP16, literal(-8)))
        CFI DPL0 load(1, XDATA, add(CFA_XSP16, literal(-2)))
        CFI DPH0 load(1, XDATA, add(CFA_XSP16, literal(-1)))
        CFI R6 load(1, XDATA, add(CFA_XSP16, literal(-9)))
        CFI R7 load(1, XDATA, add(CFA_XSP16, literal(-6)))
        CFI V0 load(1, XDATA, add(CFA_XSP16, literal(-7)))
        CFI ?BRET_EXT load(1, XDATA, add(CFA_XSP16, literal(-3)))
        CFI ?RET_HIGH load(1, XDATA, add(CFA_XSP16, literal(-4)))
        CFI ?RET_LOW load(1, XDATA, add(CFA_XSP16, literal(-5)))
        MOV     DPL,?XSP + 0
        MOV     DPH,?XSP + 1
        CFI EndBlock cfiBlock78
        REQUIRE ??Subroutine44_0
        ; // Fall through to label ??Subroutine44_0

        RSEG BANKED_CODE:CODE:NOROOT(0)
??Subroutine44_0:
        CFI Block cfiBlock79 Using cfiCommon0
        CFI NoFunction
        CFI CFA_SP SP+0
        CFI CFA_XSP16 add(XSP16, 10)
        CFI VB load(1, XDATA, add(CFA_XSP16, literal(-8)))
        CFI DPL0 load(1, XDATA, add(CFA_XSP16, literal(-2)))
        CFI DPH0 load(1, XDATA, add(CFA_XSP16, literal(-1)))
        CFI R6 load(1, XDATA, add(CFA_XSP16, literal(-9)))
        CFI R7 load(1, XDATA, add(CFA_XSP16, literal(-6)))
        CFI V0 load(1, XDATA, add(CFA_XSP16, literal(-7)))
        CFI ?BRET_EXT load(1, XDATA, add(CFA_XSP16, literal(-3)))
        CFI ?RET_HIGH load(1, XDATA, add(CFA_XSP16, literal(-4)))
        CFI ?RET_LOW load(1, XDATA, add(CFA_XSP16, literal(-5)))
        MOV     R4,DPL
        MOV     R5,DPH
        MOV     R3,#0x1
        MOV     A,R6
        MOV     R2,A
        MOV     R1,#0x67
        LCALL   ??MT_BuildAndSendZToolResponse?relay
        MOV     A,#0x1
        CFI EndBlock cfiBlock79
        REQUIRE ??Subroutine45_0
        ; // Fall through to label ??Subroutine45_0

        RSEG BANKED_CODE:CODE:NOROOT(0)
??Subroutine45_0:
        CFI Block cfiBlock80 Using cfiCommon0
        CFI NoFunction
        CFI CFA_SP SP+0
        CFI CFA_XSP16 add(XSP16, 27)
        CFI VB load(1, XDATA, add(CFA_XSP16, literal(-8)))
        CFI DPL0 load(1, XDATA, add(CFA_XSP16, literal(-2)))
        CFI DPH0 load(1, XDATA, add(CFA_XSP16, literal(-1)))
        CFI R6 load(1, XDATA, add(CFA_XSP16, literal(-9)))
        CFI R7 load(1, XDATA, add(CFA_XSP16, literal(-6)))
        CFI V0 load(1, XDATA, add(CFA_XSP16, literal(-7)))
        CFI ?BRET_EXT load(1, XDATA, add(CFA_XSP16, literal(-3)))
        CFI ?RET_HIGH load(1, XDATA, add(CFA_XSP16, literal(-4)))
        CFI ?RET_LOW load(1, XDATA, add(CFA_XSP16, literal(-5)))
        CFI Invalid
        LCALL   ?DEALLOC_XSTACK8
        CFI CFA_XSP16 add(XSP16, 9)
        CFI Valid
        MOV     R7,#0x1
        LJMP    ?BANKED_LEAVE_XDATA
        CFI EndBlock cfiBlock80
//  709 #endif
//  710 
//  711 /***************************************************************************************************
//  712  * @fn      MT_UtilTimeAlive
//  713  *
//  714  * @brief   Process Time Alive
//  715  *
//  716  * @param   None.
//  717  *
//  718  * @return  None
//  719  ***************************************************************************************************/

        RSEG BANKED_CODE:CODE:NOROOT(0)
//  720 void MT_UtilTimeAlive(void)
MT_UtilTimeAlive:
        CFI Block cfiBlock81 Using cfiCommon0
        CFI Function MT_UtilTimeAlive
        CODE
//  721 {
        FUNCALL MT_UtilTimeAlive, osal_GetSystemClock
        LOCFRAME ISTACK, 0, STACK
        LOCFRAME PSTACK, 0, STACK
        LOCFRAME XSTACK, 20, STACK
        LOCFRAME IOVERLAY, 0, STATIC
        LOCFRAME DOVERLAY, 0, STATIC
        ARGFRAME ISTACK, 0, STACK
        ARGFRAME PSTACK, 0, STACK
        ARGFRAME XSTACK, 20, STACK
        ARGFRAME IOVERLAY, 0, STATIC
        ARGFRAME DOVERLAY, 0, STATIC
        FUNCALL MT_UtilTimeAlive, MT_BuildAndSendZToolResponse
        LOCFRAME ISTACK, 0, STACK
        LOCFRAME PSTACK, 0, STACK
        LOCFRAME XSTACK, 20, STACK
        LOCFRAME IOVERLAY, 0, STATIC
        LOCFRAME DOVERLAY, 0, STATIC
        ARGFRAME ISTACK, 0, STACK
        ARGFRAME PSTACK, 0, STACK
        ARGFRAME XSTACK, 20, STACK
        ARGFRAME IOVERLAY, 0, STATIC
        ARGFRAME DOVERLAY, 0, STATIC
        MOV     A,#-0x10
        LCALL   ?BANKED_ENTER_XDATA
        CFI DPH0 load(1, XDATA, add(CFA_XSP16, literal(-1)))
        CFI DPL0 load(1, XDATA, add(CFA_XSP16, literal(-2)))
        CFI ?BRET_EXT load(1, XDATA, add(CFA_XSP16, literal(-3)))
        CFI ?RET_HIGH load(1, XDATA, add(CFA_XSP16, literal(-4)))
        CFI ?RET_LOW load(1, XDATA, add(CFA_XSP16, literal(-5)))
        CFI R7 load(1, XDATA, add(CFA_XSP16, literal(-6)))
        CFI V7 load(1, XDATA, add(CFA_XSP16, literal(-7)))
        CFI V6 load(1, XDATA, add(CFA_XSP16, literal(-8)))
        CFI V5 load(1, XDATA, add(CFA_XSP16, literal(-9)))
        CFI V4 load(1, XDATA, add(CFA_XSP16, literal(-10)))
        CFI V3 load(1, XDATA, add(CFA_XSP16, literal(-11)))
        CFI V2 load(1, XDATA, add(CFA_XSP16, literal(-12)))
        CFI V1 load(1, XDATA, add(CFA_XSP16, literal(-13)))
        CFI V0 load(1, XDATA, add(CFA_XSP16, literal(-14)))
        CFI VB load(1, XDATA, add(CFA_XSP16, literal(-15)))
        CFI R6 load(1, XDATA, add(CFA_XSP16, literal(-16)))
        CFI CFA_SP SP+0
        CFI CFA_XSP16 add(XSP16, 16)
        ; Saved register size: 16
        ; Auto size: 4
        MOV     A,#-0x4
        LCALL   ?ALLOC_XSTACK8
        CFI CFA_XSP16 add(XSP16, 20)
//  722   uint8 timeAlive[4];
//  723   uint32 tmp32;
//  724 
//  725   /* Time since last reset (seconds) */
//  726   tmp32 = osal_GetSystemClock() / 1000;
        ; Setup parameters for call to function osal_GetSystemClock
        LCALL   ??osal_GetSystemClock?relay
        MOV     ?V0 + 4,R2
        MOV     ?V0 + 5,R3
        MOV     ?V0 + 6,R4
        MOV     ?V0 + 7,R5
        MOV     DPTR,#__Constant_3e8
        MOV     R0,#?V0 + 0
        LCALL   ?L_MOV_X
        MOV     R0,#?V0 + 4
        MOV     R1,#?V0 + 0
        LCALL   ?UL_DIV_MOD
//  727 
//  728   /* Convert to high byte first into temp buffer */
//  729   timeAlive[0] = BREAK_UINT32(tmp32, 0);
        MOV     DPL,?XSP + 0
        MOV     DPH,?XSP + 1
        MOV     A,?V0 + 4
        MOVX    @DPTR,A
//  730   timeAlive[1] = BREAK_UINT32(tmp32, 1);
        MOV     ?V0 + 1,?V0 + 5
        MOV     A,?V0 + 1
        MOV     ?V0 + 0,A
        MOV     A,#0x1
        LCALL   ?XSTACK_DISP0_8
        MOV     A,?V0 + 0
        MOVX    @DPTR,A
//  731   timeAlive[2] = BREAK_UINT32(tmp32, 2);
        MOV     ?V0 + 0,?V0 + 4
        MOV     ?V0 + 2,?V0 + 6
        MOV     ?V0 + 3,?V0 + 7
        MOV     A,#0x10
        MOV     R0,#?V0 + 0
        LCALL   ?UL_SHR
        MOV     A,#0x2
        LCALL   ?XSTACK_DISP0_8
        MOV     A,?V0 + 0
        MOVX    @DPTR,A
//  732   timeAlive[3] = BREAK_UINT32(tmp32, 3);
        MOV     A,#0x18
        MOV     R0,#?V0 + 4
        LCALL   ?UL_SHR
        MOV     A,#0x3
        LCALL   ?XSTACK_DISP0_8
        MOV     A,?V0 + 4
        LCALL   ?Subroutine25 & 0xFFFF
//  733 
//  734   /* Build and send back the response */
//  735   MT_BuildAndSendZToolResponse(((uint8)MT_RPC_CMD_SRSP | (uint8)MT_RPC_SYS_UTIL),
//  736                                        MT_UTIL_TIME_ALIVE, sizeof(timeAlive), timeAlive);
??CrossCallReturnLabel_33:
        MOV     R3,#0x4
        MOV     R2,#0x9
        MOV     R1,#0x67
        LCALL   ??MT_BuildAndSendZToolResponse?relay
//  737 }
        MOV     A,#0x4
        LJMP    ?Subroutine0 & 0xFFFF
        CFI EndBlock cfiBlock81
//  738 
//  739 #if (defined HAL_LED) && (HAL_LED == TRUE)
//  740 /***************************************************************************************************
//  741  * @fn      MT_UtilLedControl
//  742  *
//  743  * @brief   Process the LED Control Message
//  744  *
//  745  * @param   pBuf - pointer to the received data
//  746  *
//  747  * @return  None
//  748  ***************************************************************************************************/

        RSEG BANKED_CODE:CODE:NOROOT(0)
//  749 void MT_UtilLedControl(uint8 *pBuf)
MT_UtilLedControl:
        CFI Block cfiBlock82 Using cfiCommon0
        CFI Function MT_UtilLedControl
        CODE
//  750 {
        FUNCALL MT_UtilLedControl, HalLedSet
        LOCFRAME ISTACK, 0, STACK
        LOCFRAME PSTACK, 0, STACK
        LOCFRAME XSTACK, 10, STACK
        LOCFRAME IOVERLAY, 0, STATIC
        LOCFRAME DOVERLAY, 0, STATIC
        ARGFRAME ISTACK, 0, STACK
        ARGFRAME PSTACK, 0, STACK
        ARGFRAME XSTACK, 10, STACK
        ARGFRAME IOVERLAY, 0, STATIC
        ARGFRAME DOVERLAY, 0, STATIC
        FUNCALL MT_UtilLedControl, MT_BuildAndSendZToolResponse
        LOCFRAME ISTACK, 0, STACK
        LOCFRAME PSTACK, 0, STACK
        LOCFRAME XSTACK, 10, STACK
        LOCFRAME IOVERLAY, 0, STATIC
        LOCFRAME DOVERLAY, 0, STATIC
        ARGFRAME ISTACK, 0, STACK
        ARGFRAME PSTACK, 0, STACK
        ARGFRAME XSTACK, 10, STACK
        ARGFRAME IOVERLAY, 0, STATIC
        ARGFRAME DOVERLAY, 0, STATIC
        MOV     A,#-0x9
        LCALL   ?BANKED_ENTER_XDATA
        CFI DPH0 load(1, XDATA, add(CFA_XSP16, literal(-1)))
        CFI DPL0 load(1, XDATA, add(CFA_XSP16, literal(-2)))
        CFI ?BRET_EXT load(1, XDATA, add(CFA_XSP16, literal(-3)))
        CFI ?RET_HIGH load(1, XDATA, add(CFA_XSP16, literal(-4)))
        CFI ?RET_LOW load(1, XDATA, add(CFA_XSP16, literal(-5)))
        CFI R7 load(1, XDATA, add(CFA_XSP16, literal(-6)))
        CFI V0 load(1, XDATA, add(CFA_XSP16, literal(-7)))
        CFI VB load(1, XDATA, add(CFA_XSP16, literal(-8)))
        CFI R6 load(1, XDATA, add(CFA_XSP16, literal(-9)))
        CFI CFA_SP SP+0
        CFI CFA_XSP16 add(XSP16, 9)
        ; Saved register size: 9
        ; Auto size: 1
        MOV     A,#-0x1
        LCALL   ?ALLOC_XSTACK8
        CFI CFA_XSP16 add(XSP16, 10)
//  751   uint8 iLed, Led, iMode, Mode, cmdId;
//  752   uint8 retValue = ZFailure;
        LCALL   ?Subroutine7 & 0xFFFF
//  753 
//  754   /* parse header */
//  755   cmdId = pBuf[MT_RPC_POS_CMD1];
//  756   pBuf += MT_RPC_FRAME_HDR_SZ;
//  757 
//  758   /* LED and Mode */
//  759   iLed = *pBuf++;
??CrossCallReturnLabel_3:
        MOV     R0,A
        INC     DPTR
//  760   iMode = *pBuf;
        MOVX    A,@DPTR
        MOV     R2,A
//  761 
//  762   if ( iLed == 1 )
        MOV     A,#0x1
        XRL     A,R0
        JNZ     ??MT_UtilLedControl_0
//  763     Led = HAL_LED_1;
        MOV     R1,#0x1
        SJMP    ??MT_UtilLedControl_1
//  764   else if ( iLed == 2 )
??MT_UtilLedControl_0:
        MOV     A,#0x2
        XRL     A,R0
        JNZ     ??MT_UtilLedControl_2
//  765     Led = HAL_LED_2;
        MOV     R1,#0x2
        SJMP    ??MT_UtilLedControl_1
//  766   else if ( iLed == 3 )
??MT_UtilLedControl_2:
        MOV     A,#0x3
        XRL     A,R0
        JNZ     ??MT_UtilLedControl_3
//  767     Led = HAL_LED_3;
        MOV     R1,#0x4
        SJMP    ??MT_UtilLedControl_1
//  768   else if ( iLed == 4 )
??MT_UtilLedControl_3:
        MOV     A,#0x4
        XRL     A,R0
        JNZ     ??MT_UtilLedControl_4
//  769     Led = HAL_LED_4;
        MOV     R1,#0x8
        SJMP    ??MT_UtilLedControl_1
//  770   else if ( iLed == 0xFF )
??MT_UtilLedControl_4:
        MOV     A,#-0x1
        XRL     A,R0
        JNZ     ??MT_UtilLedControl_5
//  771     Led = HAL_LED_ALL;
        MOV     R1,#0xf
        SJMP    ??MT_UtilLedControl_1
//  772   else
//  773     Led = 0;
??MT_UtilLedControl_5:
        MOV     R1,#0x0
//  774 
//  775   if ( iMode == 0 )
??MT_UtilLedControl_1:
        MOV     A,R2
        JNZ     ??MT_UtilLedControl_6
//  776     Mode = HAL_LED_MODE_OFF;
        MOV     R2,#0x0
        SJMP    ??MT_UtilLedControl_7
//  777   else if ( iMode == 1 )
??MT_UtilLedControl_6:
        MOV     A,#0x1
        XRL     A,R2
        JNZ     ??MT_UtilLedControl_8
//  778     Mode = HAL_LED_MODE_ON;
        MOV     R2,#0x1
        SJMP    ??MT_UtilLedControl_7
//  779   else if ( iMode == 2 )
??MT_UtilLedControl_8:
        MOV     A,#0x2
        XRL     A,R2
        JNZ     ??MT_UtilLedControl_9
//  780     Mode = HAL_LED_MODE_BLINK;
        MOV     R2,#0x2
        SJMP    ??MT_UtilLedControl_7
//  781   else if ( iMode == 3 )
??MT_UtilLedControl_9:
        MOV     A,#0x3
        XRL     A,R2
        JNZ     ??MT_UtilLedControl_10
//  782     Mode = HAL_LED_MODE_FLASH;
        MOV     R2,#0x4
        SJMP    ??MT_UtilLedControl_7
//  783   else if ( iMode == 4 )
??MT_UtilLedControl_10:
        MOV     A,#0x4
        XRL     A,R2
        JNZ     ??MT_UtilLedControl_11
//  784     Mode = HAL_LED_MODE_TOGGLE;
        MOV     R2,#0x8
//  785   else
//  786     Led = 0;
//  787 
//  788   if ( Led != 0 )
??MT_UtilLedControl_7:
        MOV     A,R1
        JZ      ??MT_UtilLedControl_11
//  789   {
//  790     HalLedSet (Led, Mode);
        ; Setup parameters for call to function HalLedSet
        LCALL   ??HalLedSet?relay
//  791     retValue = ZSuccess;
        MOV     DPL,?XSP + 0
        MOV     DPH,?XSP + 1
        CLR     A
        MOVX    @DPTR,A
//  792   }
//  793 
//  794   /* Build and send back the response */
//  795   MT_BuildAndSendZToolResponse(((uint8)MT_RPC_CMD_SRSP | (uint8)MT_RPC_SYS_UTIL), cmdId, 1, &retValue );
??MT_UtilLedControl_11:
        ; Setup parameters for call to function MT_BuildAndSendZToolResponse
        LJMP    ?Subroutine2 & 0xFFFF
        CFI EndBlock cfiBlock82
//  796 }
//  797 #endif /* HAL_LED */
//  798 
//  799 
//  800 /***************************************************************************************************
//  801  * @fn          MT_UtilSrcMatchEnable
//  802  *
//  803  * @brief      Enabled AUTOPEND and source address matching.
//  804  *
//  805  * @param      pBuf - Buffer contains the data
//  806  *
//  807  * @return     void
//  808  ***************************************************************************************************/

        RSEG BANKED_CODE:CODE:NOROOT(0)
//  809 void MT_UtilSrcMatchEnable (uint8 *pBuf)
MT_UtilSrcMatchEnable:
        CFI Block cfiBlock83 Using cfiCommon0
        CFI Function MT_UtilSrcMatchEnable
        CODE
        FUNCALL MT_UtilSrcMatchEnable, MT_BuildAndSendZToolResponse
        LOCFRAME ISTACK, 2, STACK
        LOCFRAME PSTACK, 0, STACK
        LOCFRAME XSTACK, 1, STACK
        LOCFRAME IOVERLAY, 0, STATIC
        LOCFRAME DOVERLAY, 0, STATIC
        ARGFRAME ISTACK, 2, STACK
        ARGFRAME PSTACK, 0, STACK
        ARGFRAME XSTACK, 1, STACK
        ARGFRAME IOVERLAY, 0, STATIC
        ARGFRAME DOVERLAY, 0, STATIC
        SJMP    ?Subroutine3
        CFI EndBlock cfiBlock83
//  810 {
//  811   uint8 retValue, cmdId;
//  812 
//  813   /* Parse header */
//  814   cmdId = pBuf[MT_RPC_POS_CMD1];
//  815   pBuf += MT_RPC_FRAME_HDR_SZ;
//  816 
//  817 #ifdef AUTO_PEND
//  818   /* Call the routine */
//  819   retValue = ZMacSrcMatchEnable (pBuf[0], pBuf[1]);
//  820 #else
//  821   retValue = ZMacUnsupported;
//  822 #endif
//  823 
//  824   /* Build and send back the response */
//  825   MT_BuildAndSendZToolResponse(((uint8)MT_RPC_CMD_SRSP | (uint8)MT_RPC_SYS_UTIL), cmdId, 1, &retValue );
//  826 
//  827 }
//  828 
//  829 /***************************************************************************************************
//  830  * @fn          MT_UtilSrcMatchAddEntry
//  831  *
//  832  * @brief       Add a short or extended address to source address table.
//  833  *
//  834  * @param       pBuf - Buffer contains the data
//  835  *
//  836  * @return      void
//  837  ***************************************************************************************************/

        RSEG BANKED_CODE:CODE:NOROOT(0)
//  838 void MT_UtilSrcMatchAddEntry (uint8 *pBuf)
MT_UtilSrcMatchAddEntry:
        CFI Block cfiBlock84 Using cfiCommon0
        CFI Function MT_UtilSrcMatchAddEntry
        CODE
        FUNCALL MT_UtilSrcMatchAddEntry, MT_BuildAndSendZToolResponse
        LOCFRAME ISTACK, 2, STACK
        LOCFRAME PSTACK, 0, STACK
        LOCFRAME XSTACK, 1, STACK
        LOCFRAME IOVERLAY, 0, STATIC
        LOCFRAME DOVERLAY, 0, STATIC
        ARGFRAME ISTACK, 2, STACK
        ARGFRAME PSTACK, 0, STACK
        ARGFRAME XSTACK, 1, STACK
        ARGFRAME IOVERLAY, 0, STATIC
        ARGFRAME DOVERLAY, 0, STATIC
        SJMP    ?Subroutine3
        CFI EndBlock cfiBlock84
//  839 {
//  840   uint8 retValue, cmdId;
//  841 
//  842   /* Parse header */
//  843   cmdId = pBuf[MT_RPC_POS_CMD1];
//  844   pBuf += MT_RPC_FRAME_HDR_SZ;
//  845 
//  846 #ifdef AUTO_PEND
//  847   uint16 panID;
//  848   zAddrType_t devAddr;
//  849 
//  850   /* Address mode */
//  851   devAddr.addrMode = *pBuf++;
//  852 
//  853   /* Address based on the address mode */
//  854   MT_UtilSpi2Addr( &devAddr, pBuf);
//  855   pBuf += Z_EXTADDR_LEN;
//  856 
//  857   /* PanID */
//  858   panID = BUILD_UINT16( pBuf[0] , pBuf[1] );
//  859 
//  860   /* Call the routine */
//  861   retValue =  ZMacSrcMatchAddEntry (&devAddr, panID);
//  862 #else
//  863   retValue = ZMacUnsupported;
//  864 #endif
//  865 
//  866   /* Build and send back the response */
//  867   MT_BuildAndSendZToolResponse(((uint8)MT_RPC_CMD_SRSP | (uint8)MT_RPC_SYS_UTIL), cmdId, 1, &retValue );
//  868 }
//  869 
//  870 /***************************************************************************************************
//  871  * @fn          MT_UtilSrcMatchDeleteEntry
//  872  *
//  873  * @brief      Delete a short or extended address from source address table.
//  874  *
//  875  * @param      pBuf - Buffer contains the data
//  876  *
//  877  * @return     void
//  878  ***************************************************************************************************/

        RSEG BANKED_CODE:CODE:NOROOT(0)
//  879 void MT_UtilSrcMatchDeleteEntry (uint8 *pBuf)
MT_UtilSrcMatchDeleteEntry:
        CFI Block cfiBlock85 Using cfiCommon0
        CFI Function MT_UtilSrcMatchDeleteEntry
        CODE
        FUNCALL MT_UtilSrcMatchDeleteEntry, MT_BuildAndSendZToolResponse
        LOCFRAME ISTACK, 2, STACK
        LOCFRAME PSTACK, 0, STACK
        LOCFRAME XSTACK, 1, STACK
        LOCFRAME IOVERLAY, 0, STATIC
        LOCFRAME DOVERLAY, 0, STATIC
        ARGFRAME ISTACK, 2, STACK
        ARGFRAME PSTACK, 0, STACK
        ARGFRAME XSTACK, 1, STACK
        ARGFRAME IOVERLAY, 0, STATIC
        ARGFRAME DOVERLAY, 0, STATIC
        SJMP    ?Subroutine3
        CFI EndBlock cfiBlock85
//  880 {
//  881   uint8 retValue, cmdId;
//  882 
//  883   /* Parse header */
//  884   cmdId = pBuf[MT_RPC_POS_CMD1];
//  885   pBuf += MT_RPC_FRAME_HDR_SZ;
//  886 
//  887 #ifdef AUTO_PEND
//  888   uint16 panID;
//  889   zAddrType_t devAddr;
//  890 
//  891   /* Address mode */
//  892   devAddr.addrMode = *pBuf++;
//  893 
//  894   /* Address based on the address mode */
//  895   MT_UtilSpi2Addr( &devAddr, pBuf);
//  896   pBuf += Z_EXTADDR_LEN;
//  897 
//  898   /* PanID */
//  899   panID = BUILD_UINT16( pBuf[0] , pBuf[1] );
//  900 
//  901   /* Call the routine */
//  902   retValue =  ZMacSrcMatchDeleteEntry (&devAddr, panID);
//  903 #else
//  904   retValue = ZMacUnsupported;
//  905 #endif
//  906 
//  907   /* Build and send back the response */
//  908   MT_BuildAndSendZToolResponse(((uint8)MT_RPC_CMD_SRSP | (uint8)MT_RPC_SYS_UTIL), cmdId, 1, &retValue );
//  909 }
//  910 
//  911 /***************************************************************************************************
//  912  * @fn          MT_UtilSrcMatchCheckSrcAddr
//  913  *
//  914  * @brief      Check if a short or extended address is in the source address table.
//  915  *
//  916  * @param      pBuf - Buffer contains the data
//  917  *
//  918  * @return     void
//  919  ***************************************************************************************************/

        RSEG BANKED_CODE:CODE:NOROOT(0)
//  920 void MT_UtilSrcMatchCheckSrcAddr (uint8 *pBuf)
MT_UtilSrcMatchCheckSrcAddr:
        CFI Block cfiBlock86 Using cfiCommon0
        CFI Function MT_UtilSrcMatchCheckSrcAddr
        CODE
//  921 {
        FUNCALL MT_UtilSrcMatchCheckSrcAddr, MT_BuildAndSendZToolResponse
        LOCFRAME ISTACK, 2, STACK
        LOCFRAME PSTACK, 0, STACK
        LOCFRAME XSTACK, 2, STACK
        LOCFRAME IOVERLAY, 0, STATIC
        LOCFRAME DOVERLAY, 0, STATIC
        ARGFRAME ISTACK, 2, STACK
        ARGFRAME PSTACK, 0, STACK
        ARGFRAME XSTACK, 2, STACK
        ARGFRAME IOVERLAY, 0, STATIC
        ARGFRAME DOVERLAY, 0, STATIC
        PUSH    DPL
        CFI DPL0 Frame(CFA_SP, 4)
        CFI CFA_SP SP+-4
        PUSH    DPH
        CFI DPH0 Frame(CFA_SP, 5)
        CFI CFA_SP SP+-5
        ; Saved register size: 2
        ; Auto size: 2
        MOV     A,#-0x2
        LCALL   ?ALLOC_XSTACK8
        CFI CFA_XSP16 add(XSP16, 2)
//  922   uint8 cmdId;
//  923   uint8 retArray[2];
//  924 
//  925   /* Parse header */
//  926   cmdId = pBuf[MT_RPC_POS_CMD1];
        LCALL   ?Subroutine16 & 0xFFFF
//  927   pBuf += MT_RPC_FRAME_HDR_SZ;
//  928 
//  929 #if 0  /* Unsupported  */
//  930   uint16 panID;
//  931   zAddrType_t devAddr;
//  932 
//  933   /* Address mode */
//  934   devAddr.addrMode = *pBuf++;
//  935 
//  936   /* Address based on the address mode */
//  937   MT_UtilSpi2Addr( &devAddr, pBuf);
//  938   pBuf += Z_EXTADDR_LEN;
//  939 
//  940   /* PanID */
//  941   panID = BUILD_UINT16( pBuf[0] , pBuf[1] );
//  942 
//  943   /* Call the routine */
//  944   retArray[1] =  ZMacSrcMatchCheckSrcAddr (&devAddr, panID);
//  945 
//  946     /* Return failure if the index is invalid */
//  947   if (retArray[1] == ZMacSrcMatchInvalidIndex )
//  948   {
//  949     retArray[0] = ZFailure;
//  950   }
//  951   else
//  952   {
//  953     retArray[0] = ZSuccess;
//  954   }
//  955 #else
//  956   retArray[0] = ZMacUnsupported;
//  957   retArray[1] = ZMacSrcMatchInvalidIndex;
??CrossCallReturnLabel_20:
        LCALL   ?XSTACK_DISP0_8
        MOV     A,#-0x1
        CFI EndBlock cfiBlock86
        REQUIRE ?Subroutine5
        ; // Fall through to label ?Subroutine5
//  958 #endif
//  959 
//  960   /* Build and send back the response */
//  961   MT_BuildAndSendZToolResponse(((uint8)MT_RPC_CMD_SRSP | (uint8)MT_RPC_SYS_UTIL), cmdId, 2, retArray );
//  962 }

        RSEG BANKED_CODE:CODE:NOROOT(0)
?Subroutine5:
        CFI Block cfiBlock87 Using cfiCommon0
        CFI NoFunction
        CFI CFA_SP SP+-5
        CFI CFA_XSP16 add(XSP16, 2)
        CFI DPL0 Frame(CFA_SP, 4)
        CFI DPH0 Frame(CFA_SP, 5)
        LCALL   ?Subroutine22 & 0xFFFF
??CrossCallReturnLabel_31:
        MOV     R1,#0x67
        LCALL   ??MT_BuildAndSendZToolResponse?relay
        MOV     A,#0x2
        SJMP    ??Subroutine47_0
        CFI EndBlock cfiBlock87
//  963 
//  964 /***************************************************************************************************
//  965  * @fn          MT_UtilSrcMatchAckAllPending
//  966  *
//  967  * @brief       Enabled/disable acknowledging all packets with pending bit set
//  968  *              It is normally enabled when adding new entries to
//  969  *              the source address table fails due to the table is full, or
//  970  *              disabled when more entries are deleted and the table has
//  971  *              empty slots.
//  972  *
//  973  * @param       pBuf - Buffer contains the data
//  974  *
//  975  * @return      void
//  976  ***************************************************************************************************/

        RSEG BANKED_CODE:CODE:NOROOT(0)
//  977 void MT_UtilSrcMatchAckAllPending (uint8 *pBuf)
MT_UtilSrcMatchAckAllPending:
        CFI Block cfiBlock88 Using cfiCommon0
        CFI Function MT_UtilSrcMatchAckAllPending
        CODE
        FUNCALL MT_UtilSrcMatchAckAllPending, MT_BuildAndSendZToolResponse
        LOCFRAME ISTACK, 2, STACK
        LOCFRAME PSTACK, 0, STACK
        LOCFRAME XSTACK, 1, STACK
        LOCFRAME IOVERLAY, 0, STATIC
        LOCFRAME DOVERLAY, 0, STATIC
        ARGFRAME ISTACK, 2, STACK
        ARGFRAME PSTACK, 0, STACK
        ARGFRAME XSTACK, 1, STACK
        ARGFRAME IOVERLAY, 0, STATIC
        ARGFRAME DOVERLAY, 0, STATIC
        SJMP    ?Subroutine3
        CFI EndBlock cfiBlock88
//  978 {
//  979   uint8 retValue, cmdId;
//  980 
//  981   /* Parse header */
//  982   cmdId = pBuf[MT_RPC_POS_CMD1];
//  983   pBuf += MT_RPC_FRAME_HDR_SZ;
//  984 
//  985 #ifdef AUTO_PEND
//  986   /* Call the routine */
//  987   retValue = ZMacSrcMatchAckAllPending(*pBuf);
//  988 #else
//  989   retValue = ZMacUnsupported;
//  990 #endif
//  991 
//  992   /* Build and send back the response */
//  993   MT_BuildAndSendZToolResponse(((uint8)MT_RPC_CMD_SRSP | (uint8)MT_RPC_SYS_UTIL), cmdId, 1, &retValue );
//  994 }
//  995 
//  996 /***************************************************************************************************
//  997  * @fn          MT_UtilSrcMatchCheckAllPending
//  998  *
//  999  * @brief       Check if acknowledging all packets with pending bit set
// 1000  *              is enabled.
// 1001  *
// 1002  * @param       pBuf - Buffer contains the data
// 1003  *
// 1004  * @return      void
// 1005  ***************************************************************************************************/

        RSEG BANKED_CODE:CODE:NOROOT(0)
// 1006 void MT_UtilSrcMatchCheckAllPending (uint8 *pBuf)
MT_UtilSrcMatchCheckAllPending:
        CFI Block cfiBlock89 Using cfiCommon0
        CFI Function MT_UtilSrcMatchCheckAllPending
        CODE
// 1007 {
        FUNCALL MT_UtilSrcMatchCheckAllPending, MT_BuildAndSendZToolResponse
        LOCFRAME ISTACK, 2, STACK
        LOCFRAME PSTACK, 0, STACK
        LOCFRAME XSTACK, 2, STACK
        LOCFRAME IOVERLAY, 0, STATIC
        LOCFRAME DOVERLAY, 0, STATIC
        ARGFRAME ISTACK, 2, STACK
        ARGFRAME PSTACK, 0, STACK
        ARGFRAME XSTACK, 2, STACK
        ARGFRAME IOVERLAY, 0, STATIC
        ARGFRAME DOVERLAY, 0, STATIC
        PUSH    DPL
        CFI DPL0 Frame(CFA_SP, 4)
        CFI CFA_SP SP+-4
        PUSH    DPH
        CFI DPH0 Frame(CFA_SP, 5)
        CFI CFA_SP SP+-5
        ; Saved register size: 2
        ; Auto size: 2
        MOV     A,#-0x2
        LCALL   ?ALLOC_XSTACK8
        CFI CFA_XSP16 add(XSP16, 2)
// 1008   uint8 retArray[2], cmdId;
// 1009 
// 1010   /* Parse header */
// 1011   cmdId = pBuf[MT_RPC_POS_CMD1];
        LCALL   ?Subroutine16 & 0xFFFF
// 1012   pBuf += MT_RPC_FRAME_HDR_SZ;
// 1013 
// 1014 #ifdef AUTO_PEND
// 1015   /* Call the routine */
// 1016   retArray[0] = ZMacSuccess;
// 1017   retArray[1] = ZMacSrcMatchCheckAllPending();
// 1018 #else
// 1019   retArray[0] = ZMacUnsupported;
// 1020   retArray[1] = FALSE;
??CrossCallReturnLabel_21:
        LCALL   ?XSTACK_DISP0_8
        CLR     A
        SJMP    ?Subroutine5
        CFI EndBlock cfiBlock89
// 1021 #endif
// 1022 
// 1023   /* Build and send back the response */
// 1024   MT_BuildAndSendZToolResponse(((uint8)MT_RPC_CMD_SRSP | (uint8)MT_RPC_SYS_UTIL), cmdId, 2, retArray );
// 1025 }

        RSEG BANKED_CODE:CODE:NOROOT(0)
?Subroutine16:
        CFI Block cfiCond90 Using cfiCommon0
        CFI NoFunction
        CFI Conditional ??CrossCallReturnLabel_20
        CFI DPL0 Frame(CFA_SP, 4)
        CFI DPH0 Frame(CFA_SP, 5)
        CFI CFA_SP SP+-5
        CFI CFA_XSP16 add(XSP16, 2)
        CFI Block cfiCond91 Using cfiCommon0
        CFI (cfiCond91) NoFunction
        CFI (cfiCond91) Conditional ??CrossCallReturnLabel_21
        CFI (cfiCond91) DPL0 Frame(CFA_SP, 4)
        CFI (cfiCond91) DPH0 Frame(CFA_SP, 5)
        CFI (cfiCond91) CFA_SP SP+-5
        CFI (cfiCond91) CFA_XSP16 add(XSP16, 2)
        CFI Block cfiPicker92 Using cfiCommon1
        CFI (cfiPicker92) NoFunction
        CFI (cfiPicker92) Picker
        LCALL   ?Subroutine33 & 0xFFFF
??CrossCallReturnLabel_50:
        MOVX    @DPTR,A
        MOV     A,#0x1
        RET
        CFI EndBlock cfiCond90
        CFI EndBlock cfiCond91
        CFI EndBlock cfiPicker92
// 1026 
// 1027 /***************************************************************************************************
// 1028  * SUPPORT
// 1029  ***************************************************************************************************/
// 1030 
// 1031 #ifdef AUTO_PEND
// 1032 /***************************************************************************************************
// 1033  * @fn      MT_UtilRevExtCpy
// 1034  *
// 1035  * @brief
// 1036  *
// 1037  *   Reverse-copy an extended address.
// 1038  *
// 1039  * @param   pDst - Pointer to data destination
// 1040  * @param   pSrc - Pointer to data source
// 1041  *
// 1042  * @return  void
// 1043  ***************************************************************************************************/
// 1044 static void MT_UtilRevExtCpy( uint8 *pDst, uint8 *pSrc )
// 1045 {
// 1046   int8 i;
// 1047 
// 1048   for ( i = Z_EXTADDR_LEN - 1; i >= 0; i-- )
// 1049   {
// 1050     *pDst++ = pSrc[i];
// 1051   }
// 1052 }
// 1053 
// 1054 /***************************************************************************************************
// 1055  * @fn      MT_UtilSpi2Addr
// 1056  *
// 1057  * @brief   Copy an address from an SPI message to an address struct.  The
// 1058  *          addrMode in pAddr must already be set.
// 1059  *
// 1060  * @param   pDst - Pointer to address struct
// 1061  * @param   pSrc - Pointer SPI message byte array
// 1062  *
// 1063  * @return  void
// 1064  ***************************************************************************************************/
// 1065 static void MT_UtilSpi2Addr( zAddrType_t *pDst, uint8 *pSrc )
// 1066 {
// 1067   if ( pDst->addrMode == Addr16Bit )
// 1068   {
// 1069     pDst->addr.shortAddr = BUILD_UINT16( pSrc[0] , pSrc[1] );
// 1070   }
// 1071   else if ( pDst->addrMode == Addr64Bit )
// 1072   {
// 1073     MT_UtilRevExtCpy( pDst->addr.extAddr, pSrc );
// 1074   }
// 1075 }
// 1076 #endif // AUTO_PEND
// 1077 
// 1078 #if !defined NONWK
// 1079 /**************************************************************************************************
// 1080  * @fn      MT_UtilDataReq
// 1081  *
// 1082  * @brief   Process the MAC Data Request command.
// 1083  *
// 1084  * @param   pBuf - pointer to the received data
// 1085  *
// 1086  * @return  None
// 1087 **************************************************************************************************/

        RSEG BANKED_CODE:CODE:NOROOT(0)
// 1088 void MT_UtilDataReq(uint8 *pBuf)
MT_UtilDataReq:
        CFI Block cfiBlock93 Using cfiCommon0
        CFI Function MT_UtilDataReq
        CODE
// 1089 {
        FUNCALL MT_UtilDataReq, NwkPollReq
        LOCFRAME ISTACK, 2, STACK
        LOCFRAME PSTACK, 0, STACK
        LOCFRAME XSTACK, 1, STACK
        LOCFRAME IOVERLAY, 0, STATIC
        LOCFRAME DOVERLAY, 0, STATIC
        ARGFRAME ISTACK, 2, STACK
        ARGFRAME PSTACK, 0, STACK
        ARGFRAME XSTACK, 1, STACK
        ARGFRAME IOVERLAY, 0, STATIC
        ARGFRAME DOVERLAY, 0, STATIC
        FUNCALL MT_UtilDataReq, MT_BuildAndSendZToolResponse
        LOCFRAME ISTACK, 2, STACK
        LOCFRAME PSTACK, 0, STACK
        LOCFRAME XSTACK, 1, STACK
        LOCFRAME IOVERLAY, 0, STATIC
        LOCFRAME DOVERLAY, 0, STATIC
        ARGFRAME ISTACK, 2, STACK
        ARGFRAME PSTACK, 0, STACK
        ARGFRAME XSTACK, 1, STACK
        ARGFRAME IOVERLAY, 0, STATIC
        ARGFRAME DOVERLAY, 0, STATIC
        PUSH    DPL
        CFI DPL0 Frame(CFA_SP, 4)
        CFI CFA_SP SP+-4
        PUSH    DPH
        CFI DPH0 Frame(CFA_SP, 5)
        CFI CFA_SP SP+-5
        ; Saved register size: 2
        ; Auto size: 1
        MOV     A,#-0x1
        LCALL   ?ALLOC_XSTACK8
        CFI CFA_XSP16 add(XSP16, 1)
// 1090   uint8 rtrn = NwkPollReq(pBuf[MT_RPC_POS_DAT0]);
        ; Setup parameters for call to function NwkPollReq
        MOV     DPL,R2
        MOV     DPH,R3
        INC     DPTR
        INC     DPTR
        INC     DPTR
        MOVX    A,@DPTR
        MOV     R1,A
        LCALL   ??NwkPollReq?relay
        LCALL   ?Subroutine24 & 0xFFFF
// 1091   MT_BuildAndSendZToolResponse(((uint8)MT_RPC_CMD_SRSP | (uint8)MT_RPC_SYS_UTIL), MT_UTIL_DATA_REQ,
// 1092                                                                                1, &rtrn);
??CrossCallReturnLabel_63:
        MOV     R2,#0x11
        SJMP    ??Subroutine46_0
        CFI EndBlock cfiBlock93
// 1093 }

        RSEG BANKED_CODE:CODE:NOROOT(0)
?Subroutine3:
        CFI Block cfiBlock94 Using cfiCommon0
        CFI NoFunction
        PUSH    DPL
        CFI CFA_SP SP+-4
        CFI DPL0 Frame(CFA_SP, 4)
        PUSH    DPH
        CFI CFA_SP SP+-5
        CFI DPH0 Frame(CFA_SP, 5)
        ; Saved register size: 2
        ; Auto size: 1
        ; Saved register size: 2
        ; Auto size: 1
        ; Saved register size: 2
        ; Auto size: 1
        ; Saved register size: 2
        ; Auto size: 1
        MOV     A,#-0x1
        LCALL   ?ALLOC_XSTACK8
        CFI CFA_XSP16 add(XSP16, 1)
        LCALL   ?Subroutine33 & 0xFFFF
??CrossCallReturnLabel_51:
        LCALL   ??Subroutine41_0 & 0xFFFF
        CFI EndBlock cfiBlock94
??CrossCallReturnLabel_64:
        REQUIRE ??Subroutine46_0
        ; // Fall through to label ??Subroutine46_0

        RSEG BANKED_CODE:CODE:NOROOT(0)
??Subroutine46_0:
        CFI Block cfiBlock95 Using cfiCommon0
        CFI NoFunction
        CFI CFA_SP SP+-5
        CFI CFA_XSP16 add(XSP16, 1)
        CFI DPL0 Frame(CFA_SP, 4)
        CFI DPH0 Frame(CFA_SP, 5)
        MOV     R1,#0x67
        LCALL   ??MT_BuildAndSendZToolResponse?relay
        MOV     A,#0x1
        CFI EndBlock cfiBlock95
        REQUIRE ??Subroutine47_0
        ; // Fall through to label ??Subroutine47_0

        RSEG BANKED_CODE:CODE:NOROOT(0)
??Subroutine47_0:
        CFI Block cfiBlock96 Using cfiCommon0
        CFI NoFunction
        CFI CFA_SP SP+-5
        CFI CFA_XSP16 add(XSP16, 2)
        CFI DPL0 Frame(CFA_SP, 4)
        CFI DPH0 Frame(CFA_SP, 5)
        CFI Invalid
        LCALL   ?DEALLOC_XSTACK8
        CFI CFA_XSP16 XSP16+0
        CFI Valid
        POP     DPH
        CFI CFA_SP SP+-4
        CFI DPH0 SameValue
        POP     DPL
        CFI CFA_SP SP+-3
        CFI DPL0 SameValue
        LJMP    ?BRET
        CFI EndBlock cfiBlock96

        RSEG BANKED_CODE:CODE:NOROOT(0)
?Subroutine33:
        CFI Block cfiCond97 Using cfiCommon0
        CFI NoFunction
        CFI Conditional ??CrossCallReturnLabel_50, ??CrossCallReturnLabel_20
        CFI DPL0 Frame(CFA_SP, 4)
        CFI DPH0 Frame(CFA_SP, 5)
        CFI CFA_SP SP+-5
        CFI CFA_XSP16 add(XSP16, 2)
        CFI Block cfiCond98 Using cfiCommon0
        CFI (cfiCond98) NoFunction
        CFI (cfiCond98) Conditional ??CrossCallReturnLabel_50, ??CrossCallReturnLabel_21
        CFI (cfiCond98) DPL0 Frame(CFA_SP, 4)
        CFI (cfiCond98) DPH0 Frame(CFA_SP, 5)
        CFI (cfiCond98) CFA_SP SP+-5
        CFI (cfiCond98) CFA_XSP16 add(XSP16, 2)
        CFI Block cfiCond99 Using cfiCommon0
        CFI (cfiCond99) NoFunction
        CFI (cfiCond99) Conditional ??CrossCallReturnLabel_51
        CFI (cfiCond99) DPL0 Frame(CFA_SP, 4)
        CFI (cfiCond99) DPH0 Frame(CFA_SP, 5)
        CFI (cfiCond99) CFA_SP SP+-5
        CFI (cfiCond99) CFA_XSP16 add(XSP16, 1)
        CFI Block cfiCond100 Using cfiCommon0
        CFI (cfiCond100) NoFunction
        CFI (cfiCond100) Conditional ??CrossCallReturnLabel_51
        CFI (cfiCond100) DPL0 Frame(CFA_SP, 4)
        CFI (cfiCond100) DPH0 Frame(CFA_SP, 5)
        CFI (cfiCond100) CFA_SP SP+-5
        CFI (cfiCond100) CFA_XSP16 add(XSP16, 1)
        CFI Block cfiCond101 Using cfiCommon0
        CFI (cfiCond101) NoFunction
        CFI (cfiCond101) Conditional ??CrossCallReturnLabel_51
        CFI (cfiCond101) DPL0 Frame(CFA_SP, 4)
        CFI (cfiCond101) DPH0 Frame(CFA_SP, 5)
        CFI (cfiCond101) CFA_SP SP+-5
        CFI (cfiCond101) CFA_XSP16 add(XSP16, 1)
        CFI Block cfiCond102 Using cfiCommon0
        CFI (cfiCond102) NoFunction
        CFI (cfiCond102) Conditional ??CrossCallReturnLabel_51
        CFI (cfiCond102) DPL0 Frame(CFA_SP, 4)
        CFI (cfiCond102) DPH0 Frame(CFA_SP, 5)
        CFI (cfiCond102) CFA_SP SP+-5
        CFI (cfiCond102) CFA_XSP16 add(XSP16, 1)
        CFI Block cfiPicker103 Using cfiCommon1
        CFI (cfiPicker103) NoFunction
        CFI (cfiPicker103) Picker
        MOV     DPL,R2
        MOV     DPH,R3
        INC     DPTR
        INC     DPTR
        MOVX    A,@DPTR
        MOV     R2,A
        MOV     DPL,?XSP + 0
        MOV     DPH,?XSP + 1
        MOV     A,#-0xb
        RET
        CFI EndBlock cfiCond97
        CFI EndBlock cfiCond98
        CFI EndBlock cfiCond99
        CFI EndBlock cfiCond100
        CFI EndBlock cfiCond101
        CFI EndBlock cfiCond102
        CFI EndBlock cfiPicker103
// 1094 
// 1095 /***************************************************************************************************
// 1096  * @fn      MT_UtilAddrMgrEntryLookupExt
// 1097  *
// 1098  * @brief   Proxy the AddrMgrEntryLookupExt() function.
// 1099  *
// 1100  * @param   pBuf - pointer to the received buffer
// 1101  *
// 1102  * @return  void
// 1103  ***************************************************************************************************/

        RSEG BANKED_CODE:CODE:NOROOT(0)
// 1104 static void MT_UtilAddrMgrEntryLookupExt(uint8 *pBuf)
MT_UtilAddrMgrEntryLookupExt:
        CFI Block cfiBlock104 Using cfiCommon0
        CFI Function MT_UtilAddrMgrEntryLookupExt
        CODE
// 1105 {
        FUNCALL MT_UtilAddrMgrEntryLookupExt, osal_memcpy
        LOCFRAME ISTACK, 0, STACK
        LOCFRAME PSTACK, 0, STACK
        LOCFRAME XSTACK, 29, STACK
        LOCFRAME IOVERLAY, 0, STATIC
        LOCFRAME DOVERLAY, 0, STATIC
        ARGFRAME ISTACK, 0, STACK
        ARGFRAME PSTACK, 0, STACK
        ARGFRAME XSTACK, 29, STACK
        ARGFRAME IOVERLAY, 0, STATIC
        ARGFRAME DOVERLAY, 0, STATIC
        FUNCALL MT_UtilAddrMgrEntryLookupExt, AddrMgrEntryLookupExt
        LOCFRAME ISTACK, 0, STACK
        LOCFRAME PSTACK, 0, STACK
        LOCFRAME XSTACK, 26, STACK
        LOCFRAME IOVERLAY, 0, STATIC
        LOCFRAME DOVERLAY, 0, STATIC
        ARGFRAME ISTACK, 0, STACK
        ARGFRAME PSTACK, 0, STACK
        ARGFRAME XSTACK, 26, STACK
        ARGFRAME IOVERLAY, 0, STATIC
        ARGFRAME DOVERLAY, 0, STATIC
        FUNCALL MT_UtilAddrMgrEntryLookupExt, MT_BuildAndSendZToolResponse
        LOCFRAME ISTACK, 0, STACK
        LOCFRAME PSTACK, 0, STACK
        LOCFRAME XSTACK, 26, STACK
        LOCFRAME IOVERLAY, 0, STATIC
        LOCFRAME DOVERLAY, 0, STATIC
        ARGFRAME ISTACK, 0, STACK
        ARGFRAME PSTACK, 0, STACK
        ARGFRAME XSTACK, 26, STACK
        ARGFRAME IOVERLAY, 0, STATIC
        ARGFRAME DOVERLAY, 0, STATIC
        MOV     A,#-0xb
        LCALL   ?BANKED_ENTER_XDATA
        CFI DPH0 load(1, XDATA, add(CFA_XSP16, literal(-1)))
        CFI DPL0 load(1, XDATA, add(CFA_XSP16, literal(-2)))
        CFI ?BRET_EXT load(1, XDATA, add(CFA_XSP16, literal(-3)))
        CFI ?RET_HIGH load(1, XDATA, add(CFA_XSP16, literal(-4)))
        CFI ?RET_LOW load(1, XDATA, add(CFA_XSP16, literal(-5)))
        CFI R7 load(1, XDATA, add(CFA_XSP16, literal(-6)))
        CFI V2 load(1, XDATA, add(CFA_XSP16, literal(-7)))
        CFI V1 load(1, XDATA, add(CFA_XSP16, literal(-8)))
        CFI V0 load(1, XDATA, add(CFA_XSP16, literal(-9)))
        CFI VB load(1, XDATA, add(CFA_XSP16, literal(-10)))
        CFI R6 load(1, XDATA, add(CFA_XSP16, literal(-11)))
        CFI CFA_SP SP+0
        CFI CFA_XSP16 add(XSP16, 11)
        ; Saved register size: 11
        ; Auto size: 15
        MOV     A,#-0xf
        LCALL   ?ALLOC_XSTACK8
        CFI CFA_XSP16 add(XSP16, 26)
// 1106   uint8 nwkAddr[2];
// 1107   AddrMgrEntry_t entry;
// 1108   uint8 cmdId = pBuf[MT_RPC_POS_CMD1];
        LCALL   ?Subroutine15 & 0xFFFF
// 1109   pBuf += MT_RPC_FRAME_HDR_SZ;
// 1110 
// 1111   osal_memcpy(entry.extAddr, pBuf, Z_EXTADDR_LEN);
??CrossCallReturnLabel_19:
        MOV     ?V0 + 0,R1
        MOV     ?V0 + 1,R2
        MOV     ?V0 + 2,#0x0
        MOV     R0,#?V0 + 0
        LCALL   ?PUSH_XSTACK_I_THREE
        CFI CFA_XSP16 add(XSP16, 29)
        MOV     R4,#0x8
        MOV     R5,#0x0
        MOV     A,R4
        LCALL   ?XSTACK_DISP0_8
        MOV     R2,DPL
        MOV     R3,DPH
        LCALL   ??osal_memcpy?relay
        MOV     A,#0x3
        LCALL   ?DEALLOC_XSTACK8
        CFI CFA_XSP16 add(XSP16, 26)
// 1112   (void)AddrMgrEntryLookupExt(&entry);
        ; Setup parameters for call to function AddrMgrEntryLookupExt
        MOV     A,#0x2
        LCALL   ?XSTACK_DISP0_8
        MOV     R2,DPL
        MOV     R3,DPH
        LCALL   ??AddrMgrEntryLookupExt?relay
// 1113   
// 1114   nwkAddr[0] = LO_UINT16(entry.nwkAddr);
        MOV     A,#0x3
        LCALL   ?XSTACK_DISP0_8
        LCALL   ?Subroutine18 & 0xFFFF
// 1115   nwkAddr[1] = HI_UINT16(entry.nwkAddr);
??CrossCallReturnLabel_24:
        MOV     A,#0x3
        LCALL   ?XSTACK_DISP0_8
        INC     DPTR
        MOVX    A,@DPTR
        PUSH    A
        CFI CFA_SP SP+-1
        MOV     A,#0x1
        LCALL   ?XSTACK_DISP0_8
        POP     A
        CFI CFA_SP SP+0
        LCALL   ?Subroutine22 & 0xFFFF
// 1116   MT_BuildAndSendZToolResponse(((uint8)MT_RPC_CMD_SRSP | (uint8)MT_RPC_SYS_UTIL),
// 1117                                        cmdId, sizeof(uint16), nwkAddr);
??CrossCallReturnLabel_32:
        MOV     A,R6
        MOV     R2,A
        MOV     R1,#0x67
        LCALL   ??MT_BuildAndSendZToolResponse?relay
// 1118 }
        MOV     A,#0xf
        LCALL   ?DEALLOC_XSTACK8
        CFI CFA_XSP16 add(XSP16, 11)
        MOV     R7,#0x3
        LJMP    ?BANKED_LEAVE_XDATA
        CFI EndBlock cfiBlock104

        RSEG BANKED_CODE:CODE:NOROOT(0)
?Subroutine22:
        CFI Block cfiCond105 Using cfiCommon0
        CFI NoFunction
        CFI Conditional ??CrossCallReturnLabel_31
        CFI DPL0 Frame(CFA_SP, 4)
        CFI DPH0 Frame(CFA_SP, 5)
        CFI CFA_SP SP+-5
        CFI CFA_XSP16 add(XSP16, 2)
        CFI Block cfiCond106 Using cfiCommon0
        CFI (cfiCond106) NoFunction
        CFI (cfiCond106) Conditional ??CrossCallReturnLabel_31
        CFI (cfiCond106) DPL0 Frame(CFA_SP, 4)
        CFI (cfiCond106) DPH0 Frame(CFA_SP, 5)
        CFI (cfiCond106) CFA_SP SP+-5
        CFI (cfiCond106) CFA_XSP16 add(XSP16, 2)
        CFI Block cfiCond107 Using cfiCommon0
        CFI (cfiCond107) NoFunction
        CFI (cfiCond107) Conditional ??CrossCallReturnLabel_32
        CFI (cfiCond107) R6 load(1, XDATA, add(CFA_XSP16, literal(-11)))
        CFI (cfiCond107) VB load(1, XDATA, add(CFA_XSP16, literal(-10)))
        CFI (cfiCond107) V0 load(1, XDATA, add(CFA_XSP16, literal(-9)))
        CFI (cfiCond107) V1 load(1, XDATA, add(CFA_XSP16, literal(-8)))
        CFI (cfiCond107) V2 load(1, XDATA, add(CFA_XSP16, literal(-7)))
        CFI (cfiCond107) R7 load(1, XDATA, add(CFA_XSP16, literal(-6)))
        CFI (cfiCond107) ?RET_LOW load(1, XDATA, add(CFA_XSP16, literal(-5)))
        CFI (cfiCond107) ?RET_HIGH load(1, XDATA, add(CFA_XSP16, literal(-4)))
        CFI (cfiCond107) ?BRET_EXT load(1, XDATA, add(CFA_XSP16, literal(-3)))
        CFI (cfiCond107) DPL0 load(1, XDATA, add(CFA_XSP16, literal(-2)))
        CFI (cfiCond107) DPH0 load(1, XDATA, add(CFA_XSP16, literal(-1)))
        CFI (cfiCond107) CFA_SP SP+0
        CFI (cfiCond107) CFA_XSP16 add(XSP16, 26)
        CFI Block cfiPicker108 Using cfiCommon1
        CFI (cfiPicker108) NoFunction
        CFI (cfiPicker108) Picker
        LCALL   ?Subroutine35 & 0xFFFF
??CrossCallReturnLabel_54:
        MOV     R3,#0x2
        RET
        CFI EndBlock cfiCond105
        CFI EndBlock cfiCond106
        CFI EndBlock cfiCond107
        CFI EndBlock cfiPicker108

        RSEG BANKED_CODE:CODE:NOROOT(0)
?Subroutine15:
        CFI Block cfiCond109 Using cfiCommon0
        CFI NoFunction
        CFI Conditional ??CrossCallReturnLabel_18
        CFI R6 load(1, XDATA, add(CFA_XSP16, literal(-15)))
        CFI VB load(1, XDATA, add(CFA_XSP16, literal(-14)))
        CFI V0 load(1, XDATA, add(CFA_XSP16, literal(-13)))
        CFI V1 load(1, XDATA, add(CFA_XSP16, literal(-12)))
        CFI V2 load(1, XDATA, add(CFA_XSP16, literal(-11)))
        CFI V3 load(1, XDATA, add(CFA_XSP16, literal(-10)))
        CFI V4 load(1, XDATA, add(CFA_XSP16, literal(-9)))
        CFI V5 load(1, XDATA, add(CFA_XSP16, literal(-8)))
        CFI V6 load(1, XDATA, add(CFA_XSP16, literal(-7)))
        CFI R7 load(1, XDATA, add(CFA_XSP16, literal(-6)))
        CFI ?RET_LOW load(1, XDATA, add(CFA_XSP16, literal(-5)))
        CFI ?RET_HIGH load(1, XDATA, add(CFA_XSP16, literal(-4)))
        CFI ?BRET_EXT load(1, XDATA, add(CFA_XSP16, literal(-3)))
        CFI DPL0 load(1, XDATA, add(CFA_XSP16, literal(-2)))
        CFI DPH0 load(1, XDATA, add(CFA_XSP16, literal(-1)))
        CFI CFA_SP SP+0
        CFI CFA_XSP16 add(XSP16, 37)
        CFI Block cfiCond110 Using cfiCommon0
        CFI (cfiCond110) NoFunction
        CFI (cfiCond110) Conditional ??CrossCallReturnLabel_19
        CFI (cfiCond110) R6 load(1, XDATA, add(CFA_XSP16, literal(-11)))
        CFI (cfiCond110) VB load(1, XDATA, add(CFA_XSP16, literal(-10)))
        CFI (cfiCond110) V0 load(1, XDATA, add(CFA_XSP16, literal(-9)))
        CFI (cfiCond110) V1 load(1, XDATA, add(CFA_XSP16, literal(-8)))
        CFI (cfiCond110) V2 load(1, XDATA, add(CFA_XSP16, literal(-7)))
        CFI (cfiCond110) R7 load(1, XDATA, add(CFA_XSP16, literal(-6)))
        CFI (cfiCond110) ?RET_LOW load(1, XDATA, add(CFA_XSP16, literal(-5)))
        CFI (cfiCond110) ?RET_HIGH load(1, XDATA, add(CFA_XSP16, literal(-4)))
        CFI (cfiCond110) ?BRET_EXT load(1, XDATA, add(CFA_XSP16, literal(-3)))
        CFI (cfiCond110) DPL0 load(1, XDATA, add(CFA_XSP16, literal(-2)))
        CFI (cfiCond110) DPH0 load(1, XDATA, add(CFA_XSP16, literal(-1)))
        CFI (cfiCond110) CFA_SP SP+0
        CFI (cfiCond110) CFA_XSP16 add(XSP16, 26)
        CFI Block cfiPicker111 Using cfiCommon1
        CFI (cfiPicker111) NoFunction
        CFI (cfiPicker111) Picker
        LCALL   ?Subroutine34 & 0xFFFF
??CrossCallReturnLabel_52:
        MOV     R1,DPL
        MOV     R2,DPH
        RET
        CFI EndBlock cfiCond109
        CFI EndBlock cfiCond110
        CFI EndBlock cfiPicker111
// 1119 
// 1120 /***************************************************************************************************
// 1121  * @fn      MT_UtilAddrMgrEntryLookupNwk
// 1122  *
// 1123  * @brief   Proxy the AddrMgrEntryLookupNwk() function.
// 1124  *
// 1125  * @param   pBuf - pointer to the received buffer
// 1126  *
// 1127  * @return  void
// 1128  ***************************************************************************************************/
// 1129 static void MT_UtilAddrMgrEntryLookupNwk(uint8 *pBuf)
// 1130 {
// 1131   AddrMgrEntry_t entry;
// 1132   uint8 cmdId = pBuf[MT_RPC_POS_CMD1];
// 1133   pBuf += MT_RPC_FRAME_HDR_SZ;
// 1134 
// 1135   entry.nwkAddr = BUILD_UINT16(pBuf[0], pBuf[1]);
// 1136   (void)AddrMgrEntryLookupNwk(&entry);
// 1137 
// 1138   MT_BuildAndSendZToolResponse(((uint8)MT_RPC_CMD_SRSP | (uint8)MT_RPC_SYS_UTIL),
// 1139                                        cmdId, Z_EXTADDR_LEN, entry.extAddr);
// 1140 }
// 1141 
// 1142 #if defined MT_SYS_KEY_MANAGEMENT
// 1143 /***************************************************************************************************
// 1144  * @fn      MT_UtilAPSME_LinkKeyDataGet
// 1145  *
// 1146  * @brief   Retrieves APS Link Key data from NV.
// 1147  *
// 1148  * @param   pBuf - pointer to the received buffer
// 1149  *
// 1150  * @return  void
// 1151  ***************************************************************************************************/
// 1152 static void MT_UtilAPSME_LinkKeyDataGet(uint8 *pBuf)
// 1153 {
// 1154   uint8 rsp[MT_APSME_LINKKEY_GET_RSP_LEN];
// 1155   APSME_LinkKeyData_t *pData = NULL;
// 1156   uint8 cmdId = pBuf[MT_RPC_POS_CMD1];
// 1157   uint16 apsLinkKeyNvId;
// 1158   uint32 *apsRxFrmCntr;
// 1159   uint32 *apsTxFrmCntr;
// 1160 
// 1161   pBuf += MT_RPC_FRAME_HDR_SZ;
// 1162 
// 1163   *rsp = APSME_LinkKeyNVIdGet(pBuf, &apsLinkKeyNvId);
// 1164 
// 1165   if (SUCCESS == *rsp)
// 1166   {
// 1167     pData = (APSME_LinkKeyData_t *)osal_mem_alloc(sizeof(APSME_LinkKeyData_t));
// 1168 
// 1169     if (pData != NULL)
// 1170     {
// 1171       // retrieve key from NV
// 1172       if ( osal_nv_read( apsLinkKeyNvId, 0,
// 1173                         sizeof(APSME_LinkKeyData_t), pData) == SUCCESS)
// 1174 
// 1175       {
// 1176         apsRxFrmCntr = &ApsLinkKeyFrmCntr[apsLinkKeyNvId - ZCD_NV_APS_LINK_KEY_DATA_START].rxFrmCntr;
// 1177         apsTxFrmCntr = &ApsLinkKeyFrmCntr[apsLinkKeyNvId - ZCD_NV_APS_LINK_KEY_DATA_START].txFrmCntr;
// 1178 
// 1179         uint8 *ptr = rsp+1;
// 1180         (void)osal_memcpy(ptr, pData->key, SEC_KEY_LEN);
// 1181         ptr += SEC_KEY_LEN;
// 1182         *ptr++ = BREAK_UINT32(*apsTxFrmCntr, 0);
// 1183         *ptr++ = BREAK_UINT32(*apsTxFrmCntr, 1);
// 1184         *ptr++ = BREAK_UINT32(*apsTxFrmCntr, 2);
// 1185         *ptr++ = BREAK_UINT32(*apsTxFrmCntr, 3);
// 1186         *ptr++ = BREAK_UINT32(*apsRxFrmCntr, 0);
// 1187         *ptr++ = BREAK_UINT32(*apsRxFrmCntr, 1);
// 1188         *ptr++ = BREAK_UINT32(*apsRxFrmCntr, 2);
// 1189         *ptr++ = BREAK_UINT32(*apsRxFrmCntr, 3);
// 1190       }
// 1191 
// 1192       // clear copy of key in RAM
// 1193       osal_memset( pData, 0x00, sizeof(APSME_LinkKeyData_t) );
// 1194 
// 1195       osal_mem_free(pData);
// 1196     }
// 1197   }
// 1198   else
// 1199   {
// 1200     // set data key and counters 0xFF
// 1201     osal_memset(&rsp[1], 0xFF, SEC_KEY_LEN + (MT_UTIL_FRM_CTR_LEN * 2));
// 1202   }
// 1203 
// 1204   MT_BuildAndSendZToolResponse(((uint8)MT_RPC_CMD_SRSP | (uint8)MT_RPC_SYS_UTIL), cmdId,
// 1205                                        MT_APSME_LINKKEY_GET_RSP_LEN, rsp);
// 1206 
// 1207   // clear key data
// 1208   osal_memset(rsp, 0x00, MT_APSME_LINKKEY_GET_RSP_LEN);
// 1209 
// 1210 }
// 1211 
// 1212 /***************************************************************************************************
// 1213  * @fn      MT_UtilAPSME_LinkKeyNvIdGet
// 1214  *
// 1215  * @brief   Retrieves APS Link Key NV ID from the entry table.
// 1216  *
// 1217  * @param   pBuf - pointer to the received buffer
// 1218  *
// 1219  * @return  void
// 1220  ***************************************************************************************************/
// 1221 static void MT_UtilAPSME_LinkKeyNvIdGet(uint8 *pBuf)
// 1222 {
// 1223   uint8 rsp[MT_APSME_LINKKEY_NV_ID_GET_RSP_LEN];
// 1224   uint8 cmdId = pBuf[MT_RPC_POS_CMD1];
// 1225   uint16 apsLinkKeyNvId;
// 1226 
// 1227   pBuf += MT_RPC_FRAME_HDR_SZ;
// 1228 
// 1229   *rsp = APSME_LinkKeyNVIdGet(pBuf, &apsLinkKeyNvId);
// 1230 
// 1231   if (SUCCESS == *rsp)
// 1232   {
// 1233     rsp[1] = LO_UINT16(apsLinkKeyNvId);
// 1234     rsp[2] = HI_UINT16(apsLinkKeyNvId);
// 1235   }
// 1236   else
// 1237   {
// 1238     // send failure response with invalid NV ID
// 1239     osal_memset(&rsp[1], 0xFF, 2);
// 1240   }
// 1241 
// 1242   MT_BuildAndSendZToolResponse(((uint8)MT_RPC_CMD_SRSP | (uint8)MT_RPC_SYS_UTIL), cmdId,
// 1243                                        MT_APSME_LINKKEY_NV_ID_GET_RSP_LEN, rsp);
// 1244 }
// 1245 #endif // MT_SYS_KEY_MANAGEMENT
// 1246 
// 1247 /***************************************************************************************************
// 1248  * @fn      MT_UtilAPSME_RequestKeyCmd
// 1249  *
// 1250  * @brief   Send RequestKey command message to TC for a specific partner Address.
// 1251  *
// 1252  * @param   pBuf  - pointer to the received buffer
// 1253  *
// 1254  * @return  void
// 1255  ***************************************************************************************************/
// 1256 void MT_UtilAPSME_RequestKeyCmd(uint8 *pBuf)
// 1257 {
// 1258   uint8 cmdId;
// 1259   uint8 partnerAddr[Z_EXTADDR_LEN];
// 1260   uint8 retValue;
// 1261 
// 1262   // parse header
// 1263   cmdId = pBuf[MT_RPC_POS_CMD1];
// 1264   pBuf += MT_RPC_FRAME_HDR_SZ;
// 1265 
// 1266   /* PartnerAddress */
// 1267   osal_memcpy(partnerAddr, pBuf, Z_EXTADDR_LEN);
// 1268 
// 1269   retValue = (uint8)ZDSecMgrRequestAppKey(partnerAddr);
// 1270 
// 1271   MT_BuildAndSendZToolResponse(((uint8)MT_RPC_CMD_SRSP | (uint8)MT_RPC_SYS_UTIL), cmdId, 1, &retValue);
// 1272 }
// 1273 
// 1274 /***************************************************************************************************
// 1275  * @fn      MT_UtilAssocCount
// 1276  *
// 1277  * @brief   Proxy the AssocCount() function.
// 1278  *
// 1279  * @param   pBuf - pointer to the received buffer
// 1280  *
// 1281  * @return  void
// 1282  ***************************************************************************************************/
// 1283 static void MT_UtilAssocCount(uint8 *pBuf)
// 1284 {
// 1285   uint16 cnt;
// 1286   uint8 cmdId = pBuf[MT_RPC_POS_CMD1];
// 1287   pBuf += MT_RPC_FRAME_HDR_SZ;
// 1288 
// 1289   cnt = AssocCount(pBuf[0], pBuf[1]);
// 1290   pBuf[0] = LO_UINT16(cnt);
// 1291   pBuf[1] = HI_UINT16(cnt);
// 1292 
// 1293   MT_BuildAndSendZToolResponse(((uint8)MT_RPC_CMD_SRSP | (uint8)MT_RPC_SYS_UTIL), cmdId, 2, pBuf);
// 1294 }
// 1295 
// 1296 /***************************************************************************************************
// 1297  * @fn      MT_UtilAssocFindDevice
// 1298  *
// 1299  * @brief   Get an associated device by index.
// 1300  *
// 1301  * @param   pBuf - pointer to the received buffer
// 1302  *
// 1303  * @return  void
// 1304  ***************************************************************************************************/

        RSEG BANKED_CODE:CODE:NOROOT(0)
// 1305 static void MT_UtilAssocFindDevice(uint8 *pBuf)
MT_UtilAssocFindDevice:
        CFI Block cfiBlock112 Using cfiCommon0
        CFI Function MT_UtilAssocFindDevice
        CODE
// 1306 {
        FUNCALL MT_UtilAssocFindDevice, AssocFindDevice
        LOCFRAME ISTACK, 0, STACK
        LOCFRAME PSTACK, 0, STACK
        LOCFRAME XSTACK, 27, STACK
        LOCFRAME IOVERLAY, 0, STATIC
        LOCFRAME DOVERLAY, 0, STATIC
        ARGFRAME ISTACK, 0, STACK
        ARGFRAME PSTACK, 0, STACK
        ARGFRAME XSTACK, 27, STACK
        ARGFRAME IOVERLAY, 0, STATIC
        ARGFRAME DOVERLAY, 0, STATIC
        FUNCALL MT_UtilAssocFindDevice, packDev_t
        LOCFRAME ISTACK, 0, STACK
        LOCFRAME PSTACK, 0, STACK
        LOCFRAME XSTACK, 27, STACK
        LOCFRAME IOVERLAY, 0, STATIC
        LOCFRAME DOVERLAY, 0, STATIC
        ARGFRAME ISTACK, 0, STACK
        ARGFRAME PSTACK, 0, STACK
        ARGFRAME XSTACK, 27, STACK
        ARGFRAME IOVERLAY, 0, STATIC
        ARGFRAME DOVERLAY, 0, STATIC
        FUNCALL MT_UtilAssocFindDevice, MT_BuildAndSendZToolResponse
        LOCFRAME ISTACK, 0, STACK
        LOCFRAME PSTACK, 0, STACK
        LOCFRAME XSTACK, 27, STACK
        LOCFRAME IOVERLAY, 0, STATIC
        LOCFRAME DOVERLAY, 0, STATIC
        ARGFRAME ISTACK, 0, STACK
        ARGFRAME PSTACK, 0, STACK
        ARGFRAME XSTACK, 27, STACK
        ARGFRAME IOVERLAY, 0, STATIC
        ARGFRAME DOVERLAY, 0, STATIC
        MOV     A,#-0x9
        LCALL   ?BANKED_ENTER_XDATA
        CFI DPH0 load(1, XDATA, add(CFA_XSP16, literal(-1)))
        CFI DPL0 load(1, XDATA, add(CFA_XSP16, literal(-2)))
        CFI ?BRET_EXT load(1, XDATA, add(CFA_XSP16, literal(-3)))
        CFI ?RET_HIGH load(1, XDATA, add(CFA_XSP16, literal(-4)))
        CFI ?RET_LOW load(1, XDATA, add(CFA_XSP16, literal(-5)))
        CFI R7 load(1, XDATA, add(CFA_XSP16, literal(-6)))
        CFI V0 load(1, XDATA, add(CFA_XSP16, literal(-7)))
        CFI VB load(1, XDATA, add(CFA_XSP16, literal(-8)))
        CFI R6 load(1, XDATA, add(CFA_XSP16, literal(-9)))
        CFI CFA_SP SP+0
        CFI CFA_XSP16 add(XSP16, 9)
        ; Saved register size: 9
        ; Auto size: 18
        MOV     A,#-0x12
        LCALL   ?ALLOC_XSTACK8
        CFI CFA_XSP16 add(XSP16, 27)
// 1307   uint8 cmdId = pBuf[MT_RPC_POS_CMD1];
        LCALL   ?Subroutine34 & 0xFFFF
// 1308   uint8 buf[sizeof(associated_devices_t)];
// 1309 
// 1310   packDev_t(buf, AssocFindDevice(pBuf[MT_RPC_FRAME_HDR_SZ]));
??CrossCallReturnLabel_53:
        MOVX    A,@DPTR
        MOV     R1,A
        LCALL   ??AssocFindDevice?relay
        LCALL   ?Subroutine29 & 0xFFFF
// 1311   MT_BuildAndSendZToolResponse(((uint8)MT_RPC_CMD_SRSP | (uint8)MT_RPC_SYS_UTIL), cmdId,
// 1312                                        sizeof(associated_devices_t), buf);
??CrossCallReturnLabel_44:
        MOV     A,R6
        MOV     R2,A
        CFI EndBlock cfiBlock112
        REQUIRE ?Subroutine6
        ; // Fall through to label ?Subroutine6
// 1313 }

        RSEG BANKED_CODE:CODE:NOROOT(0)
?Subroutine6:
        CFI Block cfiBlock113 Using cfiCommon0
        CFI NoFunction
        CFI CFA_SP SP+0
        CFI CFA_XSP16 add(XSP16, 27)
        CFI VB load(1, XDATA, add(CFA_XSP16, literal(-8)))
        CFI DPL0 load(1, XDATA, add(CFA_XSP16, literal(-2)))
        CFI DPH0 load(1, XDATA, add(CFA_XSP16, literal(-1)))
        CFI R6 load(1, XDATA, add(CFA_XSP16, literal(-9)))
        CFI R7 load(1, XDATA, add(CFA_XSP16, literal(-6)))
        CFI V0 load(1, XDATA, add(CFA_XSP16, literal(-7)))
        CFI ?BRET_EXT load(1, XDATA, add(CFA_XSP16, literal(-3)))
        CFI ?RET_HIGH load(1, XDATA, add(CFA_XSP16, literal(-4)))
        CFI ?RET_LOW load(1, XDATA, add(CFA_XSP16, literal(-5)))
        MOV     R1,#0x67
        LCALL   ??MT_BuildAndSendZToolResponse?relay
        MOV     A,#0x12
        LJMP    ??Subroutine45_0 & 0xFFFF
        CFI EndBlock cfiBlock113

        RSEG BANKED_CODE:CODE:NOROOT(0)
?Subroutine34:
        CFI Block cfiCond114 Using cfiCommon0
        CFI NoFunction
        CFI Conditional ??CrossCallReturnLabel_52, ??CrossCallReturnLabel_18
        CFI R6 load(1, XDATA, add(CFA_XSP16, literal(-15)))
        CFI VB load(1, XDATA, add(CFA_XSP16, literal(-14)))
        CFI V0 load(1, XDATA, add(CFA_XSP16, literal(-13)))
        CFI V1 load(1, XDATA, add(CFA_XSP16, literal(-12)))
        CFI V2 load(1, XDATA, add(CFA_XSP16, literal(-11)))
        CFI V3 load(1, XDATA, add(CFA_XSP16, literal(-10)))
        CFI V4 load(1, XDATA, add(CFA_XSP16, literal(-9)))
        CFI V5 load(1, XDATA, add(CFA_XSP16, literal(-8)))
        CFI V6 load(1, XDATA, add(CFA_XSP16, literal(-7)))
        CFI R7 load(1, XDATA, add(CFA_XSP16, literal(-6)))
        CFI ?RET_LOW load(1, XDATA, add(CFA_XSP16, literal(-5)))
        CFI ?RET_HIGH load(1, XDATA, add(CFA_XSP16, literal(-4)))
        CFI ?BRET_EXT load(1, XDATA, add(CFA_XSP16, literal(-3)))
        CFI DPL0 load(1, XDATA, add(CFA_XSP16, literal(-2)))
        CFI DPH0 load(1, XDATA, add(CFA_XSP16, literal(-1)))
        CFI CFA_SP SP+0
        CFI CFA_XSP16 add(XSP16, 37)
        CFI Block cfiCond115 Using cfiCommon0
        CFI (cfiCond115) NoFunction
        CFI (cfiCond115) Conditional ??CrossCallReturnLabel_52, ??CrossCallReturnLabel_19
        CFI (cfiCond115) R6 load(1, XDATA, add(CFA_XSP16, literal(-11)))
        CFI (cfiCond115) VB load(1, XDATA, add(CFA_XSP16, literal(-10)))
        CFI (cfiCond115) V0 load(1, XDATA, add(CFA_XSP16, literal(-9)))
        CFI (cfiCond115) V1 load(1, XDATA, add(CFA_XSP16, literal(-8)))
        CFI (cfiCond115) V2 load(1, XDATA, add(CFA_XSP16, literal(-7)))
        CFI (cfiCond115) R7 load(1, XDATA, add(CFA_XSP16, literal(-6)))
        CFI (cfiCond115) ?RET_LOW load(1, XDATA, add(CFA_XSP16, literal(-5)))
        CFI (cfiCond115) ?RET_HIGH load(1, XDATA, add(CFA_XSP16, literal(-4)))
        CFI (cfiCond115) ?BRET_EXT load(1, XDATA, add(CFA_XSP16, literal(-3)))
        CFI (cfiCond115) DPL0 load(1, XDATA, add(CFA_XSP16, literal(-2)))
        CFI (cfiCond115) DPH0 load(1, XDATA, add(CFA_XSP16, literal(-1)))
        CFI (cfiCond115) CFA_SP SP+0
        CFI (cfiCond115) CFA_XSP16 add(XSP16, 26)
        CFI Block cfiCond116 Using cfiCommon0
        CFI (cfiCond116) NoFunction
        CFI (cfiCond116) Conditional ??CrossCallReturnLabel_53
        CFI (cfiCond116) R6 load(1, XDATA, add(CFA_XSP16, literal(-9)))
        CFI (cfiCond116) VB load(1, XDATA, add(CFA_XSP16, literal(-8)))
        CFI (cfiCond116) V0 load(1, XDATA, add(CFA_XSP16, literal(-7)))
        CFI (cfiCond116) R7 load(1, XDATA, add(CFA_XSP16, literal(-6)))
        CFI (cfiCond116) ?RET_LOW load(1, XDATA, add(CFA_XSP16, literal(-5)))
        CFI (cfiCond116) ?RET_HIGH load(1, XDATA, add(CFA_XSP16, literal(-4)))
        CFI (cfiCond116) ?BRET_EXT load(1, XDATA, add(CFA_XSP16, literal(-3)))
        CFI (cfiCond116) DPL0 load(1, XDATA, add(CFA_XSP16, literal(-2)))
        CFI (cfiCond116) DPH0 load(1, XDATA, add(CFA_XSP16, literal(-1)))
        CFI (cfiCond116) CFA_SP SP+0
        CFI (cfiCond116) CFA_XSP16 add(XSP16, 27)
        CFI Block cfiPicker117 Using cfiCommon1
        CFI (cfiPicker117) NoFunction
        CFI (cfiPicker117) Picker
        MOV     DPL,R2
        MOV     DPH,R3
        INC     DPTR
        INC     DPTR
        MOVX    A,@DPTR
        MOV     R6,A
        ; Setup parameters for call to function osal_memcpy
        ; Setup parameters for call to function osal_memcpy
        ; Setup parameters for call to function packDev_t
        ; Setup parameters for call to function AssocFindDevice
        MOV     DPL,R2
        MOV     DPH,R3
        INC     DPTR
        INC     DPTR
        INC     DPTR
        RET
        CFI EndBlock cfiCond114
        CFI EndBlock cfiCond115
        CFI EndBlock cfiCond116
        CFI EndBlock cfiPicker117
// 1314 
// 1315 /***************************************************************************************************
// 1316  * @fn      MT_UtilAssocGetWithAddress
// 1317  *
// 1318  * @brief   Get an associated device by address.
// 1319  *
// 1320  * @param   pBuf - pointer to the received buffer
// 1321  *
// 1322  * @return  void
// 1323  ***************************************************************************************************/

        RSEG BANKED_CODE:CODE:NOROOT(0)
// 1324 static void MT_UtilAssocGetWithAddress(uint8 *pBuf)
MT_UtilAssocGetWithAddress:
        CFI Block cfiBlock118 Using cfiCommon0
        CFI Function MT_UtilAssocGetWithAddress
        CODE
// 1325 {
        FUNCALL MT_UtilAssocGetWithAddress, AddrMgrExtAddrValid
        LOCFRAME ISTACK, 0, STACK
        LOCFRAME PSTACK, 0, STACK
        LOCFRAME XSTACK, 27, STACK
        LOCFRAME IOVERLAY, 0, STATIC
        LOCFRAME DOVERLAY, 0, STATIC
        ARGFRAME ISTACK, 0, STACK
        ARGFRAME PSTACK, 0, STACK
        ARGFRAME XSTACK, 27, STACK
        ARGFRAME IOVERLAY, 0, STATIC
        ARGFRAME DOVERLAY, 0, STATIC
        FUNCALL MT_UtilAssocGetWithAddress, AssocGetWithAddress
        LOCFRAME ISTACK, 0, STACK
        LOCFRAME PSTACK, 0, STACK
        LOCFRAME XSTACK, 27, STACK
        LOCFRAME IOVERLAY, 0, STATIC
        LOCFRAME DOVERLAY, 0, STATIC
        ARGFRAME ISTACK, 0, STACK
        ARGFRAME PSTACK, 0, STACK
        ARGFRAME XSTACK, 27, STACK
        ARGFRAME IOVERLAY, 0, STATIC
        ARGFRAME DOVERLAY, 0, STATIC
        FUNCALL MT_UtilAssocGetWithAddress, packDev_t
        LOCFRAME ISTACK, 0, STACK
        LOCFRAME PSTACK, 0, STACK
        LOCFRAME XSTACK, 27, STACK
        LOCFRAME IOVERLAY, 0, STATIC
        LOCFRAME DOVERLAY, 0, STATIC
        ARGFRAME ISTACK, 0, STACK
        ARGFRAME PSTACK, 0, STACK
        ARGFRAME XSTACK, 27, STACK
        ARGFRAME IOVERLAY, 0, STATIC
        ARGFRAME DOVERLAY, 0, STATIC
        FUNCALL MT_UtilAssocGetWithAddress, MT_BuildAndSendZToolResponse
        LOCFRAME ISTACK, 0, STACK
        LOCFRAME PSTACK, 0, STACK
        LOCFRAME XSTACK, 27, STACK
        LOCFRAME IOVERLAY, 0, STATIC
        LOCFRAME DOVERLAY, 0, STATIC
        ARGFRAME ISTACK, 0, STACK
        ARGFRAME PSTACK, 0, STACK
        ARGFRAME XSTACK, 27, STACK
        ARGFRAME IOVERLAY, 0, STATIC
        ARGFRAME DOVERLAY, 0, STATIC
        MOV     A,#-0x9
        LCALL   ?BANKED_ENTER_XDATA
        CFI DPH0 load(1, XDATA, add(CFA_XSP16, literal(-1)))
        CFI DPL0 load(1, XDATA, add(CFA_XSP16, literal(-2)))
        CFI ?BRET_EXT load(1, XDATA, add(CFA_XSP16, literal(-3)))
        CFI ?RET_HIGH load(1, XDATA, add(CFA_XSP16, literal(-4)))
        CFI ?RET_LOW load(1, XDATA, add(CFA_XSP16, literal(-5)))
        CFI R7 load(1, XDATA, add(CFA_XSP16, literal(-6)))
        CFI V0 load(1, XDATA, add(CFA_XSP16, literal(-7)))
        CFI VB load(1, XDATA, add(CFA_XSP16, literal(-8)))
        CFI R6 load(1, XDATA, add(CFA_XSP16, literal(-9)))
        CFI CFA_SP SP+0
        CFI CFA_XSP16 add(XSP16, 9)
        ; Saved register size: 9
        ; Auto size: 18
        MOV     A,#-0x12
        LCALL   ?ALLOC_XSTACK8
        CFI CFA_XSP16 add(XSP16, 27)
        MOV     A,R2
        MOV     R6,A
        MOV     A,R3
        MOV     R7,A
// 1326   extern associated_devices_t *AssocGetWithAddress(uint8 *extAddr, uint16 shortAddr);
// 1327   uint8 cmdId = pBuf[MT_RPC_POS_CMD1];
        MOV     DPL,R6
        MOV     DPH,R7
        INC     DPTR
        INC     DPTR
        MOVX    A,@DPTR
        MOV     ?V0 + 0,A
// 1328   uint8 buf[sizeof(associated_devices_t)];
// 1329 
// 1330   pBuf += MT_RPC_FRAME_HDR_SZ;
        LCALL   ?Subroutine17 & 0xFFFF
// 1331   packDev_t(buf, AssocGetWithAddress(((AddrMgrExtAddrValid(pBuf)) ? pBuf : NULL),
// 1332                                   BUILD_UINT16(pBuf[Z_EXTADDR_LEN], pBuf[Z_EXTADDR_LEN+1])));
??CrossCallReturnLabel_22:
        ; Setup parameters for call to function AddrMgrExtAddrValid
        INC     R2
        INC     R2
        INC     R2
        MOV     R3,A
        LCALL   ??AddrMgrExtAddrValid?relay
        MOV     A,R1
        JZ      ??MT_UtilAssocGetWithAddress_0
        MOV     A,R6
        MOV     R2,A
        MOV     A,R7
        MOV     R3,A
        SJMP    ??MT_UtilAssocGetWithAddress_1
??MT_UtilAssocGetWithAddress_0:
        MOV     R2,#0x0
        MOV     R3,#0x0
??MT_UtilAssocGetWithAddress_1:
        ; Setup parameters for call to function packDev_t
        ; Setup parameters for call to function AssocGetWithAddress
        MOV     DPL,R6
        MOV     DPH,R7
        INC     DPTR
        INC     DPTR
        INC     DPTR
        INC     DPTR
        INC     DPTR
        INC     DPTR
        INC     DPTR
        INC     DPTR
        MOVX    A,@DPTR
        MOV     R4,A
        MOV     DPL,R6
        MOV     DPH,R7
        INC     DPTR
        INC     DPTR
        INC     DPTR
        INC     DPTR
        INC     DPTR
        INC     DPTR
        INC     DPTR
        INC     DPTR
        INC     DPTR
        MOVX    A,@DPTR
        MOV     R1,A
        MOV     A,R4
        ADD     A,#0x0
        CLR     A
        ADDC    A,R1
        MOV     R5,A
        LCALL   ??AssocGetWithAddress?relay
        LCALL   ?Subroutine29 & 0xFFFF
// 1333 
// 1334   MT_BuildAndSendZToolResponse(((uint8)MT_RPC_CMD_SRSP | (uint8)MT_RPC_SYS_UTIL), cmdId,
// 1335                                        sizeof(associated_devices_t), buf);
??CrossCallReturnLabel_45:
        MOV     R2,?V0 + 0
        SJMP    ?Subroutine6
        CFI EndBlock cfiBlock118
// 1336 }

        RSEG BANKED_CODE:CODE:NOROOT(0)
?Subroutine29:
        CFI Block cfiCond119 Using cfiCommon0
        CFI NoFunction
        CFI Conditional ??CrossCallReturnLabel_44
        CFI R6 load(1, XDATA, add(CFA_XSP16, literal(-9)))
        CFI VB load(1, XDATA, add(CFA_XSP16, literal(-8)))
        CFI V0 load(1, XDATA, add(CFA_XSP16, literal(-7)))
        CFI R7 load(1, XDATA, add(CFA_XSP16, literal(-6)))
        CFI ?RET_LOW load(1, XDATA, add(CFA_XSP16, literal(-5)))
        CFI ?RET_HIGH load(1, XDATA, add(CFA_XSP16, literal(-4)))
        CFI ?BRET_EXT load(1, XDATA, add(CFA_XSP16, literal(-3)))
        CFI DPL0 load(1, XDATA, add(CFA_XSP16, literal(-2)))
        CFI DPH0 load(1, XDATA, add(CFA_XSP16, literal(-1)))
        CFI CFA_SP SP+0
        CFI CFA_XSP16 add(XSP16, 27)
        CFI Block cfiCond120 Using cfiCommon0
        CFI (cfiCond120) NoFunction
        CFI (cfiCond120) Conditional ??CrossCallReturnLabel_45
        CFI (cfiCond120) R6 load(1, XDATA, add(CFA_XSP16, literal(-9)))
        CFI (cfiCond120) VB load(1, XDATA, add(CFA_XSP16, literal(-8)))
        CFI (cfiCond120) V0 load(1, XDATA, add(CFA_XSP16, literal(-7)))
        CFI (cfiCond120) R7 load(1, XDATA, add(CFA_XSP16, literal(-6)))
        CFI (cfiCond120) ?RET_LOW load(1, XDATA, add(CFA_XSP16, literal(-5)))
        CFI (cfiCond120) ?RET_HIGH load(1, XDATA, add(CFA_XSP16, literal(-4)))
        CFI (cfiCond120) ?BRET_EXT load(1, XDATA, add(CFA_XSP16, literal(-3)))
        CFI (cfiCond120) DPL0 load(1, XDATA, add(CFA_XSP16, literal(-2)))
        CFI (cfiCond120) DPH0 load(1, XDATA, add(CFA_XSP16, literal(-1)))
        CFI (cfiCond120) CFA_SP SP+0
        CFI (cfiCond120) CFA_XSP16 add(XSP16, 27)
        CFI Block cfiPicker121 Using cfiCommon1
        CFI (cfiPicker121) NoFunction
        CFI (cfiPicker121) Picker
        MOV     A,R2
        MOV     R4,A
        MOV     A,R3
        MOV     R5,A
        MOV     DPL,?XSP + 0
        MOV     DPH,?XSP + 1
        MOV     R2,DPL
        MOV     R3,DPH
        LCALL   ??packDev_t?relay
        ; Setup parameters for call to function MT_BuildAndSendZToolResponse
        ; Setup parameters for call to function MT_BuildAndSendZToolResponse
        MOV     DPL,?XSP + 0
        MOV     DPH,?XSP + 1
        MOV     R4,DPL
        MOV     R5,DPH
        MOV     R3,#0x12
        RET
        CFI EndBlock cfiCond119
        CFI EndBlock cfiCond120
        CFI EndBlock cfiPicker121
// 1337 
// 1338 /***************************************************************************************************
// 1339  * @fn      packDev_t
// 1340  *
// 1341  * @brief   Pack an associated_devices_t structure into a byte buffer (pack INVALID_NODE_ADDR if
// 1342  *          the pDev parameter is NULL).
// 1343  *
// 1344  * @param   pBuf - pointer to the buffer into which to pack the structure.
// 1345  * @param   pDev - pointer to the structure.
// 1346  *
// 1347  * @return  void
// 1348  ***************************************************************************************************/

        RSEG BANKED_CODE:CODE:NOROOT(0)
// 1349 static void packDev_t(uint8 *pBuf, associated_devices_t *pDev)
packDev_t:
        CFI Block cfiBlock122 Using cfiCommon0
        CFI Function packDev_t
        CODE
// 1350 {
        MOV     A,#-0xc
        LCALL   ?BANKED_ENTER_XDATA
        CFI DPH0 load(1, XDATA, add(CFA_XSP16, literal(-1)))
        CFI DPL0 load(1, XDATA, add(CFA_XSP16, literal(-2)))
        CFI ?BRET_EXT load(1, XDATA, add(CFA_XSP16, literal(-3)))
        CFI ?RET_HIGH load(1, XDATA, add(CFA_XSP16, literal(-4)))
        CFI ?RET_LOW load(1, XDATA, add(CFA_XSP16, literal(-5)))
        CFI R7 load(1, XDATA, add(CFA_XSP16, literal(-6)))
        CFI V3 load(1, XDATA, add(CFA_XSP16, literal(-7)))
        CFI V2 load(1, XDATA, add(CFA_XSP16, literal(-8)))
        CFI V1 load(1, XDATA, add(CFA_XSP16, literal(-9)))
        CFI V0 load(1, XDATA, add(CFA_XSP16, literal(-10)))
        CFI VB load(1, XDATA, add(CFA_XSP16, literal(-11)))
        CFI R6 load(1, XDATA, add(CFA_XSP16, literal(-12)))
        CFI CFA_SP SP+0
        CFI CFA_XSP16 add(XSP16, 12)
        ; Saved register size: 12
        ; Auto size: 0
// 1351   if (NULL == pDev)
        MOV     A,R4
        ORL     A,R5
        JNZ     ??packDev_t_0
// 1352   {
// 1353     uint16 rtrn = INVALID_NODE_ADDR;
// 1354     *pBuf++ = LO_UINT16(rtrn);
        MOV     DPL,R2
        MOV     DPH,R3
        MOV     A,#-0x2
        MOVX    @DPTR,A
        INC     DPTR
// 1355     *pBuf++ = HI_UINT16(rtrn);
        INC     A
        LJMP    ??CrossCallReturnLabel_13 & 0xFFFF
// 1356   }
// 1357   else
// 1358   {
// 1359     *pBuf++ = LO_UINT16(pDev->shortAddr);
??packDev_t_0:
        MOV     DPL,R4
        MOV     DPH,R5
        MOVX    A,@DPTR
        MOV     DPL,R2
        MOV     DPH,R3
        MOVX    @DPTR,A
        INC     DPTR
        MOV     R2,DPL
        MOV     R3,DPH
// 1360     *pBuf++ = HI_UINT16(pDev->shortAddr);
        MOV     DPL,R4
        MOV     DPH,R5
        LCALL   ?Subroutine12 & 0xFFFF
// 1361     *pBuf++ = LO_UINT16(pDev->addrIdx);
??CrossCallReturnLabel_74:
        ADD     A,#0x2
        LCALL   ?Subroutine11 & 0xFFFF
// 1362     *pBuf++ = HI_UINT16(pDev->addrIdx);
??CrossCallReturnLabel_12:
        LCALL   ?Subroutine40 & 0xFFFF
// 1363     *pBuf++ = pDev->nodeRelation;
??CrossCallReturnLabel_82:
        MOV     DPL,R4
        MOV     DPH,R5
        INC     DPTR
        INC     DPTR
        INC     DPTR
        INC     DPTR
        LCALL   ?Subroutine13 & 0xFFFF
// 1364     *pBuf++ = pDev->devStatus;
??CrossCallReturnLabel_14:
        LCALL   ?Subroutine13 & 0xFFFF
// 1365     *pBuf++ = pDev->assocCnt;
??CrossCallReturnLabel_15:
        INC     DPTR
        LCALL   ?Subroutine10 & 0xFFFF
// 1366     *pBuf++ = pDev->age;
??CrossCallReturnLabel_10:
        LCALL   ?Subroutine10 & 0xFFFF
// 1367     *pBuf++ = pDev->linkInfo.txCounter;
??CrossCallReturnLabel_11:
        INC     DPTR
        LCALL   ?Subroutine9 & 0xFFFF
// 1368     *pBuf++ = pDev->linkInfo.txCost;
??CrossCallReturnLabel_8:
        LCALL   ?Subroutine9 & 0xFFFF
// 1369     *pBuf++ = pDev->linkInfo.rxLqi;
??CrossCallReturnLabel_9:
        LCALL   ?Subroutine12 & 0xFFFF
// 1370     *pBuf++ = pDev->linkInfo.inKeySeqNum;
??CrossCallReturnLabel_75:
        ADD     A,#0xb
        MOV     DPL,A
        MOV     A,R5
        ADDC    A,#0x0
        MOV     DPH,A
        LCALL   ??Subroutine49_0 & 0xFFFF
// 1371     *pBuf++ = BREAK_UINT32(pDev->linkInfo.inFrmCntr, 0);
??CrossCallReturnLabel_76:
        ADD     A,#0xc
        MOV     R0,A
        MOV     A,R5
        LCALL   ?Subroutine19 & 0xFFFF
??CrossCallReturnLabel_27:
        MOV     R0,#?V0 + 0
        LCALL   ?L_MOV_X
        LCALL   ?Subroutine21 & 0xFFFF
// 1372     *pBuf++ = BREAK_UINT32(pDev->linkInfo.inFrmCntr, 1);
??CrossCallReturnLabel_71:
        LCALL   ?L_MOV_X
        MOV     A,?V0 + 1
        MOV     DPL,R2
        MOV     DPH,R3
        LCALL   ??Subroutine48_0 & 0xFFFF
// 1373     *pBuf++ = BREAK_UINT32(pDev->linkInfo.inFrmCntr, 2);
??CrossCallReturnLabel_73:
        LCALL   ?L_MOV_X
        MOV     A,#0x10
        MOV     R0,#?V0 + 0
        LCALL   ?UL_SHR
        LCALL   ?Subroutine21 & 0xFFFF
// 1374     *pBuf++ = BREAK_UINT32(pDev->linkInfo.inFrmCntr, 3);
??CrossCallReturnLabel_72:
        LCALL   ?L_MOV_X
        MOV     A,#0x18
        MOV     R0,#?V0 + 0
        LCALL   ?UL_SHR
        MOV     DPL,R2
        MOV     DPH,R3
        MOV     A,?V0 + 0
        LCALL   ?Subroutine40 & 0xFFFF
// 1375     *pBuf++ = LO_UINT16(pDev->linkInfo.txFailure);
??CrossCallReturnLabel_83:
        MOV     A,R4
        ADD     A,#0x10
        LCALL   ?Subroutine11 & 0xFFFF
// 1376     *pBuf++ = HI_UINT16(pDev->linkInfo.txFailure);
// 1377   }
??CrossCallReturnLabel_13:
        MOVX    @DPTR,A
        CFI EndBlock cfiBlock122
// 1378 }
        REQUIRE ?Subroutine4
        ; // Fall through to label ?Subroutine4

        RSEG BANKED_CODE:CODE:NOROOT(0)
?Subroutine4:
        CFI Block cfiBlock123 Using cfiCommon0
        CFI NoFunction
        CFI CFA_SP SP+0
        CFI CFA_XSP16 add(XSP16, 12)
        CFI VB load(1, XDATA, add(CFA_XSP16, literal(-11)))
        CFI DPL0 load(1, XDATA, add(CFA_XSP16, literal(-2)))
        CFI DPH0 load(1, XDATA, add(CFA_XSP16, literal(-1)))
        CFI R6 load(1, XDATA, add(CFA_XSP16, literal(-12)))
        CFI R7 load(1, XDATA, add(CFA_XSP16, literal(-6)))
        CFI V0 load(1, XDATA, add(CFA_XSP16, literal(-10)))
        CFI V1 load(1, XDATA, add(CFA_XSP16, literal(-9)))
        CFI V2 load(1, XDATA, add(CFA_XSP16, literal(-8)))
        CFI V3 load(1, XDATA, add(CFA_XSP16, literal(-7)))
        CFI ?BRET_EXT load(1, XDATA, add(CFA_XSP16, literal(-3)))
        CFI ?RET_HIGH load(1, XDATA, add(CFA_XSP16, literal(-4)))
        CFI ?RET_LOW load(1, XDATA, add(CFA_XSP16, literal(-5)))
        MOV     R7,#0x4
        LJMP    ?BANKED_LEAVE_XDATA
        CFI EndBlock cfiBlock123

        RSEG BANKED_CODE:CODE:NOROOT(0)
?Subroutine21:
        CFI Block cfiCond124 Using cfiCommon0
        CFI NoFunction
        CFI Conditional ??CrossCallReturnLabel_71
        CFI R6 load(1, XDATA, add(CFA_XSP16, literal(-12)))
        CFI VB load(1, XDATA, add(CFA_XSP16, literal(-11)))
        CFI V0 load(1, XDATA, add(CFA_XSP16, literal(-10)))
        CFI V1 load(1, XDATA, add(CFA_XSP16, literal(-9)))
        CFI V2 load(1, XDATA, add(CFA_XSP16, literal(-8)))
        CFI V3 load(1, XDATA, add(CFA_XSP16, literal(-7)))
        CFI R7 load(1, XDATA, add(CFA_XSP16, literal(-6)))
        CFI ?RET_LOW load(1, XDATA, add(CFA_XSP16, literal(-5)))
        CFI ?RET_HIGH load(1, XDATA, add(CFA_XSP16, literal(-4)))
        CFI ?BRET_EXT load(1, XDATA, add(CFA_XSP16, literal(-3)))
        CFI DPL0 load(1, XDATA, add(CFA_XSP16, literal(-2)))
        CFI DPH0 load(1, XDATA, add(CFA_XSP16, literal(-1)))
        CFI CFA_SP SP+0
        CFI CFA_XSP16 add(XSP16, 12)
        CFI Block cfiCond125 Using cfiCommon0
        CFI (cfiCond125) NoFunction
        CFI (cfiCond125) Conditional ??CrossCallReturnLabel_72
        CFI (cfiCond125) R6 load(1, XDATA, add(CFA_XSP16, literal(-12)))
        CFI (cfiCond125) VB load(1, XDATA, add(CFA_XSP16, literal(-11)))
        CFI (cfiCond125) V0 load(1, XDATA, add(CFA_XSP16, literal(-10)))
        CFI (cfiCond125) V1 load(1, XDATA, add(CFA_XSP16, literal(-9)))
        CFI (cfiCond125) V2 load(1, XDATA, add(CFA_XSP16, literal(-8)))
        CFI (cfiCond125) V3 load(1, XDATA, add(CFA_XSP16, literal(-7)))
        CFI (cfiCond125) R7 load(1, XDATA, add(CFA_XSP16, literal(-6)))
        CFI (cfiCond125) ?RET_LOW load(1, XDATA, add(CFA_XSP16, literal(-5)))
        CFI (cfiCond125) ?RET_HIGH load(1, XDATA, add(CFA_XSP16, literal(-4)))
        CFI (cfiCond125) ?BRET_EXT load(1, XDATA, add(CFA_XSP16, literal(-3)))
        CFI (cfiCond125) DPL0 load(1, XDATA, add(CFA_XSP16, literal(-2)))
        CFI (cfiCond125) DPH0 load(1, XDATA, add(CFA_XSP16, literal(-1)))
        CFI (cfiCond125) CFA_SP SP+0
        CFI (cfiCond125) CFA_XSP16 add(XSP16, 12)
        CFI Block cfiPicker126 Using cfiCommon1
        CFI (cfiPicker126) NoFunction
        CFI (cfiPicker126) Picker
        MOV     DPL,R2
        MOV     DPH,R3
        MOV     A,?V0 + 0
        CFI EndBlock cfiCond124
        CFI EndBlock cfiCond125
        CFI EndBlock cfiPicker126
        REQUIRE ??Subroutine48_0
        ; // Fall through to label ??Subroutine48_0

        RSEG BANKED_CODE:CODE:NOROOT(0)
??Subroutine48_0:
        CFI Block cfiCond127 Using cfiCommon0
        CFI NoFunction
        CFI Conditional ??CrossCallReturnLabel_73
        CFI R6 load(1, XDATA, add(CFA_XSP16, literal(-12)))
        CFI VB load(1, XDATA, add(CFA_XSP16, literal(-11)))
        CFI V0 load(1, XDATA, add(CFA_XSP16, literal(-10)))
        CFI V1 load(1, XDATA, add(CFA_XSP16, literal(-9)))
        CFI V2 load(1, XDATA, add(CFA_XSP16, literal(-8)))
        CFI V3 load(1, XDATA, add(CFA_XSP16, literal(-7)))
        CFI R7 load(1, XDATA, add(CFA_XSP16, literal(-6)))
        CFI ?RET_LOW load(1, XDATA, add(CFA_XSP16, literal(-5)))
        CFI ?RET_HIGH load(1, XDATA, add(CFA_XSP16, literal(-4)))
        CFI ?BRET_EXT load(1, XDATA, add(CFA_XSP16, literal(-3)))
        CFI DPL0 load(1, XDATA, add(CFA_XSP16, literal(-2)))
        CFI DPH0 load(1, XDATA, add(CFA_XSP16, literal(-1)))
        CFI CFA_SP SP+0
        CFI CFA_XSP16 add(XSP16, 12)
        CFI Block cfiCond128 Using cfiCommon0
        CFI (cfiCond128) NoFunction
        CFI (cfiCond128) Conditional ??CrossCallReturnLabel_71
        CFI (cfiCond128) R6 load(1, XDATA, add(CFA_XSP16, literal(-12)))
        CFI (cfiCond128) VB load(1, XDATA, add(CFA_XSP16, literal(-11)))
        CFI (cfiCond128) V0 load(1, XDATA, add(CFA_XSP16, literal(-10)))
        CFI (cfiCond128) V1 load(1, XDATA, add(CFA_XSP16, literal(-9)))
        CFI (cfiCond128) V2 load(1, XDATA, add(CFA_XSP16, literal(-8)))
        CFI (cfiCond128) V3 load(1, XDATA, add(CFA_XSP16, literal(-7)))
        CFI (cfiCond128) R7 load(1, XDATA, add(CFA_XSP16, literal(-6)))
        CFI (cfiCond128) ?RET_LOW load(1, XDATA, add(CFA_XSP16, literal(-5)))
        CFI (cfiCond128) ?RET_HIGH load(1, XDATA, add(CFA_XSP16, literal(-4)))
        CFI (cfiCond128) ?BRET_EXT load(1, XDATA, add(CFA_XSP16, literal(-3)))
        CFI (cfiCond128) DPL0 load(1, XDATA, add(CFA_XSP16, literal(-2)))
        CFI (cfiCond128) DPH0 load(1, XDATA, add(CFA_XSP16, literal(-1)))
        CFI (cfiCond128) CFA_SP SP+0
        CFI (cfiCond128) CFA_XSP16 add(XSP16, 12)
        CFI Block cfiCond129 Using cfiCommon0
        CFI (cfiCond129) NoFunction
        CFI (cfiCond129) Conditional ??CrossCallReturnLabel_72
        CFI (cfiCond129) R6 load(1, XDATA, add(CFA_XSP16, literal(-12)))
        CFI (cfiCond129) VB load(1, XDATA, add(CFA_XSP16, literal(-11)))
        CFI (cfiCond129) V0 load(1, XDATA, add(CFA_XSP16, literal(-10)))
        CFI (cfiCond129) V1 load(1, XDATA, add(CFA_XSP16, literal(-9)))
        CFI (cfiCond129) V2 load(1, XDATA, add(CFA_XSP16, literal(-8)))
        CFI (cfiCond129) V3 load(1, XDATA, add(CFA_XSP16, literal(-7)))
        CFI (cfiCond129) R7 load(1, XDATA, add(CFA_XSP16, literal(-6)))
        CFI (cfiCond129) ?RET_LOW load(1, XDATA, add(CFA_XSP16, literal(-5)))
        CFI (cfiCond129) ?RET_HIGH load(1, XDATA, add(CFA_XSP16, literal(-4)))
        CFI (cfiCond129) ?BRET_EXT load(1, XDATA, add(CFA_XSP16, literal(-3)))
        CFI (cfiCond129) DPL0 load(1, XDATA, add(CFA_XSP16, literal(-2)))
        CFI (cfiCond129) DPH0 load(1, XDATA, add(CFA_XSP16, literal(-1)))
        CFI (cfiCond129) CFA_SP SP+0
        CFI (cfiCond129) CFA_XSP16 add(XSP16, 12)
        CFI Block cfiPicker130 Using cfiCommon1
        CFI (cfiPicker130) NoFunction
        CFI (cfiPicker130) Picker
        LCALL   ?Subroutine40 & 0xFFFF
??CrossCallReturnLabel_84:
        MOV     DPL,R6
        MOV     DPH,R7
        MOV     R0,#?V0 + 0
        RET
        CFI EndBlock cfiCond127
        CFI EndBlock cfiCond128
        CFI EndBlock cfiCond129
        CFI EndBlock cfiPicker130

        RSEG BANKED_CODE:CODE:NOROOT(0)
?Subroutine19:
        CFI Block cfiCond131 Using cfiCommon0
        CFI NoFunction
        CFI Conditional ??CrossCallReturnLabel_26
        CFI R6 load(1, XDATA, add(CFA_XSP16, literal(-15)))
        CFI VB load(1, XDATA, add(CFA_XSP16, literal(-14)))
        CFI V0 load(1, XDATA, add(CFA_XSP16, literal(-13)))
        CFI V1 load(1, XDATA, add(CFA_XSP16, literal(-12)))
        CFI V2 load(1, XDATA, add(CFA_XSP16, literal(-11)))
        CFI V3 load(1, XDATA, add(CFA_XSP16, literal(-10)))
        CFI V4 load(1, XDATA, add(CFA_XSP16, literal(-9)))
        CFI V5 load(1, XDATA, add(CFA_XSP16, literal(-8)))
        CFI V6 load(1, XDATA, add(CFA_XSP16, literal(-7)))
        CFI R7 load(1, XDATA, add(CFA_XSP16, literal(-6)))
        CFI ?RET_LOW load(1, XDATA, add(CFA_XSP16, literal(-5)))
        CFI ?RET_HIGH load(1, XDATA, add(CFA_XSP16, literal(-4)))
        CFI ?BRET_EXT load(1, XDATA, add(CFA_XSP16, literal(-3)))
        CFI DPL0 load(1, XDATA, add(CFA_XSP16, literal(-2)))
        CFI DPH0 load(1, XDATA, add(CFA_XSP16, literal(-1)))
        CFI CFA_SP SP+0
        CFI CFA_XSP16 add(XSP16, 37)
        CFI Block cfiCond132 Using cfiCommon0
        CFI (cfiCond132) NoFunction
        CFI (cfiCond132) Conditional ??CrossCallReturnLabel_27
        CFI (cfiCond132) R6 load(1, XDATA, add(CFA_XSP16, literal(-12)))
        CFI (cfiCond132) VB load(1, XDATA, add(CFA_XSP16, literal(-11)))
        CFI (cfiCond132) V0 load(1, XDATA, add(CFA_XSP16, literal(-10)))
        CFI (cfiCond132) V1 load(1, XDATA, add(CFA_XSP16, literal(-9)))
        CFI (cfiCond132) V2 load(1, XDATA, add(CFA_XSP16, literal(-8)))
        CFI (cfiCond132) V3 load(1, XDATA, add(CFA_XSP16, literal(-7)))
        CFI (cfiCond132) R7 load(1, XDATA, add(CFA_XSP16, literal(-6)))
        CFI (cfiCond132) ?RET_LOW load(1, XDATA, add(CFA_XSP16, literal(-5)))
        CFI (cfiCond132) ?RET_HIGH load(1, XDATA, add(CFA_XSP16, literal(-4)))
        CFI (cfiCond132) ?BRET_EXT load(1, XDATA, add(CFA_XSP16, literal(-3)))
        CFI (cfiCond132) DPL0 load(1, XDATA, add(CFA_XSP16, literal(-2)))
        CFI (cfiCond132) DPH0 load(1, XDATA, add(CFA_XSP16, literal(-1)))
        CFI (cfiCond132) CFA_SP SP+0
        CFI (cfiCond132) CFA_XSP16 add(XSP16, 12)
        CFI Block cfiPicker133 Using cfiCommon1
        CFI (cfiPicker133) NoFunction
        CFI (cfiPicker133) Picker
        ADDC    A,#0x0
        MOV     R1,A
        MOV     A,R0
        MOV     R6,A
        MOV     A,R1
        MOV     R7,A
        MOV     DPL,R6
        MOV     DPH,R7
        RET
        CFI EndBlock cfiCond131
        CFI EndBlock cfiCond132
        CFI EndBlock cfiPicker133

        RSEG BANKED_CODE:CODE:NOROOT(0)
?Subroutine13:
        CFI Block cfiCond134 Using cfiCommon0
        CFI NoFunction
        CFI Conditional ??CrossCallReturnLabel_14
        CFI R6 load(1, XDATA, add(CFA_XSP16, literal(-12)))
        CFI VB load(1, XDATA, add(CFA_XSP16, literal(-11)))
        CFI V0 load(1, XDATA, add(CFA_XSP16, literal(-10)))
        CFI V1 load(1, XDATA, add(CFA_XSP16, literal(-9)))
        CFI V2 load(1, XDATA, add(CFA_XSP16, literal(-8)))
        CFI V3 load(1, XDATA, add(CFA_XSP16, literal(-7)))
        CFI R7 load(1, XDATA, add(CFA_XSP16, literal(-6)))
        CFI ?RET_LOW load(1, XDATA, add(CFA_XSP16, literal(-5)))
        CFI ?RET_HIGH load(1, XDATA, add(CFA_XSP16, literal(-4)))
        CFI ?BRET_EXT load(1, XDATA, add(CFA_XSP16, literal(-3)))
        CFI DPL0 load(1, XDATA, add(CFA_XSP16, literal(-2)))
        CFI DPH0 load(1, XDATA, add(CFA_XSP16, literal(-1)))
        CFI CFA_SP SP+0
        CFI CFA_XSP16 add(XSP16, 12)
        CFI Block cfiCond135 Using cfiCommon0
        CFI (cfiCond135) NoFunction
        CFI (cfiCond135) Conditional ??CrossCallReturnLabel_15
        CFI (cfiCond135) R6 load(1, XDATA, add(CFA_XSP16, literal(-12)))
        CFI (cfiCond135) VB load(1, XDATA, add(CFA_XSP16, literal(-11)))
        CFI (cfiCond135) V0 load(1, XDATA, add(CFA_XSP16, literal(-10)))
        CFI (cfiCond135) V1 load(1, XDATA, add(CFA_XSP16, literal(-9)))
        CFI (cfiCond135) V2 load(1, XDATA, add(CFA_XSP16, literal(-8)))
        CFI (cfiCond135) V3 load(1, XDATA, add(CFA_XSP16, literal(-7)))
        CFI (cfiCond135) R7 load(1, XDATA, add(CFA_XSP16, literal(-6)))
        CFI (cfiCond135) ?RET_LOW load(1, XDATA, add(CFA_XSP16, literal(-5)))
        CFI (cfiCond135) ?RET_HIGH load(1, XDATA, add(CFA_XSP16, literal(-4)))
        CFI (cfiCond135) ?BRET_EXT load(1, XDATA, add(CFA_XSP16, literal(-3)))
        CFI (cfiCond135) DPL0 load(1, XDATA, add(CFA_XSP16, literal(-2)))
        CFI (cfiCond135) DPH0 load(1, XDATA, add(CFA_XSP16, literal(-1)))
        CFI (cfiCond135) CFA_SP SP+0
        CFI (cfiCond135) CFA_XSP16 add(XSP16, 12)
        CFI Block cfiPicker136 Using cfiCommon1
        CFI (cfiPicker136) NoFunction
        CFI (cfiPicker136) Picker
        LCALL   ?Subroutine31 & 0xFFFF
??CrossCallReturnLabel_78:
        MOV     DPL,R4
        MOV     DPH,R5
        INC     DPTR
        INC     DPTR
        INC     DPTR
        INC     DPTR
        INC     DPTR
        RET
        CFI EndBlock cfiCond134
        CFI EndBlock cfiCond135
        CFI EndBlock cfiPicker136

        RSEG BANKED_CODE:CODE:NOROOT(0)
?Subroutine12:
        CFI Block cfiCond137 Using cfiCommon0
        CFI NoFunction
        CFI Conditional ??CrossCallReturnLabel_74
        CFI R6 load(1, XDATA, add(CFA_XSP16, literal(-12)))
        CFI VB load(1, XDATA, add(CFA_XSP16, literal(-11)))
        CFI V0 load(1, XDATA, add(CFA_XSP16, literal(-10)))
        CFI V1 load(1, XDATA, add(CFA_XSP16, literal(-9)))
        CFI V2 load(1, XDATA, add(CFA_XSP16, literal(-8)))
        CFI V3 load(1, XDATA, add(CFA_XSP16, literal(-7)))
        CFI R7 load(1, XDATA, add(CFA_XSP16, literal(-6)))
        CFI ?RET_LOW load(1, XDATA, add(CFA_XSP16, literal(-5)))
        CFI ?RET_HIGH load(1, XDATA, add(CFA_XSP16, literal(-4)))
        CFI ?BRET_EXT load(1, XDATA, add(CFA_XSP16, literal(-3)))
        CFI DPL0 load(1, XDATA, add(CFA_XSP16, literal(-2)))
        CFI DPH0 load(1, XDATA, add(CFA_XSP16, literal(-1)))
        CFI CFA_SP SP+0
        CFI CFA_XSP16 add(XSP16, 12)
        CFI Block cfiCond138 Using cfiCommon0
        CFI (cfiCond138) NoFunction
        CFI (cfiCond138) Conditional ??CrossCallReturnLabel_75
        CFI (cfiCond138) R6 load(1, XDATA, add(CFA_XSP16, literal(-12)))
        CFI (cfiCond138) VB load(1, XDATA, add(CFA_XSP16, literal(-11)))
        CFI (cfiCond138) V0 load(1, XDATA, add(CFA_XSP16, literal(-10)))
        CFI (cfiCond138) V1 load(1, XDATA, add(CFA_XSP16, literal(-9)))
        CFI (cfiCond138) V2 load(1, XDATA, add(CFA_XSP16, literal(-8)))
        CFI (cfiCond138) V3 load(1, XDATA, add(CFA_XSP16, literal(-7)))
        CFI (cfiCond138) R7 load(1, XDATA, add(CFA_XSP16, literal(-6)))
        CFI (cfiCond138) ?RET_LOW load(1, XDATA, add(CFA_XSP16, literal(-5)))
        CFI (cfiCond138) ?RET_HIGH load(1, XDATA, add(CFA_XSP16, literal(-4)))
        CFI (cfiCond138) ?BRET_EXT load(1, XDATA, add(CFA_XSP16, literal(-3)))
        CFI (cfiCond138) DPL0 load(1, XDATA, add(CFA_XSP16, literal(-2)))
        CFI (cfiCond138) DPH0 load(1, XDATA, add(CFA_XSP16, literal(-1)))
        CFI (cfiCond138) CFA_SP SP+0
        CFI (cfiCond138) CFA_XSP16 add(XSP16, 12)
        CFI Block cfiPicker139 Using cfiCommon1
        CFI (cfiPicker139) NoFunction
        CFI (cfiPicker139) Picker
        INC     DPTR
        CFI EndBlock cfiCond137
        CFI EndBlock cfiCond138
        CFI EndBlock cfiPicker139
        REQUIRE ??Subroutine49_0
        ; // Fall through to label ??Subroutine49_0

        RSEG BANKED_CODE:CODE:NOROOT(0)
??Subroutine49_0:
        CFI Block cfiCond140 Using cfiCommon0
        CFI NoFunction
        CFI Conditional ??CrossCallReturnLabel_76
        CFI R6 load(1, XDATA, add(CFA_XSP16, literal(-12)))
        CFI VB load(1, XDATA, add(CFA_XSP16, literal(-11)))
        CFI V0 load(1, XDATA, add(CFA_XSP16, literal(-10)))
        CFI V1 load(1, XDATA, add(CFA_XSP16, literal(-9)))
        CFI V2 load(1, XDATA, add(CFA_XSP16, literal(-8)))
        CFI V3 load(1, XDATA, add(CFA_XSP16, literal(-7)))
        CFI R7 load(1, XDATA, add(CFA_XSP16, literal(-6)))
        CFI ?RET_LOW load(1, XDATA, add(CFA_XSP16, literal(-5)))
        CFI ?RET_HIGH load(1, XDATA, add(CFA_XSP16, literal(-4)))
        CFI ?BRET_EXT load(1, XDATA, add(CFA_XSP16, literal(-3)))
        CFI DPL0 load(1, XDATA, add(CFA_XSP16, literal(-2)))
        CFI DPH0 load(1, XDATA, add(CFA_XSP16, literal(-1)))
        CFI CFA_SP SP+0
        CFI CFA_XSP16 add(XSP16, 12)
        CFI Block cfiCond141 Using cfiCommon0
        CFI (cfiCond141) NoFunction
        CFI (cfiCond141) Conditional ??CrossCallReturnLabel_74
        CFI (cfiCond141) R6 load(1, XDATA, add(CFA_XSP16, literal(-12)))
        CFI (cfiCond141) VB load(1, XDATA, add(CFA_XSP16, literal(-11)))
        CFI (cfiCond141) V0 load(1, XDATA, add(CFA_XSP16, literal(-10)))
        CFI (cfiCond141) V1 load(1, XDATA, add(CFA_XSP16, literal(-9)))
        CFI (cfiCond141) V2 load(1, XDATA, add(CFA_XSP16, literal(-8)))
        CFI (cfiCond141) V3 load(1, XDATA, add(CFA_XSP16, literal(-7)))
        CFI (cfiCond141) R7 load(1, XDATA, add(CFA_XSP16, literal(-6)))
        CFI (cfiCond141) ?RET_LOW load(1, XDATA, add(CFA_XSP16, literal(-5)))
        CFI (cfiCond141) ?RET_HIGH load(1, XDATA, add(CFA_XSP16, literal(-4)))
        CFI (cfiCond141) ?BRET_EXT load(1, XDATA, add(CFA_XSP16, literal(-3)))
        CFI (cfiCond141) DPL0 load(1, XDATA, add(CFA_XSP16, literal(-2)))
        CFI (cfiCond141) DPH0 load(1, XDATA, add(CFA_XSP16, literal(-1)))
        CFI (cfiCond141) CFA_SP SP+0
        CFI (cfiCond141) CFA_XSP16 add(XSP16, 12)
        CFI Block cfiCond142 Using cfiCommon0
        CFI (cfiCond142) NoFunction
        CFI (cfiCond142) Conditional ??CrossCallReturnLabel_75
        CFI (cfiCond142) R6 load(1, XDATA, add(CFA_XSP16, literal(-12)))
        CFI (cfiCond142) VB load(1, XDATA, add(CFA_XSP16, literal(-11)))
        CFI (cfiCond142) V0 load(1, XDATA, add(CFA_XSP16, literal(-10)))
        CFI (cfiCond142) V1 load(1, XDATA, add(CFA_XSP16, literal(-9)))
        CFI (cfiCond142) V2 load(1, XDATA, add(CFA_XSP16, literal(-8)))
        CFI (cfiCond142) V3 load(1, XDATA, add(CFA_XSP16, literal(-7)))
        CFI (cfiCond142) R7 load(1, XDATA, add(CFA_XSP16, literal(-6)))
        CFI (cfiCond142) ?RET_LOW load(1, XDATA, add(CFA_XSP16, literal(-5)))
        CFI (cfiCond142) ?RET_HIGH load(1, XDATA, add(CFA_XSP16, literal(-4)))
        CFI (cfiCond142) ?BRET_EXT load(1, XDATA, add(CFA_XSP16, literal(-3)))
        CFI (cfiCond142) DPL0 load(1, XDATA, add(CFA_XSP16, literal(-2)))
        CFI (cfiCond142) DPH0 load(1, XDATA, add(CFA_XSP16, literal(-1)))
        CFI (cfiCond142) CFA_SP SP+0
        CFI (cfiCond142) CFA_XSP16 add(XSP16, 12)
        CFI Block cfiPicker143 Using cfiCommon1
        CFI (cfiPicker143) NoFunction
        CFI (cfiPicker143) Picker
        LCALL   ?Subroutine31 & 0xFFFF
??CrossCallReturnLabel_79:
        MOV     A,R4
        RET
        CFI EndBlock cfiCond140
        CFI EndBlock cfiCond141
        CFI EndBlock cfiCond142
        CFI EndBlock cfiPicker143

        RSEG BANKED_CODE:CODE:NOROOT(0)
?Subroutine31:
        CFI Block cfiCond144 Using cfiCommon0
        CFI NoFunction
        CFI Conditional ??CrossCallReturnLabel_78, ??CrossCallReturnLabel_14
        CFI R6 load(1, XDATA, add(CFA_XSP16, literal(-12)))
        CFI VB load(1, XDATA, add(CFA_XSP16, literal(-11)))
        CFI V0 load(1, XDATA, add(CFA_XSP16, literal(-10)))
        CFI V1 load(1, XDATA, add(CFA_XSP16, literal(-9)))
        CFI V2 load(1, XDATA, add(CFA_XSP16, literal(-8)))
        CFI V3 load(1, XDATA, add(CFA_XSP16, literal(-7)))
        CFI R7 load(1, XDATA, add(CFA_XSP16, literal(-6)))
        CFI ?RET_LOW load(1, XDATA, add(CFA_XSP16, literal(-5)))
        CFI ?RET_HIGH load(1, XDATA, add(CFA_XSP16, literal(-4)))
        CFI ?BRET_EXT load(1, XDATA, add(CFA_XSP16, literal(-3)))
        CFI DPL0 load(1, XDATA, add(CFA_XSP16, literal(-2)))
        CFI DPH0 load(1, XDATA, add(CFA_XSP16, literal(-1)))
        CFI CFA_SP SP+0
        CFI CFA_XSP16 add(XSP16, 12)
        CFI Block cfiCond145 Using cfiCommon0
        CFI (cfiCond145) NoFunction
        CFI (cfiCond145) Conditional ??CrossCallReturnLabel_78, ??CrossCallReturnLabel_15
        CFI (cfiCond145) R6 load(1, XDATA, add(CFA_XSP16, literal(-12)))
        CFI (cfiCond145) VB load(1, XDATA, add(CFA_XSP16, literal(-11)))
        CFI (cfiCond145) V0 load(1, XDATA, add(CFA_XSP16, literal(-10)))
        CFI (cfiCond145) V1 load(1, XDATA, add(CFA_XSP16, literal(-9)))
        CFI (cfiCond145) V2 load(1, XDATA, add(CFA_XSP16, literal(-8)))
        CFI (cfiCond145) V3 load(1, XDATA, add(CFA_XSP16, literal(-7)))
        CFI (cfiCond145) R7 load(1, XDATA, add(CFA_XSP16, literal(-6)))
        CFI (cfiCond145) ?RET_LOW load(1, XDATA, add(CFA_XSP16, literal(-5)))
        CFI (cfiCond145) ?RET_HIGH load(1, XDATA, add(CFA_XSP16, literal(-4)))
        CFI (cfiCond145) ?BRET_EXT load(1, XDATA, add(CFA_XSP16, literal(-3)))
        CFI (cfiCond145) DPL0 load(1, XDATA, add(CFA_XSP16, literal(-2)))
        CFI (cfiCond145) DPH0 load(1, XDATA, add(CFA_XSP16, literal(-1)))
        CFI (cfiCond145) CFA_SP SP+0
        CFI (cfiCond145) CFA_XSP16 add(XSP16, 12)
        CFI Block cfiCond146 Using cfiCommon0
        CFI (cfiCond146) NoFunction
        CFI (cfiCond146) Conditional ??CrossCallReturnLabel_79, ??CrossCallReturnLabel_74
        CFI (cfiCond146) R6 load(1, XDATA, add(CFA_XSP16, literal(-12)))
        CFI (cfiCond146) VB load(1, XDATA, add(CFA_XSP16, literal(-11)))
        CFI (cfiCond146) V0 load(1, XDATA, add(CFA_XSP16, literal(-10)))
        CFI (cfiCond146) V1 load(1, XDATA, add(CFA_XSP16, literal(-9)))
        CFI (cfiCond146) V2 load(1, XDATA, add(CFA_XSP16, literal(-8)))
        CFI (cfiCond146) V3 load(1, XDATA, add(CFA_XSP16, literal(-7)))
        CFI (cfiCond146) R7 load(1, XDATA, add(CFA_XSP16, literal(-6)))
        CFI (cfiCond146) ?RET_LOW load(1, XDATA, add(CFA_XSP16, literal(-5)))
        CFI (cfiCond146) ?RET_HIGH load(1, XDATA, add(CFA_XSP16, literal(-4)))
        CFI (cfiCond146) ?BRET_EXT load(1, XDATA, add(CFA_XSP16, literal(-3)))
        CFI (cfiCond146) DPL0 load(1, XDATA, add(CFA_XSP16, literal(-2)))
        CFI (cfiCond146) DPH0 load(1, XDATA, add(CFA_XSP16, literal(-1)))
        CFI (cfiCond146) CFA_SP SP+0
        CFI (cfiCond146) CFA_XSP16 add(XSP16, 12)
        CFI Block cfiCond147 Using cfiCommon0
        CFI (cfiCond147) NoFunction
        CFI (cfiCond147) Conditional ??CrossCallReturnLabel_79, ??CrossCallReturnLabel_75
        CFI (cfiCond147) R6 load(1, XDATA, add(CFA_XSP16, literal(-12)))
        CFI (cfiCond147) VB load(1, XDATA, add(CFA_XSP16, literal(-11)))
        CFI (cfiCond147) V0 load(1, XDATA, add(CFA_XSP16, literal(-10)))
        CFI (cfiCond147) V1 load(1, XDATA, add(CFA_XSP16, literal(-9)))
        CFI (cfiCond147) V2 load(1, XDATA, add(CFA_XSP16, literal(-8)))
        CFI (cfiCond147) V3 load(1, XDATA, add(CFA_XSP16, literal(-7)))
        CFI (cfiCond147) R7 load(1, XDATA, add(CFA_XSP16, literal(-6)))
        CFI (cfiCond147) ?RET_LOW load(1, XDATA, add(CFA_XSP16, literal(-5)))
        CFI (cfiCond147) ?RET_HIGH load(1, XDATA, add(CFA_XSP16, literal(-4)))
        CFI (cfiCond147) ?BRET_EXT load(1, XDATA, add(CFA_XSP16, literal(-3)))
        CFI (cfiCond147) DPL0 load(1, XDATA, add(CFA_XSP16, literal(-2)))
        CFI (cfiCond147) DPH0 load(1, XDATA, add(CFA_XSP16, literal(-1)))
        CFI (cfiCond147) CFA_SP SP+0
        CFI (cfiCond147) CFA_XSP16 add(XSP16, 12)
        CFI Block cfiCond148 Using cfiCommon0
        CFI (cfiCond148) NoFunction
        CFI (cfiCond148) Conditional ??CrossCallReturnLabel_79, ??CrossCallReturnLabel_76
        CFI (cfiCond148) R6 load(1, XDATA, add(CFA_XSP16, literal(-12)))
        CFI (cfiCond148) VB load(1, XDATA, add(CFA_XSP16, literal(-11)))
        CFI (cfiCond148) V0 load(1, XDATA, add(CFA_XSP16, literal(-10)))
        CFI (cfiCond148) V1 load(1, XDATA, add(CFA_XSP16, literal(-9)))
        CFI (cfiCond148) V2 load(1, XDATA, add(CFA_XSP16, literal(-8)))
        CFI (cfiCond148) V3 load(1, XDATA, add(CFA_XSP16, literal(-7)))
        CFI (cfiCond148) R7 load(1, XDATA, add(CFA_XSP16, literal(-6)))
        CFI (cfiCond148) ?RET_LOW load(1, XDATA, add(CFA_XSP16, literal(-5)))
        CFI (cfiCond148) ?RET_HIGH load(1, XDATA, add(CFA_XSP16, literal(-4)))
        CFI (cfiCond148) ?BRET_EXT load(1, XDATA, add(CFA_XSP16, literal(-3)))
        CFI (cfiCond148) DPL0 load(1, XDATA, add(CFA_XSP16, literal(-2)))
        CFI (cfiCond148) DPH0 load(1, XDATA, add(CFA_XSP16, literal(-1)))
        CFI (cfiCond148) CFA_SP SP+0
        CFI (cfiCond148) CFA_XSP16 add(XSP16, 12)
        CFI Block cfiCond149 Using cfiCommon0
        CFI (cfiCond149) NoFunction
        CFI (cfiCond149) Conditional ??CrossCallReturnLabel_77, ??CrossCallReturnLabel_12
        CFI (cfiCond149) R6 load(1, XDATA, add(CFA_XSP16, literal(-12)))
        CFI (cfiCond149) VB load(1, XDATA, add(CFA_XSP16, literal(-11)))
        CFI (cfiCond149) V0 load(1, XDATA, add(CFA_XSP16, literal(-10)))
        CFI (cfiCond149) V1 load(1, XDATA, add(CFA_XSP16, literal(-9)))
        CFI (cfiCond149) V2 load(1, XDATA, add(CFA_XSP16, literal(-8)))
        CFI (cfiCond149) V3 load(1, XDATA, add(CFA_XSP16, literal(-7)))
        CFI (cfiCond149) R7 load(1, XDATA, add(CFA_XSP16, literal(-6)))
        CFI (cfiCond149) ?RET_LOW load(1, XDATA, add(CFA_XSP16, literal(-5)))
        CFI (cfiCond149) ?RET_HIGH load(1, XDATA, add(CFA_XSP16, literal(-4)))
        CFI (cfiCond149) ?BRET_EXT load(1, XDATA, add(CFA_XSP16, literal(-3)))
        CFI (cfiCond149) DPL0 load(1, XDATA, add(CFA_XSP16, literal(-2)))
        CFI (cfiCond149) DPH0 load(1, XDATA, add(CFA_XSP16, literal(-1)))
        CFI (cfiCond149) CFA_SP SP+0
        CFI (cfiCond149) CFA_XSP16 add(XSP16, 12)
        CFI Block cfiCond150 Using cfiCommon0
        CFI (cfiCond150) NoFunction
        CFI (cfiCond150) Conditional ??CrossCallReturnLabel_77, ??CrossCallReturnLabel_13
        CFI (cfiCond150) R6 load(1, XDATA, add(CFA_XSP16, literal(-12)))
        CFI (cfiCond150) VB load(1, XDATA, add(CFA_XSP16, literal(-11)))
        CFI (cfiCond150) V0 load(1, XDATA, add(CFA_XSP16, literal(-10)))
        CFI (cfiCond150) V1 load(1, XDATA, add(CFA_XSP16, literal(-9)))
        CFI (cfiCond150) V2 load(1, XDATA, add(CFA_XSP16, literal(-8)))
        CFI (cfiCond150) V3 load(1, XDATA, add(CFA_XSP16, literal(-7)))
        CFI (cfiCond150) R7 load(1, XDATA, add(CFA_XSP16, literal(-6)))
        CFI (cfiCond150) ?RET_LOW load(1, XDATA, add(CFA_XSP16, literal(-5)))
        CFI (cfiCond150) ?RET_HIGH load(1, XDATA, add(CFA_XSP16, literal(-4)))
        CFI (cfiCond150) ?BRET_EXT load(1, XDATA, add(CFA_XSP16, literal(-3)))
        CFI (cfiCond150) DPL0 load(1, XDATA, add(CFA_XSP16, literal(-2)))
        CFI (cfiCond150) DPH0 load(1, XDATA, add(CFA_XSP16, literal(-1)))
        CFI (cfiCond150) CFA_SP SP+0
        CFI (cfiCond150) CFA_XSP16 add(XSP16, 12)
        CFI Block cfiPicker151 Using cfiCommon1
        CFI (cfiPicker151) NoFunction
        CFI (cfiPicker151) Picker
        LCALL   ?Subroutine38 & 0xFFFF
??CrossCallReturnLabel_81:
        RET
        CFI EndBlock cfiCond144
        CFI EndBlock cfiCond145
        CFI EndBlock cfiCond146
        CFI EndBlock cfiCond147
        CFI EndBlock cfiCond148
        CFI EndBlock cfiCond149
        CFI EndBlock cfiCond150
        CFI EndBlock cfiPicker151

        RSEG BANKED_CODE:CODE:NOROOT(0)
?Subroutine38:
        CFI Block cfiCond152 Using cfiCommon0
        CFI NoFunction
        CFI Conditional ??CrossCallReturnLabel_81, ??CrossCallReturnLabel_78, ??CrossCallReturnLabel_14
        CFI R6 load(1, XDATA, add(CFA_XSP16, literal(-12)))
        CFI VB load(1, XDATA, add(CFA_XSP16, literal(-11)))
        CFI V0 load(1, XDATA, add(CFA_XSP16, literal(-10)))
        CFI V1 load(1, XDATA, add(CFA_XSP16, literal(-9)))
        CFI V2 load(1, XDATA, add(CFA_XSP16, literal(-8)))
        CFI V3 load(1, XDATA, add(CFA_XSP16, literal(-7)))
        CFI R7 load(1, XDATA, add(CFA_XSP16, literal(-6)))
        CFI ?RET_LOW load(1, XDATA, add(CFA_XSP16, literal(-5)))
        CFI ?RET_HIGH load(1, XDATA, add(CFA_XSP16, literal(-4)))
        CFI ?BRET_EXT load(1, XDATA, add(CFA_XSP16, literal(-3)))
        CFI DPL0 load(1, XDATA, add(CFA_XSP16, literal(-2)))
        CFI DPH0 load(1, XDATA, add(CFA_XSP16, literal(-1)))
        CFI CFA_SP SP+0
        CFI CFA_XSP16 add(XSP16, 12)
        CFI Block cfiCond153 Using cfiCommon0
        CFI (cfiCond153) NoFunction
        CFI (cfiCond153) Conditional ??CrossCallReturnLabel_81, ??CrossCallReturnLabel_78, ??CrossCallReturnLabel_15
        CFI (cfiCond153) R6 load(1, XDATA, add(CFA_XSP16, literal(-12)))
        CFI (cfiCond153) VB load(1, XDATA, add(CFA_XSP16, literal(-11)))
        CFI (cfiCond153) V0 load(1, XDATA, add(CFA_XSP16, literal(-10)))
        CFI (cfiCond153) V1 load(1, XDATA, add(CFA_XSP16, literal(-9)))
        CFI (cfiCond153) V2 load(1, XDATA, add(CFA_XSP16, literal(-8)))
        CFI (cfiCond153) V3 load(1, XDATA, add(CFA_XSP16, literal(-7)))
        CFI (cfiCond153) R7 load(1, XDATA, add(CFA_XSP16, literal(-6)))
        CFI (cfiCond153) ?RET_LOW load(1, XDATA, add(CFA_XSP16, literal(-5)))
        CFI (cfiCond153) ?RET_HIGH load(1, XDATA, add(CFA_XSP16, literal(-4)))
        CFI (cfiCond153) ?BRET_EXT load(1, XDATA, add(CFA_XSP16, literal(-3)))
        CFI (cfiCond153) DPL0 load(1, XDATA, add(CFA_XSP16, literal(-2)))
        CFI (cfiCond153) DPH0 load(1, XDATA, add(CFA_XSP16, literal(-1)))
        CFI (cfiCond153) CFA_SP SP+0
        CFI (cfiCond153) CFA_XSP16 add(XSP16, 12)
        CFI Block cfiCond154 Using cfiCommon0
        CFI (cfiCond154) NoFunction
        CFI (cfiCond154) Conditional ??CrossCallReturnLabel_81, ??CrossCallReturnLabel_79, ??CrossCallReturnLabel_74
        CFI (cfiCond154) R6 load(1, XDATA, add(CFA_XSP16, literal(-12)))
        CFI (cfiCond154) VB load(1, XDATA, add(CFA_XSP16, literal(-11)))
        CFI (cfiCond154) V0 load(1, XDATA, add(CFA_XSP16, literal(-10)))
        CFI (cfiCond154) V1 load(1, XDATA, add(CFA_XSP16, literal(-9)))
        CFI (cfiCond154) V2 load(1, XDATA, add(CFA_XSP16, literal(-8)))
        CFI (cfiCond154) V3 load(1, XDATA, add(CFA_XSP16, literal(-7)))
        CFI (cfiCond154) R7 load(1, XDATA, add(CFA_XSP16, literal(-6)))
        CFI (cfiCond154) ?RET_LOW load(1, XDATA, add(CFA_XSP16, literal(-5)))
        CFI (cfiCond154) ?RET_HIGH load(1, XDATA, add(CFA_XSP16, literal(-4)))
        CFI (cfiCond154) ?BRET_EXT load(1, XDATA, add(CFA_XSP16, literal(-3)))
        CFI (cfiCond154) DPL0 load(1, XDATA, add(CFA_XSP16, literal(-2)))
        CFI (cfiCond154) DPH0 load(1, XDATA, add(CFA_XSP16, literal(-1)))
        CFI (cfiCond154) CFA_SP SP+0
        CFI (cfiCond154) CFA_XSP16 add(XSP16, 12)
        CFI Block cfiCond155 Using cfiCommon0
        CFI (cfiCond155) NoFunction
        CFI (cfiCond155) Conditional ??CrossCallReturnLabel_81, ??CrossCallReturnLabel_79, ??CrossCallReturnLabel_75
        CFI (cfiCond155) R6 load(1, XDATA, add(CFA_XSP16, literal(-12)))
        CFI (cfiCond155) VB load(1, XDATA, add(CFA_XSP16, literal(-11)))
        CFI (cfiCond155) V0 load(1, XDATA, add(CFA_XSP16, literal(-10)))
        CFI (cfiCond155) V1 load(1, XDATA, add(CFA_XSP16, literal(-9)))
        CFI (cfiCond155) V2 load(1, XDATA, add(CFA_XSP16, literal(-8)))
        CFI (cfiCond155) V3 load(1, XDATA, add(CFA_XSP16, literal(-7)))
        CFI (cfiCond155) R7 load(1, XDATA, add(CFA_XSP16, literal(-6)))
        CFI (cfiCond155) ?RET_LOW load(1, XDATA, add(CFA_XSP16, literal(-5)))
        CFI (cfiCond155) ?RET_HIGH load(1, XDATA, add(CFA_XSP16, literal(-4)))
        CFI (cfiCond155) ?BRET_EXT load(1, XDATA, add(CFA_XSP16, literal(-3)))
        CFI (cfiCond155) DPL0 load(1, XDATA, add(CFA_XSP16, literal(-2)))
        CFI (cfiCond155) DPH0 load(1, XDATA, add(CFA_XSP16, literal(-1)))
        CFI (cfiCond155) CFA_SP SP+0
        CFI (cfiCond155) CFA_XSP16 add(XSP16, 12)
        CFI Block cfiCond156 Using cfiCommon0
        CFI (cfiCond156) NoFunction
        CFI (cfiCond156) Conditional ??CrossCallReturnLabel_81, ??CrossCallReturnLabel_79, ??CrossCallReturnLabel_76
        CFI (cfiCond156) R6 load(1, XDATA, add(CFA_XSP16, literal(-12)))
        CFI (cfiCond156) VB load(1, XDATA, add(CFA_XSP16, literal(-11)))
        CFI (cfiCond156) V0 load(1, XDATA, add(CFA_XSP16, literal(-10)))
        CFI (cfiCond156) V1 load(1, XDATA, add(CFA_XSP16, literal(-9)))
        CFI (cfiCond156) V2 load(1, XDATA, add(CFA_XSP16, literal(-8)))
        CFI (cfiCond156) V3 load(1, XDATA, add(CFA_XSP16, literal(-7)))
        CFI (cfiCond156) R7 load(1, XDATA, add(CFA_XSP16, literal(-6)))
        CFI (cfiCond156) ?RET_LOW load(1, XDATA, add(CFA_XSP16, literal(-5)))
        CFI (cfiCond156) ?RET_HIGH load(1, XDATA, add(CFA_XSP16, literal(-4)))
        CFI (cfiCond156) ?BRET_EXT load(1, XDATA, add(CFA_XSP16, literal(-3)))
        CFI (cfiCond156) DPL0 load(1, XDATA, add(CFA_XSP16, literal(-2)))
        CFI (cfiCond156) DPH0 load(1, XDATA, add(CFA_XSP16, literal(-1)))
        CFI (cfiCond156) CFA_SP SP+0
        CFI (cfiCond156) CFA_XSP16 add(XSP16, 12)
        CFI Block cfiCond157 Using cfiCommon0
        CFI (cfiCond157) NoFunction
        CFI (cfiCond157) Conditional ??CrossCallReturnLabel_81, ??CrossCallReturnLabel_77, ??CrossCallReturnLabel_12
        CFI (cfiCond157) R6 load(1, XDATA, add(CFA_XSP16, literal(-12)))
        CFI (cfiCond157) VB load(1, XDATA, add(CFA_XSP16, literal(-11)))
        CFI (cfiCond157) V0 load(1, XDATA, add(CFA_XSP16, literal(-10)))
        CFI (cfiCond157) V1 load(1, XDATA, add(CFA_XSP16, literal(-9)))
        CFI (cfiCond157) V2 load(1, XDATA, add(CFA_XSP16, literal(-8)))
        CFI (cfiCond157) V3 load(1, XDATA, add(CFA_XSP16, literal(-7)))
        CFI (cfiCond157) R7 load(1, XDATA, add(CFA_XSP16, literal(-6)))
        CFI (cfiCond157) ?RET_LOW load(1, XDATA, add(CFA_XSP16, literal(-5)))
        CFI (cfiCond157) ?RET_HIGH load(1, XDATA, add(CFA_XSP16, literal(-4)))
        CFI (cfiCond157) ?BRET_EXT load(1, XDATA, add(CFA_XSP16, literal(-3)))
        CFI (cfiCond157) DPL0 load(1, XDATA, add(CFA_XSP16, literal(-2)))
        CFI (cfiCond157) DPH0 load(1, XDATA, add(CFA_XSP16, literal(-1)))
        CFI (cfiCond157) CFA_SP SP+0
        CFI (cfiCond157) CFA_XSP16 add(XSP16, 12)
        CFI Block cfiCond158 Using cfiCommon0
        CFI (cfiCond158) NoFunction
        CFI (cfiCond158) Conditional ??CrossCallReturnLabel_81, ??CrossCallReturnLabel_77, ??CrossCallReturnLabel_13
        CFI (cfiCond158) R6 load(1, XDATA, add(CFA_XSP16, literal(-12)))
        CFI (cfiCond158) VB load(1, XDATA, add(CFA_XSP16, literal(-11)))
        CFI (cfiCond158) V0 load(1, XDATA, add(CFA_XSP16, literal(-10)))
        CFI (cfiCond158) V1 load(1, XDATA, add(CFA_XSP16, literal(-9)))
        CFI (cfiCond158) V2 load(1, XDATA, add(CFA_XSP16, literal(-8)))
        CFI (cfiCond158) V3 load(1, XDATA, add(CFA_XSP16, literal(-7)))
        CFI (cfiCond158) R7 load(1, XDATA, add(CFA_XSP16, literal(-6)))
        CFI (cfiCond158) ?RET_LOW load(1, XDATA, add(CFA_XSP16, literal(-5)))
        CFI (cfiCond158) ?RET_HIGH load(1, XDATA, add(CFA_XSP16, literal(-4)))
        CFI (cfiCond158) ?BRET_EXT load(1, XDATA, add(CFA_XSP16, literal(-3)))
        CFI (cfiCond158) DPL0 load(1, XDATA, add(CFA_XSP16, literal(-2)))
        CFI (cfiCond158) DPH0 load(1, XDATA, add(CFA_XSP16, literal(-1)))
        CFI (cfiCond158) CFA_SP SP+0
        CFI (cfiCond158) CFA_XSP16 add(XSP16, 12)
        CFI Block cfiCond159 Using cfiCommon0
        CFI (cfiCond159) NoFunction
        CFI (cfiCond159) Conditional ??CrossCallReturnLabel_80, ??CrossCallReturnLabel_46, ??CrossCallReturnLabel_10
        CFI (cfiCond159) R6 load(1, XDATA, add(CFA_XSP16, literal(-12)))
        CFI (cfiCond159) VB load(1, XDATA, add(CFA_XSP16, literal(-11)))
        CFI (cfiCond159) V0 load(1, XDATA, add(CFA_XSP16, literal(-10)))
        CFI (cfiCond159) V1 load(1, XDATA, add(CFA_XSP16, literal(-9)))
        CFI (cfiCond159) V2 load(1, XDATA, add(CFA_XSP16, literal(-8)))
        CFI (cfiCond159) V3 load(1, XDATA, add(CFA_XSP16, literal(-7)))
        CFI (cfiCond159) R7 load(1, XDATA, add(CFA_XSP16, literal(-6)))
        CFI (cfiCond159) ?RET_LOW load(1, XDATA, add(CFA_XSP16, literal(-5)))
        CFI (cfiCond159) ?RET_HIGH load(1, XDATA, add(CFA_XSP16, literal(-4)))
        CFI (cfiCond159) ?BRET_EXT load(1, XDATA, add(CFA_XSP16, literal(-3)))
        CFI (cfiCond159) DPL0 load(1, XDATA, add(CFA_XSP16, literal(-2)))
        CFI (cfiCond159) DPH0 load(1, XDATA, add(CFA_XSP16, literal(-1)))
        CFI (cfiCond159) CFA_SP SP+0
        CFI (cfiCond159) CFA_XSP16 add(XSP16, 12)
        CFI Block cfiCond160 Using cfiCommon0
        CFI (cfiCond160) NoFunction
        CFI (cfiCond160) Conditional ??CrossCallReturnLabel_80, ??CrossCallReturnLabel_46, ??CrossCallReturnLabel_11
        CFI (cfiCond160) R6 load(1, XDATA, add(CFA_XSP16, literal(-12)))
        CFI (cfiCond160) VB load(1, XDATA, add(CFA_XSP16, literal(-11)))
        CFI (cfiCond160) V0 load(1, XDATA, add(CFA_XSP16, literal(-10)))
        CFI (cfiCond160) V1 load(1, XDATA, add(CFA_XSP16, literal(-9)))
        CFI (cfiCond160) V2 load(1, XDATA, add(CFA_XSP16, literal(-8)))
        CFI (cfiCond160) V3 load(1, XDATA, add(CFA_XSP16, literal(-7)))
        CFI (cfiCond160) R7 load(1, XDATA, add(CFA_XSP16, literal(-6)))
        CFI (cfiCond160) ?RET_LOW load(1, XDATA, add(CFA_XSP16, literal(-5)))
        CFI (cfiCond160) ?RET_HIGH load(1, XDATA, add(CFA_XSP16, literal(-4)))
        CFI (cfiCond160) ?BRET_EXT load(1, XDATA, add(CFA_XSP16, literal(-3)))
        CFI (cfiCond160) DPL0 load(1, XDATA, add(CFA_XSP16, literal(-2)))
        CFI (cfiCond160) DPH0 load(1, XDATA, add(CFA_XSP16, literal(-1)))
        CFI (cfiCond160) CFA_SP SP+0
        CFI (cfiCond160) CFA_XSP16 add(XSP16, 12)
        CFI Block cfiCond161 Using cfiCommon0
        CFI (cfiCond161) NoFunction
        CFI (cfiCond161) Conditional ??CrossCallReturnLabel_80, ??CrossCallReturnLabel_47, ??CrossCallReturnLabel_8
        CFI (cfiCond161) R6 load(1, XDATA, add(CFA_XSP16, literal(-12)))
        CFI (cfiCond161) VB load(1, XDATA, add(CFA_XSP16, literal(-11)))
        CFI (cfiCond161) V0 load(1, XDATA, add(CFA_XSP16, literal(-10)))
        CFI (cfiCond161) V1 load(1, XDATA, add(CFA_XSP16, literal(-9)))
        CFI (cfiCond161) V2 load(1, XDATA, add(CFA_XSP16, literal(-8)))
        CFI (cfiCond161) V3 load(1, XDATA, add(CFA_XSP16, literal(-7)))
        CFI (cfiCond161) R7 load(1, XDATA, add(CFA_XSP16, literal(-6)))
        CFI (cfiCond161) ?RET_LOW load(1, XDATA, add(CFA_XSP16, literal(-5)))
        CFI (cfiCond161) ?RET_HIGH load(1, XDATA, add(CFA_XSP16, literal(-4)))
        CFI (cfiCond161) ?BRET_EXT load(1, XDATA, add(CFA_XSP16, literal(-3)))
        CFI (cfiCond161) DPL0 load(1, XDATA, add(CFA_XSP16, literal(-2)))
        CFI (cfiCond161) DPH0 load(1, XDATA, add(CFA_XSP16, literal(-1)))
        CFI (cfiCond161) CFA_SP SP+0
        CFI (cfiCond161) CFA_XSP16 add(XSP16, 12)
        CFI Block cfiCond162 Using cfiCommon0
        CFI (cfiCond162) NoFunction
        CFI (cfiCond162) Conditional ??CrossCallReturnLabel_80, ??CrossCallReturnLabel_47, ??CrossCallReturnLabel_9
        CFI (cfiCond162) R6 load(1, XDATA, add(CFA_XSP16, literal(-12)))
        CFI (cfiCond162) VB load(1, XDATA, add(CFA_XSP16, literal(-11)))
        CFI (cfiCond162) V0 load(1, XDATA, add(CFA_XSP16, literal(-10)))
        CFI (cfiCond162) V1 load(1, XDATA, add(CFA_XSP16, literal(-9)))
        CFI (cfiCond162) V2 load(1, XDATA, add(CFA_XSP16, literal(-8)))
        CFI (cfiCond162) V3 load(1, XDATA, add(CFA_XSP16, literal(-7)))
        CFI (cfiCond162) R7 load(1, XDATA, add(CFA_XSP16, literal(-6)))
        CFI (cfiCond162) ?RET_LOW load(1, XDATA, add(CFA_XSP16, literal(-5)))
        CFI (cfiCond162) ?RET_HIGH load(1, XDATA, add(CFA_XSP16, literal(-4)))
        CFI (cfiCond162) ?BRET_EXT load(1, XDATA, add(CFA_XSP16, literal(-3)))
        CFI (cfiCond162) DPL0 load(1, XDATA, add(CFA_XSP16, literal(-2)))
        CFI (cfiCond162) DPH0 load(1, XDATA, add(CFA_XSP16, literal(-1)))
        CFI (cfiCond162) CFA_SP SP+0
        CFI (cfiCond162) CFA_XSP16 add(XSP16, 12)
        CFI Block cfiPicker163 Using cfiCommon1
        CFI (cfiPicker163) NoFunction
        CFI (cfiPicker163) Picker
        MOVX    A,@DPTR
        MOV     DPL,R2
        MOV     DPH,R3
        LCALL   ?Subroutine40 & 0xFFFF
??CrossCallReturnLabel_85:
        RET
        CFI EndBlock cfiCond152
        CFI EndBlock cfiCond153
        CFI EndBlock cfiCond154
        CFI EndBlock cfiCond155
        CFI EndBlock cfiCond156
        CFI EndBlock cfiCond157
        CFI EndBlock cfiCond158
        CFI EndBlock cfiCond159
        CFI EndBlock cfiCond160
        CFI EndBlock cfiCond161
        CFI EndBlock cfiCond162
        CFI EndBlock cfiPicker163

        RSEG BANKED_CODE:CODE:NOROOT(0)
?Subroutine40:
        CFI Block cfiCond164 Using cfiCommon0
        CFI NoFunction
        CFI Conditional ??CrossCallReturnLabel_82
        CFI R6 load(1, XDATA, add(CFA_XSP16, literal(-12)))
        CFI VB load(1, XDATA, add(CFA_XSP16, literal(-11)))
        CFI V0 load(1, XDATA, add(CFA_XSP16, literal(-10)))
        CFI V1 load(1, XDATA, add(CFA_XSP16, literal(-9)))
        CFI V2 load(1, XDATA, add(CFA_XSP16, literal(-8)))
        CFI V3 load(1, XDATA, add(CFA_XSP16, literal(-7)))
        CFI R7 load(1, XDATA, add(CFA_XSP16, literal(-6)))
        CFI ?RET_LOW load(1, XDATA, add(CFA_XSP16, literal(-5)))
        CFI ?RET_HIGH load(1, XDATA, add(CFA_XSP16, literal(-4)))
        CFI ?BRET_EXT load(1, XDATA, add(CFA_XSP16, literal(-3)))
        CFI DPL0 load(1, XDATA, add(CFA_XSP16, literal(-2)))
        CFI DPH0 load(1, XDATA, add(CFA_XSP16, literal(-1)))
        CFI CFA_SP SP+0
        CFI CFA_XSP16 add(XSP16, 12)
        CFI Block cfiCond165 Using cfiCommon0
        CFI (cfiCond165) NoFunction
        CFI (cfiCond165) Conditional ??CrossCallReturnLabel_83
        CFI (cfiCond165) R6 load(1, XDATA, add(CFA_XSP16, literal(-12)))
        CFI (cfiCond165) VB load(1, XDATA, add(CFA_XSP16, literal(-11)))
        CFI (cfiCond165) V0 load(1, XDATA, add(CFA_XSP16, literal(-10)))
        CFI (cfiCond165) V1 load(1, XDATA, add(CFA_XSP16, literal(-9)))
        CFI (cfiCond165) V2 load(1, XDATA, add(CFA_XSP16, literal(-8)))
        CFI (cfiCond165) V3 load(1, XDATA, add(CFA_XSP16, literal(-7)))
        CFI (cfiCond165) R7 load(1, XDATA, add(CFA_XSP16, literal(-6)))
        CFI (cfiCond165) ?RET_LOW load(1, XDATA, add(CFA_XSP16, literal(-5)))
        CFI (cfiCond165) ?RET_HIGH load(1, XDATA, add(CFA_XSP16, literal(-4)))
        CFI (cfiCond165) ?BRET_EXT load(1, XDATA, add(CFA_XSP16, literal(-3)))
        CFI (cfiCond165) DPL0 load(1, XDATA, add(CFA_XSP16, literal(-2)))
        CFI (cfiCond165) DPH0 load(1, XDATA, add(CFA_XSP16, literal(-1)))
        CFI (cfiCond165) CFA_SP SP+0
        CFI (cfiCond165) CFA_XSP16 add(XSP16, 12)
        CFI Block cfiCond166 Using cfiCommon0
        CFI (cfiCond166) NoFunction
        CFI (cfiCond166) Conditional ??CrossCallReturnLabel_84, ??CrossCallReturnLabel_71
        CFI (cfiCond166) R6 load(1, XDATA, add(CFA_XSP16, literal(-12)))
        CFI (cfiCond166) VB load(1, XDATA, add(CFA_XSP16, literal(-11)))
        CFI (cfiCond166) V0 load(1, XDATA, add(CFA_XSP16, literal(-10)))
        CFI (cfiCond166) V1 load(1, XDATA, add(CFA_XSP16, literal(-9)))
        CFI (cfiCond166) V2 load(1, XDATA, add(CFA_XSP16, literal(-8)))
        CFI (cfiCond166) V3 load(1, XDATA, add(CFA_XSP16, literal(-7)))
        CFI (cfiCond166) R7 load(1, XDATA, add(CFA_XSP16, literal(-6)))
        CFI (cfiCond166) ?RET_LOW load(1, XDATA, add(CFA_XSP16, literal(-5)))
        CFI (cfiCond166) ?RET_HIGH load(1, XDATA, add(CFA_XSP16, literal(-4)))
        CFI (cfiCond166) ?BRET_EXT load(1, XDATA, add(CFA_XSP16, literal(-3)))
        CFI (cfiCond166) DPL0 load(1, XDATA, add(CFA_XSP16, literal(-2)))
        CFI (cfiCond166) DPH0 load(1, XDATA, add(CFA_XSP16, literal(-1)))
        CFI (cfiCond166) CFA_SP SP+0
        CFI (cfiCond166) CFA_XSP16 add(XSP16, 12)
        CFI Block cfiCond167 Using cfiCommon0
        CFI (cfiCond167) NoFunction
        CFI (cfiCond167) Conditional ??CrossCallReturnLabel_84, ??CrossCallReturnLabel_72
        CFI (cfiCond167) R6 load(1, XDATA, add(CFA_XSP16, literal(-12)))
        CFI (cfiCond167) VB load(1, XDATA, add(CFA_XSP16, literal(-11)))
        CFI (cfiCond167) V0 load(1, XDATA, add(CFA_XSP16, literal(-10)))
        CFI (cfiCond167) V1 load(1, XDATA, add(CFA_XSP16, literal(-9)))
        CFI (cfiCond167) V2 load(1, XDATA, add(CFA_XSP16, literal(-8)))
        CFI (cfiCond167) V3 load(1, XDATA, add(CFA_XSP16, literal(-7)))
        CFI (cfiCond167) R7 load(1, XDATA, add(CFA_XSP16, literal(-6)))
        CFI (cfiCond167) ?RET_LOW load(1, XDATA, add(CFA_XSP16, literal(-5)))
        CFI (cfiCond167) ?RET_HIGH load(1, XDATA, add(CFA_XSP16, literal(-4)))
        CFI (cfiCond167) ?BRET_EXT load(1, XDATA, add(CFA_XSP16, literal(-3)))
        CFI (cfiCond167) DPL0 load(1, XDATA, add(CFA_XSP16, literal(-2)))
        CFI (cfiCond167) DPH0 load(1, XDATA, add(CFA_XSP16, literal(-1)))
        CFI (cfiCond167) CFA_SP SP+0
        CFI (cfiCond167) CFA_XSP16 add(XSP16, 12)
        CFI Block cfiCond168 Using cfiCommon0
        CFI (cfiCond168) NoFunction
        CFI (cfiCond168) Conditional ??CrossCallReturnLabel_84, ??CrossCallReturnLabel_73
        CFI (cfiCond168) R6 load(1, XDATA, add(CFA_XSP16, literal(-12)))
        CFI (cfiCond168) VB load(1, XDATA, add(CFA_XSP16, literal(-11)))
        CFI (cfiCond168) V0 load(1, XDATA, add(CFA_XSP16, literal(-10)))
        CFI (cfiCond168) V1 load(1, XDATA, add(CFA_XSP16, literal(-9)))
        CFI (cfiCond168) V2 load(1, XDATA, add(CFA_XSP16, literal(-8)))
        CFI (cfiCond168) V3 load(1, XDATA, add(CFA_XSP16, literal(-7)))
        CFI (cfiCond168) R7 load(1, XDATA, add(CFA_XSP16, literal(-6)))
        CFI (cfiCond168) ?RET_LOW load(1, XDATA, add(CFA_XSP16, literal(-5)))
        CFI (cfiCond168) ?RET_HIGH load(1, XDATA, add(CFA_XSP16, literal(-4)))
        CFI (cfiCond168) ?BRET_EXT load(1, XDATA, add(CFA_XSP16, literal(-3)))
        CFI (cfiCond168) DPL0 load(1, XDATA, add(CFA_XSP16, literal(-2)))
        CFI (cfiCond168) DPH0 load(1, XDATA, add(CFA_XSP16, literal(-1)))
        CFI (cfiCond168) CFA_SP SP+0
        CFI (cfiCond168) CFA_XSP16 add(XSP16, 12)
        CFI Block cfiCond169 Using cfiCommon0
        CFI (cfiCond169) NoFunction
        CFI (cfiCond169) Conditional ??CrossCallReturnLabel_85, ??CrossCallReturnLabel_81, ??CrossCallReturnLabel_78, ??CrossCallReturnLabel_14
        CFI (cfiCond169) R6 load(1, XDATA, add(CFA_XSP16, literal(-12)))
        CFI (cfiCond169) VB load(1, XDATA, add(CFA_XSP16, literal(-11)))
        CFI (cfiCond169) V0 load(1, XDATA, add(CFA_XSP16, literal(-10)))
        CFI (cfiCond169) V1 load(1, XDATA, add(CFA_XSP16, literal(-9)))
        CFI (cfiCond169) V2 load(1, XDATA, add(CFA_XSP16, literal(-8)))
        CFI (cfiCond169) V3 load(1, XDATA, add(CFA_XSP16, literal(-7)))
        CFI (cfiCond169) R7 load(1, XDATA, add(CFA_XSP16, literal(-6)))
        CFI (cfiCond169) ?RET_LOW load(1, XDATA, add(CFA_XSP16, literal(-5)))
        CFI (cfiCond169) ?RET_HIGH load(1, XDATA, add(CFA_XSP16, literal(-4)))
        CFI (cfiCond169) ?BRET_EXT load(1, XDATA, add(CFA_XSP16, literal(-3)))
        CFI (cfiCond169) DPL0 load(1, XDATA, add(CFA_XSP16, literal(-2)))
        CFI (cfiCond169) DPH0 load(1, XDATA, add(CFA_XSP16, literal(-1)))
        CFI (cfiCond169) CFA_SP SP+0
        CFI (cfiCond169) CFA_XSP16 add(XSP16, 12)
        CFI Block cfiCond170 Using cfiCommon0
        CFI (cfiCond170) NoFunction
        CFI (cfiCond170) Conditional ??CrossCallReturnLabel_85, ??CrossCallReturnLabel_81, ??CrossCallReturnLabel_78, ??CrossCallReturnLabel_15
        CFI (cfiCond170) R6 load(1, XDATA, add(CFA_XSP16, literal(-12)))
        CFI (cfiCond170) VB load(1, XDATA, add(CFA_XSP16, literal(-11)))
        CFI (cfiCond170) V0 load(1, XDATA, add(CFA_XSP16, literal(-10)))
        CFI (cfiCond170) V1 load(1, XDATA, add(CFA_XSP16, literal(-9)))
        CFI (cfiCond170) V2 load(1, XDATA, add(CFA_XSP16, literal(-8)))
        CFI (cfiCond170) V3 load(1, XDATA, add(CFA_XSP16, literal(-7)))
        CFI (cfiCond170) R7 load(1, XDATA, add(CFA_XSP16, literal(-6)))
        CFI (cfiCond170) ?RET_LOW load(1, XDATA, add(CFA_XSP16, literal(-5)))
        CFI (cfiCond170) ?RET_HIGH load(1, XDATA, add(CFA_XSP16, literal(-4)))
        CFI (cfiCond170) ?BRET_EXT load(1, XDATA, add(CFA_XSP16, literal(-3)))
        CFI (cfiCond170) DPL0 load(1, XDATA, add(CFA_XSP16, literal(-2)))
        CFI (cfiCond170) DPH0 load(1, XDATA, add(CFA_XSP16, literal(-1)))
        CFI (cfiCond170) CFA_SP SP+0
        CFI (cfiCond170) CFA_XSP16 add(XSP16, 12)
        CFI Block cfiCond171 Using cfiCommon0
        CFI (cfiCond171) NoFunction
        CFI (cfiCond171) Conditional ??CrossCallReturnLabel_85, ??CrossCallReturnLabel_81, ??CrossCallReturnLabel_79, ??CrossCallReturnLabel_74
        CFI (cfiCond171) R6 load(1, XDATA, add(CFA_XSP16, literal(-12)))
        CFI (cfiCond171) VB load(1, XDATA, add(CFA_XSP16, literal(-11)))
        CFI (cfiCond171) V0 load(1, XDATA, add(CFA_XSP16, literal(-10)))
        CFI (cfiCond171) V1 load(1, XDATA, add(CFA_XSP16, literal(-9)))
        CFI (cfiCond171) V2 load(1, XDATA, add(CFA_XSP16, literal(-8)))
        CFI (cfiCond171) V3 load(1, XDATA, add(CFA_XSP16, literal(-7)))
        CFI (cfiCond171) R7 load(1, XDATA, add(CFA_XSP16, literal(-6)))
        CFI (cfiCond171) ?RET_LOW load(1, XDATA, add(CFA_XSP16, literal(-5)))
        CFI (cfiCond171) ?RET_HIGH load(1, XDATA, add(CFA_XSP16, literal(-4)))
        CFI (cfiCond171) ?BRET_EXT load(1, XDATA, add(CFA_XSP16, literal(-3)))
        CFI (cfiCond171) DPL0 load(1, XDATA, add(CFA_XSP16, literal(-2)))
        CFI (cfiCond171) DPH0 load(1, XDATA, add(CFA_XSP16, literal(-1)))
        CFI (cfiCond171) CFA_SP SP+0
        CFI (cfiCond171) CFA_XSP16 add(XSP16, 12)
        CFI Block cfiCond172 Using cfiCommon0
        CFI (cfiCond172) NoFunction
        CFI (cfiCond172) Conditional ??CrossCallReturnLabel_85, ??CrossCallReturnLabel_81, ??CrossCallReturnLabel_79, ??CrossCallReturnLabel_75
        CFI (cfiCond172) R6 load(1, XDATA, add(CFA_XSP16, literal(-12)))
        CFI (cfiCond172) VB load(1, XDATA, add(CFA_XSP16, literal(-11)))
        CFI (cfiCond172) V0 load(1, XDATA, add(CFA_XSP16, literal(-10)))
        CFI (cfiCond172) V1 load(1, XDATA, add(CFA_XSP16, literal(-9)))
        CFI (cfiCond172) V2 load(1, XDATA, add(CFA_XSP16, literal(-8)))
        CFI (cfiCond172) V3 load(1, XDATA, add(CFA_XSP16, literal(-7)))
        CFI (cfiCond172) R7 load(1, XDATA, add(CFA_XSP16, literal(-6)))
        CFI (cfiCond172) ?RET_LOW load(1, XDATA, add(CFA_XSP16, literal(-5)))
        CFI (cfiCond172) ?RET_HIGH load(1, XDATA, add(CFA_XSP16, literal(-4)))
        CFI (cfiCond172) ?BRET_EXT load(1, XDATA, add(CFA_XSP16, literal(-3)))
        CFI (cfiCond172) DPL0 load(1, XDATA, add(CFA_XSP16, literal(-2)))
        CFI (cfiCond172) DPH0 load(1, XDATA, add(CFA_XSP16, literal(-1)))
        CFI (cfiCond172) CFA_SP SP+0
        CFI (cfiCond172) CFA_XSP16 add(XSP16, 12)
        CFI Block cfiCond173 Using cfiCommon0
        CFI (cfiCond173) NoFunction
        CFI (cfiCond173) Conditional ??CrossCallReturnLabel_85, ??CrossCallReturnLabel_81, ??CrossCallReturnLabel_79, ??CrossCallReturnLabel_76
        CFI (cfiCond173) R6 load(1, XDATA, add(CFA_XSP16, literal(-12)))
        CFI (cfiCond173) VB load(1, XDATA, add(CFA_XSP16, literal(-11)))
        CFI (cfiCond173) V0 load(1, XDATA, add(CFA_XSP16, literal(-10)))
        CFI (cfiCond173) V1 load(1, XDATA, add(CFA_XSP16, literal(-9)))
        CFI (cfiCond173) V2 load(1, XDATA, add(CFA_XSP16, literal(-8)))
        CFI (cfiCond173) V3 load(1, XDATA, add(CFA_XSP16, literal(-7)))
        CFI (cfiCond173) R7 load(1, XDATA, add(CFA_XSP16, literal(-6)))
        CFI (cfiCond173) ?RET_LOW load(1, XDATA, add(CFA_XSP16, literal(-5)))
        CFI (cfiCond173) ?RET_HIGH load(1, XDATA, add(CFA_XSP16, literal(-4)))
        CFI (cfiCond173) ?BRET_EXT load(1, XDATA, add(CFA_XSP16, literal(-3)))
        CFI (cfiCond173) DPL0 load(1, XDATA, add(CFA_XSP16, literal(-2)))
        CFI (cfiCond173) DPH0 load(1, XDATA, add(CFA_XSP16, literal(-1)))
        CFI (cfiCond173) CFA_SP SP+0
        CFI (cfiCond173) CFA_XSP16 add(XSP16, 12)
        CFI Block cfiCond174 Using cfiCommon0
        CFI (cfiCond174) NoFunction
        CFI (cfiCond174) Conditional ??CrossCallReturnLabel_85, ??CrossCallReturnLabel_81, ??CrossCallReturnLabel_77, ??CrossCallReturnLabel_12
        CFI (cfiCond174) R6 load(1, XDATA, add(CFA_XSP16, literal(-12)))
        CFI (cfiCond174) VB load(1, XDATA, add(CFA_XSP16, literal(-11)))
        CFI (cfiCond174) V0 load(1, XDATA, add(CFA_XSP16, literal(-10)))
        CFI (cfiCond174) V1 load(1, XDATA, add(CFA_XSP16, literal(-9)))
        CFI (cfiCond174) V2 load(1, XDATA, add(CFA_XSP16, literal(-8)))
        CFI (cfiCond174) V3 load(1, XDATA, add(CFA_XSP16, literal(-7)))
        CFI (cfiCond174) R7 load(1, XDATA, add(CFA_XSP16, literal(-6)))
        CFI (cfiCond174) ?RET_LOW load(1, XDATA, add(CFA_XSP16, literal(-5)))
        CFI (cfiCond174) ?RET_HIGH load(1, XDATA, add(CFA_XSP16, literal(-4)))
        CFI (cfiCond174) ?BRET_EXT load(1, XDATA, add(CFA_XSP16, literal(-3)))
        CFI (cfiCond174) DPL0 load(1, XDATA, add(CFA_XSP16, literal(-2)))
        CFI (cfiCond174) DPH0 load(1, XDATA, add(CFA_XSP16, literal(-1)))
        CFI (cfiCond174) CFA_SP SP+0
        CFI (cfiCond174) CFA_XSP16 add(XSP16, 12)
        CFI Block cfiCond175 Using cfiCommon0
        CFI (cfiCond175) NoFunction
        CFI (cfiCond175) Conditional ??CrossCallReturnLabel_85, ??CrossCallReturnLabel_81, ??CrossCallReturnLabel_77, ??CrossCallReturnLabel_13
        CFI (cfiCond175) R6 load(1, XDATA, add(CFA_XSP16, literal(-12)))
        CFI (cfiCond175) VB load(1, XDATA, add(CFA_XSP16, literal(-11)))
        CFI (cfiCond175) V0 load(1, XDATA, add(CFA_XSP16, literal(-10)))
        CFI (cfiCond175) V1 load(1, XDATA, add(CFA_XSP16, literal(-9)))
        CFI (cfiCond175) V2 load(1, XDATA, add(CFA_XSP16, literal(-8)))
        CFI (cfiCond175) V3 load(1, XDATA, add(CFA_XSP16, literal(-7)))
        CFI (cfiCond175) R7 load(1, XDATA, add(CFA_XSP16, literal(-6)))
        CFI (cfiCond175) ?RET_LOW load(1, XDATA, add(CFA_XSP16, literal(-5)))
        CFI (cfiCond175) ?RET_HIGH load(1, XDATA, add(CFA_XSP16, literal(-4)))
        CFI (cfiCond175) ?BRET_EXT load(1, XDATA, add(CFA_XSP16, literal(-3)))
        CFI (cfiCond175) DPL0 load(1, XDATA, add(CFA_XSP16, literal(-2)))
        CFI (cfiCond175) DPH0 load(1, XDATA, add(CFA_XSP16, literal(-1)))
        CFI (cfiCond175) CFA_SP SP+0
        CFI (cfiCond175) CFA_XSP16 add(XSP16, 12)
        CFI Block cfiCond176 Using cfiCommon0
        CFI (cfiCond176) NoFunction
        CFI (cfiCond176) Conditional ??CrossCallReturnLabel_85, ??CrossCallReturnLabel_80, ??CrossCallReturnLabel_46, ??CrossCallReturnLabel_10
        CFI (cfiCond176) R6 load(1, XDATA, add(CFA_XSP16, literal(-12)))
        CFI (cfiCond176) VB load(1, XDATA, add(CFA_XSP16, literal(-11)))
        CFI (cfiCond176) V0 load(1, XDATA, add(CFA_XSP16, literal(-10)))
        CFI (cfiCond176) V1 load(1, XDATA, add(CFA_XSP16, literal(-9)))
        CFI (cfiCond176) V2 load(1, XDATA, add(CFA_XSP16, literal(-8)))
        CFI (cfiCond176) V3 load(1, XDATA, add(CFA_XSP16, literal(-7)))
        CFI (cfiCond176) R7 load(1, XDATA, add(CFA_XSP16, literal(-6)))
        CFI (cfiCond176) ?RET_LOW load(1, XDATA, add(CFA_XSP16, literal(-5)))
        CFI (cfiCond176) ?RET_HIGH load(1, XDATA, add(CFA_XSP16, literal(-4)))
        CFI (cfiCond176) ?BRET_EXT load(1, XDATA, add(CFA_XSP16, literal(-3)))
        CFI (cfiCond176) DPL0 load(1, XDATA, add(CFA_XSP16, literal(-2)))
        CFI (cfiCond176) DPH0 load(1, XDATA, add(CFA_XSP16, literal(-1)))
        CFI (cfiCond176) CFA_SP SP+0
        CFI (cfiCond176) CFA_XSP16 add(XSP16, 12)
        CFI Block cfiCond177 Using cfiCommon0
        CFI (cfiCond177) NoFunction
        CFI (cfiCond177) Conditional ??CrossCallReturnLabel_85, ??CrossCallReturnLabel_80, ??CrossCallReturnLabel_46, ??CrossCallReturnLabel_11
        CFI (cfiCond177) R6 load(1, XDATA, add(CFA_XSP16, literal(-12)))
        CFI (cfiCond177) VB load(1, XDATA, add(CFA_XSP16, literal(-11)))
        CFI (cfiCond177) V0 load(1, XDATA, add(CFA_XSP16, literal(-10)))
        CFI (cfiCond177) V1 load(1, XDATA, add(CFA_XSP16, literal(-9)))
        CFI (cfiCond177) V2 load(1, XDATA, add(CFA_XSP16, literal(-8)))
        CFI (cfiCond177) V3 load(1, XDATA, add(CFA_XSP16, literal(-7)))
        CFI (cfiCond177) R7 load(1, XDATA, add(CFA_XSP16, literal(-6)))
        CFI (cfiCond177) ?RET_LOW load(1, XDATA, add(CFA_XSP16, literal(-5)))
        CFI (cfiCond177) ?RET_HIGH load(1, XDATA, add(CFA_XSP16, literal(-4)))
        CFI (cfiCond177) ?BRET_EXT load(1, XDATA, add(CFA_XSP16, literal(-3)))
        CFI (cfiCond177) DPL0 load(1, XDATA, add(CFA_XSP16, literal(-2)))
        CFI (cfiCond177) DPH0 load(1, XDATA, add(CFA_XSP16, literal(-1)))
        CFI (cfiCond177) CFA_SP SP+0
        CFI (cfiCond177) CFA_XSP16 add(XSP16, 12)
        CFI Block cfiCond178 Using cfiCommon0
        CFI (cfiCond178) NoFunction
        CFI (cfiCond178) Conditional ??CrossCallReturnLabel_85, ??CrossCallReturnLabel_80, ??CrossCallReturnLabel_47, ??CrossCallReturnLabel_8
        CFI (cfiCond178) R6 load(1, XDATA, add(CFA_XSP16, literal(-12)))
        CFI (cfiCond178) VB load(1, XDATA, add(CFA_XSP16, literal(-11)))
        CFI (cfiCond178) V0 load(1, XDATA, add(CFA_XSP16, literal(-10)))
        CFI (cfiCond178) V1 load(1, XDATA, add(CFA_XSP16, literal(-9)))
        CFI (cfiCond178) V2 load(1, XDATA, add(CFA_XSP16, literal(-8)))
        CFI (cfiCond178) V3 load(1, XDATA, add(CFA_XSP16, literal(-7)))
        CFI (cfiCond178) R7 load(1, XDATA, add(CFA_XSP16, literal(-6)))
        CFI (cfiCond178) ?RET_LOW load(1, XDATA, add(CFA_XSP16, literal(-5)))
        CFI (cfiCond178) ?RET_HIGH load(1, XDATA, add(CFA_XSP16, literal(-4)))
        CFI (cfiCond178) ?BRET_EXT load(1, XDATA, add(CFA_XSP16, literal(-3)))
        CFI (cfiCond178) DPL0 load(1, XDATA, add(CFA_XSP16, literal(-2)))
        CFI (cfiCond178) DPH0 load(1, XDATA, add(CFA_XSP16, literal(-1)))
        CFI (cfiCond178) CFA_SP SP+0
        CFI (cfiCond178) CFA_XSP16 add(XSP16, 12)
        CFI Block cfiCond179 Using cfiCommon0
        CFI (cfiCond179) NoFunction
        CFI (cfiCond179) Conditional ??CrossCallReturnLabel_85, ??CrossCallReturnLabel_80, ??CrossCallReturnLabel_47, ??CrossCallReturnLabel_9
        CFI (cfiCond179) R6 load(1, XDATA, add(CFA_XSP16, literal(-12)))
        CFI (cfiCond179) VB load(1, XDATA, add(CFA_XSP16, literal(-11)))
        CFI (cfiCond179) V0 load(1, XDATA, add(CFA_XSP16, literal(-10)))
        CFI (cfiCond179) V1 load(1, XDATA, add(CFA_XSP16, literal(-9)))
        CFI (cfiCond179) V2 load(1, XDATA, add(CFA_XSP16, literal(-8)))
        CFI (cfiCond179) V3 load(1, XDATA, add(CFA_XSP16, literal(-7)))
        CFI (cfiCond179) R7 load(1, XDATA, add(CFA_XSP16, literal(-6)))
        CFI (cfiCond179) ?RET_LOW load(1, XDATA, add(CFA_XSP16, literal(-5)))
        CFI (cfiCond179) ?RET_HIGH load(1, XDATA, add(CFA_XSP16, literal(-4)))
        CFI (cfiCond179) ?BRET_EXT load(1, XDATA, add(CFA_XSP16, literal(-3)))
        CFI (cfiCond179) DPL0 load(1, XDATA, add(CFA_XSP16, literal(-2)))
        CFI (cfiCond179) DPH0 load(1, XDATA, add(CFA_XSP16, literal(-1)))
        CFI (cfiCond179) CFA_SP SP+0
        CFI (cfiCond179) CFA_XSP16 add(XSP16, 12)
        CFI Block cfiPicker180 Using cfiCommon1
        CFI (cfiPicker180) NoFunction
        CFI (cfiPicker180) Picker
        MOVX    @DPTR,A
        INC     DPTR
        INC     R2
        MOV     R3,DPH
        RET
        CFI EndBlock cfiCond164
        CFI EndBlock cfiCond165
        CFI EndBlock cfiCond166
        CFI EndBlock cfiCond167
        CFI EndBlock cfiCond168
        CFI EndBlock cfiCond169
        CFI EndBlock cfiCond170
        CFI EndBlock cfiCond171
        CFI EndBlock cfiCond172
        CFI EndBlock cfiCond173
        CFI EndBlock cfiCond174
        CFI EndBlock cfiCond175
        CFI EndBlock cfiCond176
        CFI EndBlock cfiCond177
        CFI EndBlock cfiCond178
        CFI EndBlock cfiCond179
        CFI EndBlock cfiPicker180

        RSEG BANKED_CODE:CODE:NOROOT(0)
?Subroutine11:
        CFI Block cfiCond181 Using cfiCommon0
        CFI NoFunction
        CFI Conditional ??CrossCallReturnLabel_12
        CFI R6 load(1, XDATA, add(CFA_XSP16, literal(-12)))
        CFI VB load(1, XDATA, add(CFA_XSP16, literal(-11)))
        CFI V0 load(1, XDATA, add(CFA_XSP16, literal(-10)))
        CFI V1 load(1, XDATA, add(CFA_XSP16, literal(-9)))
        CFI V2 load(1, XDATA, add(CFA_XSP16, literal(-8)))
        CFI V3 load(1, XDATA, add(CFA_XSP16, literal(-7)))
        CFI R7 load(1, XDATA, add(CFA_XSP16, literal(-6)))
        CFI ?RET_LOW load(1, XDATA, add(CFA_XSP16, literal(-5)))
        CFI ?RET_HIGH load(1, XDATA, add(CFA_XSP16, literal(-4)))
        CFI ?BRET_EXT load(1, XDATA, add(CFA_XSP16, literal(-3)))
        CFI DPL0 load(1, XDATA, add(CFA_XSP16, literal(-2)))
        CFI DPH0 load(1, XDATA, add(CFA_XSP16, literal(-1)))
        CFI CFA_SP SP+0
        CFI CFA_XSP16 add(XSP16, 12)
        CFI Block cfiCond182 Using cfiCommon0
        CFI (cfiCond182) NoFunction
        CFI (cfiCond182) Conditional ??CrossCallReturnLabel_13
        CFI (cfiCond182) R6 load(1, XDATA, add(CFA_XSP16, literal(-12)))
        CFI (cfiCond182) VB load(1, XDATA, add(CFA_XSP16, literal(-11)))
        CFI (cfiCond182) V0 load(1, XDATA, add(CFA_XSP16, literal(-10)))
        CFI (cfiCond182) V1 load(1, XDATA, add(CFA_XSP16, literal(-9)))
        CFI (cfiCond182) V2 load(1, XDATA, add(CFA_XSP16, literal(-8)))
        CFI (cfiCond182) V3 load(1, XDATA, add(CFA_XSP16, literal(-7)))
        CFI (cfiCond182) R7 load(1, XDATA, add(CFA_XSP16, literal(-6)))
        CFI (cfiCond182) ?RET_LOW load(1, XDATA, add(CFA_XSP16, literal(-5)))
        CFI (cfiCond182) ?RET_HIGH load(1, XDATA, add(CFA_XSP16, literal(-4)))
        CFI (cfiCond182) ?BRET_EXT load(1, XDATA, add(CFA_XSP16, literal(-3)))
        CFI (cfiCond182) DPL0 load(1, XDATA, add(CFA_XSP16, literal(-2)))
        CFI (cfiCond182) DPH0 load(1, XDATA, add(CFA_XSP16, literal(-1)))
        CFI (cfiCond182) CFA_SP SP+0
        CFI (cfiCond182) CFA_XSP16 add(XSP16, 12)
        CFI Block cfiPicker183 Using cfiCommon1
        CFI (cfiPicker183) NoFunction
        CFI (cfiPicker183) Picker
        MOV     R0,A
        MOV     A,R5
        ADDC    A,#0x0
        MOV     R1,A
        MOV     DPL,R0
        MOV     DPH,R1
        LCALL   ?Subroutine31 & 0xFFFF
??CrossCallReturnLabel_77:
        MOV     DPL,R0
        MOV     DPH,R1
        INC     DPTR
        MOVX    A,@DPTR
        MOV     DPL,R2
        MOV     DPH,R3
        RET
        CFI EndBlock cfiCond181
        CFI EndBlock cfiCond182
        CFI EndBlock cfiPicker183

        RSEG BANKED_CODE:CODE:NOROOT(0)
?Subroutine10:
        CFI Block cfiCond184 Using cfiCommon0
        CFI NoFunction
        CFI Conditional ??CrossCallReturnLabel_10
        CFI R6 load(1, XDATA, add(CFA_XSP16, literal(-12)))
        CFI VB load(1, XDATA, add(CFA_XSP16, literal(-11)))
        CFI V0 load(1, XDATA, add(CFA_XSP16, literal(-10)))
        CFI V1 load(1, XDATA, add(CFA_XSP16, literal(-9)))
        CFI V2 load(1, XDATA, add(CFA_XSP16, literal(-8)))
        CFI V3 load(1, XDATA, add(CFA_XSP16, literal(-7)))
        CFI R7 load(1, XDATA, add(CFA_XSP16, literal(-6)))
        CFI ?RET_LOW load(1, XDATA, add(CFA_XSP16, literal(-5)))
        CFI ?RET_HIGH load(1, XDATA, add(CFA_XSP16, literal(-4)))
        CFI ?BRET_EXT load(1, XDATA, add(CFA_XSP16, literal(-3)))
        CFI DPL0 load(1, XDATA, add(CFA_XSP16, literal(-2)))
        CFI DPH0 load(1, XDATA, add(CFA_XSP16, literal(-1)))
        CFI CFA_SP SP+0
        CFI CFA_XSP16 add(XSP16, 12)
        CFI Block cfiCond185 Using cfiCommon0
        CFI (cfiCond185) NoFunction
        CFI (cfiCond185) Conditional ??CrossCallReturnLabel_11
        CFI (cfiCond185) R6 load(1, XDATA, add(CFA_XSP16, literal(-12)))
        CFI (cfiCond185) VB load(1, XDATA, add(CFA_XSP16, literal(-11)))
        CFI (cfiCond185) V0 load(1, XDATA, add(CFA_XSP16, literal(-10)))
        CFI (cfiCond185) V1 load(1, XDATA, add(CFA_XSP16, literal(-9)))
        CFI (cfiCond185) V2 load(1, XDATA, add(CFA_XSP16, literal(-8)))
        CFI (cfiCond185) V3 load(1, XDATA, add(CFA_XSP16, literal(-7)))
        CFI (cfiCond185) R7 load(1, XDATA, add(CFA_XSP16, literal(-6)))
        CFI (cfiCond185) ?RET_LOW load(1, XDATA, add(CFA_XSP16, literal(-5)))
        CFI (cfiCond185) ?RET_HIGH load(1, XDATA, add(CFA_XSP16, literal(-4)))
        CFI (cfiCond185) ?BRET_EXT load(1, XDATA, add(CFA_XSP16, literal(-3)))
        CFI (cfiCond185) DPL0 load(1, XDATA, add(CFA_XSP16, literal(-2)))
        CFI (cfiCond185) DPH0 load(1, XDATA, add(CFA_XSP16, literal(-1)))
        CFI (cfiCond185) CFA_SP SP+0
        CFI (cfiCond185) CFA_XSP16 add(XSP16, 12)
        CFI Block cfiPicker186 Using cfiCommon1
        CFI (cfiPicker186) NoFunction
        CFI (cfiPicker186) Picker
        LCALL   ?Subroutine30 & 0xFFFF
??CrossCallReturnLabel_46:
        RET
        CFI EndBlock cfiCond184
        CFI EndBlock cfiCond185
        CFI EndBlock cfiPicker186

        RSEG BANKED_CODE:CODE:NOROOT(0)
?Subroutine30:
        CFI Block cfiCond187 Using cfiCommon0
        CFI NoFunction
        CFI Conditional ??CrossCallReturnLabel_46, ??CrossCallReturnLabel_10
        CFI R6 load(1, XDATA, add(CFA_XSP16, literal(-12)))
        CFI VB load(1, XDATA, add(CFA_XSP16, literal(-11)))
        CFI V0 load(1, XDATA, add(CFA_XSP16, literal(-10)))
        CFI V1 load(1, XDATA, add(CFA_XSP16, literal(-9)))
        CFI V2 load(1, XDATA, add(CFA_XSP16, literal(-8)))
        CFI V3 load(1, XDATA, add(CFA_XSP16, literal(-7)))
        CFI R7 load(1, XDATA, add(CFA_XSP16, literal(-6)))
        CFI ?RET_LOW load(1, XDATA, add(CFA_XSP16, literal(-5)))
        CFI ?RET_HIGH load(1, XDATA, add(CFA_XSP16, literal(-4)))
        CFI ?BRET_EXT load(1, XDATA, add(CFA_XSP16, literal(-3)))
        CFI DPL0 load(1, XDATA, add(CFA_XSP16, literal(-2)))
        CFI DPH0 load(1, XDATA, add(CFA_XSP16, literal(-1)))
        CFI CFA_SP SP+0
        CFI CFA_XSP16 add(XSP16, 12)
        CFI Block cfiCond188 Using cfiCommon0
        CFI (cfiCond188) NoFunction
        CFI (cfiCond188) Conditional ??CrossCallReturnLabel_46, ??CrossCallReturnLabel_11
        CFI (cfiCond188) R6 load(1, XDATA, add(CFA_XSP16, literal(-12)))
        CFI (cfiCond188) VB load(1, XDATA, add(CFA_XSP16, literal(-11)))
        CFI (cfiCond188) V0 load(1, XDATA, add(CFA_XSP16, literal(-10)))
        CFI (cfiCond188) V1 load(1, XDATA, add(CFA_XSP16, literal(-9)))
        CFI (cfiCond188) V2 load(1, XDATA, add(CFA_XSP16, literal(-8)))
        CFI (cfiCond188) V3 load(1, XDATA, add(CFA_XSP16, literal(-7)))
        CFI (cfiCond188) R7 load(1, XDATA, add(CFA_XSP16, literal(-6)))
        CFI (cfiCond188) ?RET_LOW load(1, XDATA, add(CFA_XSP16, literal(-5)))
        CFI (cfiCond188) ?RET_HIGH load(1, XDATA, add(CFA_XSP16, literal(-4)))
        CFI (cfiCond188) ?BRET_EXT load(1, XDATA, add(CFA_XSP16, literal(-3)))
        CFI (cfiCond188) DPL0 load(1, XDATA, add(CFA_XSP16, literal(-2)))
        CFI (cfiCond188) DPH0 load(1, XDATA, add(CFA_XSP16, literal(-1)))
        CFI (cfiCond188) CFA_SP SP+0
        CFI (cfiCond188) CFA_XSP16 add(XSP16, 12)
        CFI Block cfiCond189 Using cfiCommon0
        CFI (cfiCond189) NoFunction
        CFI (cfiCond189) Conditional ??CrossCallReturnLabel_47, ??CrossCallReturnLabel_8
        CFI (cfiCond189) R6 load(1, XDATA, add(CFA_XSP16, literal(-12)))
        CFI (cfiCond189) VB load(1, XDATA, add(CFA_XSP16, literal(-11)))
        CFI (cfiCond189) V0 load(1, XDATA, add(CFA_XSP16, literal(-10)))
        CFI (cfiCond189) V1 load(1, XDATA, add(CFA_XSP16, literal(-9)))
        CFI (cfiCond189) V2 load(1, XDATA, add(CFA_XSP16, literal(-8)))
        CFI (cfiCond189) V3 load(1, XDATA, add(CFA_XSP16, literal(-7)))
        CFI (cfiCond189) R7 load(1, XDATA, add(CFA_XSP16, literal(-6)))
        CFI (cfiCond189) ?RET_LOW load(1, XDATA, add(CFA_XSP16, literal(-5)))
        CFI (cfiCond189) ?RET_HIGH load(1, XDATA, add(CFA_XSP16, literal(-4)))
        CFI (cfiCond189) ?BRET_EXT load(1, XDATA, add(CFA_XSP16, literal(-3)))
        CFI (cfiCond189) DPL0 load(1, XDATA, add(CFA_XSP16, literal(-2)))
        CFI (cfiCond189) DPH0 load(1, XDATA, add(CFA_XSP16, literal(-1)))
        CFI (cfiCond189) CFA_SP SP+0
        CFI (cfiCond189) CFA_XSP16 add(XSP16, 12)
        CFI Block cfiCond190 Using cfiCommon0
        CFI (cfiCond190) NoFunction
        CFI (cfiCond190) Conditional ??CrossCallReturnLabel_47, ??CrossCallReturnLabel_9
        CFI (cfiCond190) R6 load(1, XDATA, add(CFA_XSP16, literal(-12)))
        CFI (cfiCond190) VB load(1, XDATA, add(CFA_XSP16, literal(-11)))
        CFI (cfiCond190) V0 load(1, XDATA, add(CFA_XSP16, literal(-10)))
        CFI (cfiCond190) V1 load(1, XDATA, add(CFA_XSP16, literal(-9)))
        CFI (cfiCond190) V2 load(1, XDATA, add(CFA_XSP16, literal(-8)))
        CFI (cfiCond190) V3 load(1, XDATA, add(CFA_XSP16, literal(-7)))
        CFI (cfiCond190) R7 load(1, XDATA, add(CFA_XSP16, literal(-6)))
        CFI (cfiCond190) ?RET_LOW load(1, XDATA, add(CFA_XSP16, literal(-5)))
        CFI (cfiCond190) ?RET_HIGH load(1, XDATA, add(CFA_XSP16, literal(-4)))
        CFI (cfiCond190) ?BRET_EXT load(1, XDATA, add(CFA_XSP16, literal(-3)))
        CFI (cfiCond190) DPL0 load(1, XDATA, add(CFA_XSP16, literal(-2)))
        CFI (cfiCond190) DPH0 load(1, XDATA, add(CFA_XSP16, literal(-1)))
        CFI (cfiCond190) CFA_SP SP+0
        CFI (cfiCond190) CFA_XSP16 add(XSP16, 12)
        CFI Block cfiPicker191 Using cfiCommon1
        CFI (cfiPicker191) NoFunction
        CFI (cfiPicker191) Picker
        LCALL   ?Subroutine38 & 0xFFFF
??CrossCallReturnLabel_80:
        MOV     DPL,R4
        MOV     DPH,R5
        INC     DPTR
        INC     DPTR
        INC     DPTR
        INC     DPTR
        INC     DPTR
        INC     DPTR
        INC     DPTR
        RET
        CFI EndBlock cfiCond187
        CFI EndBlock cfiCond188
        CFI EndBlock cfiCond189
        CFI EndBlock cfiCond190
        CFI EndBlock cfiPicker191

        RSEG BANKED_CODE:CODE:NOROOT(0)
?Subroutine9:
        CFI Block cfiCond192 Using cfiCommon0
        CFI NoFunction
        CFI Conditional ??CrossCallReturnLabel_8
        CFI R6 load(1, XDATA, add(CFA_XSP16, literal(-12)))
        CFI VB load(1, XDATA, add(CFA_XSP16, literal(-11)))
        CFI V0 load(1, XDATA, add(CFA_XSP16, literal(-10)))
        CFI V1 load(1, XDATA, add(CFA_XSP16, literal(-9)))
        CFI V2 load(1, XDATA, add(CFA_XSP16, literal(-8)))
        CFI V3 load(1, XDATA, add(CFA_XSP16, literal(-7)))
        CFI R7 load(1, XDATA, add(CFA_XSP16, literal(-6)))
        CFI ?RET_LOW load(1, XDATA, add(CFA_XSP16, literal(-5)))
        CFI ?RET_HIGH load(1, XDATA, add(CFA_XSP16, literal(-4)))
        CFI ?BRET_EXT load(1, XDATA, add(CFA_XSP16, literal(-3)))
        CFI DPL0 load(1, XDATA, add(CFA_XSP16, literal(-2)))
        CFI DPH0 load(1, XDATA, add(CFA_XSP16, literal(-1)))
        CFI CFA_SP SP+0
        CFI CFA_XSP16 add(XSP16, 12)
        CFI Block cfiCond193 Using cfiCommon0
        CFI (cfiCond193) NoFunction
        CFI (cfiCond193) Conditional ??CrossCallReturnLabel_9
        CFI (cfiCond193) R6 load(1, XDATA, add(CFA_XSP16, literal(-12)))
        CFI (cfiCond193) VB load(1, XDATA, add(CFA_XSP16, literal(-11)))
        CFI (cfiCond193) V0 load(1, XDATA, add(CFA_XSP16, literal(-10)))
        CFI (cfiCond193) V1 load(1, XDATA, add(CFA_XSP16, literal(-9)))
        CFI (cfiCond193) V2 load(1, XDATA, add(CFA_XSP16, literal(-8)))
        CFI (cfiCond193) V3 load(1, XDATA, add(CFA_XSP16, literal(-7)))
        CFI (cfiCond193) R7 load(1, XDATA, add(CFA_XSP16, literal(-6)))
        CFI (cfiCond193) ?RET_LOW load(1, XDATA, add(CFA_XSP16, literal(-5)))
        CFI (cfiCond193) ?RET_HIGH load(1, XDATA, add(CFA_XSP16, literal(-4)))
        CFI (cfiCond193) ?BRET_EXT load(1, XDATA, add(CFA_XSP16, literal(-3)))
        CFI (cfiCond193) DPL0 load(1, XDATA, add(CFA_XSP16, literal(-2)))
        CFI (cfiCond193) DPH0 load(1, XDATA, add(CFA_XSP16, literal(-1)))
        CFI (cfiCond193) CFA_SP SP+0
        CFI (cfiCond193) CFA_XSP16 add(XSP16, 12)
        CFI Block cfiPicker194 Using cfiCommon1
        CFI (cfiPicker194) NoFunction
        CFI (cfiPicker194) Picker
        LCALL   ?Subroutine30 & 0xFFFF
??CrossCallReturnLabel_47:
        INC     DPTR
        INC     DPTR
        RET
        CFI EndBlock cfiCond192
        CFI EndBlock cfiCond193
        CFI EndBlock cfiPicker194
// 1379 
// 1380 #if defined ZCL_KEY_ESTABLISH
// 1381 /***************************************************************************************************
// 1382  * @fn      MT_UtilzclGeneral_KeyEstablish_InitiateKeyEstablishment
// 1383  *
// 1384  * @brief   Proxy the zclGeneral_KeyEstablish_InitiateKeyEstablishment() function.
// 1385  *
// 1386  * @param   pBuf - pointer to the received buffer
// 1387  *
// 1388  * @return  void
// 1389  ***************************************************************************************************/

        RSEG BANKED_CODE:CODE:NOROOT(0)
// 1390 static void MT_UtilzclGeneral_KeyEstablish_InitiateKeyEstablishment(uint8 *pBuf)
MT_UtilzclGeneral_KeyEstablish_InitiateKeyEstablishment:
        CFI Block cfiBlock195 Using cfiCommon0
        CFI Function MT_UtilzclGeneral_KeyEstablish_InitiateKeyEstablishment
        CODE
// 1391 {
        FUNCALL MT_UtilzclGeneral_KeyEstablish_InitiateKeyEstablishment, osal_memcpy
        LOCFRAME ISTACK, 0, STACK
        LOCFRAME PSTACK, 0, STACK
        LOCFRAME XSTACK, 27, STACK
        LOCFRAME IOVERLAY, 0, STATIC
        LOCFRAME DOVERLAY, 0, STATIC
        ARGFRAME ISTACK, 0, STACK
        ARGFRAME PSTACK, 0, STACK
        ARGFRAME XSTACK, 27, STACK
        ARGFRAME IOVERLAY, 0, STATIC
        ARGFRAME DOVERLAY, 0, STATIC
        FUNCALL MT_UtilzclGeneral_KeyEstablish_InitiateKeyEstablishment, zclGeneral_KeyEstablish_InitiateKeyEstablishment
        LOCFRAME ISTACK, 0, STACK
        LOCFRAME PSTACK, 0, STACK
        LOCFRAME XSTACK, 24, STACK
        LOCFRAME IOVERLAY, 0, STATIC
        LOCFRAME DOVERLAY, 0, STATIC
        ARGFRAME ISTACK, 0, STACK
        ARGFRAME PSTACK, 0, STACK
        ARGFRAME XSTACK, 24, STACK
        ARGFRAME IOVERLAY, 0, STATIC
        ARGFRAME DOVERLAY, 0, STATIC
        FUNCALL MT_UtilzclGeneral_KeyEstablish_InitiateKeyEstablishment, MT_BuildAndSendZToolResponse
        LOCFRAME ISTACK, 0, STACK
        LOCFRAME PSTACK, 0, STACK
        LOCFRAME XSTACK, 24, STACK
        LOCFRAME IOVERLAY, 0, STATIC
        LOCFRAME DOVERLAY, 0, STATIC
        ARGFRAME ISTACK, 0, STACK
        ARGFRAME PSTACK, 0, STACK
        ARGFRAME XSTACK, 24, STACK
        ARGFRAME IOVERLAY, 0, STATIC
        ARGFRAME DOVERLAY, 0, STATIC
        MOV     A,#-0xc
        LCALL   ?BANKED_ENTER_XDATA
        CFI DPH0 load(1, XDATA, add(CFA_XSP16, literal(-1)))
        CFI DPL0 load(1, XDATA, add(CFA_XSP16, literal(-2)))
        CFI ?BRET_EXT load(1, XDATA, add(CFA_XSP16, literal(-3)))
        CFI ?RET_HIGH load(1, XDATA, add(CFA_XSP16, literal(-4)))
        CFI ?RET_LOW load(1, XDATA, add(CFA_XSP16, literal(-5)))
        CFI R7 load(1, XDATA, add(CFA_XSP16, literal(-6)))
        CFI V3 load(1, XDATA, add(CFA_XSP16, literal(-7)))
        CFI V2 load(1, XDATA, add(CFA_XSP16, literal(-8)))
        CFI V1 load(1, XDATA, add(CFA_XSP16, literal(-9)))
        CFI V0 load(1, XDATA, add(CFA_XSP16, literal(-10)))
        CFI VB load(1, XDATA, add(CFA_XSP16, literal(-11)))
        CFI R6 load(1, XDATA, add(CFA_XSP16, literal(-12)))
        CFI CFA_SP SP+0
        CFI CFA_XSP16 add(XSP16, 12)
        ; Saved register size: 12
        ; Auto size: 12
        MOV     A,#-0xc
        LCALL   ?ALLOC_XSTACK8
        CFI CFA_XSP16 add(XSP16, 24)
        MOV     A,R2
        MOV     R6,A
        MOV     A,R3
        MOV     R7,A
// 1392   afAddrType_t partnerAddr;
// 1393   uint8 cmdId = pBuf[MT_RPC_POS_CMD1];
        MOV     DPL,R6
        MOV     DPH,R7
        INC     DPTR
        INC     DPTR
        MOVX    A,@DPTR
        MOV     ?V0 + 3,A
// 1394   pBuf += MT_RPC_FRAME_HDR_SZ;
        LCALL   ?Subroutine17 & 0xFFFF
// 1395 
// 1396   partnerAddr.panId = 0;  // Not an inter-pan message.
??CrossCallReturnLabel_23:
        MOV     A,#0xa
        LCALL   ?XSTACK_DISP0_8
        CLR     A
        MOVX    @DPTR,A
        INC     DPTR
        LCALL   ?Subroutine26 & 0xFFFF
// 1397   partnerAddr.endPoint = pBuf[2];
??CrossCallReturnLabel_35:
        INC     DPTR
        MOVX    A,@DPTR
        PUSH    A
        CFI CFA_SP SP+-1
        MOV     A,#0x9
        LCALL   ?XSTACK_DISP0_8
        POP     A
        CFI CFA_SP SP+0
        LCALL   ?Subroutine26 & 0xFFFF
// 1398   partnerAddr.addrMode = (afAddrMode_t)pBuf[3];
??CrossCallReturnLabel_36:
        INC     DPTR
        INC     DPTR
        MOVX    A,@DPTR
        MOV     R0,A
        MOV     A,#0x8
        LCALL   ?XSTACK_DISP0_8
        MOV     A,R0
        MOVX    @DPTR,A
// 1399   if (afAddr64Bit == partnerAddr.addrMode)
        MOV     A,#0x3
        XRL     A,R0
        JNZ     ??MT_UtilzclGeneral_KeyEstablish_InitiateKeyEst_1
// 1400   {
// 1401     (void)osal_memcpy(partnerAddr.addr.extAddr, pBuf+4, Z_EXTADDR_LEN);
        ; Setup parameters for call to function osal_memcpy
        MOV     A,R6
        ADD     A,#0x4
        MOV     ?V0 + 0,A
        MOV     A,R7
        ADDC    A,#0x0
        MOV     ?V0 + 1,A
        MOV     ?V0 + 2,#0x0
        MOV     R0,#?V0 + 0
        LCALL   ?PUSH_XSTACK_I_THREE
        CFI CFA_XSP16 add(XSP16, 27)
        MOV     R4,#0x8
        MOV     R5,#0x0
        MOV     A,#0x3
        LCALL   ?XSTACK_DISP0_8
        MOV     R2,DPL
        MOV     R3,DPH
        LCALL   ??osal_memcpy?relay
        MOV     A,#0x3
        LCALL   ?DEALLOC_XSTACK8
        CFI CFA_XSP16 add(XSP16, 24)
        SJMP    ??MT_UtilzclGeneral_KeyEstablish_InitiateKeyEst_2
// 1402   }
// 1403   else
// 1404   {
// 1405     partnerAddr.addr.shortAddr = BUILD_UINT16(pBuf[4], pBuf[5]);
??MT_UtilzclGeneral_KeyEstablish_InitiateKeyEst_1:
        MOV     DPL,R6
        MOV     DPH,R7
        INC     DPTR
        INC     DPTR
        INC     DPTR
        INC     DPTR
        MOVX    A,@DPTR
        MOV     R2,A
        MOV     DPL,R6
        MOV     DPH,R7
        INC     DPTR
        INC     DPTR
        INC     DPTR
        INC     DPTR
        INC     DPTR
        MOVX    A,@DPTR
        MOV     R1,A
        MOV     A,R2
        MOV     DPL,?XSP + 0
        MOV     DPH,?XSP + 1
        MOVX    @DPTR,A
        INC     DPTR
        MOV     A,R1
        MOVX    @DPTR,A
// 1406   }
// 1407 
// 1408   zcl_key_establish_task_id = pBuf[0];
??MT_UtilzclGeneral_KeyEstablish_InitiateKeyEst_2:
        MOV     DPL,R6
        MOV     DPH,R7
        MOVX    A,@DPTR
        MOV     DPTR,#zcl_key_establish_task_id
        LCALL   ?Subroutine26 & 0xFFFF
// 1409   *pBuf = zclGeneral_KeyEstablish_InitiateKeyEstablishment(MT_TaskID, &partnerAddr, pBuf[1]);
??CrossCallReturnLabel_37:
        MOVX    A,@DPTR
        MOV     R4,A
        MOV     DPL,?XSP + 0
        MOV     DPH,?XSP + 1
        MOV     R2,DPL
        MOV     R3,DPH
        MOV     DPTR,#MT_TaskID
        MOVX    A,@DPTR
        MOV     R1,A
        LCALL   ??zclGeneral_KeyEstablish_InitiateKeyEstablishm
        MOV     A,R1
        MOV     DPL,R6
        MOV     DPH,R7
        MOVX    @DPTR,A
// 1410   MT_BuildAndSendZToolResponse(((uint8)MT_RPC_CMD_SRSP | (uint8)MT_RPC_SYS_UTIL), cmdId, 1, pBuf);
        ; Setup parameters for call to function MT_BuildAndSendZToolResponse
        MOV     A,R6
        MOV     R4,A
        MOV     A,R7
        MOV     R5,A
        MOV     R3,#0x1
        MOV     R2,?V0 + 3
        MOV     R1,#0x67
        LCALL   ??MT_BuildAndSendZToolResponse?relay
// 1411 }
        MOV     A,#0xc
        LCALL   ?DEALLOC_XSTACK8
        CFI CFA_XSP16 add(XSP16, 12)
        LJMP    ?Subroutine4 & 0xFFFF
        CFI EndBlock cfiBlock195

        RSEG BANKED_CODE:CODE:NOROOT(0)
?Subroutine26:
        CFI Block cfiCond196 Using cfiCommon0
        CFI NoFunction
        CFI Conditional ??CrossCallReturnLabel_35
        CFI R6 load(1, XDATA, add(CFA_XSP16, literal(-12)))
        CFI VB load(1, XDATA, add(CFA_XSP16, literal(-11)))
        CFI V0 load(1, XDATA, add(CFA_XSP16, literal(-10)))
        CFI V1 load(1, XDATA, add(CFA_XSP16, literal(-9)))
        CFI V2 load(1, XDATA, add(CFA_XSP16, literal(-8)))
        CFI V3 load(1, XDATA, add(CFA_XSP16, literal(-7)))
        CFI R7 load(1, XDATA, add(CFA_XSP16, literal(-6)))
        CFI ?RET_LOW load(1, XDATA, add(CFA_XSP16, literal(-5)))
        CFI ?RET_HIGH load(1, XDATA, add(CFA_XSP16, literal(-4)))
        CFI ?BRET_EXT load(1, XDATA, add(CFA_XSP16, literal(-3)))
        CFI DPL0 load(1, XDATA, add(CFA_XSP16, literal(-2)))
        CFI DPH0 load(1, XDATA, add(CFA_XSP16, literal(-1)))
        CFI CFA_SP SP+0
        CFI CFA_XSP16 add(XSP16, 24)
        CFI Block cfiCond197 Using cfiCommon0
        CFI (cfiCond197) NoFunction
        CFI (cfiCond197) Conditional ??CrossCallReturnLabel_36
        CFI (cfiCond197) R6 load(1, XDATA, add(CFA_XSP16, literal(-12)))
        CFI (cfiCond197) VB load(1, XDATA, add(CFA_XSP16, literal(-11)))
        CFI (cfiCond197) V0 load(1, XDATA, add(CFA_XSP16, literal(-10)))
        CFI (cfiCond197) V1 load(1, XDATA, add(CFA_XSP16, literal(-9)))
        CFI (cfiCond197) V2 load(1, XDATA, add(CFA_XSP16, literal(-8)))
        CFI (cfiCond197) V3 load(1, XDATA, add(CFA_XSP16, literal(-7)))
        CFI (cfiCond197) R7 load(1, XDATA, add(CFA_XSP16, literal(-6)))
        CFI (cfiCond197) ?RET_LOW load(1, XDATA, add(CFA_XSP16, literal(-5)))
        CFI (cfiCond197) ?RET_HIGH load(1, XDATA, add(CFA_XSP16, literal(-4)))
        CFI (cfiCond197) ?BRET_EXT load(1, XDATA, add(CFA_XSP16, literal(-3)))
        CFI (cfiCond197) DPL0 load(1, XDATA, add(CFA_XSP16, literal(-2)))
        CFI (cfiCond197) DPH0 load(1, XDATA, add(CFA_XSP16, literal(-1)))
        CFI (cfiCond197) CFA_SP SP+0
        CFI (cfiCond197) CFA_XSP16 add(XSP16, 24)
        CFI Block cfiCond198 Using cfiCommon0
        CFI (cfiCond198) NoFunction
        CFI (cfiCond198) Conditional ??CrossCallReturnLabel_37
        CFI (cfiCond198) R6 load(1, XDATA, add(CFA_XSP16, literal(-12)))
        CFI (cfiCond198) VB load(1, XDATA, add(CFA_XSP16, literal(-11)))
        CFI (cfiCond198) V0 load(1, XDATA, add(CFA_XSP16, literal(-10)))
        CFI (cfiCond198) V1 load(1, XDATA, add(CFA_XSP16, literal(-9)))
        CFI (cfiCond198) V2 load(1, XDATA, add(CFA_XSP16, literal(-8)))
        CFI (cfiCond198) V3 load(1, XDATA, add(CFA_XSP16, literal(-7)))
        CFI (cfiCond198) R7 load(1, XDATA, add(CFA_XSP16, literal(-6)))
        CFI (cfiCond198) ?RET_LOW load(1, XDATA, add(CFA_XSP16, literal(-5)))
        CFI (cfiCond198) ?RET_HIGH load(1, XDATA, add(CFA_XSP16, literal(-4)))
        CFI (cfiCond198) ?BRET_EXT load(1, XDATA, add(CFA_XSP16, literal(-3)))
        CFI (cfiCond198) DPL0 load(1, XDATA, add(CFA_XSP16, literal(-2)))
        CFI (cfiCond198) DPH0 load(1, XDATA, add(CFA_XSP16, literal(-1)))
        CFI (cfiCond198) CFA_SP SP+0
        CFI (cfiCond198) CFA_XSP16 add(XSP16, 24)
        CFI Block cfiPicker199 Using cfiCommon1
        CFI (cfiPicker199) NoFunction
        CFI (cfiPicker199) Picker
        MOVX    @DPTR,A
        ; Setup parameters for call to function zclGeneral_KeyEstablish_InitiateKeyEstablishment
        MOV     DPL,R6
        MOV     DPH,R7
        INC     DPTR
        RET
        CFI EndBlock cfiCond196
        CFI EndBlock cfiCond197
        CFI EndBlock cfiCond198
        CFI EndBlock cfiPicker199

        RSEG BANKED_CODE:CODE:NOROOT(0)
?Subroutine17:
        CFI Block cfiCond200 Using cfiCommon0
        CFI NoFunction
        CFI Conditional ??CrossCallReturnLabel_22
        CFI R6 load(1, XDATA, add(CFA_XSP16, literal(-9)))
        CFI VB load(1, XDATA, add(CFA_XSP16, literal(-8)))
        CFI V0 load(1, XDATA, add(CFA_XSP16, literal(-7)))
        CFI R7 load(1, XDATA, add(CFA_XSP16, literal(-6)))
        CFI ?RET_LOW load(1, XDATA, add(CFA_XSP16, literal(-5)))
        CFI ?RET_HIGH load(1, XDATA, add(CFA_XSP16, literal(-4)))
        CFI ?BRET_EXT load(1, XDATA, add(CFA_XSP16, literal(-3)))
        CFI DPL0 load(1, XDATA, add(CFA_XSP16, literal(-2)))
        CFI DPH0 load(1, XDATA, add(CFA_XSP16, literal(-1)))
        CFI CFA_SP SP+0
        CFI CFA_XSP16 add(XSP16, 27)
        CFI Block cfiCond201 Using cfiCommon0
        CFI (cfiCond201) NoFunction
        CFI (cfiCond201) Conditional ??CrossCallReturnLabel_23
        CFI (cfiCond201) R6 load(1, XDATA, add(CFA_XSP16, literal(-12)))
        CFI (cfiCond201) VB load(1, XDATA, add(CFA_XSP16, literal(-11)))
        CFI (cfiCond201) V0 load(1, XDATA, add(CFA_XSP16, literal(-10)))
        CFI (cfiCond201) V1 load(1, XDATA, add(CFA_XSP16, literal(-9)))
        CFI (cfiCond201) V2 load(1, XDATA, add(CFA_XSP16, literal(-8)))
        CFI (cfiCond201) V3 load(1, XDATA, add(CFA_XSP16, literal(-7)))
        CFI (cfiCond201) R7 load(1, XDATA, add(CFA_XSP16, literal(-6)))
        CFI (cfiCond201) ?RET_LOW load(1, XDATA, add(CFA_XSP16, literal(-5)))
        CFI (cfiCond201) ?RET_HIGH load(1, XDATA, add(CFA_XSP16, literal(-4)))
        CFI (cfiCond201) ?BRET_EXT load(1, XDATA, add(CFA_XSP16, literal(-3)))
        CFI (cfiCond201) DPL0 load(1, XDATA, add(CFA_XSP16, literal(-2)))
        CFI (cfiCond201) DPH0 load(1, XDATA, add(CFA_XSP16, literal(-1)))
        CFI (cfiCond201) CFA_SP SP+0
        CFI (cfiCond201) CFA_XSP16 add(XSP16, 24)
        CFI Block cfiPicker202 Using cfiCommon1
        CFI (cfiPicker202) NoFunction
        CFI (cfiPicker202) Picker
        MOV     A,R6
        ADD     A,#0x3
        INC     R6
        INC     R6
        INC     R6
        MOV     A,R7
        ADDC    A,#0x0
        MOV     R7,A
        RET
        CFI EndBlock cfiCond200
        CFI EndBlock cfiCond201
        CFI EndBlock cfiPicker202
// 1412 
// 1413 /***************************************************************************************************
// 1414  * @fn      MT_UtilzclGeneral_KeyEstablishment_ECDSASign
// 1415  *
// 1416  * @brief   Proxy the zclGeneral_KeyEstablishment_ECDSASign() function.
// 1417  *
// 1418  * @param   pBuf - pointer to the received buffer
// 1419  *
// 1420  * @return  void
// 1421  ***************************************************************************************************/
// 1422 static void MT_UtilzclGeneral_KeyEstablishment_ECDSASign(uint8 *pBuf)
// 1423 {
// 1424 #if defined TC_LINKKEY_JOIN
// 1425   uint8 *output = osal_mem_alloc(SE_PROFILE_SIGNATURE_LENGTH+1);
// 1426   uint8 cmdId = pBuf[MT_RPC_POS_CMD1];
// 1427   pBuf += MT_RPC_FRAME_HDR_SZ;
// 1428 
// 1429   if (NULL == output)
// 1430   {
// 1431     *pBuf = FAILURE;
// 1432     MT_BuildAndSendZToolResponse(((uint8)MT_RPC_CMD_SRSP | (uint8)MT_RPC_SYS_UTIL), cmdId, 1, pBuf);
// 1433   }
// 1434   else
// 1435   {
// 1436     *output = zclGeneral_KeyEstablishment_ECDSASign(pBuf+1, *pBuf, output+1);
// 1437     MT_BuildAndSendZToolResponse(((uint8)MT_RPC_CMD_SRSP | (uint8)MT_RPC_SYS_UTIL), cmdId,
// 1438                                          SE_PROFILE_SIGNATURE_LENGTH+1, output);
// 1439     osal_mem_free(output);
// 1440   }
// 1441 #endif
// 1442 }
// 1443 
// 1444 /***************************************************************************************************
// 1445  * @fn      MT_UtilKeyEstablishInd
// 1446  *
// 1447  * @brief   Proxy the ZCL_KEY_ESTABLISH_IND command.
// 1448  *
// 1449  * @param   pInd - Pointer to a keyEstablishmentInd_t structure.
// 1450  *
// 1451  * @return  None
// 1452  ***************************************************************************************************/

        RSEG BANKED_CODE:CODE:NOROOT(0)
// 1453 void MT_UtilKeyEstablishInd(keyEstablishmentInd_t *pInd)
MT_UtilKeyEstablishInd:
        CFI Block cfiBlock203 Using cfiCommon0
        CFI Function MT_UtilKeyEstablishInd
        CODE
// 1454 {
        FUNCALL MT_UtilKeyEstablishInd, MT_BuildAndSendZToolResponse
        LOCFRAME ISTACK, 2, STACK
        LOCFRAME PSTACK, 0, STACK
        LOCFRAME XSTACK, 6, STACK
        LOCFRAME IOVERLAY, 0, STATIC
        LOCFRAME DOVERLAY, 0, STATIC
        ARGFRAME ISTACK, 2, STACK
        ARGFRAME PSTACK, 0, STACK
        ARGFRAME XSTACK, 6, STACK
        ARGFRAME IOVERLAY, 0, STATIC
        ARGFRAME DOVERLAY, 0, STATIC
        PUSH    DPL
        CFI DPL0 Frame(CFA_SP, 4)
        CFI CFA_SP SP+-4
        PUSH    DPH
        CFI DPH0 Frame(CFA_SP, 5)
        CFI CFA_SP SP+-5
        ; Saved register size: 2
        ; Auto size: 6
        MOV     A,#-0x6
        LCALL   ?ALLOC_XSTACK8
        CFI CFA_XSP16 add(XSP16, 6)
// 1455   uint8 msg[6];
// 1456 
// 1457   msg[0] = zcl_key_establish_task_id;
        MOV     DPTR,#zcl_key_establish_task_id
        LCALL   ?Subroutine18 & 0xFFFF
// 1458   msg[1] = pInd->hdr.event;
??CrossCallReturnLabel_25:
        MOV     DPL,R2
        MOV     DPH,R3
        MOVX    A,@DPTR
        PUSH    A
        CFI CFA_SP SP+-6
        MOV     A,#0x1
        LCALL   ?XSTACK_DISP0_8
        POP     A
        CFI CFA_SP SP+-5
        MOVX    @DPTR,A
// 1459   msg[2] = pInd->hdr.status;
        MOV     DPL,R2
        MOV     DPH,R3
        INC     DPTR
        MOVX    A,@DPTR
        PUSH    A
        CFI CFA_SP SP+-6
        MOV     A,#0x2
        LCALL   ?XSTACK_DISP0_8
        POP     A
        CFI CFA_SP SP+-5
        LCALL   ?Subroutine39 & 0xFFFF
// 1460   msg[3] = pInd->waitTime;
??CrossCallReturnLabel_61:
        PUSH    A
        CFI CFA_SP SP+-6
        MOV     A,#0x3
        LCALL   ?XSTACK_DISP0_8
        POP     A
        CFI CFA_SP SP+-5
        MOVX    @DPTR,A
// 1461   msg[4] = LO_UINT16(pInd->keyEstablishmentSuite);
        MOV     A,R2
        ADD     A,#0x3
        MOV     R0,A
        MOV     A,R3
        ADDC    A,#0x0
        MOV     R1,A
        MOV     DPL,R0
        MOV     DPH,R1
        MOVX    A,@DPTR
        PUSH    A
        CFI CFA_SP SP+-6
        MOV     A,#0x4
        LCALL   ?XSTACK_DISP0_8
        POP     A
        CFI CFA_SP SP+-5
        MOVX    @DPTR,A
// 1462   msg[5] = HI_UINT16(pInd->keyEstablishmentSuite);
        MOV     DPL,R0
        MOV     DPH,R1
        INC     DPTR
        MOVX    A,@DPTR
        PUSH    A
        CFI CFA_SP SP+-6
        MOV     A,#0x5
        LCALL   ?XSTACK_DISP0_8
        POP     A
        CFI CFA_SP SP+-5
        LCALL   ?Subroutine25 & 0xFFFF
// 1463 
// 1464   MT_BuildAndSendZToolResponse(((uint8)MT_RPC_CMD_AREQ | (uint8)MT_RPC_SYS_UTIL),
// 1465                                        MT_UTIL_ZCL_KEY_ESTABLISH_IND, 6, msg);
??CrossCallReturnLabel_34:
        MOV     R3,#0x6
        MOV     R2,#-0x1f
        MOV     R1,#0x47
        LCALL   ??MT_BuildAndSendZToolResponse?relay
// 1466 }
        MOV     A,#0x6
        LJMP    ??Subroutine47_0 & 0xFFFF
        CFI EndBlock cfiBlock203

        RSEG BANKED_CODE:CODE:NOROOT(0)
?Subroutine39:
        CFI Block cfiCond204 Using cfiCommon0
        CFI NoFunction
        CFI Conditional ??CrossCallReturnLabel_60, ??CrossCallReturnLabel_56, ??CrossCallReturnLabel_16
        CFI R6 load(1, XDATA, add(CFA_XSP16, literal(-10)))
        CFI VB load(1, XDATA, add(CFA_XSP16, literal(-9)))
        CFI V0 load(1, XDATA, add(CFA_XSP16, literal(-8)))
        CFI V1 load(1, XDATA, add(CFA_XSP16, literal(-7)))
        CFI R7 load(1, XDATA, add(CFA_XSP16, literal(-6)))
        CFI ?RET_LOW load(1, XDATA, add(CFA_XSP16, literal(-5)))
        CFI ?RET_HIGH load(1, XDATA, add(CFA_XSP16, literal(-4)))
        CFI ?BRET_EXT load(1, XDATA, add(CFA_XSP16, literal(-3)))
        CFI DPL0 load(1, XDATA, add(CFA_XSP16, literal(-2)))
        CFI DPH0 load(1, XDATA, add(CFA_XSP16, literal(-1)))
        CFI CFA_SP SP+0
        CFI CFA_XSP16 add(XSP16, 11)
        CFI Block cfiCond205 Using cfiCommon0
        CFI (cfiCond205) NoFunction
        CFI (cfiCond205) Conditional ??CrossCallReturnLabel_60, ??CrossCallReturnLabel_56, ??CrossCallReturnLabel_17
        CFI (cfiCond205) R6 load(1, XDATA, add(CFA_XSP16, literal(-10)))
        CFI (cfiCond205) VB load(1, XDATA, add(CFA_XSP16, literal(-9)))
        CFI (cfiCond205) V0 load(1, XDATA, add(CFA_XSP16, literal(-8)))
        CFI (cfiCond205) V1 load(1, XDATA, add(CFA_XSP16, literal(-7)))
        CFI (cfiCond205) R7 load(1, XDATA, add(CFA_XSP16, literal(-6)))
        CFI (cfiCond205) ?RET_LOW load(1, XDATA, add(CFA_XSP16, literal(-5)))
        CFI (cfiCond205) ?RET_HIGH load(1, XDATA, add(CFA_XSP16, literal(-4)))
        CFI (cfiCond205) ?BRET_EXT load(1, XDATA, add(CFA_XSP16, literal(-3)))
        CFI (cfiCond205) DPL0 load(1, XDATA, add(CFA_XSP16, literal(-2)))
        CFI (cfiCond205) DPH0 load(1, XDATA, add(CFA_XSP16, literal(-1)))
        CFI (cfiCond205) CFA_SP SP+0
        CFI (cfiCond205) CFA_XSP16 add(XSP16, 11)
        CFI Block cfiCond206 Using cfiCommon0
        CFI (cfiCond206) NoFunction
        CFI (cfiCond206) Conditional ??CrossCallReturnLabel_60, ??CrossCallReturnLabel_57, ??CrossCallReturnLabel_0
        CFI (cfiCond206) R6 load(1, XDATA, add(CFA_XSP16, literal(-10)))
        CFI (cfiCond206) VB load(1, XDATA, add(CFA_XSP16, literal(-9)))
        CFI (cfiCond206) V0 load(1, XDATA, add(CFA_XSP16, literal(-8)))
        CFI (cfiCond206) V1 load(1, XDATA, add(CFA_XSP16, literal(-7)))
        CFI (cfiCond206) R7 load(1, XDATA, add(CFA_XSP16, literal(-6)))
        CFI (cfiCond206) ?RET_LOW load(1, XDATA, add(CFA_XSP16, literal(-5)))
        CFI (cfiCond206) ?RET_HIGH load(1, XDATA, add(CFA_XSP16, literal(-4)))
        CFI (cfiCond206) ?BRET_EXT load(1, XDATA, add(CFA_XSP16, literal(-3)))
        CFI (cfiCond206) DPL0 load(1, XDATA, add(CFA_XSP16, literal(-2)))
        CFI (cfiCond206) DPH0 load(1, XDATA, add(CFA_XSP16, literal(-1)))
        CFI (cfiCond206) CFA_SP SP+0
        CFI (cfiCond206) CFA_XSP16 add(XSP16, 13)
        CFI Block cfiCond207 Using cfiCommon0
        CFI (cfiCond207) NoFunction
        CFI (cfiCond207) Conditional ??CrossCallReturnLabel_60, ??CrossCallReturnLabel_57, ??CrossCallReturnLabel_1
        CFI (cfiCond207) R6 load(1, XDATA, add(CFA_XSP16, literal(-16)))
        CFI (cfiCond207) VB load(1, XDATA, add(CFA_XSP16, literal(-15)))
        CFI (cfiCond207) V0 load(1, XDATA, add(CFA_XSP16, literal(-14)))
        CFI (cfiCond207) V1 load(1, XDATA, add(CFA_XSP16, literal(-13)))
        CFI (cfiCond207) V2 load(1, XDATA, add(CFA_XSP16, literal(-12)))
        CFI (cfiCond207) V3 load(1, XDATA, add(CFA_XSP16, literal(-11)))
        CFI (cfiCond207) V4 load(1, XDATA, add(CFA_XSP16, literal(-10)))
        CFI (cfiCond207) V5 load(1, XDATA, add(CFA_XSP16, literal(-9)))
        CFI (cfiCond207) V6 load(1, XDATA, add(CFA_XSP16, literal(-8)))
        CFI (cfiCond207) V7 load(1, XDATA, add(CFA_XSP16, literal(-7)))
        CFI (cfiCond207) R7 load(1, XDATA, add(CFA_XSP16, literal(-6)))
        CFI (cfiCond207) ?RET_LOW load(1, XDATA, add(CFA_XSP16, literal(-5)))
        CFI (cfiCond207) ?RET_HIGH load(1, XDATA, add(CFA_XSP16, literal(-4)))
        CFI (cfiCond207) ?BRET_EXT load(1, XDATA, add(CFA_XSP16, literal(-3)))
        CFI (cfiCond207) DPL0 load(1, XDATA, add(CFA_XSP16, literal(-2)))
        CFI (cfiCond207) DPH0 load(1, XDATA, add(CFA_XSP16, literal(-1)))
        CFI (cfiCond207) CFA_SP SP+0
        CFI (cfiCond207) CFA_XSP16 add(XSP16, 21)
        CFI Block cfiCond208 Using cfiCommon0
        CFI (cfiCond208) NoFunction
        CFI (cfiCond208) Conditional ??CrossCallReturnLabel_60, ??CrossCallReturnLabel_57, ??CrossCallReturnLabel_2
        CFI (cfiCond208) R6 load(1, XDATA, add(CFA_XSP16, literal(-9)))
        CFI (cfiCond208) VB load(1, XDATA, add(CFA_XSP16, literal(-8)))
        CFI (cfiCond208) V0 load(1, XDATA, add(CFA_XSP16, literal(-7)))
        CFI (cfiCond208) R7 load(1, XDATA, add(CFA_XSP16, literal(-6)))
        CFI (cfiCond208) ?RET_LOW load(1, XDATA, add(CFA_XSP16, literal(-5)))
        CFI (cfiCond208) ?RET_HIGH load(1, XDATA, add(CFA_XSP16, literal(-4)))
        CFI (cfiCond208) ?BRET_EXT load(1, XDATA, add(CFA_XSP16, literal(-3)))
        CFI (cfiCond208) DPL0 load(1, XDATA, add(CFA_XSP16, literal(-2)))
        CFI (cfiCond208) DPH0 load(1, XDATA, add(CFA_XSP16, literal(-1)))
        CFI (cfiCond208) CFA_SP SP+0
        CFI (cfiCond208) CFA_XSP16 add(XSP16, 10)
        CFI Block cfiCond209 Using cfiCommon0
        CFI (cfiCond209) NoFunction
        CFI (cfiCond209) Conditional ??CrossCallReturnLabel_60, ??CrossCallReturnLabel_57, ??CrossCallReturnLabel_3
        CFI (cfiCond209) R6 load(1, XDATA, add(CFA_XSP16, literal(-9)))
        CFI (cfiCond209) VB load(1, XDATA, add(CFA_XSP16, literal(-8)))
        CFI (cfiCond209) V0 load(1, XDATA, add(CFA_XSP16, literal(-7)))
        CFI (cfiCond209) R7 load(1, XDATA, add(CFA_XSP16, literal(-6)))
        CFI (cfiCond209) ?RET_LOW load(1, XDATA, add(CFA_XSP16, literal(-5)))
        CFI (cfiCond209) ?RET_HIGH load(1, XDATA, add(CFA_XSP16, literal(-4)))
        CFI (cfiCond209) ?BRET_EXT load(1, XDATA, add(CFA_XSP16, literal(-3)))
        CFI (cfiCond209) DPL0 load(1, XDATA, add(CFA_XSP16, literal(-2)))
        CFI (cfiCond209) DPH0 load(1, XDATA, add(CFA_XSP16, literal(-1)))
        CFI (cfiCond209) CFA_SP SP+0
        CFI (cfiCond209) CFA_XSP16 add(XSP16, 10)
        CFI Block cfiCond210 Using cfiCommon0
        CFI (cfiCond210) NoFunction
        CFI (cfiCond210) Conditional ??CrossCallReturnLabel_61
        CFI (cfiCond210) DPL0 Frame(CFA_SP, 4)
        CFI (cfiCond210) DPH0 Frame(CFA_SP, 5)
        CFI (cfiCond210) CFA_SP SP+-5
        CFI (cfiCond210) CFA_XSP16 add(XSP16, 6)
        CFI Block cfiPicker211 Using cfiCommon1
        CFI (cfiPicker211) NoFunction
        CFI (cfiPicker211) Picker
        MOVX    @DPTR,A
        MOV     DPL,R2
        MOV     DPH,R3
        INC     DPTR
        INC     DPTR
        MOVX    A,@DPTR
        RET
        CFI EndBlock cfiCond204
        CFI EndBlock cfiCond205
        CFI EndBlock cfiCond206
        CFI EndBlock cfiCond207
        CFI EndBlock cfiCond208
        CFI EndBlock cfiCond209
        CFI EndBlock cfiCond210
        CFI EndBlock cfiPicker211

        RSEG BANKED_CODE:CODE:NOROOT(0)
?Subroutine25:
        CFI Block cfiCond212 Using cfiCommon0
        CFI NoFunction
        CFI Conditional ??CrossCallReturnLabel_33
        CFI R6 load(1, XDATA, add(CFA_XSP16, literal(-16)))
        CFI VB load(1, XDATA, add(CFA_XSP16, literal(-15)))
        CFI V0 load(1, XDATA, add(CFA_XSP16, literal(-14)))
        CFI V1 load(1, XDATA, add(CFA_XSP16, literal(-13)))
        CFI V2 load(1, XDATA, add(CFA_XSP16, literal(-12)))
        CFI V3 load(1, XDATA, add(CFA_XSP16, literal(-11)))
        CFI V4 load(1, XDATA, add(CFA_XSP16, literal(-10)))
        CFI V5 load(1, XDATA, add(CFA_XSP16, literal(-9)))
        CFI V6 load(1, XDATA, add(CFA_XSP16, literal(-8)))
        CFI V7 load(1, XDATA, add(CFA_XSP16, literal(-7)))
        CFI R7 load(1, XDATA, add(CFA_XSP16, literal(-6)))
        CFI ?RET_LOW load(1, XDATA, add(CFA_XSP16, literal(-5)))
        CFI ?RET_HIGH load(1, XDATA, add(CFA_XSP16, literal(-4)))
        CFI ?BRET_EXT load(1, XDATA, add(CFA_XSP16, literal(-3)))
        CFI DPL0 load(1, XDATA, add(CFA_XSP16, literal(-2)))
        CFI DPH0 load(1, XDATA, add(CFA_XSP16, literal(-1)))
        CFI CFA_SP SP+0
        CFI CFA_XSP16 add(XSP16, 20)
        CFI Block cfiCond213 Using cfiCommon0
        CFI (cfiCond213) NoFunction
        CFI (cfiCond213) Conditional ??CrossCallReturnLabel_34
        CFI (cfiCond213) DPL0 Frame(CFA_SP, 4)
        CFI (cfiCond213) DPH0 Frame(CFA_SP, 5)
        CFI (cfiCond213) CFA_SP SP+-5
        CFI (cfiCond213) CFA_XSP16 add(XSP16, 6)
        CFI Block cfiPicker214 Using cfiCommon1
        CFI (cfiPicker214) NoFunction
        CFI (cfiPicker214) Picker
        LCALL   ?Subroutine35 & 0xFFFF
??CrossCallReturnLabel_55:
        RET
        CFI EndBlock cfiCond212
        CFI EndBlock cfiCond213
        CFI EndBlock cfiPicker214

        RSEG BANKED_CODE:CODE:NOROOT(0)
?Subroutine35:
        CFI Block cfiCond215 Using cfiCommon0
        CFI NoFunction
        CFI Conditional ??CrossCallReturnLabel_54, ??CrossCallReturnLabel_31
        CFI DPL0 Frame(CFA_SP, 4)
        CFI DPH0 Frame(CFA_SP, 5)
        CFI CFA_SP SP+-5
        CFI CFA_XSP16 add(XSP16, 2)
        CFI Block cfiCond216 Using cfiCommon0
        CFI (cfiCond216) NoFunction
        CFI (cfiCond216) Conditional ??CrossCallReturnLabel_54, ??CrossCallReturnLabel_31
        CFI (cfiCond216) DPL0 Frame(CFA_SP, 4)
        CFI (cfiCond216) DPH0 Frame(CFA_SP, 5)
        CFI (cfiCond216) CFA_SP SP+-5
        CFI (cfiCond216) CFA_XSP16 add(XSP16, 2)
        CFI Block cfiCond217 Using cfiCommon0
        CFI (cfiCond217) NoFunction
        CFI (cfiCond217) Conditional ??CrossCallReturnLabel_54, ??CrossCallReturnLabel_32
        CFI (cfiCond217) R6 load(1, XDATA, add(CFA_XSP16, literal(-11)))
        CFI (cfiCond217) VB load(1, XDATA, add(CFA_XSP16, literal(-10)))
        CFI (cfiCond217) V0 load(1, XDATA, add(CFA_XSP16, literal(-9)))
        CFI (cfiCond217) V1 load(1, XDATA, add(CFA_XSP16, literal(-8)))
        CFI (cfiCond217) V2 load(1, XDATA, add(CFA_XSP16, literal(-7)))
        CFI (cfiCond217) R7 load(1, XDATA, add(CFA_XSP16, literal(-6)))
        CFI (cfiCond217) ?RET_LOW load(1, XDATA, add(CFA_XSP16, literal(-5)))
        CFI (cfiCond217) ?RET_HIGH load(1, XDATA, add(CFA_XSP16, literal(-4)))
        CFI (cfiCond217) ?BRET_EXT load(1, XDATA, add(CFA_XSP16, literal(-3)))
        CFI (cfiCond217) DPL0 load(1, XDATA, add(CFA_XSP16, literal(-2)))
        CFI (cfiCond217) DPH0 load(1, XDATA, add(CFA_XSP16, literal(-1)))
        CFI (cfiCond217) CFA_SP SP+0
        CFI (cfiCond217) CFA_XSP16 add(XSP16, 26)
        CFI Block cfiCond218 Using cfiCommon0
        CFI (cfiCond218) NoFunction
        CFI (cfiCond218) Conditional ??CrossCallReturnLabel_55, ??CrossCallReturnLabel_33
        CFI (cfiCond218) R6 load(1, XDATA, add(CFA_XSP16, literal(-16)))
        CFI (cfiCond218) VB load(1, XDATA, add(CFA_XSP16, literal(-15)))
        CFI (cfiCond218) V0 load(1, XDATA, add(CFA_XSP16, literal(-14)))
        CFI (cfiCond218) V1 load(1, XDATA, add(CFA_XSP16, literal(-13)))
        CFI (cfiCond218) V2 load(1, XDATA, add(CFA_XSP16, literal(-12)))
        CFI (cfiCond218) V3 load(1, XDATA, add(CFA_XSP16, literal(-11)))
        CFI (cfiCond218) V4 load(1, XDATA, add(CFA_XSP16, literal(-10)))
        CFI (cfiCond218) V5 load(1, XDATA, add(CFA_XSP16, literal(-9)))
        CFI (cfiCond218) V6 load(1, XDATA, add(CFA_XSP16, literal(-8)))
        CFI (cfiCond218) V7 load(1, XDATA, add(CFA_XSP16, literal(-7)))
        CFI (cfiCond218) R7 load(1, XDATA, add(CFA_XSP16, literal(-6)))
        CFI (cfiCond218) ?RET_LOW load(1, XDATA, add(CFA_XSP16, literal(-5)))
        CFI (cfiCond218) ?RET_HIGH load(1, XDATA, add(CFA_XSP16, literal(-4)))
        CFI (cfiCond218) ?BRET_EXT load(1, XDATA, add(CFA_XSP16, literal(-3)))
        CFI (cfiCond218) DPL0 load(1, XDATA, add(CFA_XSP16, literal(-2)))
        CFI (cfiCond218) DPH0 load(1, XDATA, add(CFA_XSP16, literal(-1)))
        CFI (cfiCond218) CFA_SP SP+0
        CFI (cfiCond218) CFA_XSP16 add(XSP16, 20)
        CFI Block cfiCond219 Using cfiCommon0
        CFI (cfiCond219) NoFunction
        CFI (cfiCond219) Conditional ??CrossCallReturnLabel_55, ??CrossCallReturnLabel_34
        CFI (cfiCond219) DPL0 Frame(CFA_SP, 4)
        CFI (cfiCond219) DPH0 Frame(CFA_SP, 5)
        CFI (cfiCond219) CFA_SP SP+-5
        CFI (cfiCond219) CFA_XSP16 add(XSP16, 6)
        CFI Block cfiPicker220 Using cfiCommon1
        CFI (cfiPicker220) NoFunction
        CFI (cfiPicker220) Picker
        MOVX    @DPTR,A
        ; Setup parameters for call to function MT_BuildAndSendZToolResponse
        ; Setup parameters for call to function MT_BuildAndSendZToolResponse
        ; Setup parameters for call to function MT_BuildAndSendZToolResponse
        ; Setup parameters for call to function MT_BuildAndSendZToolResponse
        ; Setup parameters for call to function MT_BuildAndSendZToolResponse
        MOV     DPL,?XSP + 0
        MOV     DPH,?XSP + 1
        MOV     R4,DPL
        MOV     R5,DPH
        RET
        CFI EndBlock cfiCond215
        CFI EndBlock cfiCond216
        CFI EndBlock cfiCond217
        CFI EndBlock cfiCond218
        CFI EndBlock cfiCond219
        CFI EndBlock cfiPicker220

        RSEG BANKED_CODE:CODE:NOROOT(0)
?Subroutine18:
        CFI Block cfiCond221 Using cfiCommon0
        CFI NoFunction
        CFI Conditional ??CrossCallReturnLabel_24
        CFI R6 load(1, XDATA, add(CFA_XSP16, literal(-11)))
        CFI VB load(1, XDATA, add(CFA_XSP16, literal(-10)))
        CFI V0 load(1, XDATA, add(CFA_XSP16, literal(-9)))
        CFI V1 load(1, XDATA, add(CFA_XSP16, literal(-8)))
        CFI V2 load(1, XDATA, add(CFA_XSP16, literal(-7)))
        CFI R7 load(1, XDATA, add(CFA_XSP16, literal(-6)))
        CFI ?RET_LOW load(1, XDATA, add(CFA_XSP16, literal(-5)))
        CFI ?RET_HIGH load(1, XDATA, add(CFA_XSP16, literal(-4)))
        CFI ?BRET_EXT load(1, XDATA, add(CFA_XSP16, literal(-3)))
        CFI DPL0 load(1, XDATA, add(CFA_XSP16, literal(-2)))
        CFI DPH0 load(1, XDATA, add(CFA_XSP16, literal(-1)))
        CFI CFA_SP SP+0
        CFI CFA_XSP16 add(XSP16, 26)
        CFI Block cfiCond222 Using cfiCommon0
        CFI (cfiCond222) NoFunction
        CFI (cfiCond222) Conditional ??CrossCallReturnLabel_25
        CFI (cfiCond222) DPL0 Frame(CFA_SP, 4)
        CFI (cfiCond222) DPH0 Frame(CFA_SP, 5)
        CFI (cfiCond222) CFA_SP SP+-5
        CFI (cfiCond222) CFA_XSP16 add(XSP16, 6)
        CFI Block cfiPicker223 Using cfiCommon1
        CFI (cfiPicker223) NoFunction
        CFI (cfiPicker223) Picker
        MOVX    A,@DPTR
        MOV     DPL,?XSP + 0
        MOV     DPH,?XSP + 1
        MOVX    @DPTR,A
        RET
        CFI EndBlock cfiCond221
        CFI EndBlock cfiCond222
        CFI EndBlock cfiPicker223

        RSEG XDATA_ROM_C:CONST:REORDER:NOROOT(0)
        DATA32
__Constant_ffffffff:
        DD 4294967295

        RSEG XDATA_ROM_C:CONST:REORDER:NOROOT(0)
        DATA32
__Constant_0:
        DD 0

        RSEG XDATA_ROM_C:CONST:REORDER:NOROOT(0)
        DATA32
__Constant_3e8:
        DD 1000

        RSEG BANK_RELAYS:CODE:REORDER:NOROOT(0)
??MT_UtilCommandProcessing?relay:
        LCALL   ?BDISPATCH
        DATA
        DC24    MT_UtilCommandProcessing

        RSEG BANK_RELAYS:CODE:REORDER:NOROOT(0)
??MT_UtilGetDeviceInfo?relay:
        LCALL   ?BDISPATCH
        DATA
        DC24    MT_UtilGetDeviceInfo

        RSEG BANK_RELAYS:CODE:REORDER:NOROOT(0)
??MT_UtilGetNvInfo?relay:
        LCALL   ?BDISPATCH
        DATA
        DC24    MT_UtilGetNvInfo

        RSEG BANK_RELAYS:CODE:REORDER:NOROOT(0)
??MT_UtilSetPanID?relay:
        LCALL   ?BDISPATCH
        DATA
        DC24    MT_UtilSetPanID

        RSEG BANK_RELAYS:CODE:REORDER:NOROOT(0)
??MT_UtilSetChannels?relay:
        LCALL   ?BDISPATCH
        DATA
        DC24    MT_UtilSetChannels

        RSEG BANK_RELAYS:CODE:REORDER:NOROOT(0)
??MT_UtilSetSecLevel?relay:
        LCALL   ?BDISPATCH
        DATA
        DC24    MT_UtilSetSecLevel

        RSEG BANK_RELAYS:CODE:REORDER:NOROOT(0)
??MT_UtilSetPreCfgKey?relay:
        LCALL   ?BDISPATCH
        DATA
        DC24    MT_UtilSetPreCfgKey

        RSEG BANK_RELAYS:CODE:REORDER:NOROOT(0)
??MT_UtilCallbackSub?relay:
        LCALL   ?BDISPATCH
        DATA
        DC24    MT_UtilCallbackSub

        RSEG BANK_RELAYS:CODE:REORDER:NOROOT(0)
??MT_UtilKeyEvent?relay:
        LCALL   ?BDISPATCH
        DATA
        DC24    MT_UtilKeyEvent

        RSEG BANK_RELAYS:CODE:REORDER:NOROOT(0)
??MT_UtilTimeAlive?relay:
        LCALL   ?BDISPATCH
        DATA
        DC24    MT_UtilTimeAlive

        RSEG BANK_RELAYS:CODE:REORDER:NOROOT(0)
??MT_UtilLedControl?relay:
        LCALL   ?BDISPATCH
        DATA
        DC24    MT_UtilLedControl

        RSEG BANK_RELAYS:CODE:REORDER:NOROOT(0)
??MT_UtilSrcMatchEnable?relay:
        LCALL   ?BDISPATCH
        DATA
        DC24    MT_UtilSrcMatchEnable

        RSEG BANK_RELAYS:CODE:REORDER:NOROOT(0)
??MT_UtilSrcMatchAddEntry?relay:
        LCALL   ?BDISPATCH
        DATA
        DC24    MT_UtilSrcMatchAddEntry

        RSEG BANK_RELAYS:CODE:REORDER:NOROOT(0)
??MT_UtilSrcMatchDeleteEntry?relay:
        LCALL   ?BDISPATCH
        DATA
        DC24    MT_UtilSrcMatchDeleteEntry

        RSEG BANK_RELAYS:CODE:REORDER:NOROOT(0)
??MT_UtilSrcMatchCheckSrcAddr?relay:
        LCALL   ?BDISPATCH
        DATA
        DC24    MT_UtilSrcMatchCheckSrcAddr

        RSEG BANK_RELAYS:CODE:REORDER:NOROOT(0)
??MT_UtilSrcMatchAckAllPending?relay:
        LCALL   ?BDISPATCH
        DATA
        DC24    MT_UtilSrcMatchAckAllPending

        RSEG BANK_RELAYS:CODE:REORDER:NOROOT(0)
??MT_UtilSrcMatchCheckAllPending?relay:
        LCALL   ?BDISPATCH
        DATA
        DC24    MT_UtilSrcMatchCheckAllPending

        RSEG BANK_RELAYS:CODE:REORDER:NOROOT(0)
??MT_UtilDataReq?relay:
        LCALL   ?BDISPATCH
        DATA
        DC24    MT_UtilDataReq

        RSEG BANK_RELAYS:CODE:REORDER:NOROOT(0)
??MT_UtilAddrMgrEntryLookupExt?relay:
        LCALL   ?BDISPATCH
        DATA
        DC24    MT_UtilAddrMgrEntryLookupExt

        RSEG BANK_RELAYS:CODE:REORDER:NOROOT(0)
??MT_UtilAssocFindDevice?relay:
        LCALL   ?BDISPATCH
        DATA
        DC24    MT_UtilAssocFindDevice

        RSEG BANK_RELAYS:CODE:REORDER:NOROOT(0)
??MT_UtilAssocGetWithAddress?relay:
        LCALL   ?BDISPATCH
        DATA
        DC24    MT_UtilAssocGetWithAddress

        RSEG BANK_RELAYS:CODE:REORDER:NOROOT(0)
??packDev_t?relay:
        LCALL   ?BDISPATCH
        DATA
        DC24    packDev_t

        RSEG BANK_RELAYS:CODE:REORDER:NOROOT(0)
??MT_UtilzclGeneral_KeyEstablish_InitiateKeyEst:
        LCALL   ?BDISPATCH
        DATA
        DC24    MT_UtilzclGeneral_KeyEstablish_InitiateKeyEstablishment

        RSEG BANK_RELAYS:CODE:REORDER:NOROOT(0)
??MT_UtilKeyEstablishInd?relay:
        LCALL   ?BDISPATCH
        DATA
        DC24    MT_UtilKeyEstablishInd

        END
// 1467 #endif
// 1468 
// 1469 /***************************************************************************************************
// 1470  * @fn      MT_UtilSync
// 1471  *
// 1472  * @brief   Process the MT_UTIL_SYNC command
// 1473  *
// 1474  * @param   None
// 1475  *
// 1476  * @return  None
// 1477  ***************************************************************************************************/
// 1478 static void MT_UtilSync(void)
// 1479 {
// 1480  MT_BuildAndSendZToolResponse(((uint8)MT_RPC_CMD_AREQ|(uint8)MT_RPC_SYS_UTIL),MT_UTIL_SYNC_REQ,0,0);
// 1481 }
// 1482 #endif /* !defined NONWK */
// 1483 #endif /* MT_UTIL_FUNC */
// 1484 /**************************************************************************************************
// 1485  **************************************************************************************************/
// 
// 3 315 bytes in segment BANKED_CODE
//   144 bytes in segment BANK_RELAYS
//    12 bytes in segment XDATA_ROM_C
//     1 byte  in segment XDATA_Z
// 
// 3 459 bytes of CODE  memory
//     0 bytes of CONST memory (+ 12 bytes shared)
//     1 byte  of XDATA memory
//
//Errors: none
//Warnings: none
