###############################################################################
#                                                                             #
# IAR C/C++ Compiler V8.10.1.10194/W32 for 8051         19/Apr/2012  20:29:10 #
# Copyright 2004-2011 IAR Systems AB.                                         #
#                                                                             #
#    Core               =  plain                                              #
#    Code model         =  banked                                             #
#    Data model         =  large                                              #
#    Calling convention =  xdata reentrant                                    #
#    Constant location  =  data_rom                                           #
#    Dptr setup         =  1,16                                               #
#    Source file        =  C:\Texas Instruments\ZStack-CC2530-2.5.1\Component #
#                          s\hal\target\CC2530USB\usb\library\usb_framework.c #
#    Command line       =  -f "C:\Texas Instruments\ZStack-CC2530-2.5.1\Proje #
#                          cts\zstack\ZNP\CC253x\..\Source\znp.cfg"           #
#                          (-DMAC_CFG_APP_PENDING_QUEUE=TRUE                  #
#                          "-DZSTACK_DEVICE_BUILD=(DEVICE_BUILD_COORDINATOR   #
#                          | DEVICE_BUILD_ROUTER | DEVICE_BUILD_ENDDEVICE)"   #
#                          -DNWK_AUTO_POLL -DZNP_RUN_WDOG=FALSE               #
#                          -DZNP_UART_BAUD=HAL_UART_BR_115200 -DZIGBEEPRO     #
#                          -DZIGBEE_FRAGMENTATION -DINTER_PAN -DOSAL_CLOCK    #
#                          -DOSAL_SAPI=FALSE -DSAPI_CB_FUNC=FALSE             #
#                          -DHOLD_AUTO_START -DNV_RESTORE -DNV_INIT           #
#                          -DNUM_DISC_ATTEMPTS=0 -DMT_UTIL_FUNC               #
#                          -DMT_SYS_FUNC -DMT_AF_FUNC -DMT_SAPI_FUNC          #
#                          -DMT_SAPI_CB_FUNC -DMT_ZDO_CB_FUNC -DMT_ZDO_FUNC   #
#                          -DMT_ZDO_MGMT -DMT_APP_FUNC) -f "C:\Texas          #
#                          Instruments\ZStack-CC2530-2.5.1\Projects\zstack\ZN #
#                          P\CC253x\..\..\Tools\CC2530DB\f8wConfig.cfg"       #
#                          (-DZIGBEEPRO -DSECURE=0 -DZG_SECURE_DYNAMIC=0      #
#                          -DREFLECTOR -DDEFAULT_CHANLIST=0x00000800          #
#                          -DZDAPP_CONFIG_PAN_ID=0xFFFF                       #
#                          -DNWK_START_DELAY=100 -DEXTENDED_JOINING_RANDOM_MA #
#                          SK=0x007F -DBEACON_REQUEST_DELAY=100               #
#                          -DBEACON_REQ_DELAY_MASK=0x00FF                     #
#                          -DLINK_STATUS_JITTER_MASK=0x007F                   #
#                          -DROUTE_EXPIRY_TIME=30 -DAPSC_ACK_WAIT_DURATION_PO #
#                          LLED=3000 -DNWK_INDIRECT_MSG_TIMEOUT=7             #
#                          -DMAX_RREQ_ENTRIES=8 -DAPSC_MAX_FRAME_RETRIES=3    #
#                          -DNWK_MAX_DATA_RETRIES=2                           #
#                          -DMAX_POLL_FAILURE_RETRIES=2 -DMAX_BCAST=9         #
#                          -DAPS_MAX_GROUPS=16 -DMAX_RTG_ENTRIES=40           #
#                          -DNWK_MAX_BINDING_ENTRIES=4                        #
#                          -DMAX_BINDING_CLUSTER_IDS=4 "-DDEFAULT_KEY={0x01,  #
#                          0x03, 0x05, 0x07, 0x09, 0x0B, 0x0D, 0x0F, 0x00,    #
#                          0x02, 0x04, 0x06, 0x08, 0x0A, 0x0C, 0x0D}"         #
#                          -DMAC_MAX_FRAME_SIZE=116                           #
#                          -DZDNWKMGR_MIN_TRANSMISSIONS=20 "-DCONST=const     #
#                          __code" -DGENERIC=__generic                        #
#                          -DRFD_RCVC_ALWAYS_ON=FALSE -DPOLL_RATE=1000        #
#                          -DQUEUED_POLL_RATE=100 -DRESPONSE_POLL_RATE=100    #
#                          -DREJOIN_POLL_RATE=440) -f "C:\Texas               #
#                          Instruments\ZStack-CC2530-2.5.1\Projects\zstack\ZN #
#                          P\CC253x\..\..\Tools\CC2530DB\f8wZCL.cfg"          #
#                          (-DZCL_READ -DZCL_WRITE -DZCL_BASIC                #
#                          -DZCL_IDENTIFY -DZCL_ON_OFF -DZCL_KEY_ESTABLISH    #
#                          -DZCL_KEY_ESTABLISHMENT_KEY_GENERATE_TIMEOUT=4     #
#                          -DZCL_KEY_ESTABLISHMENT_MAC_GENERATE_TIMEOUT=10    #
#                          -DZCL_KEY_ESTABLISHMENT_EKEY_GENERATE_TIMEOUT=10   #
#                          -DZCL_LOAD_CONTROL -DZCL_SIMPLE_METERING           #
#                          -DZCL_PRICING -DZCL_MESSAGE -DZCL_TUNNELING        #
#                          -DZCL_TOU) -DZCL_DEVICE_MGMT "C:\Texas             #
#                          Instruments\ZStack-CC2530-2.5.1\Components\hal\tar #
#                          get\CC2530USB\usb\library\usb_framework.c" -D      #
#                          CC2531ZNP -D POWER_SAVING -lC "C:\Texas            #
#                          Instruments\ZStack-CC2530-2.5.1\Projects\zstack\ZN #
#                          P\CC253x\CC2531-Debug\List\" -lA "C:\Texas         #
#                          Instruments\ZStack-CC2530-2.5.1\Projects\zstack\ZN #
#                          P\CC253x\CC2531-Debug\List\" --diag_suppress       #
#                          Pe001,Pa010 -o "C:\Texas                           #
#                          Instruments\ZStack-CC2530-2.5.1\Projects\zstack\ZN #
#                          P\CC253x\CC2531-Debug\Obj\" -e --no_code_motion    #
#                          --debug --core=plain --dptr=16,1                   #
#                          --data_model=large --code_model=banked             #
#                          --calling_convention=xdata_reentrant               #
#                          --place_constants=data_rom --nr_virtual_regs 16    #
#                          -I "C:\Texas Instruments\ZStack-CC2530-2.5.1\Proje #
#                          cts\zstack\ZNP\CC253x\" -I "C:\Texas               #
#                          Instruments\ZStack-CC2530-2.5.1\Projects\zstack\ZN #
#                          P\CC253x\Source\" -I "C:\Texas                     #
#                          Instruments\ZStack-CC2530-2.5.1\Projects\zstack\ZN #
#                          P\CC253x\..\Source\" -I "C:\Texas                  #
#                          Instruments\ZStack-CC2530-2.5.1\Projects\zstack\ZN #
#                          P\CC253x\..\..\SE\Source\" -I "C:\Texas            #
#                          Instruments\ZStack-CC2530-2.5.1\Projects\zstack\ZN #
#                          P\CC253x\..\..\ZMain\TI2530ZNP\" -I "C:\Texas      #
#                          Instruments\ZStack-CC2530-2.5.1\Projects\zstack\ZN #
#                          P\CC253x\..\..\..\..\Components\hal\include\" -I   #
#                          "C:\Texas Instruments\ZStack-CC2530-2.5.1\Projects #
#                          \zstack\ZNP\CC253x\..\..\..\..\Components\hal\targ #
#                          et\CC2530USB\" -I "C:\Texas                        #
#                          Instruments\ZStack-CC2530-2.5.1\Projects\zstack\ZN #
#                          P\CC253x\..\..\..\..\Components\hal\target\CC2530U #
#                          SB\usb\library\" -I "C:\Texas                      #
#                          Instruments\ZStack-CC2530-2.5.1\Projects\zstack\ZN #
#                          P\CC253x\..\..\..\..\Components\hal\target\CC2530U #
#                          SB\usb\library\cc2531\" -I "C:\Texas               #
#                          Instruments\ZStack-CC2530-2.5.1\Projects\zstack\ZN #
#                          P\CC253x\..\..\..\..\Components\hal\target\CC2530U #
#                          SB\usb\class_cdc\" -I "C:\Texas                    #
#                          Instruments\ZStack-CC2530-2.5.1\Projects\zstack\ZN #
#                          P\CC253x\..\..\..\..\Components\mac\include\" -I   #
#                          "C:\Texas Instruments\ZStack-CC2530-2.5.1\Projects #
#                          \zstack\ZNP\CC253x\..\..\..\..\Components\mac\high #
#                          _level\" -I "C:\Texas Instruments\ZStack-CC2530-2. #
#                          5.1\Projects\zstack\ZNP\CC253x\..\..\..\..\Compone #
#                          nts\mac\low_level\srf04\" -I "C:\Texas             #
#                          Instruments\ZStack-CC2530-2.5.1\Projects\zstack\ZN #
#                          P\CC253x\..\..\..\..\Components\mac\low_level\srf0 #
#                          4\single_chip\" -I "C:\Texas                       #
#                          Instruments\ZStack-CC2530-2.5.1\Projects\zstack\ZN #
#                          P\CC253x\..\..\..\..\Components\mt\" -I "C:\Texas  #
#                          Instruments\ZStack-CC2530-2.5.1\Projects\zstack\ZN #
#                          P\CC253x\..\..\..\..\Components\osal\include\" -I  #
#                          "C:\Texas Instruments\ZStack-CC2530-2.5.1\Projects #
#                          \zstack\ZNP\CC253x\..\..\..\..\Components\services #
#                          \saddr\" -I "C:\Texas Instruments\ZStack-CC2530-2. #
#                          5.1\Projects\zstack\ZNP\CC253x\..\..\..\..\Compone #
#                          nts\services\sdata\" -I "C:\Texas                  #
#                          Instruments\ZStack-CC2530-2.5.1\Projects\zstack\ZN #
#                          P\CC253x\..\..\..\..\Components\stack\af\" -I      #
#                          "C:\Texas Instruments\ZStack-CC2530-2.5.1\Projects #
#                          \zstack\ZNP\CC253x\..\..\..\..\Components\stack\nw #
#                          k\" -I "C:\Texas Instruments\ZStack-CC2530-2.5.1\P #
#                          rojects\zstack\ZNP\CC253x\..\..\..\..\Components\s #
#                          tack\sapi\" -I "C:\Texas                           #
#                          Instruments\ZStack-CC2530-2.5.1\Projects\zstack\ZN #
#                          P\CC253x\..\..\..\..\Components\stack\sec\" -I     #
#                          "C:\Texas Instruments\ZStack-CC2530-2.5.1\Projects #
#                          \zstack\ZNP\CC253x\..\..\..\..\Components\stack\sy #
#                          s\" -I "C:\Texas Instruments\ZStack-CC2530-2.5.1\P #
#                          rojects\zstack\ZNP\CC253x\..\..\..\..\Components\s #
#                          tack\zcl\" -I "C:\Texas Instruments\ZStack-CC2530- #
#                          2.5.1\Projects\zstack\ZNP\CC253x\..\..\..\..\Compo #
#                          nents\stack\zdo\" -I "C:\Texas                     #
#                          Instruments\ZStack-CC2530-2.5.1\Projects\zstack\ZN #
#                          P\CC253x\..\..\..\..\Components\zmac\" -I          #
#                          "C:\Texas Instruments\ZStack-CC2530-2.5.1\Projects #
#                          \zstack\ZNP\CC253x\..\..\..\..\Components\zmac\f8w #
#                          \" -Ohz --require_prototypes                       #
#    List file          =  C:\Texas Instruments\ZStack-CC2530-2.5.1\Projects\ #
#                          zstack\ZNP\CC253x\CC2531-Debug\List\usb_framework. #
#                          lst                                                #
#    Object file        =  C:\Texas Instruments\ZStack-CC2530-2.5.1\Projects\ #
#                          zstack\ZNP\CC253x\CC2531-Debug\Obj\usb_framework.r #
#                          51                                                 #
#                                                                             #
#                                                                             #
###############################################################################

C:\Texas Instruments\ZStack-CC2530-2.5.1\Components\hal\target\CC2530USB\usb\library\usb_framework.c
      1          /***********************************************************************************
      2          
      3              Filename:     usb_framework.c
      4          
      5              Description:  USB library common functionality.
      6          
      7          ***********************************************************************************/
      8          
      9          /// \addtogroup module_usb_framework
     10          /// @{
     11          #define USBFRAMEWORK_C ///< Modifies the behavior of "EXTERN" in usb_framework.h
     12          #include "usb_firmware_library_headers.h"

   \                                 In  segment XDATA_Z, align 1, keep-with-next
   \   USBFW_DATA usbfwData
   \                     usbfwData:
   \   000000                DS 20
   \   000014                REQUIRE __INIT_XDATA_Z

   \                                 In  segment XDATA_Z, align 1, keep-with-next
   \   USB_SETUP_DATA usbSetupData
   \                     usbSetupData:
   \   000000                DS 5
   \   000005                REQUIRE __INIT_XDATA_Z

   \                                 In  segment XDATA_Z, align 1, keep-with-next
   \   USB_SETUP_HEADER usbSetupHeader
   \                     usbSetupHeader:
   \   000000                DS 8
   \   000008                REQUIRE __INIT_XDATA_Z
     13          #include "usb_board_cfg.h"
     14          
     15          // Function pointer used by usbfwSetupHandler()

   \                                 In  segment DATA_Z, align 1, keep-with-next
     16          static VFPTR __data ProcessFunc;
   \                     ProcessFunc:
   \   000000                DS 2
   \   000002                REQUIRE __INIT_DATA_Z
     17          
     18          /** \brief Initializes the USB framework
     19           *
     20           * This function should be called when the microcontroller is ready to accept USB traffic. It enables the
     21           * USB peripheral unit and enables the pull-up resistor on the D+ line. Endpoint status, current
     22           * configuration value, etc. are initialized and evenetually re-initialized in the
     23           * \ref usbfwResetHandler() function.
     24           */

   \                                 In  segment BANKED_CODE, align 1, keep-with-next
     25          void usbfwInit(void)
   \                     usbfwInit:
     26          {
   \   000000   C082         PUSH    DPL
   \   000002   C083         PUSH    DPH
   \   000004                ; Saved register size: 2
   \   000004                ; Auto size: 0
     27              // Set default values
     28              usbfwData.selfPowered = (usbdpGetConfigurationDesc(1, 0)->bmAttributes & 0x40) ? TRUE : FALSE;
   \   000004                ; Setup parameters for call to function usbdpGetConfigurationDesc
   \   000004   7A00         MOV     R2,#0x0
   \   000006   7901         MOV     R1,#0x1
   \   000008   12....       LCALL   ??usbdpGetConfigurationDesc?relay
   \   00000B   8A82         MOV     DPL,R2
   \   00000D   8B83         MOV     DPH,R3
   \   00000F   A3           INC     DPTR
   \   000010   A3           INC     DPTR
   \   000011   A3           INC     DPTR
   \   000012   A3           INC     DPTR
   \   000013   A3           INC     DPTR
   \   000014   A3           INC     DPTR
   \   000015   A3           INC     DPTR
   \   000016   E4           CLR     A
   \   000017   93           MOVC    A,@A+DPTR
   \   000018   A2E6         MOV     C,0xE0 /* A   */.6
   \   00001A   90....       MOV     DPTR,#usbfwData + 19
   \   00001D   5004         JNC     ??usbfwInit_0
   \   00001F   7401         MOV     A,#0x1
   \   000021   8001         SJMP    ??usbfwInit_1
   \                     ??usbfwInit_0:
   \   000023   E4           CLR     A
   \                     ??usbfwInit_1:
   \   000024   F0           MOVX    @DPTR,A
     29              usbfwData.remoteWakeup = FALSE;
   \   000025   90....       MOV     DPTR,#usbfwData + 18
   \   000028   E4           CLR     A
   \   000029   F0           MOVX    @DPTR,A
     30          
     31              HAL_USB_ENABLE();
   \   00002A   90620F       MOV     DPTR,#0x620f
   \   00002D   7403         MOV     A,#0x3
   \   00002F   F0           MOVX    @DPTR,A
   \                     ??usbfwInit_2:
   \   000030   E0           MOVX    A,@DPTR
   \   000031   A2E7         MOV     C,0xE0 /* A   */.7
   \   000033   50FB         JNC     ??usbfwInit_2
     32          
     33              // Enable Resume Interrupt
     34              HAL_USB_RESUME_INT_ENABLE();
   \   000035   90620B       MOV     DPTR,#0x620b
   \   000038   E0           MOVX    A,@DPTR
   \   000039   D2E1         SETB    0xE0 /* A   */.1
   \   00003B   F0           MOVX    @DPTR,A
     35          
     36          } // usbfwInit
   \   00003C                REQUIRE ?Subroutine0
   \   00003C                ; // Fall through to label ?Subroutine0

   \                                 In  segment BANKED_CODE, align 1, keep-with-next
   \                     ?Subroutine0:
   \   000000   D083         POP     DPH
   \   000002   D082         POP     DPL
   \   000004   02....       LJMP    ?BRET
     37          
     38          
     39          
     40          
     41          /** \brief Handles USB reset signalling
     42           *
     43           * This function should be called, either from the USB interrupt or the main loop, when the \c USBCIF.RST
     44           * flag has been set. Keep in mind that all bits in \c USBCIF register are cleared when the register is
     45           * read. The function puts the device into the default state (not yet addressed), and puts all endpoints
     46           * (except EP0) into the \ref EP_HALT state
     47           */

   \                                 In  segment BANKED_CODE, align 1, keep-with-next
     48          void usbfwResetHandler(void)
   \                     usbfwResetHandler:
     49          {
   \   000000   C082         PUSH    DPL
   \   000002   C083         PUSH    DPH
   \   000004                ; Saved register size: 2
   \   000004                ; Auto size: 0
     50          
     51             // Reset the USB state
     52             usbfwData.usbState = DEV_DEFAULT;
   \   000004   90....       MOV     DPTR,#usbfwData
   \   000007   7402         MOV     A,#0x2
   \   000009   F0           MOVX    @DPTR,A
     53             usbfwData.configurationValue = 0;
   \   00000A   A3           INC     DPTR
   \   00000B   E4           CLR     A
   \   00000C   F0           MOVX    @DPTR,A
     54          
     55             // Reset all endpoints
     56             usbfwData.ep0Status = EP_IDLE;
   \   00000D   90....       MOV     DPTR,#usbfwData + 7
   \   000010   F0           MOVX    @DPTR,A
     57             usbfwSetAllEpStatus(EP_HALT);
   \   000011                ; Setup parameters for call to function usbfwSetAllEpStatus
   \   000011   7903         MOV     R1,#0x3
   \   000013   12....       LCALL   ??usbfwSetAllEpStatus?relay
     58          
     59             // Reset last function pointer
     60             ProcessFunc = NULL;
   \   000016   75..00       MOV     ProcessFunc+0x0,#0x0
   \   000019   75..00       MOV     ProcessFunc+0x1,#0x0
     61          
     62          } // usbfwResetHandler
   \   00001C   80..         SJMP    ?Subroutine0
     63          
     64          
     65          
     66          
     67          /** \brief USB Setup Handler
     68           *
     69           * This function should be called either from the USB interrupt or the main loop when the \c USBIIF.EP0IF
     70           * flag has been set. Keep in mind that all bits in \c USBIIF register are cleared when the register is
     71           * read. A detailed description of the framework is found in the \ref section_setup_handler_usage
     72           * section.
     73           *
     74           * \note The USB header data is always little-endian, so if a big-endian compiler is used (such as Keil
     75           * C51), the 16-bit values in the \ref usbSetupHeader must be flipped before they are used.
     76           */

   \                                 In  segment BANKED_CODE, align 1, keep-with-next
     77          void usbfwSetupHandler(void)
   \                     usbfwSetupHandler:
     78          {
   \   000000   74F5         MOV     A,#-0xb
   \   000002   12....       LCALL   ?BANKED_ENTER_XDATA
   \   000005                ; Saved register size: 11
   \   000005                ; Auto size: 0
     79             uint8 controlReg;
     80             uint8 bytesNow;
     81             uint8 oldEndpoint;
     82          
     83             // Save the old index setting, then select endpoint 0 and fetch the control register
     84             oldEndpoint = USBFW_GET_SELECTED_ENDPOINT();
   \   000005   90620E       MOV     DPTR,#0x620e
   \   000008   E0           MOVX    A,@DPTR
   \   000009   FE           MOV     R6,A
     85             USBFW_SELECT_ENDPOINT(0);
   \   00000A   E4           CLR     A
   \   00000B   F0           MOVX    @DPTR,A
     86             controlReg = USBCS0;
   \   00000C   906211       MOV     DPTR,#0x6211
   \   00000F   E0           MOVX    A,@DPTR
   \   000010   F5..         MOV     ?V0 + 2,A
     87          
     88             // The last transfer was ended prematurely by a new SETUP packet
     89             if (controlReg & USBCS0_SETUP_END) {
   \   000012   A2E4         MOV     C,0xE0 /* A   */.4
   \   000014   501D         JNC     ??usbfwSetupHandler_0
     90                USBCS0 = USBCS0_CLR_SETUP_END;
   \   000016   7480         MOV     A,#-0x80
   \   000018   F0           MOVX    @DPTR,A
     91                usbfwData.ep0Status = EP_CANCEL;
   \   000019   90....       MOV     DPTR,#usbfwData + 7
   \   00001C   7407         MOV     A,#0x7
   \   00001E   F0           MOVX    @DPTR,A
     92                if (ProcessFunc) ProcessFunc();
   \   00001F   E5..         MOV     A,ProcessFunc+0x0
   \   000021   45..         ORL     A,ProcessFunc+0x1
   \   000023   6009         JZ      ??usbfwSetupHandler_1
   \   000025                ; Setup parameters for indirect call
   \   000025   85..82       MOV     DPL,ProcessFunc+0x0
   \   000028   85..83       MOV     DPH,ProcessFunc+0x1
   \   00002B   12....       LCALL   ?CALL_IND
     93                usbfwData.ep0Status = EP_IDLE;
   \                     ??usbfwSetupHandler_1:
   \   00002E   90....       MOV     DPTR,#usbfwData + 7
   \   000031   E4           CLR     A
   \   000032   F0           MOVX    @DPTR,A
     94             }
     95          
     96             // A STALL handshake was transmitted to the PC
     97             if (controlReg & USBCS0_SENT_STALL) {
   \                     ??usbfwSetupHandler_0:
   \   000033   E5..         MOV     A,?V0 + 2
   \   000035   A2E2         MOV     C,0xE0 /* A   */.2
   \   000037   500B         JNC     ??usbfwSetupHandler_2
     98                USBCS0 = 0x00;
   \   000039   906211       MOV     DPTR,#0x6211
   \   00003C   E4           CLR     A
   \   00003D   F0           MOVX    @DPTR,A
     99                usbfwData.ep0Status = EP_IDLE;
   \   00003E   90....       MOV     DPTR,#usbfwData + 7
   \   000041   F0           MOVX    @DPTR,A
   \   000042   8076         SJMP    ??usbfwSetupHandler_3
    100             }
    101          
    102             // Receive OUT packets
    103             if (usbfwData.ep0Status == EP_RX) {
   \                     ??usbfwSetupHandler_2:
   \   000044   90....       MOV     DPTR,#usbfwData + 7
   \   000047   E0           MOVX    A,@DPTR
   \   000048   6402         XRL     A,#0x2
   \   00004A   7057         JNZ     ??usbfwSetupHandler_4
    104          
    105                // Read FIFO
    106                bytesNow = USBCNT0;
   \   00004C   906216       MOV     DPTR,#0x6216
   \   00004F   E0           MOVX    A,@DPTR
   \   000050   FF           MOV     R7,A
    107                usbfwReadFifo(&USBF0, bytesNow, usbSetupData.pBuffer);
   \   000051                ; Setup parameters for call to function usbfwReadFifo
   \   000051   90....       MOV     DPTR,#usbSetupData
   \   000054   12....       LCALL   ?PUSH_XSTACK8_X_THREE
   \   000057   EF           MOV     A,R7
   \   000058   F9           MOV     R1,A
   \   000059   7A20         MOV     R2,#0x20
   \   00005B   7B62         MOV     R3,#0x62
   \   00005D   12....       LCALL   ??usbfwReadFifo?relay
   \   000060   7403         MOV     A,#0x3
   \   000062   12....       LCALL   ?DEALLOC_XSTACK8
    108                usbSetupData.bytesLeft -= bytesNow;
   \   000065   8F..         MOV     ?V0 + 0,R7
   \   000067   90....       MOV     DPTR,#usbSetupData + 3
   \   00006A   12....       LCALL   ?Subroutine5 & 0xFFFF
    109                usbSetupData.pBuffer += bytesNow;
   \                     ??CrossCallReturnLabel_6:
   \   00006D   12....       LCALL   ?Subroutine2 & 0xFFFF
    110          
    111                // Arm the endpoint
    112                USBCS0 = usbSetupData.bytesLeft ? USBCS0_CLR_OUTPKT_RDY : (USBCS0_CLR_OUTPKT_RDY | USBCS0_DATA_END);
   \                     ??CrossCallReturnLabel_0:
   \   000070   E0           MOVX    A,@DPTR
   \   000071   F8           MOV     R0,A
   \   000072   A3           INC     DPTR
   \   000073   E0           MOVX    A,@DPTR
   \   000074   F9           MOV     R1,A
   \   000075   E8           MOV     A,R0
   \   000076   49           ORL     A,R1
   \   000077   6004         JZ      ??usbfwSetupHandler_5
   \   000079   7440         MOV     A,#0x40
   \   00007B   8002         SJMP    ??usbfwSetupHandler_6
   \                     ??usbfwSetupHandler_5:
   \   00007D   7448         MOV     A,#0x48
   \                     ??usbfwSetupHandler_6:
   \   00007F   906211       MOV     DPTR,#0x6211
   \   000082   F0           MOVX    @DPTR,A
    113          
    114                // Make a call to the appropriate request handler when done
    115                if (usbSetupData.bytesLeft == 0) {
   \   000083   E8           MOV     A,R0
   \   000084   49           ORL     A,R1
   \   000085   7014         JNZ     ??usbfwSetupHandler_7
    116                   if (ProcessFunc) ProcessFunc();
   \                     ??usbfwSetupHandler_8:
   \   000087   E5..         MOV     A,ProcessFunc+0x0
   \   000089   45..         ORL     A,ProcessFunc+0x1
   \   00008B   6009         JZ      ??usbfwSetupHandler_9
   \   00008D                ; Setup parameters for indirect call
   \   00008D   85..82       MOV     DPL,ProcessFunc+0x0
   \   000090   85..83       MOV     DPH,ProcessFunc+0x1
   \   000093   12....       LCALL   ?CALL_IND
    117                   usbfwData.ep0Status = EP_IDLE;
   \                     ??usbfwSetupHandler_9:
   \   000096   90....       MOV     DPTR,#usbfwData + 7
   \   000099   E4           CLR     A
   \   00009A   F0           MOVX    @DPTR,A
    118                }
    119          
    120                // Return here since nothing more will happen until the next interrupt
    121                USBFW_SELECT_ENDPOINT(oldEndpoint);
   \                     ??usbfwSetupHandler_7:
   \   00009B   EE           MOV     A,R6
   \   00009C   90620E       MOV     DPTR,#0x620e
   \   00009F   F0           MOVX    @DPTR,A
    122                return;
   \   0000A0   02....       LJMP    ?Subroutine1 & 0xFFFF
    123          
    124             // Let the application handle the reception
    125             } else if (usbfwData.ep0Status == EP_MANUAL_RX) {
   \                     ??usbfwSetupHandler_4:
   \   0000A3   E0           MOVX    A,@DPTR
   \   0000A4   6406         XRL     A,#0x6
   \   0000A6   7009         JNZ     ??usbfwSetupHandler_10
    126                ProcessFunc();
   \   0000A8                ; Setup parameters for indirect call
   \   0000A8   85..82       MOV     DPL,ProcessFunc+0x0
   \   0000AB   85..83       MOV     DPH,ProcessFunc+0x1
   \   0000AE   12....       LCALL   ?CALL_IND
    127             }
    128          
    129             // Receive SETUP header
    130             if (usbfwData.ep0Status == EP_IDLE) {
   \                     ??usbfwSetupHandler_10:
   \   0000B1   90....       MOV     DPTR,#usbfwData + 7
   \   0000B4   E0           MOVX    A,@DPTR
   \   0000B5   6003         JZ      $+5
   \   0000B7   02....       LJMP    ??usbfwSetupHandler_11 & 0xFFFF
    131                if (controlReg & USBCS0_OUTPKT_RDY) {
   \                     ??usbfwSetupHandler_3:
   \   0000BA   E5..         MOV     A,?V0 + 2
   \   0000BC   A2E0         MOV     C,0xE0 /* A   */.0
   \   0000BE   50DB         JNC     ??usbfwSetupHandler_7
    132                   usbfwReadFifo(&USBF0, 8, (uint8 __xdata *) &usbSetupHeader);
   \   0000C0                ; Setup parameters for call to function usbfwReadFifo
   \   0000C0   75....       MOV     ?V0 + 0,#usbSetupHeader & 0xff
   \   0000C3   75....       MOV     ?V0 + 1,#(usbSetupHeader >> 8) & 0xff
   \   0000C6   75..00       MOV     ?V0 + 2,#0x0
   \   0000C9   78..         MOV     R0,#?V0 + 0
   \   0000CB   12....       LCALL   ?PUSH_XSTACK_I_THREE
   \   0000CE   7908         MOV     R1,#0x8
   \   0000D0   7A20         MOV     R2,#0x20
   \   0000D2   7B62         MOV     R3,#0x62
   \   0000D4   12....       LCALL   ??usbfwReadFifo?relay
   \   0000D7   7403         MOV     A,#0x3
   \   0000D9   12....       LCALL   ?DEALLOC_XSTACK8
    133          
    134                   // Handle control transfers individually
    135                   ProcessFunc = NULL;
   \   0000DC   75..00       MOV     ProcessFunc+0x0,#0x0
   \   0000DF   75..00       MOV     ProcessFunc+0x1,#0x0
    136                   switch (usbSetupHeader.requestType & (RT_MASK_TYPE | RT_MASK_DIR)) {
   \   0000E2   90....       MOV     DPTR,#usbSetupHeader
   \   0000E5   E0           MOVX    A,@DPTR
   \   0000E6   54E0         ANL     A,#0xe0
   \   0000E8   601C         JZ      ??usbfwSetupHandler_12
   \   0000EA   24E0         ADD     A,#-0x20
   \   0000EC   7003         JNZ     $+5
   \   0000EE   02....       LJMP    ??usbfwSetupHandler_13 & 0xFFFF
   \   0000F1   24E0         ADD     A,#-0x20
   \   0000F3   606F         JZ      ??usbfwSetupHandler_14
   \   0000F5   24C0         ADD     A,#-0x40
   \   0000F7   6045         JZ      ??usbfwSetupHandler_15
   \   0000F9   24E0         ADD     A,#-0x20
   \   0000FB   7003         JNZ     $+5
   \   0000FD   02....       LJMP    ??usbfwSetupHandler_16 & 0xFFFF
   \   000100   24E0         ADD     A,#-0x20
   \   000102   606B         JZ      ??usbfwSetupHandler_17
   \   000104   8030         SJMP    ??usbfwSetupHandler_18
    137          
    138                      // Standard requests with data from the host (OUT)
    139                   case RT_STD_OUT:
    140                      switch (usbSetupHeader.request) {
   \                     ??usbfwSetupHandler_12:
   \   000106   A3           INC     DPTR
   \   000107   E0           MOVX    A,@DPTR
   \   000108   14           DEC     A
   \   000109   601C         JZ      ??usbfwSetupHandler_19
   \   00010B   24FE         ADD     A,#-0x2
   \   00010D   6013         JZ      ??usbfwSetupHandler_20
   \   00010F   24FE         ADD     A,#-0x2
   \   000111   600A         JZ      ??usbfwSetupHandler_21
   \   000113   24FC         ADD     A,#-0x4
   \   000115   6015         JZ      ??usbfwSetupHandler_22
   \   000117   24FE         ADD     A,#-0x2
   \   000119   6016         JZ      ??usbfwSetupHandler_23
   \   00011B   8019         SJMP    ??usbfwSetupHandler_18
    141                      case SET_ADDRESS:       usbsrSetAddress(); break;
   \                     ??usbfwSetupHandler_21:
   \   00011D                ; Setup parameters for call to function usbsrSetAddress
   \   00011D   12....       LCALL   ??usbsrSetAddress?relay
   \   000120   806C         SJMP    ??usbfwSetupHandler_24
    142                      case SET_FEATURE:       usbsrSetFeature(); break;
   \                     ??usbfwSetupHandler_20:
   \   000122                ; Setup parameters for call to function usbsrSetFeature
   \   000122   12....       LCALL   ??usbsrSetFeature?relay
   \   000125   8067         SJMP    ??usbfwSetupHandler_24
    143                      case CLEAR_FEATURE:     usbsrClearFeature(); break;
   \                     ??usbfwSetupHandler_19:
   \   000127                ; Setup parameters for call to function usbsrClearFeature
   \   000127   12....       LCALL   ??usbsrClearFeature?relay
   \   00012A   8062         SJMP    ??usbfwSetupHandler_24
    144                      case SET_CONFIGURATION: usbsrSetConfiguration(); break;
   \                     ??usbfwSetupHandler_22:
   \   00012C                ; Setup parameters for call to function usbsrSetConfiguration
   \   00012C   12....       LCALL   ??usbsrSetConfiguration?relay
   \   00012F   805D         SJMP    ??usbfwSetupHandler_24
    145                      case SET_INTERFACE:     usbsrSetInterface(); break;
   \                     ??usbfwSetupHandler_23:
   \   000131                ; Setup parameters for call to function usbsrSetInterface
   \   000131   12....       LCALL   ??usbsrSetInterface?relay
   \   000134   8058         SJMP    ??usbfwSetupHandler_24
    146                      case SET_DESCRIPTOR:    /*usbsrHookSetDescriptor(); break; - unsupported */
    147                      default:                usbfwData.ep0Status = EP_STALL; break;
   \                     ??usbfwSetupHandler_18:
   \   000136   90....       MOV     DPTR,#usbfwData + 7
   \   000139   7404         MOV     A,#0x4
   \   00013B   F0           MOVX    @DPTR,A
   \   00013C   8058         SJMP    ??usbfwSetupHandler_25
    148                      }
    149                      break;
    150          
    151                      // Standard requests with data to the host (IN)
    152                   case RT_STD_IN:
    153                      switch (usbSetupHeader.request) {
   \                     ??usbfwSetupHandler_15:
   \   00013E   A3           INC     DPTR
   \   00013F   E0           MOVX    A,@DPTR
   \   000140   600E         JZ      ??usbfwSetupHandler_26
   \   000142   24FA         ADD     A,#-0x6
   \   000144   600F         JZ      ??usbfwSetupHandler_27
   \   000146   24FE         ADD     A,#-0x2
   \   000148   6010         JZ      ??usbfwSetupHandler_28
   \   00014A   24FE         ADD     A,#-0x2
   \   00014C   6011         JZ      ??usbfwSetupHandler_29
   \   00014E   80E6         SJMP    ??usbfwSetupHandler_18
    154                      case GET_STATUS:        usbsrGetStatus(); break;
   \                     ??usbfwSetupHandler_26:
   \   000150                ; Setup parameters for call to function usbsrGetStatus
   \   000150   12....       LCALL   ??usbsrGetStatus?relay
   \   000153   8039         SJMP    ??usbfwSetupHandler_24
    155                      case GET_DESCRIPTOR:    usbsrGetDescriptor(); break;
   \                     ??usbfwSetupHandler_27:
   \   000155                ; Setup parameters for call to function usbsrGetDescriptor
   \   000155   12....       LCALL   ??usbsrGetDescriptor?relay
   \   000158   8034         SJMP    ??usbfwSetupHandler_24
    156                      case GET_CONFIGURATION: usbsrGetConfiguration(); break;
   \                     ??usbfwSetupHandler_28:
   \   00015A                ; Setup parameters for call to function usbsrGetConfiguration
   \   00015A   12....       LCALL   ??usbsrGetConfiguration?relay
   \   00015D   802F         SJMP    ??usbfwSetupHandler_24
    157                      case GET_INTERFACE:     usbsrGetInterface(); break;
   \                     ??usbfwSetupHandler_29:
   \   00015F                ; Setup parameters for call to function usbsrGetInterface
   \   00015F   12....       LCALL   ??usbsrGetInterface?relay
   \   000162   802A         SJMP    ??usbfwSetupHandler_24
    158                      case SYNCH_FRAME:       /*usbsrHookSynchFrame(); break; - unsupported */
    159                      default:                usbfwData.ep0Status = EP_STALL; break;
    160                      }
    161                      break;
    162          
    163                      // Vendor requests
    164                   case RT_VEND_OUT:
    165                      ProcessFunc = usbvrHookProcessOut; usbvrHookProcessOut();
   \                     ??usbfwSetupHandler_14:
   \   000164   75....       MOV     ProcessFunc+0x0,#??usbvrHookProcessOut?relay & 0xff
   \   000167   75....       MOV     ProcessFunc+0x1,#(??usbvrHookProcessOut?relay >> 8) & 0xff
   \   00016A                ; Setup parameters for call to function usbvrHookProcessOut
   \   00016A   12....       LCALL   ??usbvrHookProcessOut?relay
    166                      break;
   \   00016D   801F         SJMP    ??usbfwSetupHandler_24
    167                   case RT_VEND_IN:
    168                      ProcessFunc = usbvrHookProcessIn; usbvrHookProcessIn();
   \                     ??usbfwSetupHandler_17:
   \   00016F   75....       MOV     ProcessFunc+0x0,#??usbvrHookProcessIn?relay & 0xff
   \   000172   75....       MOV     ProcessFunc+0x1,#(??usbvrHookProcessIn?relay >> 8) & 0xff
   \   000175                ; Setup parameters for call to function usbvrHookProcessIn
   \   000175   12....       LCALL   ??usbvrHookProcessIn?relay
    169                      break;
   \   000178   8014         SJMP    ??usbfwSetupHandler_24
    170          
    171                      // Class requests
    172                   case RT_CLASS_OUT:
    173                      ProcessFunc = usbcrHookProcessOut; usbcrHookProcessOut();
   \                     ??usbfwSetupHandler_13:
   \   00017A   75....       MOV     ProcessFunc+0x0,#??usbcrHookProcessOut?relay & 0xff
   \   00017D   75....       MOV     ProcessFunc+0x1,#(??usbcrHookProcessOut?relay >> 8) & 0xff
   \   000180                ; Setup parameters for call to function usbcrHookProcessOut
   \   000180   12....       LCALL   ??usbcrHookProcessOut?relay
    174                      break;
   \   000183   8009         SJMP    ??usbfwSetupHandler_24
    175                   case RT_CLASS_IN:
    176                      ProcessFunc = usbcrHookProcessIn; usbcrHookProcessIn();
   \                     ??usbfwSetupHandler_16:
   \   000185   75....       MOV     ProcessFunc+0x0,#??usbcrHookProcessIn?relay & 0xff
   \   000188   75....       MOV     ProcessFunc+0x1,#(??usbcrHookProcessIn?relay >> 8) & 0xff
   \   00018B                ; Setup parameters for call to function usbcrHookProcessIn
   \   00018B   12....       LCALL   ??usbcrHookProcessIn?relay
    177                      break;
    178          
    179                      // Unrecognized request: Stall the endpoint
    180                   default:
    181                      usbfwData.ep0Status = EP_STALL;
    182                      break;
    183                   }
    184          
    185                   // Arm/stall the endpoint
    186                   USBCS0 = (usbfwData.ep0Status == EP_STALL) ? (USBCS0_CLR_OUTPKT_RDY | USBCS0_SEND_STALL) : USBCS0_CLR_OUTPKT_RDY;
   \                     ??usbfwSetupHandler_24:
   \   00018E   90....       MOV     DPTR,#usbfwData + 7
   \   000191   E0           MOVX    A,@DPTR
   \   000192   6404         XRL     A,#0x4
   \   000194   7004         JNZ     ??usbfwSetupHandler_30
   \                     ??usbfwSetupHandler_25:
   \   000196   7460         MOV     A,#0x60
   \   000198   8002         SJMP    ??usbfwSetupHandler_31
   \                     ??usbfwSetupHandler_30:
   \   00019A   7440         MOV     A,#0x40
   \                     ??usbfwSetupHandler_31:
   \   00019C   906211       MOV     DPTR,#0x6211
   \   00019F   F0           MOVX    @DPTR,A
    187                }
    188             }
    189          
    190             // Transmit IN packets
    191             if (usbfwData.ep0Status == EP_TX) {
   \                     ??usbfwSetupHandler_11:
   \   0001A0   90....       MOV     DPTR,#usbfwData + 7
   \   0001A3   E0           MOVX    A,@DPTR
   \   0001A4   6401         XRL     A,#0x1
   \   0001A6   704A         JNZ     ??usbfwSetupHandler_32
    192                controlReg = USBCS0_INPKT_RDY;
   \   0001A8   75..02       MOV     ?V0 + 2,#0x2
    193          
    194                // The last frame should contain 0 to (EP0_PACKET_SIZE - 1) bytes
    195                if (usbSetupData.bytesLeft < EP0_PACKET_SIZE) {
   \   0001AB   90....       MOV     DPTR,#usbSetupData + 3
   \   0001AE   C3           CLR     C
   \   0001AF   E0           MOVX    A,@DPTR
   \   0001B0   9420         SUBB    A,#0x20
   \   0001B2   A3           INC     DPTR
   \   0001B3   E0           MOVX    A,@DPTR
   \   0001B4   9400         SUBB    A,#0x0
   \   0001B6   500A         JNC     ??usbfwSetupHandler_33
    196                   bytesNow = usbSetupData.bytesLeft;
   \   0001B8   90....       MOV     DPTR,#usbSetupData + 3
   \   0001BB   E0           MOVX    A,@DPTR
   \   0001BC   FF           MOV     R7,A
    197                   controlReg |= USBCS0_DATA_END;
   \   0001BD   75..0A       MOV     ?V0 + 2,#0xa
   \   0001C0   8002         SJMP    ??usbfwSetupHandler_34
    198          
    199                   // All other packets should have the maximum length
    200                } else {
    201                   bytesNow = EP0_PACKET_SIZE;
   \                     ??usbfwSetupHandler_33:
   \   0001C2   7F20         MOV     R7,#0x20
    202                }
    203          
    204                // Load the FIFO and move the pointer
    205                usbfwWriteFifo(&USBF0, bytesNow, usbSetupData.pBuffer);
   \                     ??usbfwSetupHandler_34:
   \   0001C4                ; Setup parameters for call to function usbfwWriteFifo
   \   0001C4   90....       MOV     DPTR,#usbSetupData
   \   0001C7   12....       LCALL   ?PUSH_XSTACK8_X_THREE
   \   0001CA   EF           MOV     A,R7
   \   0001CB   F9           MOV     R1,A
   \   0001CC   7A20         MOV     R2,#0x20
   \   0001CE   7B62         MOV     R3,#0x62
   \   0001D0   12....       LCALL   ??usbfwWriteFifo?relay
   \   0001D3   7403         MOV     A,#0x3
   \   0001D5   12....       LCALL   ?DEALLOC_XSTACK8
    206                usbSetupData.pBuffer += bytesNow;
   \   0001D8   8F..         MOV     ?V0 + 0,R7
   \   0001DA   12....       LCALL   ?Subroutine2 & 0xFFFF
    207                usbSetupData.bytesLeft -= bytesNow;
   \                     ??CrossCallReturnLabel_1:
   \   0001DD   12....       LCALL   ?Subroutine5 & 0xFFFF
    208          
    209                // Arm the FIFO (even for a zero-length packet)
    210                USBCS0 = controlReg;
   \                     ??CrossCallReturnLabel_7:
   \   0001E0   E5..         MOV     A,?V0 + 2
   \   0001E2   906211       MOV     DPTR,#0x6211
   \   0001E5   F0           MOVX    @DPTR,A
    211          
    212                // Make a call to the appropriate request handler when done
    213                if (bytesNow < EP0_PACKET_SIZE) {
   \   0001E6   EF           MOV     A,R7
   \   0001E7   C3           CLR     C
   \   0001E8   9420         SUBB    A,#0x20
   \   0001EA   4003         JC      $+5
   \   0001EC   02....       LJMP    ??usbfwSetupHandler_7 & 0xFFFF
   \   0001EF   02....       LJMP    ??usbfwSetupHandler_8 & 0xFFFF
    214                   if (ProcessFunc) ProcessFunc();
    215                   usbfwData.ep0Status = EP_IDLE;
    216                }
    217          
    218             // Let the application handle the transmission
    219             } else if (usbfwData.ep0Status == EP_MANUAL_TX) {
   \                     ??usbfwSetupHandler_32:
   \   0001F2   E0           MOVX    A,@DPTR
   \   0001F3   6405         XRL     A,#0x5
   \   0001F5   6003         JZ      $+5
   \   0001F7   02....       LJMP    ??usbfwSetupHandler_7 & 0xFFFF
    220                ProcessFunc();
   \   0001FA                ; Setup parameters for indirect call
   \   0001FA   85..82       MOV     DPL,ProcessFunc+0x0
   \   0001FD   85..83       MOV     DPH,ProcessFunc+0x1
   \   000200   12....       LCALL   ?CALL_IND
   \   000203   02....       LJMP    ??usbfwSetupHandler_7 & 0xFFFF
    221             }
    222          
    223             // Restore the old index setting
    224             USBFW_SELECT_ENDPOINT(oldEndpoint);
    225          
    226          } // usbfwSetupHandler

   \                                 In  segment BANKED_CODE, align 1, keep-with-next
   \                     ?Subroutine5:
   \   000000   C3           CLR     C
   \   000001   E0           MOVX    A,@DPTR
   \   000002   95..         SUBB    A,?V0 + 0
   \   000004   F0           MOVX    @DPTR,A
   \   000005   A3           INC     DPTR
   \   000006   E0           MOVX    A,@DPTR
   \   000007   9400         SUBB    A,#0x0
   \   000009   F0           MOVX    @DPTR,A
   \   00000A   22           RET

   \                                 In  segment BANKED_CODE, align 1, keep-with-next
   \                     ?Subroutine2:
   \   000000   90....       MOV     DPTR,#usbSetupData
   \   000003   E0           MOVX    A,@DPTR
   \   000004   F9           MOV     R1,A
   \   000005   A3           INC     DPTR
   \   000006   E0           MOVX    A,@DPTR
   \   000007   FA           MOV     R2,A
   \   000008   A3           INC     DPTR
   \   000009   E0           MOVX    A,@DPTR
   \   00000A   FB           MOV     R3,A
   \   00000B   E9           MOV     A,R1
   \   00000C   25..         ADD     A,?V0 + 0
   \   00000E   F9           MOV     R1,A
   \   00000F   EA           MOV     A,R2
   \   000010   3400         ADDC    A,#0x0
   \   000012   FA           MOV     R2,A
   \   000013   90....       MOV     DPTR,#usbSetupData
   \   000016   E9           MOV     A,R1
   \   000017   F0           MOVX    @DPTR,A
   \   000018   A3           INC     DPTR
   \   000019   EA           MOV     A,R2
   \   00001A   F0           MOVX    @DPTR,A
   \   00001B   A3           INC     DPTR
   \   00001C   EB           MOV     A,R3
   \   00001D   F0           MOVX    @DPTR,A
   \   00001E   A3           INC     DPTR
   \   00001F   22           RET

   \                                 In  segment BANKED_CODE, align 1, keep-with-next
   \                     ?Subroutine1:
   \   000000   7F03         MOV     R7,#0x3
   \   000002   02....       LJMP    ?BANKED_LEAVE_XDATA
    227          
    228          
    229          
    230          
    231          /** \brief Changes the state of endpoint 1-5 IN/OUT
    232           *
    233           * This is an internal function used by the library.
    234           *
    235           * \param[in]       status
    236           *     The new status for each endpoint
    237           */

   \                                 In  segment BANKED_CODE, align 1, keep-with-next
    238          void usbfwSetAllEpStatus(EP_STATUS status)
   \                     usbfwSetAllEpStatus:
    239          {
   \   000000   74F6         MOV     A,#-0xa
   \   000002   12....       LCALL   ?BANKED_ENTER_XDATA
   \   000005                ; Saved register size: 10
   \   000005                ; Auto size: 0
    240             uint8 n;
    241             for (n = 0; n < sizeof(usbfwData.pEpInStatus); n++)
   \   000005   7800         MOV     R0,#0x0
    242                 usbfwData.pEpInStatus[n] = status;
   \                     ??usbfwSetAllEpStatus_0:
   \   000007   88..         MOV     ?V0 + 0,R0
   \   000009   74..         MOV     A,#(usbfwData + 8) & 0xff
   \   00000B   25..         ADD     A,?V0 + 0
   \   00000D   F582         MOV     DPL,A
   \   00000F   74..         MOV     A,#((usbfwData + 8) >> 8) & 0xff
   \   000011   12....       LCALL   ?Subroutine4 & 0xFFFF
   \                     ??CrossCallReturnLabel_4:
   \   000014   40F1         JC      ??usbfwSetAllEpStatus_0
    243             for (n = 0; n < sizeof(usbfwData.pEpOutStatus); n++)
   \   000016   7800         MOV     R0,#0x0
    244                 usbfwData.pEpOutStatus[n] = status;
   \                     ??usbfwSetAllEpStatus_1:
   \   000018   88..         MOV     ?V0 + 0,R0
   \   00001A   74..         MOV     A,#(usbfwData + 13) & 0xff
   \   00001C   25..         ADD     A,?V0 + 0
   \   00001E   F582         MOV     DPL,A
   \   000020   74..         MOV     A,#((usbfwData + 13) >> 8) & 0xff
   \   000022   12....       LCALL   ?Subroutine4 & 0xFFFF
   \                     ??CrossCallReturnLabel_5:
   \   000025   40F1         JC      ??usbfwSetAllEpStatus_1
    245          } // usbfwSetAllEpStatus
   \   000027   7F02         MOV     R7,#0x2
   \   000029   02....       LJMP    ?BANKED_LEAVE_XDATA

   \                                 In  segment BANKED_CODE, align 1, keep-with-next
   \                     ?Subroutine4:
   \   000000   3400         ADDC    A,#0x0
   \   000002   F583         MOV     DPH,A
   \   000004   E9           MOV     A,R1
   \   000005   F0           MOVX    @DPTR,A
   \   000006   08           INC     R0
   \   000007   E8           MOV     A,R0
   \   000008   C3           CLR     C
   \   000009   9405         SUBB    A,#0x5
   \   00000B   22           RET
    246          
    247          
    248          
    249          
    250          /** \brief Reads from the selected OUT endpoint FIFO, without using DMA
    251           *
    252           * The FIFO must be re-armed after reading it empty (using the \ref USBFW_ARM_OUT_ENDPOINT() macro). This
    253           * is not necessary when flushing the FIFO.
    254           *
    255           * \param[in]       *pFifo
    256           *     Pointer to the FIFO (\c &USBFx)
    257           * \param[in]       count
    258           *     The number of bytes to read
    259           * \param[in]       *pData
    260           *     A pointer to the storage location for the read data (in any memory space)
    261           */

   \                                 In  segment BANKED_CODE, align 1, keep-with-next
    262          void usbfwReadFifo(uint8 volatile __xdata *pFifo, uint8 count, void __generic *pData)
   \                     usbfwReadFifo:
    263          {
   \   000000   74F5         MOV     A,#-0xb
   \   000002   12....       LCALL   ?BANKED_ENTER_XDATA
   \   000005                ; Saved register size: 11
   \   000005                ; Auto size: 0
   \   000005   EA           MOV     A,R2
   \   000006   FC           MOV     R4,A
   \   000007   EB           MOV     A,R3
   \   000008   FD           MOV     R5,A
   \   000009   E9           MOV     A,R1
   \   00000A   F8           MOV     R0,A
   \   00000B   740B         MOV     A,#0xb
   \   00000D   12....       LCALL   ?XSTACK_DISP0_8
   \   000010   12....       LCALL   ?Subroutine3 & 0xFFFF
    264             uint8 __generic *pTemp = pData;
    265             if (count) {
   \                     ??CrossCallReturnLabel_2:
   \   000013   600D         JZ      ??usbfwReadFifo_0
    266                do {
    267                   *(pTemp++) = *pFifo;
   \                     ??usbfwReadFifo_1:
   \   000015   8C82         MOV     DPL,R4
   \   000017   8D83         MOV     DPH,R5
   \   000019   E0           MOVX    A,@DPTR
   \   00001A   12....       LCALL   ?C_GPTR_STORE
   \   00001D   12....       LCALL   ?Subroutine6 & 0xFFFF
    268                } while (--count);
    269             }
   \                     ??CrossCallReturnLabel_8:
   \   000020   70F3         JNZ     ??usbfwReadFifo_1
    270          } // usbfwReadFifo
   \                     ??usbfwReadFifo_0:
   \   000022   80..         SJMP    ?Subroutine1

   \                                 In  segment BANKED_CODE, align 1, keep-with-next
   \                     ?Subroutine6:
   \   000000   E9           MOV     A,R1
   \   000001   2401         ADD     A,#0x1
   \   000003   09           INC     R1
   \   000004   EA           MOV     A,R2
   \   000005   3400         ADDC    A,#0x0
   \   000007   FA           MOV     R2,A
   \   000008   18           DEC     R0
   \   000009   E8           MOV     A,R0
   \   00000A   22           RET

   \                                 In  segment BANKED_CODE, align 1, keep-with-next
   \                     ?Subroutine3:
   \   000000   E0           MOVX    A,@DPTR
   \   000001   F5..         MOV     ?V0 + 0,A
   \   000003   A3           INC     DPTR
   \   000004   E0           MOVX    A,@DPTR
   \   000005   F5..         MOV     ?V0 + 1,A
   \   000007   A3           INC     DPTR
   \   000008   E0           MOVX    A,@DPTR
   \   000009   A9..         MOV     R1,?V0 + 0
   \   00000B   AA..         MOV     R2,?V0 + 1
   \   00000D   FB           MOV     R3,A
   \   00000E   E8           MOV     A,R0
   \   00000F   22           RET
    271          
    272          
    273          
    274          
    275          /** \brief Writes to the selected IN endpoint FIFO, without using DMA
    276           *
    277           * Note that the FIFO must be armed in order to be transmitted (using the \ref USBFW_ARM_IN_ENDPOINT()
    278           * macro).
    279           *
    280           * \param[in]       *pFifo
    281           *     Pointer to the FIFO (\c &USBFx)
    282           * \param[in]       count
    283           *     The number of bytes to write
    284           * \param[in]       *pData
    285           *     A pointer to the data to be written (from any memory space)
    286           */

   \                                 In  segment BANKED_CODE, align 1, keep-with-next
    287          void usbfwWriteFifo(uint8 volatile __xdata *pFifo, uint8 count, void __generic *pData)
   \                     usbfwWriteFifo:
    288          {
   \   000000   74F5         MOV     A,#-0xb
   \   000002   12....       LCALL   ?BANKED_ENTER_XDATA
   \   000005                ; Saved register size: 11
   \   000005                ; Auto size: 0
   \   000005   EA           MOV     A,R2
   \   000006   FC           MOV     R4,A
   \   000007   EB           MOV     A,R3
   \   000008   FD           MOV     R5,A
   \   000009   E9           MOV     A,R1
   \   00000A   F8           MOV     R0,A
   \   00000B   740B         MOV     A,#0xb
   \   00000D   12....       LCALL   ?XSTACK_DISP0_8
   \   000010   12....       LCALL   ?Subroutine3 & 0xFFFF
    289             uint8 __generic *pTemp = pData;
    290             if (count) {
   \                     ??CrossCallReturnLabel_3:
   \   000013   600D         JZ      ??usbfwWriteFifo_0
    291                do {
    292                   *pFifo = *(pTemp++);
   \                     ??usbfwWriteFifo_1:
   \   000015   12....       LCALL   ?C_GPTR_LOAD
   \   000018   8C82         MOV     DPL,R4
   \   00001A   8D83         MOV     DPH,R5
   \   00001C   F0           MOVX    @DPTR,A
   \   00001D   12....       LCALL   ?Subroutine6 & 0xFFFF
    293                } while (--count);
    294             }
   \                     ??CrossCallReturnLabel_9:
   \   000020   70F3         JNZ     ??usbfwWriteFifo_1
    295          } // usbfwWriteFifo
   \                     ??usbfwWriteFifo_0:
   \   000022                REQUIRE ?Subroutine1
   \   000022                ; // Fall through to label ?Subroutine1

   \                                 In  segment BANK_RELAYS, align 1
   \                     ??usbfwInit?relay:
   \   000000   12....       LCALL   ?BDISPATCH
   \   000003   ......       DC24    usbfwInit

   \                                 In  segment BANK_RELAYS, align 1
   \                     ??usbfwResetHandler?relay:
   \   000000   12....       LCALL   ?BDISPATCH
   \   000003   ......       DC24    usbfwResetHandler

   \                                 In  segment BANK_RELAYS, align 1
   \                     ??usbfwSetupHandler?relay:
   \   000000   12....       LCALL   ?BDISPATCH
   \   000003   ......       DC24    usbfwSetupHandler

   \                                 In  segment BANK_RELAYS, align 1
   \                     ??usbfwSetAllEpStatus?relay:
   \   000000   12....       LCALL   ?BDISPATCH
   \   000003   ......       DC24    usbfwSetAllEpStatus

   \                                 In  segment BANK_RELAYS, align 1
   \                     ??usbfwReadFifo?relay:
   \   000000   12....       LCALL   ?BDISPATCH
   \   000003   ......       DC24    usbfwReadFifo

   \                                 In  segment BANK_RELAYS, align 1
   \                     ??usbfwWriteFifo?relay:
   \   000000   12....       LCALL   ?BDISPATCH
   \   000003   ......       DC24    usbfwWriteFifo
    296          
    297          
    298          /// @}
    299          /*
    300          +------------------------------------------------------------------------------
    301          |  Copyright 2004-2007 Texas Instruments Incorporated. All rights reserved.
    302          |
    303          |  IMPORTANT: Your use of this Software is limited to those specific rights
    304          |  granted under the terms of a software license agreement between the user who
    305          |  downloaded the software, his/her employer (which must be your employer) and
    306          |  Texas Instruments Incorporated (the "License"). You may not use this Software
    307          |  unless you agree to abide by the terms of the License. The License limits
    308          |  your use, and you acknowledge, that the Software may not be modified, copied
    309          |  or distributed unless embedded on a Texas Instruments microcontroller or used
    310          |  solely and exclusively in conjunction with a Texas Instruments radio
    311          |  frequency transceiver, which is integrated into your product. Other than for
    312          |  the foregoing purpose, you may not use, reproduce, copy, prepare derivative
    313          |  works of, modify, distribute, perform, display or sell this Software and/or
    314          |  its documentation for any purpose.
    315          |
    316          |  YOU FURTHER ACKNOWLEDGE AND AGREE THAT THE SOFTWARE AND DOCUMENTATION ARE
    317          |  PROVIDED AS IS WITHOUT WARRANTY OF ANY KIND, EITHER EXPRESS OR IMPLIED,
    318          |  INCLUDING WITHOUT LIMITATION, ANY WARRANTY OF MERCHANTABILITY, TITLE,
    319          |  NON-INFRINGEMENT AND FITNESS FOR A PARTICULAR PURPOSE. IN NO EVENT SHALL
    320          |  TEXAS INSTRUMENTS OR ITS LICENSORS BE LIABLE OR OBLIGATED UNDER CONTRACT,
    321          |  NEGLIGENCE, STRICT LIABILITY, CONTRIBUTION, BREACH OF WARRANTY, OR OTHER
    322          |  LEGAL EQUITABLE THEORY ANY DIRECT OR INDIRECT DAMAGES OR EXPENSES INCLUDING
    323          |  BUT NOT LIMITED TO ANY INCIDENTAL, SPECIAL, INDIRECT, PUNITIVE OR
    324          |  CONSEQUENTIAL DAMAGES, LOST PROFITS OR LOST DATA, COST OF PROCUREMENT OF
    325          |  SUBSTITUTE GOODS, TECHNOLOGY, SERVICES, OR ANY CLAIMS BY THIRD PARTIES
    326          |  (INCLUDING BUT NOT LIMITED TO ANY DEFENSE THEREOF), OR OTHER SIMILAR COSTS.
    327          |
    328          |  Should you have any questions regarding your right to use this Software,
    329          |  contact Texas Instruments Incorporated at www.TI.com.
    330          |
    331          +------------------------------------------------------------------------------
    332          */

   Maximum stack usage in bytes:

     Function                       ISTACK PSTACK XSTACK
     --------                       ------ ------ ------
     usbfwInit                          2      0      0
       -> usbdpGetConfigurationDesc     4      0      0
     usbfwReadFifo                      1      0     25
     usbfwResetHandler                  2      0      0
       -> usbfwSetAllEpStatus           4      0      0
     usbfwSetAllEpStatus                1      0     10
     usbfwSetupHandler                  0      0     14
       -> usbfwReadFifo                 0      0     28
       -> usbfwReadFifo                 0      0     28
       -> usbsrSetAddress               0      0     22
       -> usbsrSetFeature               0      0     22
       -> usbsrClearFeature             0      0     22
       -> usbsrSetConfiguration         0      0     22
       -> usbsrSetInterface             0      0     22
       -> usbsrGetStatus                0      0     22
       -> usbsrGetDescriptor            0      0     22
       -> usbsrGetConfiguration         0      0     22
       -> usbsrGetInterface             0      0     22
       -> usbvrHookProcessOut           0      0     22
       -> usbvrHookProcessIn            0      0     22
       -> usbcrHookProcessOut           0      0     22
       -> usbcrHookProcessIn            0      0     22
       -> usbfwWriteFifo                0      0     28
     usbfwWriteFifo                     1      0     25


   Segment part sizes:

     Function/Label              Bytes
     --------------              -----
     usbfwData                     20
     usbSetupData                   5
     usbSetupHeader                 8
     ProcessFunc                    2
     usbfwInit                     60
     ?Subroutine0                   7
     usbfwResetHandler             30
     usbfwSetupHandler            518
     ?Subroutine5                  11
     ?Subroutine2                  32
     ?Subroutine1                   5
     usbfwSetAllEpStatus           44
     ?Subroutine4                  12
     usbfwReadFifo                 36
     ?Subroutine6                  11
     ?Subroutine3                  16
     usbfwWriteFifo                34
     ??usbfwInit?relay              6
     ??usbfwResetHandler?relay      6
     ??usbfwSetupHandler?relay      6
     ??usbfwSetAllEpStatus?relay    6
     ??usbfwReadFifo?relay          6
     ??usbfwWriteFifo?relay         6

 
 816 bytes in segment BANKED_CODE
  36 bytes in segment BANK_RELAYS
   2 bytes in segment DATA_Z
  33 bytes in segment XDATA_Z
 
 852 bytes of CODE  memory
   2 bytes of DATA  memory
  33 bytes of XDATA memory

Errors: none
Warnings: none
