///////////////////////////////////////////////////////////////////////////////
//                                                                            /
// IAR C/C++ Compiler V8.10.1.10194/W32 for 8051        10/Feb/2015  23:47:36 /
// Copyright 2004-2011 IAR Systems AB.                                        /
//                                                                            /
//    Core               =  plain                                             /
//    Code model         =  banked                                            /
//    Data model         =  large                                             /
//    Calling convention =  xdata reentrant                                   /
//    Constant location  =  data_rom                                          /
//    Dptr setup         =  1,16                                              /
//    Source file        =  D:\RE_1_2_0_FORMAL_APP(251)-14-12-8\Projects\zsta /
//                          ck\Samples\SampleApp\Source\LN_1_SCEEN_1_device\L /
//                          N_1_SCEEN_1_User_app.c                            /
//    Command line       =  -f "D:\RE_1_2_0_FORMAL_APP(251)-14-12-8\Projects\ /
//                          zstack\Samples\SampleApp\CC2530DB\..\..\..\Tools\ /
//                          CC2530DB\f8wRouter.cfg" (-DCPU32MHZ               /
//                          -DROOT=__near_func -DMAC_CFG_APP_PENDING_QUEUE=TR /
//                          UE -DMAC_CFG_TX_DATA_MAX=5 -DMAC_CFG_TX_MAX=8     /
//                          -DMAC_CFG_RX_MAX=5 -DRTR_NWK) -f                  /
//                          "D:\RE_1_2_0_FORMAL_APP(251)-14-12-8\Projects\zst /
//                          ack\Samples\SampleApp\CC2530DB\..\..\..\Tools\CC2 /
//                          530DB\f8wConfig.cfg" (-DZIGBEEPRO -DSECURE=1      /
//                          -DZG_SECURE_DYNAMIC=0 -DREFLECTOR                 /
//                          -DZDAPP_CONFIG_PAN_ID=0xFFFF                      /
//                          -DNWK_START_DELAY=100 -DEXTENDED_JOINING_RANDOM_M /
//                          ASK=0x007F -DBEACON_REQUEST_DELAY=100             /
//                          -DBEACON_REQ_DELAY_MASK=0x00FF                    /
//                          -DLINK_STATUS_JITTER_MASK=0x007F                  /
//                          -DROUTE_EXPIRY_TIME=30 -DAPSC_ACK_WAIT_DURATION_P /
//                          OLLED=3000 -DNWK_INDIRECT_MSG_TIMEOUT=60          /
//                          -DMAX_RREQ_ENTRIES=8 -DAPSC_MAX_FRAME_RETRIES=3   /
//                          -DNWK_MAX_DATA_RETRIES=2                          /
//                          -DMAX_POLL_FAILURE_RETRIES=2 -DMAX_BCAST=9        /
//                          -DAPS_MAX_GROUPS=16 -DMAX_RTG_ENTRIES=30          /
//                          -DNWK_MAX_BINDING_ENTRIES=10                      /
//                          -DMAX_BINDING_CLUSTER_IDS=4 -DASSERT_RESET        /
//                          -DMAC_MAX_FRAME_SIZE=116                          /
//                          -DZDNWKMGR_MIN_TRANSMISSIONS=20 "-DCONST=const    /
//                          __code" -DGENERIC=__generic                       /
//                          -DRFD_RCVC_ALWAYS_ON=FALSE -DPOLL_RATE=8000       /
//                          -DQUEUED_POLL_RATE=100 -DRESPONSE_POLL_RATE=1000) /
//                           -DREJOIN_POLL_RATE=440                           /
//                          "D:\RE_1_2_0_FORMAL_APP(251)-14-12-8\Projects\zst /
//                          ack\Samples\SampleApp\Source\LN_1_SCEEN_1_device\ /
//                          LN_1_SCEEN_1_User_app.c" -D NV_INIT -D            /
//                          NV_RESTORE -D HOLD_AUTO_START -D MT_TASK -D       /
//                          MT_APP_FUNC -D MT_SYS_FUNC -D MT_ZDO_FUNC -D      /
//                          MT_ZDO_MGMT -D ISR_KEYINTERRUPT -D WDT_IN_PM1 -D  /
//                          OSC32K_CRYSTAL_INSTALLED=0 -D xLARGER_NETWORK -D  /
//                          xNO_32768_XOSC -D POWER_PA -D xEN_WALL_SOKET -D   /
//                          LN_1_SCEEN_1 -lC "D:\RE_1_2_0_FORMAL_APP(251)-14- /
//                          12-8\Projects\zstack\Samples\SampleApp\CC2530DB\L /
//                          N_1_SCEEN_1_ROUTER\List\" -lA                     /
//                          "D:\RE_1_2_0_FORMAL_APP(251)-14-12-8\Projects\zst /
//                          ack\Samples\SampleApp\CC2530DB\LN_1_SCEEN_1_ROUTE /
//                          R\List\" --diag_suppress Pe001,Pa010 -o           /
//                          "D:\RE_1_2_0_FORMAL_APP(251)-14-12-8\Projects\zst /
//                          ack\Samples\SampleApp\CC2530DB\LN_1_SCEEN_1_ROUTE /
//                          R\Obj\" -e --no_cse --no_unroll --no_inline       /
//                          --no_code_motion --no_tbaa --debug --core=plain   /
//                          --dptr=16,1 --data_model=large                    /
//                          --code_model=banked --calling_convention=xdata_re /
//                          entrant --place_constants=data_rom                /
//                          --nr_virtual_regs 16 -I                           /
//                          "D:\RE_1_2_0_FORMAL_APP(251)-14-12-8\Projects\zst /
//                          ack\Samples\SampleApp\CC2530DB\" -I               /
//                          "D:\RE_1_2_0_FORMAL_APP(251)-14-12-8\Projects\zst /
//                          ack\Samples\SampleApp\CC2530DB\..\Source\" -I     /
//                          "D:\RE_1_2_0_FORMAL_APP(251)-14-12-8\Projects\zst /
//                          ack\Samples\SampleApp\CC2530DB\..\Source\LN_1_SCE /
//                          EN_1_device\" -I "D:\RE_1_2_0_FORMAL_APP(251)-14- /
//                          12-8\Projects\zstack\Samples\SampleApp\CC2530DB\. /
//                          .\..\..\ZMain\TI2530DB\" -I                       /
//                          "D:\RE_1_2_0_FORMAL_APP(251)-14-12-8\Projects\zst /
//                          ack\Samples\SampleApp\CC2530DB\..\..\..\..\..\Com /
//                          ponents\hal\include\" -I                          /
//                          "D:\RE_1_2_0_FORMAL_APP(251)-14-12-8\Projects\zst /
//                          ack\Samples\SampleApp\CC2530DB\..\..\..\..\..\Com /
//                          ponents\hal\target\CC2530EB\" -I                  /
//                          "D:\RE_1_2_0_FORMAL_APP(251)-14-12-8\Projects\zst /
//                          ack\Samples\SampleApp\CC2530DB\..\..\..\..\..\Com /
//                          ponents\mac\include\" -I                          /
//                          "D:\RE_1_2_0_FORMAL_APP(251)-14-12-8\Projects\zst /
//                          ack\Samples\SampleApp\CC2530DB\..\..\..\..\..\Com /
//                          ponents\mac\high_level\" -I                       /
//                          "D:\RE_1_2_0_FORMAL_APP(251)-14-12-8\Projects\zst /
//                          ack\Samples\SampleApp\CC2530DB\..\..\..\..\..\Com /
//                          ponents\mac\low_level\srf04\" -I                  /
//                          "D:\RE_1_2_0_FORMAL_APP(251)-14-12-8\Projects\zst /
//                          ack\Samples\SampleApp\CC2530DB\..\..\..\..\..\Com /
//                          ponents\mac\low_level\srf04\single_chip\" -I      /
//                          "D:\RE_1_2_0_FORMAL_APP(251)-14-12-8\Projects\zst /
//                          ack\Samples\SampleApp\CC2530DB\..\..\..\..\..\Com /
//                          ponents\mt\" -I "D:\RE_1_2_0_FORMAL_APP(251)-14-1 /
//                          2-8\Projects\zstack\Samples\SampleApp\CC2530DB\.. /
//                          \..\..\..\..\Components\osal\include\" -I         /
//                          "D:\RE_1_2_0_FORMAL_APP(251)-14-12-8\Projects\zst /
//                          ack\Samples\SampleApp\CC2530DB\..\..\..\..\..\Com /
//                          ponents\services\saddr\" -I                       /
//                          "D:\RE_1_2_0_FORMAL_APP(251)-14-12-8\Projects\zst /
//                          ack\Samples\SampleApp\CC2530DB\..\..\..\..\..\Com /
//                          ponents\services\sdata\" -I                       /
//                          "D:\RE_1_2_0_FORMAL_APP(251)-14-12-8\Projects\zst /
//                          ack\Samples\SampleApp\CC2530DB\..\..\..\..\..\Com /
//                          ponents\stack\af\" -I "D:\RE_1_2_0_FORMAL_APP(251 /
//                          )-14-12-8\Projects\zstack\Samples\SampleApp\CC253 /
//                          0DB\..\..\..\..\..\Components\stack\nwk\" -I      /
//                          "D:\RE_1_2_0_FORMAL_APP(251)-14-12-8\Projects\zst /
//                          ack\Samples\SampleApp\CC2530DB\..\..\..\..\..\Com /
//                          ponents\stack\sapi\" -I                           /
//                          "D:\RE_1_2_0_FORMAL_APP(251)-14-12-8\Projects\zst /
//                          ack\Samples\SampleApp\CC2530DB\..\..\..\..\..\Com /
//                          ponents\stack\sec\" -I "D:\RE_1_2_0_FORMAL_APP(25 /
//                          1)-14-12-8\Projects\zstack\Samples\SampleApp\CC25 /
//                          30DB\..\..\..\..\..\Components\stack\sys\" -I     /
//                          "D:\RE_1_2_0_FORMAL_APP(251)-14-12-8\Projects\zst /
//                          ack\Samples\SampleApp\CC2530DB\..\..\..\..\..\Com /
//                          ponents\stack\zdo\" -I "D:\RE_1_2_0_FORMAL_APP(25 /
//                          1)-14-12-8\Projects\zstack\Samples\SampleApp\CC25 /
//                          30DB\..\..\..\..\..\Components\zmac\" -I          /
//                          "D:\RE_1_2_0_FORMAL_APP(251)-14-12-8\Projects\zst /
//                          ack\Samples\SampleApp\CC2530DB\..\..\..\..\..\Com /
//                          ponents\zmac\f8w\" -On --require_prototypes       /
//    List file          =  D:\RE_1_2_0_FORMAL_APP(251)-14-12-8\Projects\zsta /
//                          ck\Samples\SampleApp\CC2530DB\LN_1_SCEEN_1_ROUTER /
//                          \List\LN_1_SCEEN_1_User_app.s51                   /
//                                                                            /
//                                                                            /
///////////////////////////////////////////////////////////////////////////////

        NAME LN_1_SCEEN_1_User_app

        RTMODEL "__SystemLibrary", "CLib"
        RTMODEL "__calling_convention", "xdata_reentrant"
        RTMODEL "__code_model", "banked"
        RTMODEL "__core", "plain"
        RTMODEL "__data_model", "large"
        RTMODEL "__dptr_size", "16"
        RTMODEL "__extended_stack", "disabled"
        RTMODEL "__location_for_constants", "data"
        RTMODEL "__number_of_dptrs", "1"
        RTMODEL "__rt_version", "1"

        RSEG DOVERLAY:DATA:NOROOT(0)
        RSEG IOVERLAY:IDATA:NOROOT(0)
        RSEG ISTACK:IDATA:NOROOT(0)
        RSEG PSTACK:XDATA:NOROOT(0)
        RSEG XSTACK:XDATA:NOROOT(0)

        EXTERN ?BANKED_ENTER_XDATA
        EXTERN ?BANKED_LEAVE_XDATA
        EXTERN ?BDISPATCH
        EXTERN ?BRET
        EXTERN ?DEALLOC_XSTACK8
        EXTERN ?FLT_DIV
        EXTERN ?L_MOV_X
        EXTERN ?PUSH_XSTACK_I_TWO
        EXTERN ?UL_TO_FLT
        EXTERN ?V0
        EXTERN __INIT_XDATA_I
        EXTERN __INIT_XDATA_Z

        PUBLIC ??LED_CHANGE?relay
        FUNCTION ??LED_CHANGE?relay,0203H
        PUBLIC ??READ_NETKEY?relay
        FUNCTION ??READ_NETKEY?relay,0203H
        PUBLIC ??SampleAPP_ProcessZDOMsgs?relay
        FUNCTION ??SampleAPP_ProcessZDOMsgs?relay,0203H
        PUBLIC ??SampleApp_HandleKeys?relay
        FUNCTION ??SampleApp_HandleKeys?relay,0203H
        PUBLIC ??SampleApp_ProcessBINDINGMessage?relay
        FUNCTION ??SampleApp_ProcessBINDINGMessage?relay,0203H
        PUBLIC ??SampleApp_SendInMessage?relay
        FUNCTION ??SampleApp_SendInMessage?relay,0203H
        PUBLIC ??USER_AFTER_RS_MSG?relay
        FUNCTION ??USER_AFTER_RS_MSG?relay,0203H
        PUBLIC ??USER_APP_COMMAND?relay
        FUNCTION ??USER_APP_COMMAND?relay,0203H
        PUBLIC ??USER_APP_JOIN_MSG?relay
        FUNCTION ??USER_APP_JOIN_MSG?relay,0203H
        PUBLIC ??USER_SET_RS_MSG?relay
        FUNCTION ??USER_SET_RS_MSG?relay,0203H
        PUBLIC ??USER_ZDO_JOINING_MSG?relay
        FUNCTION ??USER_ZDO_JOINING_MSG?relay,0203H
        PUBLIC ??UserApp_Init?relay
        FUNCTION ??UserApp_Init?relay,0203H
        PUBLIC ??UserApp_ProcessEvent?relay
        FUNCTION ??UserApp_ProcessEvent?relay,0203H
        PUBLIC ??User_APP_Drive_init?relay
        FUNCTION ??User_APP_Drive_init?relay,0203H
        PUBLIC ??close_load_1?relay
        FUNCTION ??close_load_1?relay,0203H
        PUBLIC ??close_load_2?relay
        FUNCTION ??close_load_2?relay,0203H
        PUBLIC ??hold_load_1?relay
        FUNCTION ??hold_load_1?relay,0203H
        PUBLIC ??hold_load_2?relay
        FUNCTION ??hold_load_2?relay,0203H
        PUBLIC ??open_load_1?relay
        FUNCTION ??open_load_1?relay,0203H
        PUBLIC ??open_load_2?relay
        FUNCTION ??open_load_2?relay,0203H
        PUBLIC CS5463_STR
        PUBLIC DEFINED_CONTROL_CHAR
        PUBLIC DEVICE_ID
        PUBLIC I_Value_Bili
        PUBLIC I_Value_Bili_Temp
        PUBLIC I_Value_Now
        PUBLIC I_Value_jiaozhun_Temp
        PUBLIC JOIN_ROLE
        PUBLIC LED_CHANGE
        FUNCTION LED_CHANGE,0203H
        ARGFRAME XSTACK, 0, STACK
        PUBWEAK P0DIR
        PUBWEAK P1DIR
        PUBWEAK P2DIR
        PUBLIC P_Protect_Value
        PUBLIC P_Value
        PUBLIC P_Value_Bili
        PUBLIC P_Value_Bili_Temp
        PUBLIC P_Value_Distance
        PUBLIC P_Value_Now
        PUBLIC P_Value_Pre
        PUBLIC P_Value_energy
        PUBLIC P_Value_jiaozhun_Temp
        PUBLIC READ_NETKEY
        FUNCTION READ_NETKEY,0203H
        ARGFRAME XSTACK, 0, STACK
        PUBLIC RS_LEN
        PUBLIC RS_STR
        PUBLIC SHORT_ADRESS
        PUBLIC SampleAPP_ProcessZDOMsgs
        FUNCTION SampleAPP_ProcessZDOMsgs,021203H
        ARGFRAME XSTACK, 20, STACK
        ARGFRAME IOVERLAY, 0, STATIC
        ARGFRAME DOVERLAY, 0, STATIC
        LOCFRAME XSTACK, 9, STACK
        PUBLIC SampleApp_HandleKeys
        FUNCTION SampleApp_HandleKeys,021203H
        ARGFRAME XSTACK, 20, STACK
        ARGFRAME IOVERLAY, 0, STATIC
        ARGFRAME DOVERLAY, 0, STATIC
        LOCFRAME XSTACK, 9, STACK
        PUBLIC SampleApp_ProcessBINDINGMessage
        FUNCTION SampleApp_ProcessBINDINGMessage,021203H
        ARGFRAME XSTACK, 0, STACK
        LOCFRAME XSTACK, 9, STACK
        PUBLIC SampleApp_SendInMessage
        FUNCTION SampleApp_SendInMessage,021203H
        ARGFRAME XSTACK, 20, STACK
        ARGFRAME IOVERLAY, 0, STATIC
        ARGFRAME DOVERLAY, 0, STATIC
        LOCFRAME ISTACK, 1, STACK
        LOCFRAME XSTACK, 11, STACK
        PUBLIC SampleApp_SimpleDesc1
        PUBLIC SampleApp_SimpleDesc2
        PUBLIC SampleApp_epDesc1
        PUBLIC SampleApp_epDesc2
        PUBLIC Total_P_Value
        PUBLIC Total_P_Value_Temp
        PUBLIC USER_AFTER_RS_MSG
        FUNCTION USER_AFTER_RS_MSG,0203H
        ARGFRAME XSTACK, 0, STACK
        PUBLIC USER_APP_COMMAND
        FUNCTION USER_APP_COMMAND,021203H
        ARGFRAME XSTACK, 0, STACK
        LOCFRAME ISTACK, 1, STACK
        LOCFRAME XSTACK, 11, STACK
        PUBLIC USER_APP_JOIN_MSG
        FUNCTION USER_APP_JOIN_MSG,021203H
        ARGFRAME XSTACK, 0, STACK
        LOCFRAME XSTACK, 10, STACK
        PUBLIC USER_DATA_LEN
        PUBLIC USER_DATA_STR
        PUBLIC USER_DATA_TYPE
        PUBLIC USER_SET_RS_MSG
        FUNCTION USER_SET_RS_MSG,0203H
        ARGFRAME XSTACK, 0, STACK
        LOCFRAME ISTACK, 2, STACK
        PUBLIC USER_SampleApp_ClusterList
        PUBLIC USER_ZDO_JOINING_MSG
        FUNCTION USER_ZDO_JOINING_MSG,021203H
        ARGFRAME XSTACK, 0, STACK
        LOCFRAME ISTACK, 2, STACK
        PUBLIC USER_bindingINClusters
        PUBLIC UserApp_Init
        FUNCTION UserApp_Init,021203H
        ARGFRAME XSTACK, 0, STACK
        LOCFRAME XSTACK, 9, STACK
        PUBLIC UserApp_ProcessEvent
        FUNCTION UserApp_ProcessEvent,021203H
        ARGFRAME XSTACK, 0, STACK
        LOCFRAME XSTACK, 24, STACK
        PUBLIC UserApp_TaskID
        PUBLIC User_APP_Drive_init
        FUNCTION User_APP_Drive_init,0203H
        ARGFRAME XSTACK, 9, STACK
        ARGFRAME IOVERLAY, 0, STATIC
        ARGFRAME DOVERLAY, 0, STATIC
        PUBWEAK _A_P0
        PUBWEAK _A_P1
        PUBWEAK _A_P2
        PUBWEAK __Constant_447a0000
        PUBLIC bindingINClusters
        PUBLIC close_load_1
        FUNCTION close_load_1,0203H
        ARGFRAME XSTACK, 11, STACK
        ARGFRAME IOVERLAY, 0, STATIC
        ARGFRAME DOVERLAY, 0, STATIC
        LOCFRAME ISTACK, 2, STACK
        PUBLIC close_load_2
        FUNCTION close_load_2,0203H
        ARGFRAME XSTACK, 11, STACK
        ARGFRAME IOVERLAY, 0, STATIC
        ARGFRAME DOVERLAY, 0, STATIC
        LOCFRAME ISTACK, 2, STACK
        PUBLIC hold_load_1
        FUNCTION hold_load_1,0203H
        ARGFRAME XSTACK, 20, STACK
        ARGFRAME IOVERLAY, 0, STATIC
        ARGFRAME DOVERLAY, 0, STATIC
        PUBLIC hold_load_2
        FUNCTION hold_load_2,0203H
        ARGFRAME XSTACK, 20, STACK
        ARGFRAME IOVERLAY, 0, STATIC
        ARGFRAME DOVERLAY, 0, STATIC
        PUBLIC load_1_flag
        PUBLIC load_2_flag
        PUBLIC load_3_flag
        PUBLIC open_load_1
        FUNCTION open_load_1,0203H
        ARGFRAME XSTACK, 11, STACK
        ARGFRAME IOVERLAY, 0, STATIC
        ARGFRAME DOVERLAY, 0, STATIC
        LOCFRAME ISTACK, 2, STACK
        PUBLIC open_load_2
        FUNCTION open_load_2,0203H
        ARGFRAME XSTACK, 11, STACK
        ARGFRAME IOVERLAY, 0, STATIC
        ARGFRAME DOVERLAY, 0, STATIC
        LOCFRAME ISTACK, 2, STACK
        
        CFI Names cfiNames0
        CFI StackFrame CFA_SP SP IDATA
        CFI StackFrame CFA_PSP16 PSP16 XDATA
        CFI StackFrame CFA_XSP16 XSP16 XDATA
        CFI StaticOverlayFrame CFA_IOVERLAY IOVERLAY
        CFI StaticOverlayFrame CFA_DOVERLAY DOVERLAY
        CFI Resource `PSW.CY`:1, `B.BR0`:1, `B.BR1`:1, `B.BR2`:1, `B.BR3`:1
        CFI Resource `B.BR4`:1, `B.BR5`:1, `B.BR6`:1, `B.BR7`:1, `VB.BR8`:1
        CFI Resource `VB.BR9`:1, `VB.BR10`:1, `VB.BR11`:1, `VB.BR12`:1
        CFI Resource `VB.BR13`:1, `VB.BR14`:1, `VB.BR15`:1, VB:8, B:8, A:8
        CFI Resource PSW:8, DPL0:8, DPH0:8, R0:8, R1:8, R2:8, R3:8, R4:8, R5:8
        CFI Resource R6:8, R7:8, V0:8, V1:8, V2:8, V3:8, V4:8, V5:8, V6:8, V7:8
        CFI Resource V8:8, V9:8, V10:8, V11:8, V12:8, V13:8, V14:8, V15:8, SP:8
        CFI Resource PSPH:8, PSPL:8, PSP16:16, XSPH:8, XSPL:8, XSP16:16
        CFI VirtualResource ?RET:24
        CFI Resource ?BRET_EXT:8
        CFI VirtualResource ?RET_HIGH:8, ?RET_LOW:8
        CFI ResourceParts PSP16 PSPH, PSPL
        CFI ResourceParts XSP16 XSPH, XSPL
        CFI ResourceParts ?RET ?BRET_EXT, ?RET_HIGH, ?RET_LOW
        CFI EndNames cfiNames0
        
        CFI Common cfiCommon0 Using cfiNames0
        CFI CodeAlign 1
        CFI DataAlign -1
        CFI ReturnAddress ?RET CODE
        CFI CFA_DOVERLAY Used
        CFI CFA_IOVERLAY Used
        CFI CFA_SP SP+-3
        CFI CFA_PSP16 PSP16+0
        CFI CFA_XSP16 XSP16+0
        CFI `PSW.CY` SameValue
        CFI `B.BR0` SameValue
        CFI `B.BR1` SameValue
        CFI `B.BR2` SameValue
        CFI `B.BR3` SameValue
        CFI `B.BR4` SameValue
        CFI `B.BR5` SameValue
        CFI `B.BR6` SameValue
        CFI `B.BR7` SameValue
        CFI `VB.BR8` SameValue
        CFI `VB.BR9` SameValue
        CFI `VB.BR10` SameValue
        CFI `VB.BR11` SameValue
        CFI `VB.BR12` SameValue
        CFI `VB.BR13` SameValue
        CFI `VB.BR14` SameValue
        CFI `VB.BR15` SameValue
        CFI VB SameValue
        CFI B Undefined
        CFI A Undefined
        CFI PSW SameValue
        CFI DPL0 SameValue
        CFI DPH0 SameValue
        CFI R0 Undefined
        CFI R1 Undefined
        CFI R2 Undefined
        CFI R3 Undefined
        CFI R4 Undefined
        CFI R5 Undefined
        CFI R6 SameValue
        CFI R7 SameValue
        CFI V0 SameValue
        CFI V1 SameValue
        CFI V2 SameValue
        CFI V3 SameValue
        CFI V4 SameValue
        CFI V5 SameValue
        CFI V6 SameValue
        CFI V7 SameValue
        CFI V8 SameValue
        CFI V9 SameValue
        CFI V10 SameValue
        CFI V11 SameValue
        CFI V12 SameValue
        CFI V13 SameValue
        CFI V14 SameValue
        CFI V15 SameValue
        CFI PSPH Undefined
        CFI PSPL Undefined
        CFI XSPH Undefined
        CFI XSPL Undefined
        CFI ?RET Concat
        CFI ?BRET_EXT Frame(CFA_SP, 3)
        CFI ?RET_HIGH Frame(CFA_SP, 2)
        CFI ?RET_LOW Frame(CFA_SP, 1)
        CFI EndCommon cfiCommon0
        
RegisterForKeys     SYMBOL "RegisterForKeys"
afRegister          SYMBOL "afRegister"
ZDO_RegisterForZDOMsg SYMBOL "ZDO_RegisterForZDOMsg"
osal_msg_receive    SYMBOL "osal_msg_receive"
osal_msg_deallocate SYMBOL "osal_msg_deallocate"
osal_nv_item_init   SYMBOL "osal_nv_item_init"
osal_nv_read        SYMBOL "osal_nv_read"
osal_start_timerEx  SYMBOL "osal_start_timerEx"
SampleApp_send_in_binding_req SYMBOL "SampleApp_send_in_binding_req"
APPLY_TO_JOIN_OF_KEY SYMBOL "APPLY_TO_JOIN_OF_KEY"
SampleApp_PermitJoin SYMBOL "SampleApp_PermitJoin"
HalLedBlink         SYMBOL "HalLedBlink"
RESTORE_TO_FACTORY  SYMBOL "RESTORE_TO_FACTORY"
SampleApp_GetShortAddr SYMBOL "SampleApp_GetShortAddr"
osal_mem_free       SYMBOL "osal_mem_free"
osal_mem_alloc      SYMBOL "osal_mem_alloc"
USER_SEND_ADD_STR   SYMBOL "USER_SEND_ADD_STR"
USER_APP_SEND_IN    SYMBOL "USER_APP_SEND_IN"
??APPLY_TO_JOIN_OF_KEY?relay SYMBOL "?relay", APPLY_TO_JOIN_OF_KEY
??HalLedBlink?relay SYMBOL "?relay", HalLedBlink
??RESTORE_TO_FACTORY?relay SYMBOL "?relay", RESTORE_TO_FACTORY
??RegisterForKeys?relay SYMBOL "?relay", RegisterForKeys
??SampleApp_GetShortAddr?relay SYMBOL "?relay", SampleApp_GetShortAddr
??SampleApp_PermitJoin?relay SYMBOL "?relay", SampleApp_PermitJoin
??SampleApp_send_in_binding_req?relay SYMBOL "?relay", SampleApp_send_in_binding_req
??USER_APP_SEND_IN?relay SYMBOL "?relay", USER_APP_SEND_IN
??USER_SEND_ADD_STR?relay SYMBOL "?relay", USER_SEND_ADD_STR
??ZDO_RegisterForZDOMsg?relay SYMBOL "?relay", ZDO_RegisterForZDOMsg
??afRegister?relay  SYMBOL "?relay", afRegister
??osal_mem_alloc?relay SYMBOL "?relay", osal_mem_alloc
??osal_mem_free?relay SYMBOL "?relay", osal_mem_free
??osal_msg_deallocate?relay SYMBOL "?relay", osal_msg_deallocate
??osal_msg_receive?relay SYMBOL "?relay", osal_msg_receive
??osal_nv_item_init?relay SYMBOL "?relay", osal_nv_item_init
??osal_nv_read?relay SYMBOL "?relay", osal_nv_read
??osal_start_timerEx?relay SYMBOL "?relay", osal_start_timerEx
LED_CHANGE          SYMBOL "LED_CHANGE"
??LED_CHANGE?relay  SYMBOL "?relay", LED_CHANGE
READ_NETKEY         SYMBOL "READ_NETKEY"
??READ_NETKEY?relay SYMBOL "?relay", READ_NETKEY
SampleAPP_ProcessZDOMsgs SYMBOL "SampleAPP_ProcessZDOMsgs"
??SampleAPP_ProcessZDOMsgs?relay SYMBOL "?relay", SampleAPP_ProcessZDOMsgs
SampleApp_HandleKeys SYMBOL "SampleApp_HandleKeys"
??SampleApp_HandleKeys?relay SYMBOL "?relay", SampleApp_HandleKeys
SampleApp_ProcessBINDINGMessage SYMBOL "SampleApp_ProcessBINDINGMessage"
??SampleApp_ProcessBINDINGMessage?relay SYMBOL "?relay", SampleApp_ProcessBINDINGMessage
SampleApp_SendInMessage SYMBOL "SampleApp_SendInMessage"
??SampleApp_SendInMessage?relay SYMBOL "?relay", SampleApp_SendInMessage
USER_AFTER_RS_MSG   SYMBOL "USER_AFTER_RS_MSG"
??USER_AFTER_RS_MSG?relay SYMBOL "?relay", USER_AFTER_RS_MSG
USER_APP_COMMAND    SYMBOL "USER_APP_COMMAND"
??USER_APP_COMMAND?relay SYMBOL "?relay", USER_APP_COMMAND
USER_APP_JOIN_MSG   SYMBOL "USER_APP_JOIN_MSG"
??USER_APP_JOIN_MSG?relay SYMBOL "?relay", USER_APP_JOIN_MSG
USER_SET_RS_MSG     SYMBOL "USER_SET_RS_MSG"
??USER_SET_RS_MSG?relay SYMBOL "?relay", USER_SET_RS_MSG
USER_ZDO_JOINING_MSG SYMBOL "USER_ZDO_JOINING_MSG"
??USER_ZDO_JOINING_MSG?relay SYMBOL "?relay", USER_ZDO_JOINING_MSG
UserApp_Init        SYMBOL "UserApp_Init"
??UserApp_Init?relay SYMBOL "?relay", UserApp_Init
UserApp_ProcessEvent SYMBOL "UserApp_ProcessEvent"
??UserApp_ProcessEvent?relay SYMBOL "?relay", UserApp_ProcessEvent
User_APP_Drive_init SYMBOL "User_APP_Drive_init"
??User_APP_Drive_init?relay SYMBOL "?relay", User_APP_Drive_init
close_load_1        SYMBOL "close_load_1"
??close_load_1?relay SYMBOL "?relay", close_load_1
close_load_2        SYMBOL "close_load_2"
??close_load_2?relay SYMBOL "?relay", close_load_2
hold_load_1         SYMBOL "hold_load_1"
??hold_load_1?relay SYMBOL "?relay", hold_load_1
hold_load_2         SYMBOL "hold_load_2"
??hold_load_2?relay SYMBOL "?relay", hold_load_2
open_load_1         SYMBOL "open_load_1"
??open_load_1?relay SYMBOL "?relay", open_load_1
open_load_2         SYMBOL "open_load_2"
??open_load_2?relay SYMBOL "?relay", open_load_2

        EXTERN RegisterForKeys
        FUNCTION RegisterForKeys,0202H
        ARGFRAME ISTACK, 0, STACK
        ARGFRAME PSTACK, 0, STACK
        ARGFRAME XSTACK, 9, STACK
        ARGFRAME IOVERLAY, 0, STATIC
        ARGFRAME DOVERLAY, 0, STATIC
        EXTERN afRegister
        FUNCTION afRegister,0202H
        ARGFRAME ISTACK, 0, STACK
        ARGFRAME PSTACK, 0, STACK
        ARGFRAME XSTACK, 9, STACK
        ARGFRAME IOVERLAY, 0, STATIC
        ARGFRAME DOVERLAY, 0, STATIC
        EXTERN ZDO_RegisterForZDOMsg
        FUNCTION ZDO_RegisterForZDOMsg,0202H
        ARGFRAME ISTACK, 0, STACK
        ARGFRAME PSTACK, 0, STACK
        ARGFRAME XSTACK, 9, STACK
        ARGFRAME IOVERLAY, 0, STATIC
        ARGFRAME DOVERLAY, 0, STATIC
        EXTERN osal_msg_receive
        FUNCTION osal_msg_receive,0202H
        ARGFRAME ISTACK, 0, STACK
        ARGFRAME PSTACK, 0, STACK
        ARGFRAME XSTACK, 20, STACK
        ARGFRAME IOVERLAY, 0, STATIC
        ARGFRAME DOVERLAY, 0, STATIC
        EXTERN osal_msg_deallocate
        FUNCTION osal_msg_deallocate,0202H
        ARGFRAME ISTACK, 0, STACK
        ARGFRAME PSTACK, 0, STACK
        ARGFRAME XSTACK, 20, STACK
        ARGFRAME IOVERLAY, 0, STATIC
        ARGFRAME DOVERLAY, 0, STATIC
        EXTERN osal_nv_item_init
        FUNCTION osal_nv_item_init,0202H
        ARGFRAME ISTACK, 0, STACK
        ARGFRAME PSTACK, 0, STACK
        ARGFRAME XSTACK, 22, STACK
        ARGFRAME IOVERLAY, 0, STATIC
        ARGFRAME DOVERLAY, 0, STATIC
        EXTERN osal_nv_read
        FUNCTION osal_nv_read,0202H
        ARGFRAME ISTACK, 0, STACK
        ARGFRAME PSTACK, 0, STACK
        ARGFRAME XSTACK, 24, STACK
        ARGFRAME IOVERLAY, 0, STATIC
        ARGFRAME DOVERLAY, 0, STATIC
        EXTERN osal_start_timerEx
        FUNCTION osal_start_timerEx,0202H
        ARGFRAME ISTACK, 0, STACK
        ARGFRAME PSTACK, 0, STACK
        ARGFRAME XSTACK, 20, STACK
        ARGFRAME IOVERLAY, 0, STATIC
        ARGFRAME DOVERLAY, 0, STATIC
        EXTERN SampleApp_send_in_binding_req
        FUNCTION SampleApp_send_in_binding_req,0202H
        ARGFRAME ISTACK, 0, STACK
        ARGFRAME PSTACK, 0, STACK
        ARGFRAME XSTACK, 9, STACK
        ARGFRAME IOVERLAY, 0, STATIC
        ARGFRAME DOVERLAY, 0, STATIC
        EXTERN APPLY_TO_JOIN_OF_KEY
        FUNCTION APPLY_TO_JOIN_OF_KEY,0202H
        ARGFRAME ISTACK, 0, STACK
        ARGFRAME PSTACK, 0, STACK
        ARGFRAME XSTACK, 9, STACK
        ARGFRAME IOVERLAY, 0, STATIC
        ARGFRAME DOVERLAY, 0, STATIC
        EXTERN SampleApp_PermitJoin
        FUNCTION SampleApp_PermitJoin,0202H
        ARGFRAME ISTACK, 0, STACK
        ARGFRAME PSTACK, 0, STACK
        ARGFRAME XSTACK, 9, STACK
        ARGFRAME IOVERLAY, 0, STATIC
        ARGFRAME DOVERLAY, 0, STATIC
        EXTERN HalLedBlink
        FUNCTION HalLedBlink,0202H
        ARGFRAME ISTACK, 2, STACK
        ARGFRAME PSTACK, 0, STACK
        ARGFRAME XSTACK, 10, STACK
        ARGFRAME IOVERLAY, 0, STATIC
        ARGFRAME DOVERLAY, 0, STATIC
        EXTERN RESTORE_TO_FACTORY
        FUNCTION RESTORE_TO_FACTORY,0202H
        ARGFRAME ISTACK, 0, STACK
        ARGFRAME PSTACK, 0, STACK
        ARGFRAME XSTACK, 9, STACK
        ARGFRAME IOVERLAY, 0, STATIC
        ARGFRAME DOVERLAY, 0, STATIC
        EXTERN SampleApp_GetShortAddr
        FUNCTION SampleApp_GetShortAddr,0202H
        ARGFRAME ISTACK, 0, STACK
        ARGFRAME PSTACK, 0, STACK
        ARGFRAME XSTACK, 10, STACK
        ARGFRAME IOVERLAY, 0, STATIC
        ARGFRAME DOVERLAY, 0, STATIC
        EXTERN osal_mem_free
        FUNCTION osal_mem_free,0202H
        ARGFRAME ISTACK, 0, STACK
        ARGFRAME PSTACK, 0, STACK
        ARGFRAME XSTACK, 11, STACK
        ARGFRAME IOVERLAY, 0, STATIC
        ARGFRAME DOVERLAY, 0, STATIC
        EXTERN osal_mem_alloc
        FUNCTION osal_mem_alloc,0202H
        ARGFRAME ISTACK, 0, STACK
        ARGFRAME PSTACK, 0, STACK
        ARGFRAME XSTACK, 11, STACK
        ARGFRAME IOVERLAY, 0, STATIC
        ARGFRAME DOVERLAY, 0, STATIC
        EXTERN USER_SEND_ADD_STR
        FUNCTION USER_SEND_ADD_STR,0202H
        ARGFRAME ISTACK, 0, STACK
        ARGFRAME PSTACK, 0, STACK
        ARGFRAME XSTACK, 11, STACK
        ARGFRAME IOVERLAY, 0, STATIC
        ARGFRAME DOVERLAY, 0, STATIC
        EXTERN USER_APP_SEND_IN
        FUNCTION USER_APP_SEND_IN,0202H
        ARGFRAME ISTACK, 0, STACK
        ARGFRAME PSTACK, 0, STACK
        ARGFRAME XSTACK, 11, STACK
        ARGFRAME IOVERLAY, 0, STATIC
        ARGFRAME DOVERLAY, 0, STATIC
        EXTERN ??APPLY_TO_JOIN_OF_KEY?relay
        FUNCTION ??APPLY_TO_JOIN_OF_KEY?relay,00H
        EXTERN ??HalLedBlink?relay
        FUNCTION ??HalLedBlink?relay,00H
        EXTERN ??RESTORE_TO_FACTORY?relay
        FUNCTION ??RESTORE_TO_FACTORY?relay,00H
        EXTERN ??RegisterForKeys?relay
        FUNCTION ??RegisterForKeys?relay,00H
        EXTERN ??SampleApp_GetShortAddr?relay
        FUNCTION ??SampleApp_GetShortAddr?relay,00H
        EXTERN ??SampleApp_PermitJoin?relay
        FUNCTION ??SampleApp_PermitJoin?relay,00H
        EXTERN ??SampleApp_send_in_binding_req?relay
        FUNCTION ??SampleApp_send_in_binding_req?relay,00H
        EXTERN ??USER_APP_SEND_IN?relay
        FUNCTION ??USER_APP_SEND_IN?relay,00H
        EXTERN ??USER_SEND_ADD_STR?relay
        FUNCTION ??USER_SEND_ADD_STR?relay,00H
        EXTERN ??ZDO_RegisterForZDOMsg?relay
        FUNCTION ??ZDO_RegisterForZDOMsg?relay,00H
        EXTERN ??afRegister?relay
        FUNCTION ??afRegister?relay,00H
        EXTERN ??osal_mem_alloc?relay
        FUNCTION ??osal_mem_alloc?relay,00H
        EXTERN ??osal_mem_free?relay
        FUNCTION ??osal_mem_free?relay,00H
        EXTERN ??osal_msg_deallocate?relay
        FUNCTION ??osal_msg_deallocate?relay,00H
        EXTERN ??osal_msg_receive?relay
        FUNCTION ??osal_msg_receive?relay,00H
        EXTERN ??osal_nv_item_init?relay
        FUNCTION ??osal_nv_item_init?relay,00H
        EXTERN ??osal_nv_read?relay
        FUNCTION ??osal_nv_read?relay,00H
        EXTERN ??osal_start_timerEx?relay
        FUNCTION ??osal_start_timerEx?relay,00H
        EXTERN KEY_NUMBER_FLAG_A
        EXTERN SampleApp_TaskID
        EXTERN devState
        EXTERN key_double_flag
        EXTERN key_hold_flag
        EXTERN shortddr_mem

// D:\RE_1_2_0_FORMAL_APP(251)-14-12-8\Projects\zstack\Samples\SampleApp\Source\LN_1_SCEEN_1_device\LN_1_SCEEN_1_User_app.c
//    1 /**************************************************************************************************
//    2 Filename:       SampleApp.c
//    3 Revised:        $Date: 2007-10-27 17:16:54 -0700 (Sat, 27 Oct 2007) $
//    4 Revision:       $Revision: 15793 $
//    5 
//    6 Description:    Sample Application (no Profile).
//    7 
//    8 
//    9 Copyright 2007 Texas Instruments Incorporated. All rights reserved.
//   10 
//   11 IMPORTANT: Your use of this Software is limited to those specific rights
//   12 granted under the terms of a software license agreement between the user
//   13 who downloaded the software, his/her employer (which must be your employer)
//   14 and Texas Instruments Incorporated (the "License").  You may not use this
//   15 Software unless you agree to abide by the terms of the License. The License
//   16 limits your use, and you acknowledge, that the Software may not be modified,
//   17 copied or distributed unless embedded on a Texas Instruments microcontroller
//   18 or used solely and exclusively in conjunction with a Texas Instruments radio
//   19 frequency transceiver, which is integrated into your product.  Other than for
//   20 the foregoing purpose, you may not use, reproduce, copy, prepare derivative
//   21 works of, modify, distribute, perform, display or sell this Software and/or
//   22 its documentation for any purpose.
//   23 
//   24 YOU FURTHER ACKNOWLEDGE AND AGREE THAT THE SOFTWARE AND DOCUMENTATION ARE
//   25 PROVIDED AS IS?WITHOUT WARRANTY OF ANY KIND, EITHER EXPRESS OR IMPLIED,
//   26 INCLUDING WITHOUT LIMITATION, ANY WARRANTY OF MERCHANTABILITY, TITLE,
//   27 NON-INFRINGEMENT AND FITNESS FOR A PARTICULAR PURPOSE. IN NO EVENT SHALL
//   28 TEXAS INSTRUMENTS OR ITS LICENSORS BE LIABLE OR OBLIGATED UNDER CONTRACT,
//   29 NEGLIGENCE, STRICT LIABILITY, CONTRIBUTION, BREACH OF WARRANTY, OR OTHER
//   30 LEGAL EQUITABLE THEORY ANY DIRECT OR INDIRECT DAMAGES OR EXPENSES
//   31 INCLUDING BUT NOT LIMITED TO ANY INCIDENTAL, SPECIAL, INDIRECT, PUNITIVE
//   32 OR CONSEQUENTIAL DAMAGES, LOST PROFITS OR LOST DATA, COST OF PROCUREMENT
//   33 OF SUBSTITUTE GOODS, TECHNOLOGY, SERVICES, OR ANY CLAIMS BY THIRD PARTIES
//   34 (INCLUDING BUT NOT LIMITED TO ANY DEFENSE THEREOF), OR OTHER SIMILAR COSTS.
//   35 
//   36 Should you have any questions regarding your right to use this Software,
//   37 contact Texas Instruments Incorporated at www.TI.com.
//   38 **************************************************************************************************/
//   39 
//   40 /*********************************************************************
//   41 This application isn't intended to do anything useful, it is
//   42 intended to be a simple example of an application's structure.
//   43 
//   44 This application sends it's messages either as broadcast or
//   45 broadcast filtered group messages.  The other (more normal)
//   46 message addressing is unicast.  Most of the other sample
//   47 applications are written to support the unicast message model.
//   48 
//   49 Key control:
//   50 SW1:  Sends a flash command to all devices in Group 1.
//   51 SW2:  Adds/Removes (toggles) this device in and out
//   52 of Group 1.  This will enable and disable the
//   53 reception of the flash command.
//   54 *********************************************************************/
//   55 /*******************************************************************************
//   56 文件名称：SR_SOCKET_User_app.C
//   57 文件功能：用户主文件
//   58 设计人员：
//   59 设计时间：20141014
//   60 修改记录：无
//   61 备注说明：包含用户需要填充的所有回调函数，用户只需填充回调函数即可
//   62 *******************************************************************************/
//   63 /*******************************************************************************
//   64 文件包含
//   65 *******************************************************************************/
//   66 #include "AF.h"
//   67 #include "ZDApp.h"
//   68 #include "device.h"
//   69 #include "OnBoard.h"

        ASEGN SFR_AN:DATA:NOROOT,080H
// union <unnamed> volatile __sfr _A_P0
_A_P0:
        DATA8
        DS 1

        ASEGN SFR_AN:DATA:NOROOT,090H
// union <unnamed> volatile __sfr _A_P1
_A_P1:
        DATA8
        DS 1

        ASEGN SFR_AN:DATA:NOROOT,0a0H
// union <unnamed> volatile __sfr _A_P2
_A_P2:
        DATA8
        DS 1

        ASEGN SFR_AN:DATA:NOROOT,0fdH
// unsigned char volatile __sfr P0DIR
P0DIR:
        DATA8
        DS 1

        ASEGN SFR_AN:DATA:NOROOT,0feH
// unsigned char volatile __sfr P1DIR
P1DIR:
        DATA8
        DS 1

        ASEGN SFR_AN:DATA:NOROOT,0ffH
// unsigned char volatile __sfr P2DIR
P2DIR:
        DATA8
        DS 1
//   70 #include "MT_UART.h"
//   71 
//   72 /* HAL */
//   73 #include "hal_led.h"
//   74 #include "hal_key.h"
//   75 #include "OSAL_Nv.h"
//   76 
//   77 #include "AddrMgr.h"
//   78 
//   79 #include "ZDObject.h"
//   80 #include "ZDO_LIB.h"
//   81 #include "common_device.h"
//   82 //#include "CS5463_spi.h" 
//   83 #include "IO_config.h"
//   84 /*******************************************************************************
//   85 全局变量
//   86 *******************************************************************************/  

        RSEG XDATA_Z:XDATA:NOROOT(0)
        DATA8
//   87 uint8 UserApp_TaskID;//用户注册的任务的编号，系统自动分配
UserApp_TaskID:
        DS 1
        REQUIRE __INIT_XDATA_Z

        RSEG XDATA_Z:XDATA:NOROOT(0)
        DATA8
//   88 uint8 RS_LEN=0;
RS_LEN:
        DS 1
        REQUIRE __INIT_XDATA_Z

        RSEG XDATA_Z:XDATA:NOROOT(0)
        DATA8
//   89 uint8 RS_STR[10];
RS_STR:
        DS 10
        REQUIRE __INIT_XDATA_Z
//   90 

        RSEG XDATA_Z:XDATA:NOROOT(0)
        DATA8
//   91 uint8 DEVICE_ID;
DEVICE_ID:
        DS 1
        REQUIRE __INIT_XDATA_Z

        RSEG XDATA_Z:XDATA:NOROOT(0)
        DATA8
//   92 uint8 DEFINED_CONTROL_CHAR;
DEFINED_CONTROL_CHAR:
        DS 1
        REQUIRE __INIT_XDATA_Z

        RSEG XDATA_Z:XDATA:NOROOT(0)
        DATA8
//   93 uint8 JOIN_ROLE;
JOIN_ROLE:
        DS 1
        REQUIRE __INIT_XDATA_Z
//   94 

        RSEG XDATA_Z:XDATA:NOROOT(0)
        DATA32
//   95 uint8 SHORT_ADRESS[4];
SHORT_ADRESS:
        DS 4
        REQUIRE __INIT_XDATA_Z

        RSEG XDATA_Z:XDATA:NOROOT(0)
        DATA8
//   96 uint8 USER_DATA_LEN=0;
USER_DATA_LEN:
        DS 1
        REQUIRE __INIT_XDATA_Z

        RSEG XDATA_Z:XDATA:NOROOT(0)
        DATA8
//   97 uint8 USER_DATA_TYPE=0;
USER_DATA_TYPE:
        DS 1
        REQUIRE __INIT_XDATA_Z

        RSEG XDATA_Z:XDATA:NOROOT(0)
        DATA16
//   98 uint8 *USER_DATA_STR;
USER_DATA_STR:
        DS 2
        REQUIRE __INIT_XDATA_Z

        RSEG XDATA_Z:XDATA:NOROOT(0)
        DATA32
//   99 uint32 P_Value;
P_Value:
        DS 4
        REQUIRE __INIT_XDATA_Z
//  100 extern uint8 KEY_NUMBER_FLAG_A ;//按键标志
//  101 
//  102 
//  103 

        RSEG XDATA_Z:XDATA:NOROOT(0)
        DATA8
//  104   uint8 load_1_flag = 0;
load_1_flag:
        DS 1
        REQUIRE __INIT_XDATA_Z

        RSEG XDATA_Z:XDATA:NOROOT(0)
        DATA8
//  105   uint8 load_2_flag = 0;
load_2_flag:
        DS 1
        REQUIRE __INIT_XDATA_Z

        RSEG XDATA_Z:XDATA:NOROOT(0)
        DATA8
//  106   uint8 load_3_flag = 0;
load_3_flag:
        DS 1
        REQUIRE __INIT_XDATA_Z
//  107 
//  108 
//  109 void open_load_1(void);
//  110 void close_load_1(void);
//  111 void hold_load_1(void);
//  112 
//  113 void open_load_2(void);
//  114 void close_load_2(void);
//  115 void hold_load_2(void);
//  116 
//  117 
//  118 #define WALL_DIMMER_BINDINGLIST       1

        RSEG XDATA_I:XDATA:NOROOT(0)
//  119 uint16 bindingINClusters[WALL_DIMMER_BINDINGLIST] =
bindingINClusters:
        DATA16
        DS 2
        REQUIRE `?<Initializer for bindingINClusters>`
        REQUIRE __INIT_XDATA_I
//  120 {
//  121   SAMPLEAPP_ONOFF_CLUSTERID,
//  122 };  
//  123 
//  124 
//  125 
//  126 // 节点相关的全局变量-----------------------------------------------------------
//  127 

        RSEG XDATA_I:XDATA:NOROOT(0)
//  128 cId_t  USER_SampleApp_ClusterList[SAMPLEAPP_MAX_CLUSTERS]=
USER_SampleApp_ClusterList:
        DATA8
        DS 26
        REQUIRE `?<Initializer for USER_SampleApp_ClusterList>`
        REQUIRE __INIT_XDATA_I
//  129 {
//  130     SAMPLEAPP_ONOFF_CLUSTERID,
//  131     SAMPLEAPP_FLASH_CLUSTERID,
//  132     SAMPLEAPP_ADDR_CLUSTERID,
//  133     SAMPLEAPP_COMMAND_CLUSTERID,
//  134     SAMPLEAPP_PERIODIC_CLUSTERID,
//  135     SAMPLEAPP_ANNCE_REQ_CLUSTERID,
//  136     SAMPLEAPP_PERIODIC_COORDINATOR_CLUSTERID,
//  137     SAMPLEAPP_ACTIVE_COMMAND_CLUSTERID
//  138 };
//  139 

        RSEG XDATA_Z:XDATA:NOROOT(0)
        DATA8
//  140 endPointDesc_t SampleApp_epDesc1;
SampleApp_epDesc1:
        DS 6
        REQUIRE __INIT_XDATA_Z

        RSEG XDATA_Z:XDATA:NOROOT(0)
        DATA8
//  141 endPointDesc_t SampleApp_epDesc2;
SampleApp_epDesc2:
        DS 6
        REQUIRE __INIT_XDATA_Z
//  142 

        RSEG XDATA_I:XDATA:NOROOT(0)
//  143 SimpleDescriptionFormat_t SampleApp_SimpleDesc1 =
SampleApp_SimpleDesc1:
        DATA8
        DS 12
        REQUIRE `?<Initializer for SampleApp_SimpleDesc1>`
        REQUIRE __INIT_XDATA_I
//  144 {
//  145     SAMPLEAPP_ENDPOINT1,              //  int Endpoint;
//  146     SAMPLEAPP_PROFID,                //  uint16 AppProfId[2];
//  147     SAMPLEAPP_DEVICEID,              //  uint16 AppDeviceId[2];
//  148     SAMPLEAPP_DEVICE_VERSION,        //  int   AppDevVer:4;
//  149     SAMPLEAPP_FLAGS,                 //  int   AppFlags:4;
//  150     SAMPLEAPP_MAX_CLUSTERS,          //  uint8  AppNumInClusters;
//  151     (cId_t *)USER_SampleApp_ClusterList,  //  uint8 *pAppInClusterList;
//  152     SAMPLEAPP_MAX_CLUSTERS,          //  uint8  AppNumInClusters;
//  153     (cId_t *)USER_SampleApp_ClusterList   //  uint8 *pAppInClusterList;
//  154 };
//  155 

        RSEG XDATA_I:XDATA:NOROOT(0)
//  156 SimpleDescriptionFormat_t SampleApp_SimpleDesc2 =
SampleApp_SimpleDesc2:
        DATA8
        DS 12
        REQUIRE `?<Initializer for SampleApp_SimpleDesc2>`
        REQUIRE __INIT_XDATA_I
//  157 {
//  158     SAMPLEAPP_ENDPOINT2,              //  int Endpoint;
//  159     SAMPLEAPP_PROFID,                //  uint16 AppProfId[2];
//  160     SAMPLEAPP_DEVICEID,              //  uint16 AppDeviceId[2];
//  161     SAMPLEAPP_DEVICE_VERSION,        //  int   AppDevVer:4;
//  162     SAMPLEAPP_FLAGS,                 //  int   AppFlags:4;
//  163     SAMPLEAPP_MAX_CLUSTERS,          //  uint8  AppNumInClusters;
//  164     (cId_t *)USER_SampleApp_ClusterList,  //  uint8 *pAppInClusterList;
//  165     SAMPLEAPP_MAX_CLUSTERS,          //  uint8  AppNumInClusters;
//  166     (cId_t *)USER_SampleApp_ClusterList   //  uint8 *pAppInClusterList;
//  167 };
//  168 //绑定命令

        RSEG XDATA_I:XDATA:NOROOT(0)
//  169 cId_t USER_bindingINClusters[1]=
USER_bindingINClusters:
        DATA16
        DS 2
        REQUIRE `?<Initializer for USER_bindingINClusters>`
        REQUIRE __INIT_XDATA_I
//  170 {
//  171     SAMPLEAPP_ONOFF_CLUSTERID
//  172 };
//  173 
//  174 //计量的全局变量--------------------

        RSEG XDATA_Z:XDATA:NOROOT(0)
        DATA32
//  175 uint32 	P_Value_Pre, P_Value_Now, P_Value_energy = 0;//功率的当前值和前一个功率值
P_Value_Pre:
        DS 4
        REQUIRE __INIT_XDATA_Z

        RSEG XDATA_Z:XDATA:NOROOT(0)
        DATA32
P_Value_Now:
        DS 4
        REQUIRE __INIT_XDATA_Z

        RSEG XDATA_Z:XDATA:NOROOT(0)
        DATA32
P_Value_energy:
        DS 4
        REQUIRE __INIT_XDATA_Z

        RSEG XDATA_I:XDATA:NOROOT(0)
//  176 uint32 	P_Protect_Value = 10;//功率保护值
P_Protect_Value:
        DATA32
        DS 4
        REQUIRE `?<Initializer for P_Protect_Value>`
        REQUIRE __INIT_XDATA_I

        RSEG XDATA_I:XDATA:NOROOT(0)
//  177 uint16  P_Value_Distance = 100;//功率上报的差值
P_Value_Distance:
        DATA16
        DS 2
        REQUIRE `?<Initializer for P_Value_Distance>`
        REQUIRE __INIT_XDATA_I
//  178 

        RSEG XDATA_Z:XDATA:NOROOT(0)
        DATA16
//  179 uint16 	P_Value_jiaozhun_Temp = 0, I_Value_jiaozhun_Temp = 0;//功率校准值
P_Value_jiaozhun_Temp:
        DS 2
        REQUIRE __INIT_XDATA_Z

        RSEG XDATA_Z:XDATA:NOROOT(0)
        DATA16
I_Value_jiaozhun_Temp:
        DS 2
        REQUIRE __INIT_XDATA_Z

        RSEG XDATA_I:XDATA:NOROOT(0)
//  180 float  P_Value_Bili_Temp = 1.0, I_Value_Bili_Temp = 1.0;//功率的比例校准
P_Value_Bili_Temp:
        DATA32
        DS 4
        REQUIRE `?<Initializer for P_Value_Bili_Temp>`
        REQUIRE __INIT_XDATA_I

        RSEG XDATA_I:XDATA:NOROOT(0)
I_Value_Bili_Temp:
        DATA32
        DS 4
        REQUIRE `?<Initializer for I_Value_Bili_Temp>`
        REQUIRE __INIT_XDATA_I

        RSEG XDATA_Z:XDATA:NOROOT(0)
        DATA16
//  181 uint16 	P_Value_Bili , I_Value_Bili ;//功率的比例校准,电流比例校准
P_Value_Bili:
        DS 2
        REQUIRE __INIT_XDATA_Z

        RSEG XDATA_Z:XDATA:NOROOT(0)
        DATA16
I_Value_Bili:
        DS 2
        REQUIRE __INIT_XDATA_Z

        RSEG XDATA_Z:XDATA:NOROOT(0)
        DATA32
//  182 uint32 Total_P_Value = 0,Total_P_Value_Temp = 0;//总功率值，使用WH为单位；
Total_P_Value:
        DS 4
        REQUIRE __INIT_XDATA_Z

        RSEG XDATA_Z:XDATA:NOROOT(0)
        DATA32
Total_P_Value_Temp:
        DS 4
        REQUIRE __INIT_XDATA_Z

        RSEG XDATA_Z:XDATA:NOROOT(0)
        DATA32
//  183 uint32 I_Value_Now;//当前电流值
I_Value_Now:
        DS 4
        REQUIRE __INIT_XDATA_Z

        RSEG XDATA_Z:XDATA:NOROOT(0)
        DATA8
//  184 uint8  CS5463_STR[10];//0-已校准的标记 ； 1、2- 功率偏移；  3、4-功率的比例；  5、6-电流的偏移； 7、8-电流的比例
CS5463_STR:
        DS 10
        REQUIRE __INIT_XDATA_Z
//  185 /*******************************************************************************
//  186 函数声明
//  187 *******************************************************************************/
//  188 uint8 USER_APP_COMMAND(uint8 *user_app_data,uint8 *str); 
//  189 void USER_APP_JOIN_MSG(void);
//  190 void SampleApp_ProcessBINDINGMessage(afIncomingMSGPacket_t *pkt);
//  191 
//  192 void User_APP_Drive_init(void);
//  193 void SampleApp_HandleKeys( uint8 shift, uint8 keys );//本用户应用按键函数
//  194 void USER_SET_RS_MSG(void);//设置RS数据
//  195 
//  196 void USER_ZDO_JOINING_MSG(void); //ZDO层入网的时候处理函数 就是闪烁灯
//  197 uint8 READ_NETKEY(void); //读取入网状态按键的状态传递到应用层
//  198 void LED_CHANGE(uint8 Position,uint8 Mode);// 设置LED函数
//  199 void SampleAPP_ProcessZDOMsgs( zdoIncomingMsg_t *inMsg );
//  200 
//  201 uint8 CS5463_Send_PWER(void);
//  202 void P_JiaoZhun_Process(void);
//  203 void USER_AFTER_RS_MSG(void);
//  204 

        RSEG BANKED_CODE:CODE:NOROOT(0)
//  205 void USER_AFTER_RS_MSG(void)
USER_AFTER_RS_MSG:
        CFI Block cfiBlock0 Using cfiCommon0
        CFI Function USER_AFTER_RS_MSG
        CODE
//  206 {
        ; Saved register size: 0
        ; Auto size: 0
//  207 
//  208 }
        LJMP    ?BRET
        CFI EndBlock cfiBlock0
//  209 /*******************************************************************************
//  210 * 函数名称: UserApp_Init
//  211 * 函数功能: 用户的初始化函数
//  212 * 入口参数: task_id：用户的任务的编号，是系统分配的，用户不用操心    
//  213 * 出口参数: 无
//  214 * 备注说明: 无
//  215 ******************************************************************************/

        RSEG BANKED_CODE:CODE:NOROOT(0)
//  216 void UserApp_Init( uint8 task_id )
UserApp_Init:
        CFI Block cfiBlock1 Using cfiCommon0
        CFI Function UserApp_Init
        CODE
//  217 {
        FUNCALL UserApp_Init, RegisterForKeys
        LOCFRAME ISTACK, 0, STACK
        LOCFRAME PSTACK, 0, STACK
        LOCFRAME XSTACK, 9, STACK
        LOCFRAME IOVERLAY, 0, STATIC
        LOCFRAME DOVERLAY, 0, STATIC
        ARGFRAME ISTACK, 0, STACK
        ARGFRAME PSTACK, 0, STACK
        ARGFRAME XSTACK, 9, STACK
        ARGFRAME IOVERLAY, 0, STATIC
        ARGFRAME DOVERLAY, 0, STATIC
        FUNCALL UserApp_Init, afRegister
        LOCFRAME ISTACK, 0, STACK
        LOCFRAME PSTACK, 0, STACK
        LOCFRAME XSTACK, 9, STACK
        LOCFRAME IOVERLAY, 0, STATIC
        LOCFRAME DOVERLAY, 0, STATIC
        ARGFRAME ISTACK, 0, STACK
        ARGFRAME PSTACK, 0, STACK
        ARGFRAME XSTACK, 9, STACK
        ARGFRAME IOVERLAY, 0, STATIC
        ARGFRAME DOVERLAY, 0, STATIC
        FUNCALL UserApp_Init, afRegister
        LOCFRAME ISTACK, 0, STACK
        LOCFRAME PSTACK, 0, STACK
        LOCFRAME XSTACK, 9, STACK
        LOCFRAME IOVERLAY, 0, STATIC
        LOCFRAME DOVERLAY, 0, STATIC
        ARGFRAME ISTACK, 0, STACK
        ARGFRAME PSTACK, 0, STACK
        ARGFRAME XSTACK, 9, STACK
        ARGFRAME IOVERLAY, 0, STATIC
        ARGFRAME DOVERLAY, 0, STATIC
        FUNCALL UserApp_Init, ZDO_RegisterForZDOMsg
        LOCFRAME ISTACK, 0, STACK
        LOCFRAME PSTACK, 0, STACK
        LOCFRAME XSTACK, 9, STACK
        LOCFRAME IOVERLAY, 0, STATIC
        LOCFRAME DOVERLAY, 0, STATIC
        ARGFRAME ISTACK, 0, STACK
        ARGFRAME PSTACK, 0, STACK
        ARGFRAME XSTACK, 9, STACK
        ARGFRAME IOVERLAY, 0, STATIC
        ARGFRAME DOVERLAY, 0, STATIC
        FUNCALL UserApp_Init, User_APP_Drive_init
        LOCFRAME ISTACK, 0, STACK
        LOCFRAME PSTACK, 0, STACK
        LOCFRAME XSTACK, 9, STACK
        LOCFRAME IOVERLAY, 0, STATIC
        LOCFRAME DOVERLAY, 0, STATIC
        ARGFRAME ISTACK, 0, STACK
        ARGFRAME PSTACK, 0, STACK
        ARGFRAME XSTACK, 9, STACK
        ARGFRAME IOVERLAY, 0, STATIC
        ARGFRAME DOVERLAY, 0, STATIC
        MOV     A,#-0x9
        LCALL   ?BANKED_ENTER_XDATA
        CFI DPH0 load(1, XDATA, add(CFA_XSP16, literal(-1)))
        CFI DPL0 load(1, XDATA, add(CFA_XSP16, literal(-2)))
        CFI ?BRET_EXT load(1, XDATA, add(CFA_XSP16, literal(-3)))
        CFI ?RET_HIGH load(1, XDATA, add(CFA_XSP16, literal(-4)))
        CFI ?RET_LOW load(1, XDATA, add(CFA_XSP16, literal(-5)))
        CFI R7 load(1, XDATA, add(CFA_XSP16, literal(-6)))
        CFI V0 load(1, XDATA, add(CFA_XSP16, literal(-7)))
        CFI VB load(1, XDATA, add(CFA_XSP16, literal(-8)))
        CFI R6 load(1, XDATA, add(CFA_XSP16, literal(-9)))
        CFI CFA_SP SP+0
        CFI CFA_XSP16 add(XSP16, 9)
        ; Saved register size: 9
        ; Auto size: 0
        MOV     A,R1
        MOV     R6,A
//  218     
//  219     UserApp_TaskID = task_id;
        MOV     A,R6
        MOV     DPTR,#UserApp_TaskID
        MOVX    @DPTR,A
//  220     
//  221     RegisterForKeys(task_id);
        ; Setup parameters for call to function RegisterForKeys
        MOV     A,R6
        MOV     R1,A
        LCALL   ??RegisterForKeys?relay
        MOV     A,R1
//  222     
//  223     SampleApp_epDesc1.endPoint = SAMPLEAPP_ENDPOINT1;//SampleApp EP描述符的EP号：20
        MOV     DPTR,#SampleApp_epDesc1
        MOV     A,#0x15
        MOVX    @DPTR,A
//  224     SampleApp_epDesc1.task_id = &SampleApp_TaskID;//SampleApp EP描述符的任务ID：0
        MOV     DPTR,#SampleApp_epDesc1 + 1
        MOV     A,#SampleApp_TaskID & 0xff
        MOVX    @DPTR,A
        INC     DPTR
        MOV     A,#(SampleApp_TaskID >> 8) & 0xff
        MOVX    @DPTR,A
//  225     SampleApp_epDesc1.simpleDesc = (SimpleDescriptionFormat_t *)&SampleApp_SimpleDesc1;//SampleApp EP简单描述符
        MOV     DPTR,#SampleApp_epDesc1 + 3
        MOV     A,#SampleApp_SimpleDesc1 & 0xff
        MOVX    @DPTR,A
        INC     DPTR
        MOV     A,#(SampleApp_SimpleDesc1 >> 8) & 0xff
        MOVX    @DPTR,A
//  226     SampleApp_epDesc1.latencyReq = noLatencyReqs;//延时策略
        MOV     DPTR,#SampleApp_epDesc1 + 5
        MOV     A,#0x0
        MOVX    @DPTR,A
//  227     afRegister( &SampleApp_epDesc1 );
        ; Setup parameters for call to function afRegister
        MOV     R2,#SampleApp_epDesc1 & 0xff
        MOV     R3,#(SampleApp_epDesc1 >> 8) & 0xff
        LCALL   ??afRegister?relay
        MOV     A,R1
//  228     
//  229     SampleApp_epDesc2.endPoint = SAMPLEAPP_ENDPOINT2;//SampleApp EP描述符的EP号：20
        MOV     DPTR,#SampleApp_epDesc2
        MOV     A,#0x16
        MOVX    @DPTR,A
//  230     SampleApp_epDesc2.task_id = &SampleApp_TaskID;//SampleApp EP描述符的任务ID：0
        MOV     DPTR,#SampleApp_epDesc2 + 1
        MOV     A,#SampleApp_TaskID & 0xff
        MOVX    @DPTR,A
        INC     DPTR
        MOV     A,#(SampleApp_TaskID >> 8) & 0xff
        MOVX    @DPTR,A
//  231     SampleApp_epDesc2.simpleDesc  = (SimpleDescriptionFormat_t *)&SampleApp_SimpleDesc2;//SampleApp EP简单描述符
        MOV     DPTR,#SampleApp_epDesc2 + 3
        MOV     A,#SampleApp_SimpleDesc2 & 0xff
        MOVX    @DPTR,A
        INC     DPTR
        MOV     A,#(SampleApp_SimpleDesc2 >> 8) & 0xff
        MOVX    @DPTR,A
//  232     SampleApp_epDesc2.latencyReq = noLatencyReqs;//延时策略
        MOV     DPTR,#SampleApp_epDesc2 + 5
        MOV     A,#0x0
        MOVX    @DPTR,A
//  233     afRegister( &SampleApp_epDesc2 );
        ; Setup parameters for call to function afRegister
        MOV     R2,#SampleApp_epDesc2 & 0xff
        MOV     R3,#(SampleApp_epDesc2 >> 8) & 0xff
        LCALL   ??afRegister?relay
        MOV     A,R1
//  234     
//  235     ZDO_RegisterForZDOMsg( UserApp_TaskID, End_Device_Bind_rsp );//注册终端节点绑定消息接收事件，用于截取绑定类的消息  
        ; Setup parameters for call to function ZDO_RegisterForZDOMsg
        MOV     R2,#0x20
        MOV     R3,#-0x80
        MOV     DPTR,#UserApp_TaskID
        MOVX    A,@DPTR
        MOV     R1,A
        LCALL   ??ZDO_RegisterForZDOMsg?relay
        MOV     A,R1
//  236     
//  237     User_APP_Drive_init();
        ; Setup parameters for call to function User_APP_Drive_init
        LCALL   ??User_APP_Drive_init?relay
//  238     
//  239 }
        MOV     R7,#0x1
        LJMP    ?BANKED_LEAVE_XDATA
        CFI EndBlock cfiBlock1
//  240 /*******************************************************************************
//  241 * 函数名称: UserApp_ProcessEvent
//  242 * 函数功能: 事件处理函数，此函数会被系统轮询
//  243 * 入口参数: task_id：用户的任务的编号，是系统分配的，用户不用操心  
//  244 events：事件mark表 
//  245 * 出口参数: 无
//  246 * 备注说明: 此函数的函数头固定不变，用户不必操心
//  247 ******************************************************************************/

        RSEG BANKED_CODE:CODE:NOROOT(0)
//  248 UINT16 UserApp_ProcessEvent( uint8 task_id, uint16 events )
UserApp_ProcessEvent:
        CFI Block cfiBlock2 Using cfiCommon0
        CFI Function UserApp_ProcessEvent
        CODE
//  249 {
        FUNCALL UserApp_ProcessEvent, osal_msg_receive
        LOCFRAME ISTACK, 0, STACK
        LOCFRAME PSTACK, 0, STACK
        LOCFRAME XSTACK, 20, STACK
        LOCFRAME IOVERLAY, 0, STATIC
        LOCFRAME DOVERLAY, 0, STATIC
        ARGFRAME ISTACK, 0, STACK
        ARGFRAME PSTACK, 0, STACK
        ARGFRAME XSTACK, 20, STACK
        ARGFRAME IOVERLAY, 0, STATIC
        ARGFRAME DOVERLAY, 0, STATIC
        FUNCALL UserApp_ProcessEvent, SampleApp_HandleKeys
        LOCFRAME ISTACK, 0, STACK
        LOCFRAME PSTACK, 0, STACK
        LOCFRAME XSTACK, 20, STACK
        LOCFRAME IOVERLAY, 0, STATIC
        LOCFRAME DOVERLAY, 0, STATIC
        ARGFRAME ISTACK, 0, STACK
        ARGFRAME PSTACK, 0, STACK
        ARGFRAME XSTACK, 20, STACK
        ARGFRAME IOVERLAY, 0, STATIC
        ARGFRAME DOVERLAY, 0, STATIC
        FUNCALL UserApp_ProcessEvent, SampleAPP_ProcessZDOMsgs
        LOCFRAME ISTACK, 0, STACK
        LOCFRAME PSTACK, 0, STACK
        LOCFRAME XSTACK, 20, STACK
        LOCFRAME IOVERLAY, 0, STATIC
        LOCFRAME DOVERLAY, 0, STATIC
        ARGFRAME ISTACK, 0, STACK
        ARGFRAME PSTACK, 0, STACK
        ARGFRAME XSTACK, 20, STACK
        ARGFRAME IOVERLAY, 0, STATIC
        ARGFRAME DOVERLAY, 0, STATIC
        FUNCALL UserApp_ProcessEvent, osal_msg_deallocate
        LOCFRAME ISTACK, 0, STACK
        LOCFRAME PSTACK, 0, STACK
        LOCFRAME XSTACK, 20, STACK
        LOCFRAME IOVERLAY, 0, STATIC
        LOCFRAME DOVERLAY, 0, STATIC
        ARGFRAME ISTACK, 0, STACK
        ARGFRAME PSTACK, 0, STACK
        ARGFRAME XSTACK, 20, STACK
        ARGFRAME IOVERLAY, 0, STATIC
        ARGFRAME DOVERLAY, 0, STATIC
        FUNCALL UserApp_ProcessEvent, osal_msg_receive
        LOCFRAME ISTACK, 0, STACK
        LOCFRAME PSTACK, 0, STACK
        LOCFRAME XSTACK, 20, STACK
        LOCFRAME IOVERLAY, 0, STATIC
        LOCFRAME DOVERLAY, 0, STATIC
        ARGFRAME ISTACK, 0, STACK
        ARGFRAME PSTACK, 0, STACK
        ARGFRAME XSTACK, 20, STACK
        ARGFRAME IOVERLAY, 0, STATIC
        ARGFRAME DOVERLAY, 0, STATIC
        FUNCALL UserApp_ProcessEvent, osal_nv_item_init
        LOCFRAME ISTACK, 0, STACK
        LOCFRAME PSTACK, 0, STACK
        LOCFRAME XSTACK, 22, STACK
        LOCFRAME IOVERLAY, 0, STATIC
        LOCFRAME DOVERLAY, 0, STATIC
        ARGFRAME ISTACK, 0, STACK
        ARGFRAME PSTACK, 0, STACK
        ARGFRAME XSTACK, 22, STACK
        ARGFRAME IOVERLAY, 0, STATIC
        ARGFRAME DOVERLAY, 0, STATIC
        FUNCALL UserApp_ProcessEvent, osal_nv_read
        LOCFRAME ISTACK, 0, STACK
        LOCFRAME PSTACK, 0, STACK
        LOCFRAME XSTACK, 24, STACK
        LOCFRAME IOVERLAY, 0, STATIC
        LOCFRAME DOVERLAY, 0, STATIC
        ARGFRAME ISTACK, 0, STACK
        ARGFRAME PSTACK, 0, STACK
        ARGFRAME XSTACK, 24, STACK
        ARGFRAME IOVERLAY, 0, STATIC
        ARGFRAME DOVERLAY, 0, STATIC
        FUNCALL UserApp_ProcessEvent, osal_start_timerEx
        LOCFRAME ISTACK, 0, STACK
        LOCFRAME PSTACK, 0, STACK
        LOCFRAME XSTACK, 20, STACK
        LOCFRAME IOVERLAY, 0, STATIC
        LOCFRAME DOVERLAY, 0, STATIC
        ARGFRAME ISTACK, 0, STACK
        ARGFRAME PSTACK, 0, STACK
        ARGFRAME XSTACK, 20, STACK
        ARGFRAME IOVERLAY, 0, STATIC
        ARGFRAME DOVERLAY, 0, STATIC
        FUNCALL UserApp_ProcessEvent, SampleApp_SendInMessage
        LOCFRAME ISTACK, 0, STACK
        LOCFRAME PSTACK, 0, STACK
        LOCFRAME XSTACK, 20, STACK
        LOCFRAME IOVERLAY, 0, STATIC
        LOCFRAME DOVERLAY, 0, STATIC
        ARGFRAME ISTACK, 0, STACK
        ARGFRAME PSTACK, 0, STACK
        ARGFRAME XSTACK, 20, STACK
        ARGFRAME IOVERLAY, 0, STATIC
        ARGFRAME DOVERLAY, 0, STATIC
        FUNCALL UserApp_ProcessEvent, osal_start_timerEx
        LOCFRAME ISTACK, 0, STACK
        LOCFRAME PSTACK, 0, STACK
        LOCFRAME XSTACK, 20, STACK
        LOCFRAME IOVERLAY, 0, STATIC
        LOCFRAME DOVERLAY, 0, STATIC
        ARGFRAME ISTACK, 0, STACK
        ARGFRAME PSTACK, 0, STACK
        ARGFRAME XSTACK, 20, STACK
        ARGFRAME IOVERLAY, 0, STATIC
        ARGFRAME DOVERLAY, 0, STATIC
        FUNCALL UserApp_ProcessEvent, hold_load_1
        LOCFRAME ISTACK, 0, STACK
        LOCFRAME PSTACK, 0, STACK
        LOCFRAME XSTACK, 20, STACK
        LOCFRAME IOVERLAY, 0, STATIC
        LOCFRAME DOVERLAY, 0, STATIC
        ARGFRAME ISTACK, 0, STACK
        ARGFRAME PSTACK, 0, STACK
        ARGFRAME XSTACK, 20, STACK
        ARGFRAME IOVERLAY, 0, STATIC
        ARGFRAME DOVERLAY, 0, STATIC
        FUNCALL UserApp_ProcessEvent, hold_load_2
        LOCFRAME ISTACK, 0, STACK
        LOCFRAME PSTACK, 0, STACK
        LOCFRAME XSTACK, 20, STACK
        LOCFRAME IOVERLAY, 0, STATIC
        LOCFRAME DOVERLAY, 0, STATIC
        ARGFRAME ISTACK, 0, STACK
        ARGFRAME PSTACK, 0, STACK
        ARGFRAME XSTACK, 20, STACK
        ARGFRAME IOVERLAY, 0, STATIC
        ARGFRAME DOVERLAY, 0, STATIC
        MOV     A,#-0x14
        LCALL   ?BANKED_ENTER_XDATA
        CFI DPH0 load(1, XDATA, add(CFA_XSP16, literal(-1)))
        CFI DPL0 load(1, XDATA, add(CFA_XSP16, literal(-2)))
        CFI ?BRET_EXT load(1, XDATA, add(CFA_XSP16, literal(-3)))
        CFI ?RET_HIGH load(1, XDATA, add(CFA_XSP16, literal(-4)))
        CFI ?RET_LOW load(1, XDATA, add(CFA_XSP16, literal(-5)))
        CFI R7 load(1, XDATA, add(CFA_XSP16, literal(-6)))
        CFI V11 load(1, XDATA, add(CFA_XSP16, literal(-7)))
        CFI V10 load(1, XDATA, add(CFA_XSP16, literal(-8)))
        CFI V9 load(1, XDATA, add(CFA_XSP16, literal(-9)))
        CFI V8 load(1, XDATA, add(CFA_XSP16, literal(-10)))
        CFI V7 load(1, XDATA, add(CFA_XSP16, literal(-11)))
        CFI V6 load(1, XDATA, add(CFA_XSP16, literal(-12)))
        CFI V5 load(1, XDATA, add(CFA_XSP16, literal(-13)))
        CFI V4 load(1, XDATA, add(CFA_XSP16, literal(-14)))
        CFI V3 load(1, XDATA, add(CFA_XSP16, literal(-15)))
        CFI V2 load(1, XDATA, add(CFA_XSP16, literal(-16)))
        CFI V1 load(1, XDATA, add(CFA_XSP16, literal(-17)))
        CFI V0 load(1, XDATA, add(CFA_XSP16, literal(-18)))
        CFI VB load(1, XDATA, add(CFA_XSP16, literal(-19)))
        CFI R6 load(1, XDATA, add(CFA_XSP16, literal(-20)))
        CFI CFA_SP SP+0
        CFI CFA_XSP16 add(XSP16, 20)
        ; Saved register size: 20
        ; Auto size: 0
        MOV     ?V0 + 2,R1
        MOV     A,R2
        MOV     R6,A
        MOV     A,R3
        MOV     R7,A
//  250   afIncomingMSGPacket_t *MSGpkt;
//  251   
//  252   //系统事件，在这里主要处理按键----------------------------------------------
//  253   if ( events & SYS_EVENT_MSG )
        MOV     A,R6
        ANL     A,#0x0
        MOV     R0,A
        MOV     A,R7
        ANL     A,#0x80
        MOV     R1,A
        MOV     A,R0
        ORL     A,R1
        JZ      ??UserApp_ProcessEvent_0
//  254   {
//  255     MSGpkt = (afIncomingMSGPacket_t *)osal_msg_receive( UserApp_TaskID );
        ; Setup parameters for call to function osal_msg_receive
        MOV     DPTR,#UserApp_TaskID
        MOVX    A,@DPTR
        MOV     R1,A
        LCALL   ??osal_msg_receive?relay
        MOV     ?V0 + 4,R2
        MOV     ?V0 + 5,R3
        MOV     ?V0 + 0,?V0 + 4
        MOV     ?V0 + 1,?V0 + 5
//  256     while ( MSGpkt )                                           
??UserApp_ProcessEvent_1:
        MOV     A,?V0 + 0
        ORL     A,?V0 + 1
        JZ      ??UserApp_ProcessEvent_2
//  257     {                                                                     
//  258       switch ( MSGpkt->hdr.event )
        MOV     DPL,?V0 + 0
        MOV     DPH,?V0 + 1
        MOVX    A,@DPTR
        ADD     A,#0x40
        JZ      ??UserApp_ProcessEvent_3
        ADD     A,#-0x13
        JZ      ??UserApp_ProcessEvent_4
        SJMP    ??UserApp_ProcessEvent_5
//  259       {
//  260       case KEY_CHANGE:      
//  261         SampleApp_HandleKeys( ((keyChange_t *)MSGpkt)->state, ((keyChange_t *)MSGpkt)->keys );
??UserApp_ProcessEvent_3:
        ; Setup parameters for call to function SampleApp_HandleKeys
        MOV     DPL,?V0 + 0
        MOV     DPH,?V0 + 1
        INC     DPTR
        INC     DPTR
        INC     DPTR
        MOVX    A,@DPTR
        MOV     R2,A
        MOV     DPL,?V0 + 0
        MOV     DPH,?V0 + 1
        INC     DPTR
        INC     DPTR
        MOVX    A,@DPTR
        MOV     R1,A
        LCALL   ??SampleApp_HandleKeys?relay
//  262         break;                                             
        SJMP    ??UserApp_ProcessEvent_5
//  263         
//  264       case ZDO_CB_MSG:
//  265         SampleAPP_ProcessZDOMsgs( (zdoIncomingMsg_t *)MSGpkt );
??UserApp_ProcessEvent_4:
        ; Setup parameters for call to function SampleAPP_ProcessZDOMsgs
        MOV     R2,?V0 + 0
        MOV     R3,?V0 + 1
        LCALL   ??SampleAPP_ProcessZDOMsgs?relay
//  266         break;
//  267         
//  268       default:
//  269         break;
//  270       }
//  271       
//  272       // Release the memory
//  273       //释放消息占用的内存
//  274       osal_msg_deallocate( (uint8 *)MSGpkt );
??UserApp_ProcessEvent_5:
        ; Setup parameters for call to function osal_msg_deallocate
        MOV     R2,?V0 + 0
        MOV     R3,?V0 + 1
        LCALL   ??osal_msg_deallocate?relay
        MOV     A,R1
//  275       
//  276       // Next - if one is available
//  277       MSGpkt = (afIncomingMSGPacket_t *)osal_msg_receive( UserApp_TaskID );
        ; Setup parameters for call to function osal_msg_receive
        MOV     DPTR,#UserApp_TaskID
        MOVX    A,@DPTR
        MOV     R1,A
        LCALL   ??osal_msg_receive?relay
        MOV     ?V0 + 4,R2
        MOV     ?V0 + 5,R3
        MOV     ?V0 + 0,?V0 + 4
        MOV     ?V0 + 1,?V0 + 5
        SJMP    ??UserApp_ProcessEvent_1
//  278     }//end： while ( MSGpkt )
//  279     
//  280     return (events ^ SYS_EVENT_MSG);
??UserApp_ProcessEvent_2:
        MOV     A,R6
        XRL     A,#0x0
        MOV     R2,A
        MOV     A,R7
        XRL     A,#0x80
        MOV     R3,A
        LJMP    ??UserApp_ProcessEvent_6 & 0xFFFF
//  281   }
//  282   
//  283   
//  284   //用户自行添加的事件处理----------------------------------------------------
//  285   if ( events & USER_SEND_MESSAGE_EVT )//每两秒读取一次CS5463操作
??UserApp_ProcessEvent_0:
        MOV     A,R6
        MOV     C,0xE0 /* A   */.0
        JC      $+5
        LJMP    ??UserApp_ProcessEvent_7 & 0xFFFF
//  286   {
//  287     
//  288     
//  289     
//  290     osal_nv_item_init(CS5463_JIAOZHUN_NV_FLAG, 10, CS5463_STR);  
        ; Setup parameters for call to function osal_nv_item_init
        MOV     ?V0 + 4,#CS5463_STR & 0xff
        MOV     ?V0 + 5,#(CS5463_STR >> 8) & 0xff
        MOV     R0,#?V0 + 4
        LCALL   ?PUSH_XSTACK_I_TWO
        CFI CFA_XSP16 add(XSP16, 22)
        MOV     R4,#0xa
        MOV     R5,#0x0
        MOV     R2,#0x20
        MOV     R3,#0x4
        LCALL   ??osal_nv_item_init?relay
        MOV     A,#0x2
        LCALL   ?DEALLOC_XSTACK8
        CFI CFA_XSP16 add(XSP16, 20)
        MOV     A,R1
//  291     osal_nv_read(CS5463_JIAOZHUN_NV_FLAG, 0, 10,   CS5463_STR);
        ; Setup parameters for call to function osal_nv_read
        MOV     ?V0 + 4,#CS5463_STR & 0xff
        MOV     ?V0 + 5,#(CS5463_STR >> 8) & 0xff
        MOV     R0,#?V0 + 4
        LCALL   ?PUSH_XSTACK_I_TWO
        CFI CFA_XSP16 add(XSP16, 22)
        MOV     ?V0 + 4,#0xa
        MOV     ?V0 + 5,#0x0
        MOV     R0,#?V0 + 4
        LCALL   ?PUSH_XSTACK_I_TWO
        CFI CFA_XSP16 add(XSP16, 24)
        MOV     R4,#0x0
        MOV     R5,#0x0
        MOV     R2,#0x20
        MOV     R3,#0x4
        LCALL   ??osal_nv_read?relay
        MOV     A,#0x4
        LCALL   ?DEALLOC_XSTACK8
        CFI CFA_XSP16 add(XSP16, 20)
        MOV     A,R1
//  292     
//  293     if(CS5463_STR[0] == 11)//如果已经保存了校准值，则直接读取已经保存的校准值
        MOV     DPTR,#CS5463_STR
        MOVX    A,@DPTR
        XRL     A,#0xb
        JZ      $+5
        LJMP    ??UserApp_ProcessEvent_8 & 0xFFFF
//  294     {
//  295       
//  296       P_Value_Bili_Temp = (float)((uint16)CS5463_STR[3] << 8 | (uint16)CS5463_STR[4]) / 1000;//存储的时候*1000
        MOV     DPTR,#CS5463_STR + 3
        MOVX    A,@DPTR
        MOV     R0,A
        MOV     R1,#0x0
        CLR     A
        XCH     A,R0
        MOV     R1,A
        MOV     DPTR,#CS5463_STR + 4
        MOVX    A,@DPTR
        MOV     R2,A
        MOV     R3,#0x0
        MOV     A,R0
        ORL     A,R2
        MOV     ?V0 + 4,A
        MOV     A,R1
        ORL     A,R3
        MOV     ?V0 + 5,A
        CLR     A
        MOV     ?V0 + 6,A
        MOV     ?V0 + 7,A
        MOV     R0,#?V0 + 4
        LCALL   ?UL_TO_FLT
        MOV     DPTR,#__Constant_447a0000
        MOV     R0,#?V0 + 8
        LCALL   ?L_MOV_X
        MOV     R0,#?V0 + 4
        MOV     R1,#?V0 + 8
        LCALL   ?FLT_DIV
        MOV     R2,?V0 + 4
        MOV     R3,?V0 + 5
        MOV     R4,?V0 + 6
        MOV     R5,?V0 + 7
        MOV     DPTR,#P_Value_Bili_Temp
        MOV     A,?V0 + 4
        MOVX    @DPTR,A
        INC     DPTR
        MOV     A,?V0 + 5
        MOVX    @DPTR,A
        INC     DPTR
        MOV     A,?V0 + 6
        MOVX    @DPTR,A
        INC     DPTR
        MOV     A,?V0 + 7
        MOVX    @DPTR,A
//  297       P_Value_jiaozhun_Temp = (uint16)CS5463_STR[1] << 8 | (uint16)CS5463_STR[2];
        MOV     DPTR,#CS5463_STR + 1
        MOVX    A,@DPTR
        MOV     R0,A
        MOV     R1,#0x0
        CLR     A
        XCH     A,R0
        MOV     R1,A
        MOV     DPTR,#CS5463_STR + 2
        MOVX    A,@DPTR
        MOV     R2,A
        MOV     R3,#0x0
        MOV     A,R0
        ORL     A,R2
        MOV     R0,A
        MOV     A,R1
        ORL     A,R3
        MOV     R1,A
        MOV     DPTR,#P_Value_jiaozhun_Temp
        MOV     A,R0
        MOVX    @DPTR,A
        INC     DPTR
        MOV     A,R1
        MOVX    @DPTR,A
//  298       I_Value_Bili_Temp = (float)((uint16)CS5463_STR[7] << 8 | (uint16)CS5463_STR[8]) / 1000;//存储的时候*1000
        MOV     DPTR,#CS5463_STR + 7
        MOVX    A,@DPTR
        MOV     R0,A
        MOV     R1,#0x0
        CLR     A
        XCH     A,R0
        MOV     R1,A
        MOV     DPTR,#CS5463_STR + 8
        MOVX    A,@DPTR
        MOV     R2,A
        MOV     R3,#0x0
        MOV     A,R0
        ORL     A,R2
        MOV     ?V0 + 4,A
        MOV     A,R1
        ORL     A,R3
        MOV     ?V0 + 5,A
        CLR     A
        MOV     ?V0 + 6,A
        MOV     ?V0 + 7,A
        MOV     R0,#?V0 + 4
        LCALL   ?UL_TO_FLT
        MOV     DPTR,#__Constant_447a0000
        MOV     R0,#?V0 + 8
        LCALL   ?L_MOV_X
        MOV     R0,#?V0 + 4
        MOV     R1,#?V0 + 8
        LCALL   ?FLT_DIV
        MOV     R2,?V0 + 4
        MOV     R3,?V0 + 5
        MOV     R4,?V0 + 6
        MOV     R5,?V0 + 7
        MOV     DPTR,#I_Value_Bili_Temp
        MOV     A,?V0 + 4
        MOVX    @DPTR,A
        INC     DPTR
        MOV     A,?V0 + 5
        MOVX    @DPTR,A
        INC     DPTR
        MOV     A,?V0 + 6
        MOVX    @DPTR,A
        INC     DPTR
        MOV     A,?V0 + 7
        MOVX    @DPTR,A
//  299       I_Value_jiaozhun_Temp = (uint16)CS5463_STR[5] << 8 | (uint16)CS5463_STR[6];
        MOV     DPTR,#CS5463_STR + 5
        MOVX    A,@DPTR
        MOV     R0,A
        MOV     R1,#0x0
        CLR     A
        XCH     A,R0
        MOV     R1,A
        MOV     DPTR,#CS5463_STR + 6
        MOVX    A,@DPTR
        MOV     R2,A
        MOV     R3,#0x0
        MOV     A,R0
        ORL     A,R2
        MOV     R0,A
        MOV     A,R1
        ORL     A,R3
        MOV     R1,A
        MOV     DPTR,#I_Value_jiaozhun_Temp
        MOV     A,R0
        MOVX    @DPTR,A
        INC     DPTR
        MOV     A,R1
        MOVX    @DPTR,A
//  300       
//  301     }       
//  302     
//  303     //CS5463_Send_PWER();
//  304     osal_start_timerEx( UserApp_TaskID, USER_SEND_MESSAGE_EVT,2000);//事件延时        
??UserApp_ProcessEvent_8:
        ; Setup parameters for call to function osal_start_timerEx
        MOV     R4,#-0x30
        MOV     R5,#0x7
        MOV     R2,#0x1
        MOV     R3,#0x0
        MOV     DPTR,#UserApp_TaskID
        MOVX    A,@DPTR
        MOV     R1,A
        LCALL   ??osal_start_timerEx?relay
        MOV     A,R1
//  305     return (events ^ USER_SEND_MESSAGE_EVT );
        MOV     A,R6
        XRL     A,#0x1
        MOV     R2,A
        MOV     A,R7
        XRL     A,#0x0
        MOV     R3,A
        SJMP    ??UserApp_ProcessEvent_6
//  306   } 
//  307   
//  308   if(events & USER_SEND_DS_MESSAGE_EVT)//这是一个一次性的事件
??UserApp_ProcessEvent_7:
        MOV     A,R6
        ANL     A,#0x2
        JZ      ??UserApp_ProcessEvent_9
//  309   {
//  310     SampleApp_SendInMessage(); 
        ; Setup parameters for call to function SampleApp_SendInMessage
        LCALL   ??SampleApp_SendInMessage?relay
//  311     osal_start_timerEx( UserApp_TaskID, USER_SEND_MESSAGE_EVT,2000);//事件延时 
        ; Setup parameters for call to function osal_start_timerEx
        MOV     R4,#-0x30
        MOV     R5,#0x7
        MOV     R2,#0x1
        MOV     R3,#0x0
        MOV     DPTR,#UserApp_TaskID
        MOVX    A,@DPTR
        MOV     R1,A
        LCALL   ??osal_start_timerEx?relay
        MOV     A,R1
//  312     return (events ^ USER_SEND_DS_MESSAGE_EVT );		
        MOV     A,R6
        XRL     A,#0x2
        MOV     R2,A
        MOV     A,R7
        XRL     A,#0x0
        MOV     R3,A
        SJMP    ??UserApp_ProcessEvent_6
//  313   }
//  314   
//  315   
//  316   
//  317   
//  318   if ( events & HOLD_LOAD_1_EVT )
??UserApp_ProcessEvent_9:
        MOV     A,R6
        ANL     A,#0x0
        MOV     R0,A
        MOV     A,R7
        ANL     A,#0x2
        MOV     R1,A
        MOV     A,R0
        ORL     A,R1
        JZ      ??UserApp_ProcessEvent_10
//  319   {
//  320     
//  321     hold_load_1();
        ; Setup parameters for call to function hold_load_1
        LCALL   ??hold_load_1?relay
//  322     return (events ^ HOLD_LOAD_1_EVT );
        MOV     A,R6
        XRL     A,#0x0
        MOV     R2,A
        MOV     A,R7
        XRL     A,#0x2
        MOV     R3,A
        SJMP    ??UserApp_ProcessEvent_6
//  323   } 
//  324   
//  325   if ( events & HOLD_LOAD_2_EVT )
??UserApp_ProcessEvent_10:
        MOV     A,R6
        ANL     A,#0x0
        MOV     R0,A
        MOV     A,R7
        ANL     A,#0x4
        MOV     R1,A
        MOV     A,R0
        ORL     A,R1
        JZ      ??UserApp_ProcessEvent_11
//  326   {
//  327     
//  328     hold_load_2();
        ; Setup parameters for call to function hold_load_2
        LCALL   ??hold_load_2?relay
//  329     return (events ^ HOLD_LOAD_2_EVT );
        MOV     A,R6
        XRL     A,#0x0
        MOV     R2,A
        MOV     A,R7
        XRL     A,#0x4
        MOV     R3,A
        SJMP    ??UserApp_ProcessEvent_6
//  330   } 
//  331   return 0;
??UserApp_ProcessEvent_11:
        MOV     R2,#0x0
        MOV     R3,#0x0
??UserApp_ProcessEvent_6:
        MOV     R7,#0xc
        LJMP    ?BANKED_LEAVE_XDATA
        CFI EndBlock cfiBlock2
//  332 }
//  333 
//  334 
//  335 /*******************************************************************************
//  336 * 函数名称: SampleApp_HandleKeys
//  337 * 函数功能: 按键命令传输到USER层，用户自行添加删除，处理按键命令
//  338 * 入口参数: shift：状态码 
//  339 keys：按键的值
//  340 * 出口参数: 无
//  341 * 备注说明: 此函数的函数头固定不变，用户不必操心
//  342 ******************************************************************************/ 

        RSEG BANKED_CODE:CODE:NOROOT(0)
//  343 void SampleApp_HandleKeys( uint8 shift, uint8 keys )
SampleApp_HandleKeys:
        CFI Block cfiBlock3 Using cfiCommon0
        CFI Function SampleApp_HandleKeys
        CODE
//  344 {
        FUNCALL SampleApp_HandleKeys, SampleApp_send_in_binding_req
        LOCFRAME ISTACK, 0, STACK
        LOCFRAME PSTACK, 0, STACK
        LOCFRAME XSTACK, 9, STACK
        LOCFRAME IOVERLAY, 0, STATIC
        LOCFRAME DOVERLAY, 0, STATIC
        ARGFRAME ISTACK, 0, STACK
        ARGFRAME PSTACK, 0, STACK
        ARGFRAME XSTACK, 9, STACK
        ARGFRAME IOVERLAY, 0, STATIC
        ARGFRAME DOVERLAY, 0, STATIC
        FUNCALL SampleApp_HandleKeys, SampleApp_SendInMessage
        LOCFRAME ISTACK, 0, STACK
        LOCFRAME PSTACK, 0, STACK
        LOCFRAME XSTACK, 9, STACK
        LOCFRAME IOVERLAY, 0, STATIC
        LOCFRAME DOVERLAY, 0, STATIC
        ARGFRAME ISTACK, 0, STACK
        ARGFRAME PSTACK, 0, STACK
        ARGFRAME XSTACK, 9, STACK
        ARGFRAME IOVERLAY, 0, STATIC
        ARGFRAME DOVERLAY, 0, STATIC
        FUNCALL SampleApp_HandleKeys, SampleApp_send_in_binding_req
        LOCFRAME ISTACK, 0, STACK
        LOCFRAME PSTACK, 0, STACK
        LOCFRAME XSTACK, 9, STACK
        LOCFRAME IOVERLAY, 0, STATIC
        LOCFRAME DOVERLAY, 0, STATIC
        ARGFRAME ISTACK, 0, STACK
        ARGFRAME PSTACK, 0, STACK
        ARGFRAME XSTACK, 9, STACK
        ARGFRAME IOVERLAY, 0, STATIC
        ARGFRAME DOVERLAY, 0, STATIC
        FUNCALL SampleApp_HandleKeys, SampleApp_SendInMessage
        LOCFRAME ISTACK, 0, STACK
        LOCFRAME PSTACK, 0, STACK
        LOCFRAME XSTACK, 9, STACK
        LOCFRAME IOVERLAY, 0, STATIC
        LOCFRAME DOVERLAY, 0, STATIC
        ARGFRAME ISTACK, 0, STACK
        ARGFRAME PSTACK, 0, STACK
        ARGFRAME XSTACK, 9, STACK
        ARGFRAME IOVERLAY, 0, STATIC
        ARGFRAME DOVERLAY, 0, STATIC
        FUNCALL SampleApp_HandleKeys, APPLY_TO_JOIN_OF_KEY
        LOCFRAME ISTACK, 0, STACK
        LOCFRAME PSTACK, 0, STACK
        LOCFRAME XSTACK, 9, STACK
        LOCFRAME IOVERLAY, 0, STATIC
        LOCFRAME DOVERLAY, 0, STATIC
        ARGFRAME ISTACK, 0, STACK
        ARGFRAME PSTACK, 0, STACK
        ARGFRAME XSTACK, 9, STACK
        ARGFRAME IOVERLAY, 0, STATIC
        ARGFRAME DOVERLAY, 0, STATIC
        FUNCALL SampleApp_HandleKeys, SampleApp_send_in_binding_req
        LOCFRAME ISTACK, 0, STACK
        LOCFRAME PSTACK, 0, STACK
        LOCFRAME XSTACK, 9, STACK
        LOCFRAME IOVERLAY, 0, STATIC
        LOCFRAME DOVERLAY, 0, STATIC
        ARGFRAME ISTACK, 0, STACK
        ARGFRAME PSTACK, 0, STACK
        ARGFRAME XSTACK, 9, STACK
        ARGFRAME IOVERLAY, 0, STATIC
        ARGFRAME DOVERLAY, 0, STATIC
        FUNCALL SampleApp_HandleKeys, SampleApp_PermitJoin
        LOCFRAME ISTACK, 0, STACK
        LOCFRAME PSTACK, 0, STACK
        LOCFRAME XSTACK, 9, STACK
        LOCFRAME IOVERLAY, 0, STATIC
        LOCFRAME DOVERLAY, 0, STATIC
        ARGFRAME ISTACK, 0, STACK
        ARGFRAME PSTACK, 0, STACK
        ARGFRAME XSTACK, 9, STACK
        ARGFRAME IOVERLAY, 0, STATIC
        ARGFRAME DOVERLAY, 0, STATIC
        FUNCALL SampleApp_HandleKeys, SampleApp_PermitJoin
        LOCFRAME ISTACK, 0, STACK
        LOCFRAME PSTACK, 0, STACK
        LOCFRAME XSTACK, 9, STACK
        LOCFRAME IOVERLAY, 0, STATIC
        LOCFRAME DOVERLAY, 0, STATIC
        ARGFRAME ISTACK, 0, STACK
        ARGFRAME PSTACK, 0, STACK
        ARGFRAME XSTACK, 9, STACK
        ARGFRAME IOVERLAY, 0, STATIC
        ARGFRAME DOVERLAY, 0, STATIC
        FUNCALL SampleApp_HandleKeys, HalLedBlink
        LOCFRAME ISTACK, 0, STACK
        LOCFRAME PSTACK, 0, STACK
        LOCFRAME XSTACK, 9, STACK
        LOCFRAME IOVERLAY, 0, STATIC
        LOCFRAME DOVERLAY, 0, STATIC
        ARGFRAME ISTACK, 0, STACK
        ARGFRAME PSTACK, 0, STACK
        ARGFRAME XSTACK, 9, STACK
        ARGFRAME IOVERLAY, 0, STATIC
        ARGFRAME DOVERLAY, 0, STATIC
        FUNCALL SampleApp_HandleKeys, RESTORE_TO_FACTORY
        LOCFRAME ISTACK, 0, STACK
        LOCFRAME PSTACK, 0, STACK
        LOCFRAME XSTACK, 9, STACK
        LOCFRAME IOVERLAY, 0, STATIC
        LOCFRAME DOVERLAY, 0, STATIC
        ARGFRAME ISTACK, 0, STACK
        ARGFRAME PSTACK, 0, STACK
        ARGFRAME XSTACK, 9, STACK
        ARGFRAME IOVERLAY, 0, STATIC
        ARGFRAME DOVERLAY, 0, STATIC
        FUNCALL SampleApp_HandleKeys, osal_start_timerEx
        LOCFRAME ISTACK, 0, STACK
        LOCFRAME PSTACK, 0, STACK
        LOCFRAME XSTACK, 9, STACK
        LOCFRAME IOVERLAY, 0, STATIC
        LOCFRAME DOVERLAY, 0, STATIC
        ARGFRAME ISTACK, 0, STACK
        ARGFRAME PSTACK, 0, STACK
        ARGFRAME XSTACK, 9, STACK
        ARGFRAME IOVERLAY, 0, STATIC
        ARGFRAME DOVERLAY, 0, STATIC
        MOV     A,#-0x9
        LCALL   ?BANKED_ENTER_XDATA
        CFI DPH0 load(1, XDATA, add(CFA_XSP16, literal(-1)))
        CFI DPL0 load(1, XDATA, add(CFA_XSP16, literal(-2)))
        CFI ?BRET_EXT load(1, XDATA, add(CFA_XSP16, literal(-3)))
        CFI ?RET_HIGH load(1, XDATA, add(CFA_XSP16, literal(-4)))
        CFI ?RET_LOW load(1, XDATA, add(CFA_XSP16, literal(-5)))
        CFI R7 load(1, XDATA, add(CFA_XSP16, literal(-6)))
        CFI V0 load(1, XDATA, add(CFA_XSP16, literal(-7)))
        CFI VB load(1, XDATA, add(CFA_XSP16, literal(-8)))
        CFI R6 load(1, XDATA, add(CFA_XSP16, literal(-9)))
        CFI CFA_SP SP+0
        CFI CFA_XSP16 add(XSP16, 9)
        ; Saved register size: 9
        ; Auto size: 0
        MOV     A,R1
        MOV     R6,A
        MOV     A,R2
        MOV     R7,A
//  345     //P1.3  
//  346     if ( KEY_NUMBER_FLAG_A &  HAL_KEY_SW_9 )
        MOV     DPTR,#KEY_NUMBER_FLAG_A
        MOVX    A,@DPTR
        MOV     C,0xE0 /* A   */.6
        JNC     ??SampleApp_HandleKeys_0
//  347     { 
//  348         if(P1_6 == 1)  
        MOV     C,0x90.6
        JNC     ??SampleApp_HandleKeys_1
//  349         {   
//  350             P1_6 =0;//打开继电器
        CLR     0x90.6
//  351             HAL_TURN_ON_LED2();
        SETB    0x90.4
        SJMP    ??SampleApp_HandleKeys_2
//  352         }
//  353         
//  354         else if(P1_6 == 0)  
??SampleApp_HandleKeys_1:
        MOV     C,0x90.6
        JC      ??SampleApp_HandleKeys_2
//  355         {
//  356             P1_6 =1;//关闭继电器
        SETB    0x90.6
//  357             HAL_TURN_OFF_LED2();
        CLR     0x90.4
//  358         }
//  359 	
//  360         if(key_double_flag == 3)
??SampleApp_HandleKeys_2:
        MOV     DPTR,#key_double_flag
        MOVX    A,@DPTR
        XRL     A,#0x3
        JNZ     ??SampleApp_HandleKeys_3
//  361         {
//  362             SampleApp_send_in_binding_req(SAMPLEAPP_ENDPOINT1,USER_bindingINClusters,1);//绑定1号端点
        ; Setup parameters for call to function SampleApp_send_in_binding_req
        MOV     R4,#0x1
        MOV     R2,#USER_bindingINClusters & 0xff
        MOV     R3,#(USER_bindingINClusters >> 8) & 0xff
        MOV     R1,#0x15
        LCALL   ??SampleApp_send_in_binding_req?relay
//  363 	}
//  364         
//  365         if( (devState==DEV_END_DEVICE) || (devState==DEV_ROUTER) )
??SampleApp_HandleKeys_3:
        MOV     DPTR,#devState
        MOVX    A,@DPTR
        XRL     A,#0x6
        JZ      ??SampleApp_HandleKeys_4
        MOV     DPTR,#devState
        MOVX    A,@DPTR
        XRL     A,#0x7
        JZ      $+5
        LJMP    ??SampleApp_HandleKeys_5 & 0xFFFF
//  366         {
//  367             SampleApp_SendInMessage();
??SampleApp_HandleKeys_4:
        ; Setup parameters for call to function SampleApp_SendInMessage
        LCALL   ??SampleApp_SendInMessage?relay
        LJMP    ??SampleApp_HandleKeys_5 & 0xFFFF
//  368         }
//  369         
//  370     }
//  371     
//  372     else if ( KEY_NUMBER_FLAG_A &  HAL_KEY_SW_7 )
??SampleApp_HandleKeys_0:
        MOV     DPTR,#KEY_NUMBER_FLAG_A
        MOVX    A,@DPTR
        MOV     C,0xE0 /* A   */.4
        JNC     ??SampleApp_HandleKeys_6
//  373     {      
//  374         if(key_double_flag == 3)
        MOV     DPTR,#key_double_flag
        MOVX    A,@DPTR
        XRL     A,#0x3
        JNZ     ??SampleApp_HandleKeys_7
//  375         {
//  376             SampleApp_send_in_binding_req(SAMPLEAPP_ENDPOINT2,USER_bindingINClusters,1);//绑定2号端点
        ; Setup parameters for call to function SampleApp_send_in_binding_req
        MOV     R4,#0x1
        MOV     R2,#USER_bindingINClusters & 0xff
        MOV     R3,#(USER_bindingINClusters >> 8) & 0xff
        MOV     R1,#0x16
        LCALL   ??SampleApp_send_in_binding_req?relay
//  377 	}
//  378 	
//  379         if( (devState==DEV_END_DEVICE) || (devState==DEV_ROUTER) )
??SampleApp_HandleKeys_7:
        MOV     DPTR,#devState
        MOVX    A,@DPTR
        XRL     A,#0x6
        JZ      ??SampleApp_HandleKeys_8
        MOV     DPTR,#devState
        MOVX    A,@DPTR
        XRL     A,#0x7
        JNZ     ??SampleApp_HandleKeys_5
//  380         {
//  381             SampleApp_SendInMessage();
??SampleApp_HandleKeys_8:
        ; Setup parameters for call to function SampleApp_SendInMessage
        LCALL   ??SampleApp_SendInMessage?relay
        SJMP    ??SampleApp_HandleKeys_5
//  382         }
//  383     }   
//  384     
//  385     else if ( keys&  HAL_KEY_SW_8  )
??SampleApp_HandleKeys_6:
        MOV     A,R7
        MOV     C,0xE0 /* A   */.7
        JNC     ??SampleApp_HandleKeys_5
//  386     {   
//  387         
//  388         
//  389         if(key_double_flag==4)//快速按了4次按键
        MOV     DPTR,#key_double_flag
        MOVX    A,@DPTR
        XRL     A,#0x4
        JNZ     ??SampleApp_HandleKeys_9
//  390         {
//  391             APPLY_TO_JOIN_OF_KEY();//函数中带有闪灯的代码
        ; Setup parameters for call to function APPLY_TO_JOIN_OF_KEY
        LCALL   ??APPLY_TO_JOIN_OF_KEY?relay
        SJMP    ??SampleApp_HandleKeys_10
//  392         }
//  393         
//  394         else if( (key_double_flag == 3) )
??SampleApp_HandleKeys_9:
        MOV     DPTR,#key_double_flag
        MOVX    A,@DPTR
        XRL     A,#0x3
        JNZ     ??SampleApp_HandleKeys_11
//  395         {
//  396             SampleApp_send_in_binding_req(SAMPLEAPP_ENDPOINT,USER_bindingINClusters,1);
        ; Setup parameters for call to function SampleApp_send_in_binding_req
        MOV     R4,#0x1
        MOV     R2,#USER_bindingINClusters & 0xff
        MOV     R3,#(USER_bindingINClusters >> 8) & 0xff
        MOV     R1,#0x14
        LCALL   ??SampleApp_send_in_binding_req?relay
        SJMP    ??SampleApp_HandleKeys_10
//  397         }
//  398         
//  399         else if(key_double_flag==6)
??SampleApp_HandleKeys_11:
        MOV     DPTR,#key_double_flag
        MOVX    A,@DPTR
        XRL     A,#0x6
        JNZ     ??SampleApp_HandleKeys_12
//  400         {
//  401             SampleApp_PermitJoin(240);
        ; Setup parameters for call to function SampleApp_PermitJoin
        MOV     R1,#-0x10
        LCALL   ??SampleApp_PermitJoin?relay
        SJMP    ??SampleApp_HandleKeys_10
//  402         }
//  403         
//  404         else if(key_double_flag==8)
??SampleApp_HandleKeys_12:
        MOV     DPTR,#key_double_flag
        MOVX    A,@DPTR
        XRL     A,#0x8
        JNZ     ??SampleApp_HandleKeys_10
//  405         {
//  406             SampleApp_PermitJoin(0);
        ; Setup parameters for call to function SampleApp_PermitJoin
        MOV     R1,#0x0
        LCALL   ??SampleApp_PermitJoin?relay
//  407         }
//  408         
//  409         
//  410         if(key_hold_flag==1) //一个长按键，则恢复出厂设置
??SampleApp_HandleKeys_10:
        MOV     DPTR,#key_hold_flag
        MOVX    A,@DPTR
        XRL     A,#0x1
        JNZ     ??SampleApp_HandleKeys_5
//  411         {   
//  412             HalLedBlink ( HAL_LED_1, 4, 50, 1000 );
        ; Setup parameters for call to function HalLedBlink
        MOV     R4,#-0x18
        MOV     R5,#0x3
        MOV     R3,#0x32
        MOV     R2,#0x4
        MOV     R1,#0x1
        LCALL   ??HalLedBlink?relay
//  413             RESTORE_TO_FACTORY();
        ; Setup parameters for call to function RESTORE_TO_FACTORY
        LCALL   ??RESTORE_TO_FACTORY?relay
//  414             osal_start_timerEx( SampleApp_TaskID,SAMPLEAPP_RESTORE_EVT,5000 );
        ; Setup parameters for call to function osal_start_timerEx
        MOV     R4,#-0x78
        MOV     R5,#0x13
        MOV     R2,#0x10
        MOV     R3,#0x0
        MOV     DPTR,#SampleApp_TaskID
        MOVX    A,@DPTR
        MOV     R1,A
        LCALL   ??osal_start_timerEx?relay
        MOV     A,R1
//  415         }        
//  416     } 
//  417     
//  418     KEY_NUMBER_FLAG_A = 0;//清除按键标志
??SampleApp_HandleKeys_5:
        MOV     DPTR,#KEY_NUMBER_FLAG_A
        MOV     A,#0x0
        MOVX    @DPTR,A
//  419 }
        MOV     R7,#0x1
        LJMP    ?BANKED_LEAVE_XDATA
        CFI EndBlock cfiBlock3
        REQUIRE _A_P1
//  420 
//  421 
//  422 /*******************************************************************************
//  423 * 函数名称: SampleApp_ProcessBINDINGMessage
//  424 * 函数功能: 与绑定有关的数据的处理
//  425 * 入口参数: pkt：指向接收到的绑定请求信息的指针
//  426 * 出口参数: 无
//  427 * 备注说明: 此函数的函数头固定不变，用户不必操心
//  428 ******************************************************************************/ 

        RSEG BANKED_CODE:CODE:NOROOT(0)
//  429 void SampleApp_ProcessBINDINGMessage(afIncomingMSGPacket_t *pkt)
SampleApp_ProcessBINDINGMessage:
        CFI Block cfiBlock4 Using cfiCommon0
        CFI Function SampleApp_ProcessBINDINGMessage
        CODE
//  430 {
        FUNCALL SampleApp_ProcessBINDINGMessage, open_load_1
        LOCFRAME ISTACK, 0, STACK
        LOCFRAME PSTACK, 0, STACK
        LOCFRAME XSTACK, 9, STACK
        LOCFRAME IOVERLAY, 0, STATIC
        LOCFRAME DOVERLAY, 0, STATIC
        ARGFRAME ISTACK, 0, STACK
        ARGFRAME PSTACK, 0, STACK
        ARGFRAME XSTACK, 9, STACK
        ARGFRAME IOVERLAY, 0, STATIC
        ARGFRAME DOVERLAY, 0, STATIC
        FUNCALL SampleApp_ProcessBINDINGMessage, osal_start_timerEx
        LOCFRAME ISTACK, 0, STACK
        LOCFRAME PSTACK, 0, STACK
        LOCFRAME XSTACK, 9, STACK
        LOCFRAME IOVERLAY, 0, STATIC
        LOCFRAME DOVERLAY, 0, STATIC
        ARGFRAME ISTACK, 0, STACK
        ARGFRAME PSTACK, 0, STACK
        ARGFRAME XSTACK, 9, STACK
        ARGFRAME IOVERLAY, 0, STATIC
        ARGFRAME DOVERLAY, 0, STATIC
        FUNCALL SampleApp_ProcessBINDINGMessage, close_load_1
        LOCFRAME ISTACK, 0, STACK
        LOCFRAME PSTACK, 0, STACK
        LOCFRAME XSTACK, 9, STACK
        LOCFRAME IOVERLAY, 0, STATIC
        LOCFRAME DOVERLAY, 0, STATIC
        ARGFRAME ISTACK, 0, STACK
        ARGFRAME PSTACK, 0, STACK
        ARGFRAME XSTACK, 9, STACK
        ARGFRAME IOVERLAY, 0, STATIC
        ARGFRAME DOVERLAY, 0, STATIC
        FUNCALL SampleApp_ProcessBINDINGMessage, osal_start_timerEx
        LOCFRAME ISTACK, 0, STACK
        LOCFRAME PSTACK, 0, STACK
        LOCFRAME XSTACK, 9, STACK
        LOCFRAME IOVERLAY, 0, STATIC
        LOCFRAME DOVERLAY, 0, STATIC
        ARGFRAME ISTACK, 0, STACK
        ARGFRAME PSTACK, 0, STACK
        ARGFRAME XSTACK, 9, STACK
        ARGFRAME IOVERLAY, 0, STATIC
        ARGFRAME DOVERLAY, 0, STATIC
        FUNCALL SampleApp_ProcessBINDINGMessage, open_load_1
        LOCFRAME ISTACK, 0, STACK
        LOCFRAME PSTACK, 0, STACK
        LOCFRAME XSTACK, 9, STACK
        LOCFRAME IOVERLAY, 0, STATIC
        LOCFRAME DOVERLAY, 0, STATIC
        ARGFRAME ISTACK, 0, STACK
        ARGFRAME PSTACK, 0, STACK
        ARGFRAME XSTACK, 9, STACK
        ARGFRAME IOVERLAY, 0, STATIC
        ARGFRAME DOVERLAY, 0, STATIC
        FUNCALL SampleApp_ProcessBINDINGMessage, osal_start_timerEx
        LOCFRAME ISTACK, 0, STACK
        LOCFRAME PSTACK, 0, STACK
        LOCFRAME XSTACK, 9, STACK
        LOCFRAME IOVERLAY, 0, STATIC
        LOCFRAME DOVERLAY, 0, STATIC
        ARGFRAME ISTACK, 0, STACK
        ARGFRAME PSTACK, 0, STACK
        ARGFRAME XSTACK, 9, STACK
        ARGFRAME IOVERLAY, 0, STATIC
        ARGFRAME DOVERLAY, 0, STATIC
        FUNCALL SampleApp_ProcessBINDINGMessage, close_load_1
        LOCFRAME ISTACK, 0, STACK
        LOCFRAME PSTACK, 0, STACK
        LOCFRAME XSTACK, 9, STACK
        LOCFRAME IOVERLAY, 0, STATIC
        LOCFRAME DOVERLAY, 0, STATIC
        ARGFRAME ISTACK, 0, STACK
        ARGFRAME PSTACK, 0, STACK
        ARGFRAME XSTACK, 9, STACK
        ARGFRAME IOVERLAY, 0, STATIC
        ARGFRAME DOVERLAY, 0, STATIC
        FUNCALL SampleApp_ProcessBINDINGMessage, osal_start_timerEx
        LOCFRAME ISTACK, 0, STACK
        LOCFRAME PSTACK, 0, STACK
        LOCFRAME XSTACK, 9, STACK
        LOCFRAME IOVERLAY, 0, STATIC
        LOCFRAME DOVERLAY, 0, STATIC
        ARGFRAME ISTACK, 0, STACK
        ARGFRAME PSTACK, 0, STACK
        ARGFRAME XSTACK, 9, STACK
        ARGFRAME IOVERLAY, 0, STATIC
        ARGFRAME DOVERLAY, 0, STATIC
        FUNCALL SampleApp_ProcessBINDINGMessage, open_load_2
        LOCFRAME ISTACK, 0, STACK
        LOCFRAME PSTACK, 0, STACK
        LOCFRAME XSTACK, 9, STACK
        LOCFRAME IOVERLAY, 0, STATIC
        LOCFRAME DOVERLAY, 0, STATIC
        ARGFRAME ISTACK, 0, STACK
        ARGFRAME PSTACK, 0, STACK
        ARGFRAME XSTACK, 9, STACK
        ARGFRAME IOVERLAY, 0, STATIC
        ARGFRAME DOVERLAY, 0, STATIC
        FUNCALL SampleApp_ProcessBINDINGMessage, osal_start_timerEx
        LOCFRAME ISTACK, 0, STACK
        LOCFRAME PSTACK, 0, STACK
        LOCFRAME XSTACK, 9, STACK
        LOCFRAME IOVERLAY, 0, STATIC
        LOCFRAME DOVERLAY, 0, STATIC
        ARGFRAME ISTACK, 0, STACK
        ARGFRAME PSTACK, 0, STACK
        ARGFRAME XSTACK, 9, STACK
        ARGFRAME IOVERLAY, 0, STATIC
        ARGFRAME DOVERLAY, 0, STATIC
        FUNCALL SampleApp_ProcessBINDINGMessage, close_load_2
        LOCFRAME ISTACK, 0, STACK
        LOCFRAME PSTACK, 0, STACK
        LOCFRAME XSTACK, 9, STACK
        LOCFRAME IOVERLAY, 0, STATIC
        LOCFRAME DOVERLAY, 0, STATIC
        ARGFRAME ISTACK, 0, STACK
        ARGFRAME PSTACK, 0, STACK
        ARGFRAME XSTACK, 9, STACK
        ARGFRAME IOVERLAY, 0, STATIC
        ARGFRAME DOVERLAY, 0, STATIC
        FUNCALL SampleApp_ProcessBINDINGMessage, osal_start_timerEx
        LOCFRAME ISTACK, 0, STACK
        LOCFRAME PSTACK, 0, STACK
        LOCFRAME XSTACK, 9, STACK
        LOCFRAME IOVERLAY, 0, STATIC
        LOCFRAME DOVERLAY, 0, STATIC
        ARGFRAME ISTACK, 0, STACK
        ARGFRAME PSTACK, 0, STACK
        ARGFRAME XSTACK, 9, STACK
        ARGFRAME IOVERLAY, 0, STATIC
        ARGFRAME DOVERLAY, 0, STATIC
        FUNCALL SampleApp_ProcessBINDINGMessage, open_load_2
        LOCFRAME ISTACK, 0, STACK
        LOCFRAME PSTACK, 0, STACK
        LOCFRAME XSTACK, 9, STACK
        LOCFRAME IOVERLAY, 0, STATIC
        LOCFRAME DOVERLAY, 0, STATIC
        ARGFRAME ISTACK, 0, STACK
        ARGFRAME PSTACK, 0, STACK
        ARGFRAME XSTACK, 9, STACK
        ARGFRAME IOVERLAY, 0, STATIC
        ARGFRAME DOVERLAY, 0, STATIC
        FUNCALL SampleApp_ProcessBINDINGMessage, osal_start_timerEx
        LOCFRAME ISTACK, 0, STACK
        LOCFRAME PSTACK, 0, STACK
        LOCFRAME XSTACK, 9, STACK
        LOCFRAME IOVERLAY, 0, STATIC
        LOCFRAME DOVERLAY, 0, STATIC
        ARGFRAME ISTACK, 0, STACK
        ARGFRAME PSTACK, 0, STACK
        ARGFRAME XSTACK, 9, STACK
        ARGFRAME IOVERLAY, 0, STATIC
        ARGFRAME DOVERLAY, 0, STATIC
        FUNCALL SampleApp_ProcessBINDINGMessage, close_load_2
        LOCFRAME ISTACK, 0, STACK
        LOCFRAME PSTACK, 0, STACK
        LOCFRAME XSTACK, 9, STACK
        LOCFRAME IOVERLAY, 0, STATIC
        LOCFRAME DOVERLAY, 0, STATIC
        ARGFRAME ISTACK, 0, STACK
        ARGFRAME PSTACK, 0, STACK
        ARGFRAME XSTACK, 9, STACK
        ARGFRAME IOVERLAY, 0, STATIC
        ARGFRAME DOVERLAY, 0, STATIC
        FUNCALL SampleApp_ProcessBINDINGMessage, osal_start_timerEx
        LOCFRAME ISTACK, 0, STACK
        LOCFRAME PSTACK, 0, STACK
        LOCFRAME XSTACK, 9, STACK
        LOCFRAME IOVERLAY, 0, STATIC
        LOCFRAME DOVERLAY, 0, STATIC
        ARGFRAME ISTACK, 0, STACK
        ARGFRAME PSTACK, 0, STACK
        ARGFRAME XSTACK, 9, STACK
        ARGFRAME IOVERLAY, 0, STATIC
        ARGFRAME DOVERLAY, 0, STATIC
        FUNCALL SampleApp_ProcessBINDINGMessage, SampleApp_SendInMessage
        LOCFRAME ISTACK, 0, STACK
        LOCFRAME PSTACK, 0, STACK
        LOCFRAME XSTACK, 9, STACK
        LOCFRAME IOVERLAY, 0, STATIC
        LOCFRAME DOVERLAY, 0, STATIC
        ARGFRAME ISTACK, 0, STACK
        ARGFRAME PSTACK, 0, STACK
        ARGFRAME XSTACK, 9, STACK
        ARGFRAME IOVERLAY, 0, STATIC
        ARGFRAME DOVERLAY, 0, STATIC
        MOV     A,#-0x9
        LCALL   ?BANKED_ENTER_XDATA
        CFI DPH0 load(1, XDATA, add(CFA_XSP16, literal(-1)))
        CFI DPL0 load(1, XDATA, add(CFA_XSP16, literal(-2)))
        CFI ?BRET_EXT load(1, XDATA, add(CFA_XSP16, literal(-3)))
        CFI ?RET_HIGH load(1, XDATA, add(CFA_XSP16, literal(-4)))
        CFI ?RET_LOW load(1, XDATA, add(CFA_XSP16, literal(-5)))
        CFI R7 load(1, XDATA, add(CFA_XSP16, literal(-6)))
        CFI V0 load(1, XDATA, add(CFA_XSP16, literal(-7)))
        CFI VB load(1, XDATA, add(CFA_XSP16, literal(-8)))
        CFI R6 load(1, XDATA, add(CFA_XSP16, literal(-9)))
        CFI CFA_SP SP+0
        CFI CFA_XSP16 add(XSP16, 9)
        ; Saved register size: 9
        ; Auto size: 0
        MOV     A,R2
        MOV     R6,A
        MOV     A,R3
        MOV     R7,A
//  431 if(pkt->endPoint == SAMPLEAPP_ENDPOINT1)
        MOV     A,R6
        ADD     A,#0x14
        MOV     DPL,A
        MOV     A,R7
        ADDC    A,#0x0
        MOV     DPH,A
        MOVX    A,@DPTR
        XRL     A,#0x15
        JZ      $+5
        LJMP    ??SampleApp_ProcessBINDINGMessage_0 & 0xFFFF
//  432   {
//  433   // HalLedBlink ( HAL_LED_1, 1, 50, 500 );
//  434     
//  435    if(pkt->cmd.Data[0]==1)
        MOV     A,R6
        ADD     A,#0x22
        MOV     DPL,A
        MOV     A,R7
        ADDC    A,#0x0
        MOV     DPH,A
        MOVX    A,@DPTR
        MOV     R0,A
        INC     DPTR
        MOVX    A,@DPTR
        MOV     DPH,A
        MOV     DPL,R0
        MOVX    A,@DPTR
        XRL     A,#0x1
        JNZ     ??SampleApp_ProcessBINDINGMessage_1
//  436    {
//  437       open_load_1();
        ; Setup parameters for call to function open_load_1
        LCALL   ??open_load_1?relay
//  438       osal_start_timerEx( UserApp_TaskID,HOLD_LOAD_1_EVT,RELAY_HOLD_TIME );   
        ; Setup parameters for call to function osal_start_timerEx
        MOV     R4,#0x19
        MOV     R5,#0x0
        MOV     R2,#0x0
        MOV     R3,#0x2
        MOV     DPTR,#UserApp_TaskID
        MOVX    A,@DPTR
        MOV     R1,A
        LCALL   ??osal_start_timerEx?relay
        MOV     A,R1
        LJMP    ??SampleApp_ProcessBINDINGMessage_2 & 0xFFFF
//  439      
//  440    }
//  441    
//  442    else if(pkt->cmd.Data[0]==0)
??SampleApp_ProcessBINDINGMessage_1:
        MOV     A,R6
        ADD     A,#0x22
        MOV     DPL,A
        MOV     A,R7
        ADDC    A,#0x0
        MOV     DPH,A
        MOVX    A,@DPTR
        MOV     R0,A
        INC     DPTR
        MOVX    A,@DPTR
        MOV     DPH,A
        MOV     DPL,R0
        MOVX    A,@DPTR
        JNZ     ??SampleApp_ProcessBINDINGMessage_3
//  443    {
//  444       close_load_1();
        ; Setup parameters for call to function close_load_1
        LCALL   ??close_load_1?relay
//  445       osal_start_timerEx( UserApp_TaskID,HOLD_LOAD_1_EVT,RELAY_HOLD_TIME );  
        ; Setup parameters for call to function osal_start_timerEx
        MOV     R4,#0x19
        MOV     R5,#0x0
        MOV     R2,#0x0
        MOV     R3,#0x2
        MOV     DPTR,#UserApp_TaskID
        MOVX    A,@DPTR
        MOV     R1,A
        LCALL   ??osal_start_timerEx?relay
        MOV     A,R1
        LJMP    ??SampleApp_ProcessBINDINGMessage_2 & 0xFFFF
//  446    
//  447    }
//  448      else if(pkt->cmd.Data[0]==2)
??SampleApp_ProcessBINDINGMessage_3:
        MOV     A,R6
        ADD     A,#0x22
        MOV     DPL,A
        MOV     A,R7
        ADDC    A,#0x0
        MOV     DPH,A
        MOVX    A,@DPTR
        MOV     R0,A
        INC     DPTR
        MOVX    A,@DPTR
        MOV     DPH,A
        MOV     DPL,R0
        MOVX    A,@DPTR
        XRL     A,#0x2
        JZ      $+5
        LJMP    ??SampleApp_ProcessBINDINGMessage_2 & 0xFFFF
//  449    {
//  450       //  if ((MONZ_1 == 1)&&(load_1_flag == 0))//检测是否在线的信号，如果接了灯 灯是关的 这个值为高电平 如果灯是开的为低电平 如果没有接等也为低电平 所以要判断这个值是否为高才能去控制他开，不然会浪费功耗。
//  451      if (load_1_flag == 0) 
        MOV     DPTR,#load_1_flag
        MOVX    A,@DPTR
        JNZ     ??SampleApp_ProcessBINDINGMessage_4
//  452      {
//  453          open_load_1();
        ; Setup parameters for call to function open_load_1
        LCALL   ??open_load_1?relay
//  454          osal_start_timerEx( UserApp_TaskID,HOLD_LOAD_1_EVT,RELAY_HOLD_TIME );   
        ; Setup parameters for call to function osal_start_timerEx
        MOV     R4,#0x19
        MOV     R5,#0x0
        MOV     R2,#0x0
        MOV     R3,#0x2
        MOV     DPTR,#UserApp_TaskID
        MOVX    A,@DPTR
        MOV     R1,A
        LCALL   ??osal_start_timerEx?relay
        MOV     A,R1
        LJMP    ??SampleApp_ProcessBINDINGMessage_2 & 0xFFFF
//  455        
//  456        
//  457        } 
//  458        
//  459       else
//  460        {
//  461          close_load_1();
??SampleApp_ProcessBINDINGMessage_4:
        ; Setup parameters for call to function close_load_1
        LCALL   ??close_load_1?relay
//  462          osal_start_timerEx( UserApp_TaskID,HOLD_LOAD_1_EVT,RELAY_HOLD_TIME );  
        ; Setup parameters for call to function osal_start_timerEx
        MOV     R4,#0x19
        MOV     R5,#0x0
        MOV     R2,#0x0
        MOV     R3,#0x2
        MOV     DPTR,#UserApp_TaskID
        MOVX    A,@DPTR
        MOV     R1,A
        LCALL   ??osal_start_timerEx?relay
        MOV     A,R1
        LJMP    ??SampleApp_ProcessBINDINGMessage_2 & 0xFFFF
//  463   
//  464        }
//  465      
//  466    }
//  467 
//  468   }
//  469   
//  470   else if(pkt->endPoint == SAMPLEAPP_ENDPOINT2)
??SampleApp_ProcessBINDINGMessage_0:
        MOV     A,R6
        ADD     A,#0x14
        MOV     DPL,A
        MOV     A,R7
        ADDC    A,#0x0
        MOV     DPH,A
        MOVX    A,@DPTR
        XRL     A,#0x16
        JZ      $+5
        LJMP    ??SampleApp_ProcessBINDINGMessage_2 & 0xFFFF
//  471   {
//  472   //  HalLedBlink ( HAL_LED_2, 1, 50, 500 );
//  473    if(pkt->cmd.Data[0]==1)
        MOV     A,R6
        ADD     A,#0x22
        MOV     DPL,A
        MOV     A,R7
        ADDC    A,#0x0
        MOV     DPH,A
        MOVX    A,@DPTR
        MOV     R0,A
        INC     DPTR
        MOVX    A,@DPTR
        MOV     DPH,A
        MOV     DPL,R0
        MOVX    A,@DPTR
        XRL     A,#0x1
        JNZ     ??SampleApp_ProcessBINDINGMessage_5
//  474    {
//  475          open_load_2();
        ; Setup parameters for call to function open_load_2
        LCALL   ??open_load_2?relay
//  476          osal_start_timerEx( UserApp_TaskID,HOLD_LOAD_2_EVT,RELAY_HOLD_TIME );   
        ; Setup parameters for call to function osal_start_timerEx
        MOV     R4,#0x19
        MOV     R5,#0x0
        MOV     R2,#0x0
        MOV     R3,#0x4
        MOV     DPTR,#UserApp_TaskID
        MOVX    A,@DPTR
        MOV     R1,A
        LCALL   ??osal_start_timerEx?relay
        MOV     A,R1
        SJMP    ??SampleApp_ProcessBINDINGMessage_2
//  477         
//  478    }
//  479    else if(pkt->cmd.Data[0]==0)
??SampleApp_ProcessBINDINGMessage_5:
        MOV     A,R6
        ADD     A,#0x22
        MOV     DPL,A
        MOV     A,R7
        ADDC    A,#0x0
        MOV     DPH,A
        MOVX    A,@DPTR
        MOV     R0,A
        INC     DPTR
        MOVX    A,@DPTR
        MOV     DPH,A
        MOV     DPL,R0
        MOVX    A,@DPTR
        JNZ     ??SampleApp_ProcessBINDINGMessage_6
//  480    {
//  481           close_load_2();
        ; Setup parameters for call to function close_load_2
        LCALL   ??close_load_2?relay
//  482           osal_start_timerEx( UserApp_TaskID,HOLD_LOAD_2_EVT,RELAY_HOLD_TIME );      
        ; Setup parameters for call to function osal_start_timerEx
        MOV     R4,#0x19
        MOV     R5,#0x0
        MOV     R2,#0x0
        MOV     R3,#0x4
        MOV     DPTR,#UserApp_TaskID
        MOVX    A,@DPTR
        MOV     R1,A
        LCALL   ??osal_start_timerEx?relay
        MOV     A,R1
        SJMP    ??SampleApp_ProcessBINDINGMessage_2
//  483           
//  484    }
//  485      else if(pkt->cmd.Data[0]==2)
??SampleApp_ProcessBINDINGMessage_6:
        MOV     A,R6
        ADD     A,#0x22
        MOV     DPL,A
        MOV     A,R7
        ADDC    A,#0x0
        MOV     DPH,A
        MOVX    A,@DPTR
        MOV     R0,A
        INC     DPTR
        MOVX    A,@DPTR
        MOV     DPH,A
        MOV     DPL,R0
        MOVX    A,@DPTR
        XRL     A,#0x2
        JNZ     ??SampleApp_ProcessBINDINGMessage_2
//  486    {
//  487      // if((MONZ_2 == 1)&&(load_2_flag ==0))//检测是否在线的信号，如果接了灯 灯是关的 这个值为高电平 如果灯是开的为低电平 如果没有接等也为低电平 所以要判断这个值是否为高才能去控制他开，不然会浪费功耗。
//  488       if (load_2_flag == 0)   
        MOV     DPTR,#load_2_flag
        MOVX    A,@DPTR
        JNZ     ??SampleApp_ProcessBINDINGMessage_7
//  489      {
//  490          open_load_2();
        ; Setup parameters for call to function open_load_2
        LCALL   ??open_load_2?relay
//  491          osal_start_timerEx( UserApp_TaskID,HOLD_LOAD_2_EVT,RELAY_HOLD_TIME );   
        ; Setup parameters for call to function osal_start_timerEx
        MOV     R4,#0x19
        MOV     R5,#0x0
        MOV     R2,#0x0
        MOV     R3,#0x4
        MOV     DPTR,#UserApp_TaskID
        MOVX    A,@DPTR
        MOV     R1,A
        LCALL   ??osal_start_timerEx?relay
        MOV     A,R1
        SJMP    ??SampleApp_ProcessBINDINGMessage_2
//  492          
//  493        } 
//  494        
//  495       else
//  496        {
//  497          close_load_2();
??SampleApp_ProcessBINDINGMessage_7:
        ; Setup parameters for call to function close_load_2
        LCALL   ??close_load_2?relay
//  498          osal_start_timerEx( UserApp_TaskID,HOLD_LOAD_2_EVT,RELAY_HOLD_TIME );      
        ; Setup parameters for call to function osal_start_timerEx
        MOV     R4,#0x19
        MOV     R5,#0x0
        MOV     R2,#0x0
        MOV     R3,#0x4
        MOV     DPTR,#UserApp_TaskID
        MOVX    A,@DPTR
        MOV     R1,A
        LCALL   ??osal_start_timerEx?relay
        MOV     A,R1
//  499        }  
//  500    }
//  501 
//  502   }  
//  503   
//  504   
//  505     if( (devState==DEV_END_DEVICE) || (devState==DEV_ROUTER) )
??SampleApp_ProcessBINDINGMessage_2:
        MOV     DPTR,#devState
        MOVX    A,@DPTR
        XRL     A,#0x6
        JZ      ??SampleApp_ProcessBINDINGMessage_8
        MOV     DPTR,#devState
        MOVX    A,@DPTR
        XRL     A,#0x7
        JNZ     ??SampleApp_ProcessBINDINGMessage_9
//  506          SampleApp_SendInMessage();
??SampleApp_ProcessBINDINGMessage_8:
        ; Setup parameters for call to function SampleApp_SendInMessage
        LCALL   ??SampleApp_SendInMessage?relay
//  507     
//  508 }
??SampleApp_ProcessBINDINGMessage_9:
        MOV     R7,#0x1
        LJMP    ?BANKED_LEAVE_XDATA
        CFI EndBlock cfiBlock4
//  509 
//  510 
//  511 /*******************************************************************************
//  512 * 函数名称: USER_APP_JOIN_MSG
//  513 * 函数功能: 入网后的回调函数，用于处理用户的加入网络后需要处理的操作代码
//  514 * 入口参数: 无
//  515 * 出口参数: 无
//  516 * 备注说明: 无
//  517 ******************************************************************************/ 

        RSEG BANKED_CODE:CODE:NOROOT(0)
//  518 void USER_APP_JOIN_MSG(void)
USER_APP_JOIN_MSG:
        CFI Block cfiBlock5 Using cfiCommon0
        CFI Function USER_APP_JOIN_MSG
        CODE
//  519 {
        FUNCALL USER_APP_JOIN_MSG, HalLedBlink
        LOCFRAME ISTACK, 0, STACK
        LOCFRAME PSTACK, 0, STACK
        LOCFRAME XSTACK, 10, STACK
        LOCFRAME IOVERLAY, 0, STATIC
        LOCFRAME DOVERLAY, 0, STATIC
        ARGFRAME ISTACK, 0, STACK
        ARGFRAME PSTACK, 0, STACK
        ARGFRAME XSTACK, 10, STACK
        ARGFRAME IOVERLAY, 0, STATIC
        ARGFRAME DOVERLAY, 0, STATIC
        FUNCALL USER_APP_JOIN_MSG, SampleApp_GetShortAddr
        LOCFRAME ISTACK, 0, STACK
        LOCFRAME PSTACK, 0, STACK
        LOCFRAME XSTACK, 10, STACK
        LOCFRAME IOVERLAY, 0, STATIC
        LOCFRAME DOVERLAY, 0, STATIC
        ARGFRAME ISTACK, 0, STACK
        ARGFRAME PSTACK, 0, STACK
        ARGFRAME XSTACK, 10, STACK
        ARGFRAME IOVERLAY, 0, STATIC
        ARGFRAME DOVERLAY, 0, STATIC
        FUNCALL USER_APP_JOIN_MSG, osal_mem_free
        LOCFRAME ISTACK, 0, STACK
        LOCFRAME PSTACK, 0, STACK
        LOCFRAME XSTACK, 10, STACK
        LOCFRAME IOVERLAY, 0, STATIC
        LOCFRAME DOVERLAY, 0, STATIC
        ARGFRAME ISTACK, 0, STACK
        ARGFRAME PSTACK, 0, STACK
        ARGFRAME XSTACK, 10, STACK
        ARGFRAME IOVERLAY, 0, STATIC
        ARGFRAME DOVERLAY, 0, STATIC
        FUNCALL USER_APP_JOIN_MSG, osal_start_timerEx
        LOCFRAME ISTACK, 0, STACK
        LOCFRAME PSTACK, 0, STACK
        LOCFRAME XSTACK, 10, STACK
        LOCFRAME IOVERLAY, 0, STATIC
        LOCFRAME DOVERLAY, 0, STATIC
        ARGFRAME ISTACK, 0, STACK
        ARGFRAME PSTACK, 0, STACK
        ARGFRAME XSTACK, 10, STACK
        ARGFRAME IOVERLAY, 0, STATIC
        ARGFRAME DOVERLAY, 0, STATIC
        MOV     A,#-0xa
        LCALL   ?BANKED_ENTER_XDATA
        CFI DPH0 load(1, XDATA, add(CFA_XSP16, literal(-1)))
        CFI DPL0 load(1, XDATA, add(CFA_XSP16, literal(-2)))
        CFI ?BRET_EXT load(1, XDATA, add(CFA_XSP16, literal(-3)))
        CFI ?RET_HIGH load(1, XDATA, add(CFA_XSP16, literal(-4)))
        CFI ?RET_LOW load(1, XDATA, add(CFA_XSP16, literal(-5)))
        CFI R7 load(1, XDATA, add(CFA_XSP16, literal(-6)))
        CFI V1 load(1, XDATA, add(CFA_XSP16, literal(-7)))
        CFI V0 load(1, XDATA, add(CFA_XSP16, literal(-8)))
        CFI VB load(1, XDATA, add(CFA_XSP16, literal(-9)))
        CFI R6 load(1, XDATA, add(CFA_XSP16, literal(-10)))
        CFI CFA_SP SP+0
        CFI CFA_XSP16 add(XSP16, 10)
        ; Saved register size: 10
        ; Auto size: 0
//  520     uint8 *Sample_Cmd_shorAddr;
//  521     
//  522     HalLedBlink ( HAL_LED_1, 1, 99, 2500 );//用BLINK模拟灯亮两秒后熄灭  
        ; Setup parameters for call to function HalLedBlink
        MOV     R4,#-0x3c
        MOV     R5,#0x9
        MOV     R3,#0x63
        MOV     R2,#0x1
        MOV     R1,#0x1
        LCALL   ??HalLedBlink?relay
//  523     
//  524     Sample_Cmd_shorAddr=SampleApp_GetShortAddr();
        ; Setup parameters for call to function SampleApp_GetShortAddr
        LCALL   ??SampleApp_GetShortAddr?relay
        MOV     ?V0 + 0,R2
        MOV     ?V0 + 1,R3
        MOV     R6,?V0 + 0
        MOV     R7,?V0 + 1
//  525     SHORT_ADRESS[0]=*Sample_Cmd_shorAddr++;
        MOV     DPL,R6
        MOV     DPH,R7
        MOVX    A,@DPTR
        MOV     DPTR,#SHORT_ADRESS
        MOVX    @DPTR,A
        MOV     DPL,R6
        MOV     DPH,R7
        INC     DPTR
        MOV     R6,DPL
        MOV     R7,DPH
//  526     SHORT_ADRESS[1]=*Sample_Cmd_shorAddr++;
        MOV     DPL,R6
        MOV     DPH,R7
        MOVX    A,@DPTR
        MOV     DPTR,#SHORT_ADRESS + 1
        MOVX    @DPTR,A
        MOV     DPL,R6
        MOV     DPH,R7
        INC     DPTR
        MOV     R6,DPL
        MOV     R7,DPH
//  527     SHORT_ADRESS[2]=*Sample_Cmd_shorAddr++;
        MOV     DPL,R6
        MOV     DPH,R7
        MOVX    A,@DPTR
        MOV     DPTR,#SHORT_ADRESS + 2
        MOVX    @DPTR,A
        MOV     DPL,R6
        MOV     DPH,R7
        INC     DPTR
        MOV     R6,DPL
        MOV     R7,DPH
//  528     SHORT_ADRESS[3]=*Sample_Cmd_shorAddr;
        MOV     DPL,R6
        MOV     DPH,R7
        MOVX    A,@DPTR
        MOV     DPTR,#SHORT_ADRESS + 3
        MOVX    @DPTR,A
//  529     osal_mem_free( shortddr_mem );
        ; Setup parameters for call to function osal_mem_free
        MOV     DPTR,#shortddr_mem
        MOVX    A,@DPTR
        MOV     R2,A
        INC     DPTR
        MOVX    A,@DPTR
        MOV     R3,A
        LCALL   ??osal_mem_free?relay
//  530     
//  531     // 保证在发送上线消息RS的后面紧跟一条DS的初始数据，5S时间--------
//  532     osal_start_timerEx( UserApp_TaskID, USER_SEND_DS_MESSAGE_EVT,5000); 
        ; Setup parameters for call to function osal_start_timerEx
        MOV     R4,#-0x78
        MOV     R5,#0x13
        MOV     R2,#0x2
        MOV     R3,#0x0
        MOV     DPTR,#UserApp_TaskID
        MOVX    A,@DPTR
        MOV     R1,A
        LCALL   ??osal_start_timerEx?relay
        MOV     A,R1
//  533     
//  534     
//  535 }
        MOV     R7,#0x2
        LJMP    ?BANKED_LEAVE_XDATA
        CFI EndBlock cfiBlock5
//  536 
//  537 
//  538 
//  539 /*******************************************************************************
//  540 * 函数名称: USER_APP_COMMAND
//  541 * 函数功能: 收到命令后的处理函数
//  542 * 入口参数: user_app_data 上位机发过来的有效数据 字母后面开始
//  543 str：需要填入的返回数据数组
//  544 * 出口参数: 无
//  545 * 备注说明: 无
//  546 ******************************************************************************/ 

        RSEG BANKED_CODE:CODE:NOROOT(0)
//  547 uint8 USER_APP_COMMAND(uint8 *user_app_data,uint8 *str)
USER_APP_COMMAND:
        CFI Block cfiBlock6 Using cfiCommon0
        CFI Function USER_APP_COMMAND
        CODE
//  548 {
        FUNCALL USER_APP_COMMAND, open_load_1
        LOCFRAME ISTACK, 0, STACK
        LOCFRAME PSTACK, 0, STACK
        LOCFRAME XSTACK, 11, STACK
        LOCFRAME IOVERLAY, 0, STATIC
        LOCFRAME DOVERLAY, 0, STATIC
        ARGFRAME ISTACK, 0, STACK
        ARGFRAME PSTACK, 0, STACK
        ARGFRAME XSTACK, 11, STACK
        ARGFRAME IOVERLAY, 0, STATIC
        ARGFRAME DOVERLAY, 0, STATIC
        FUNCALL USER_APP_COMMAND, osal_start_timerEx
        LOCFRAME ISTACK, 0, STACK
        LOCFRAME PSTACK, 0, STACK
        LOCFRAME XSTACK, 11, STACK
        LOCFRAME IOVERLAY, 0, STATIC
        LOCFRAME DOVERLAY, 0, STATIC
        ARGFRAME ISTACK, 0, STACK
        ARGFRAME PSTACK, 0, STACK
        ARGFRAME XSTACK, 11, STACK
        ARGFRAME IOVERLAY, 0, STATIC
        ARGFRAME DOVERLAY, 0, STATIC
        FUNCALL USER_APP_COMMAND, close_load_1
        LOCFRAME ISTACK, 0, STACK
        LOCFRAME PSTACK, 0, STACK
        LOCFRAME XSTACK, 11, STACK
        LOCFRAME IOVERLAY, 0, STATIC
        LOCFRAME DOVERLAY, 0, STATIC
        ARGFRAME ISTACK, 0, STACK
        ARGFRAME PSTACK, 0, STACK
        ARGFRAME XSTACK, 11, STACK
        ARGFRAME IOVERLAY, 0, STATIC
        ARGFRAME DOVERLAY, 0, STATIC
        FUNCALL USER_APP_COMMAND, osal_start_timerEx
        LOCFRAME ISTACK, 0, STACK
        LOCFRAME PSTACK, 0, STACK
        LOCFRAME XSTACK, 11, STACK
        LOCFRAME IOVERLAY, 0, STATIC
        LOCFRAME DOVERLAY, 0, STATIC
        ARGFRAME ISTACK, 0, STACK
        ARGFRAME PSTACK, 0, STACK
        ARGFRAME XSTACK, 11, STACK
        ARGFRAME IOVERLAY, 0, STATIC
        ARGFRAME DOVERLAY, 0, STATIC
        FUNCALL USER_APP_COMMAND, open_load_1
        LOCFRAME ISTACK, 0, STACK
        LOCFRAME PSTACK, 0, STACK
        LOCFRAME XSTACK, 11, STACK
        LOCFRAME IOVERLAY, 0, STATIC
        LOCFRAME DOVERLAY, 0, STATIC
        ARGFRAME ISTACK, 0, STACK
        ARGFRAME PSTACK, 0, STACK
        ARGFRAME XSTACK, 11, STACK
        ARGFRAME IOVERLAY, 0, STATIC
        ARGFRAME DOVERLAY, 0, STATIC
        FUNCALL USER_APP_COMMAND, osal_start_timerEx
        LOCFRAME ISTACK, 0, STACK
        LOCFRAME PSTACK, 0, STACK
        LOCFRAME XSTACK, 11, STACK
        LOCFRAME IOVERLAY, 0, STATIC
        LOCFRAME DOVERLAY, 0, STATIC
        ARGFRAME ISTACK, 0, STACK
        ARGFRAME PSTACK, 0, STACK
        ARGFRAME XSTACK, 11, STACK
        ARGFRAME IOVERLAY, 0, STATIC
        ARGFRAME DOVERLAY, 0, STATIC
        FUNCALL USER_APP_COMMAND, close_load_1
        LOCFRAME ISTACK, 0, STACK
        LOCFRAME PSTACK, 0, STACK
        LOCFRAME XSTACK, 11, STACK
        LOCFRAME IOVERLAY, 0, STATIC
        LOCFRAME DOVERLAY, 0, STATIC
        ARGFRAME ISTACK, 0, STACK
        ARGFRAME PSTACK, 0, STACK
        ARGFRAME XSTACK, 11, STACK
        ARGFRAME IOVERLAY, 0, STATIC
        ARGFRAME DOVERLAY, 0, STATIC
        FUNCALL USER_APP_COMMAND, osal_start_timerEx
        LOCFRAME ISTACK, 0, STACK
        LOCFRAME PSTACK, 0, STACK
        LOCFRAME XSTACK, 11, STACK
        LOCFRAME IOVERLAY, 0, STATIC
        LOCFRAME DOVERLAY, 0, STATIC
        ARGFRAME ISTACK, 0, STACK
        ARGFRAME PSTACK, 0, STACK
        ARGFRAME XSTACK, 11, STACK
        ARGFRAME IOVERLAY, 0, STATIC
        ARGFRAME DOVERLAY, 0, STATIC
        FUNCALL USER_APP_COMMAND, open_load_2
        LOCFRAME ISTACK, 0, STACK
        LOCFRAME PSTACK, 0, STACK
        LOCFRAME XSTACK, 11, STACK
        LOCFRAME IOVERLAY, 0, STATIC
        LOCFRAME DOVERLAY, 0, STATIC
        ARGFRAME ISTACK, 0, STACK
        ARGFRAME PSTACK, 0, STACK
        ARGFRAME XSTACK, 11, STACK
        ARGFRAME IOVERLAY, 0, STATIC
        ARGFRAME DOVERLAY, 0, STATIC
        FUNCALL USER_APP_COMMAND, osal_start_timerEx
        LOCFRAME ISTACK, 0, STACK
        LOCFRAME PSTACK, 0, STACK
        LOCFRAME XSTACK, 11, STACK
        LOCFRAME IOVERLAY, 0, STATIC
        LOCFRAME DOVERLAY, 0, STATIC
        ARGFRAME ISTACK, 0, STACK
        ARGFRAME PSTACK, 0, STACK
        ARGFRAME XSTACK, 11, STACK
        ARGFRAME IOVERLAY, 0, STATIC
        ARGFRAME DOVERLAY, 0, STATIC
        FUNCALL USER_APP_COMMAND, close_load_2
        LOCFRAME ISTACK, 0, STACK
        LOCFRAME PSTACK, 0, STACK
        LOCFRAME XSTACK, 11, STACK
        LOCFRAME IOVERLAY, 0, STATIC
        LOCFRAME DOVERLAY, 0, STATIC
        ARGFRAME ISTACK, 0, STACK
        ARGFRAME PSTACK, 0, STACK
        ARGFRAME XSTACK, 11, STACK
        ARGFRAME IOVERLAY, 0, STATIC
        ARGFRAME DOVERLAY, 0, STATIC
        FUNCALL USER_APP_COMMAND, osal_start_timerEx
        LOCFRAME ISTACK, 0, STACK
        LOCFRAME PSTACK, 0, STACK
        LOCFRAME XSTACK, 11, STACK
        LOCFRAME IOVERLAY, 0, STATIC
        LOCFRAME DOVERLAY, 0, STATIC
        ARGFRAME ISTACK, 0, STACK
        ARGFRAME PSTACK, 0, STACK
        ARGFRAME XSTACK, 11, STACK
        ARGFRAME IOVERLAY, 0, STATIC
        ARGFRAME DOVERLAY, 0, STATIC
        FUNCALL USER_APP_COMMAND, open_load_2
        LOCFRAME ISTACK, 0, STACK
        LOCFRAME PSTACK, 0, STACK
        LOCFRAME XSTACK, 11, STACK
        LOCFRAME IOVERLAY, 0, STATIC
        LOCFRAME DOVERLAY, 0, STATIC
        ARGFRAME ISTACK, 0, STACK
        ARGFRAME PSTACK, 0, STACK
        ARGFRAME XSTACK, 11, STACK
        ARGFRAME IOVERLAY, 0, STATIC
        ARGFRAME DOVERLAY, 0, STATIC
        FUNCALL USER_APP_COMMAND, osal_start_timerEx
        LOCFRAME ISTACK, 0, STACK
        LOCFRAME PSTACK, 0, STACK
        LOCFRAME XSTACK, 11, STACK
        LOCFRAME IOVERLAY, 0, STATIC
        LOCFRAME DOVERLAY, 0, STATIC
        ARGFRAME ISTACK, 0, STACK
        ARGFRAME PSTACK, 0, STACK
        ARGFRAME XSTACK, 11, STACK
        ARGFRAME IOVERLAY, 0, STATIC
        ARGFRAME DOVERLAY, 0, STATIC
        FUNCALL USER_APP_COMMAND, close_load_2
        LOCFRAME ISTACK, 0, STACK
        LOCFRAME PSTACK, 0, STACK
        LOCFRAME XSTACK, 11, STACK
        LOCFRAME IOVERLAY, 0, STATIC
        LOCFRAME DOVERLAY, 0, STATIC
        ARGFRAME ISTACK, 0, STACK
        ARGFRAME PSTACK, 0, STACK
        ARGFRAME XSTACK, 11, STACK
        ARGFRAME IOVERLAY, 0, STATIC
        ARGFRAME DOVERLAY, 0, STATIC
        FUNCALL USER_APP_COMMAND, osal_start_timerEx
        LOCFRAME ISTACK, 0, STACK
        LOCFRAME PSTACK, 0, STACK
        LOCFRAME XSTACK, 11, STACK
        LOCFRAME IOVERLAY, 0, STATIC
        LOCFRAME DOVERLAY, 0, STATIC
        ARGFRAME ISTACK, 0, STACK
        ARGFRAME PSTACK, 0, STACK
        ARGFRAME XSTACK, 11, STACK
        ARGFRAME IOVERLAY, 0, STATIC
        ARGFRAME DOVERLAY, 0, STATIC
        MOV     A,#-0xb
        LCALL   ?BANKED_ENTER_XDATA
        CFI DPH0 load(1, XDATA, add(CFA_XSP16, literal(-1)))
        CFI DPL0 load(1, XDATA, add(CFA_XSP16, literal(-2)))
        CFI ?BRET_EXT load(1, XDATA, add(CFA_XSP16, literal(-3)))
        CFI ?RET_HIGH load(1, XDATA, add(CFA_XSP16, literal(-4)))
        CFI ?RET_LOW load(1, XDATA, add(CFA_XSP16, literal(-5)))
        CFI R7 load(1, XDATA, add(CFA_XSP16, literal(-6)))
        CFI V2 load(1, XDATA, add(CFA_XSP16, literal(-7)))
        CFI V1 load(1, XDATA, add(CFA_XSP16, literal(-8)))
        CFI V0 load(1, XDATA, add(CFA_XSP16, literal(-9)))
        CFI VB load(1, XDATA, add(CFA_XSP16, literal(-10)))
        CFI R6 load(1, XDATA, add(CFA_XSP16, literal(-11)))
        CFI CFA_SP SP+0
        CFI CFA_XSP16 add(XSP16, 11)
        ; Saved register size: 11
        ; Auto size: 0
        MOV     ?V0 + 0,R2
        MOV     ?V0 + 1,R3
        MOV     A,R4
        MOV     R6,A
        MOV     A,R5
        MOV     R7,A
//  549   uint8 active_len=0;
        MOV     ?V0 + 2,#0x0
//  550 
//  551      str[0] = '/';
        MOV     DPL,R6
        MOV     DPH,R7
        MOV     A,#0x2f
        MOVX    @DPTR,A
//  552    
//  553    if( (user_app_data[0]=='1')&&(load_1_flag == 0))
        MOV     DPL,?V0 + 0
        MOV     DPH,?V0 + 1
        MOVX    A,@DPTR
        XRL     A,#0x31
        JNZ     ??USER_APP_COMMAND_0
        MOV     DPTR,#load_1_flag
        MOVX    A,@DPTR
        JNZ     ??USER_APP_COMMAND_0
//  554    {  
//  555       open_load_1();
        ; Setup parameters for call to function open_load_1
        LCALL   ??open_load_1?relay
//  556       osal_start_timerEx( UserApp_TaskID,HOLD_LOAD_1_EVT,RELAY_HOLD_TIME );   
        ; Setup parameters for call to function osal_start_timerEx
        MOV     R4,#0x19
        MOV     R5,#0x0
        MOV     R2,#0x0
        MOV     R3,#0x2
        MOV     DPTR,#UserApp_TaskID
        MOVX    A,@DPTR
        MOV     R1,A
        LCALL   ??osal_start_timerEx?relay
        MOV     A,R1
//  557       str[1]=1;
        MOV     DPL,R6
        MOV     DPH,R7
        INC     DPTR
        MOV     A,#0x1
        MOVX    @DPTR,A
        LJMP    ??USER_APP_COMMAND_1 & 0xFFFF
//  558    }
//  559    
//  560    else if(user_app_data[0]=='0')
??USER_APP_COMMAND_0:
        MOV     DPL,?V0 + 0
        MOV     DPH,?V0 + 1
        MOVX    A,@DPTR
        XRL     A,#0x30
        JNZ     ??USER_APP_COMMAND_2
//  561    {
//  562       close_load_1();
        ; Setup parameters for call to function close_load_1
        LCALL   ??close_load_1?relay
//  563       osal_start_timerEx( UserApp_TaskID,HOLD_LOAD_1_EVT,RELAY_HOLD_TIME );  
        ; Setup parameters for call to function osal_start_timerEx
        MOV     R4,#0x19
        MOV     R5,#0x0
        MOV     R2,#0x0
        MOV     R3,#0x2
        MOV     DPTR,#UserApp_TaskID
        MOVX    A,@DPTR
        MOV     R1,A
        LCALL   ??osal_start_timerEx?relay
        MOV     A,R1
//  564       str[1]=0;
        MOV     DPL,R6
        MOV     DPH,R7
        INC     DPTR
        MOV     A,#0x0
        MOVX    @DPTR,A
        SJMP    ??USER_APP_COMMAND_1
//  565    }  
//  566        
//  567    else if(user_app_data[0]=='2')
??USER_APP_COMMAND_2:
        MOV     DPL,?V0 + 0
        MOV     DPH,?V0 + 1
        MOVX    A,@DPTR
        XRL     A,#0x32
        JNZ     ??USER_APP_COMMAND_3
//  568    {
//  569        str[1]=load_1_flag;
        MOV     DPTR,#load_1_flag
        MOVX    A,@DPTR
        MOV     DPL,R6
        MOV     DPH,R7
        INC     DPTR
        MOVX    @DPTR,A
        SJMP    ??USER_APP_COMMAND_1
//  570    }  
//  571    
//  572     else if(user_app_data[0]=='3')
??USER_APP_COMMAND_3:
        MOV     DPL,?V0 + 0
        MOV     DPH,?V0 + 1
        MOVX    A,@DPTR
        XRL     A,#0x33
        JNZ     ??USER_APP_COMMAND_4
//  573    {
//  574       
//  575        if (load_1_flag == 0)
        MOV     DPTR,#load_1_flag
        MOVX    A,@DPTR
        JNZ     ??USER_APP_COMMAND_5
//  576      //    if( (MONZ_1 == 1)&&(load_1_flag == 0) )//检测是否在线的信号，如果接了灯 灯是关的 这个值为高电平 如果灯是开的为低电平 如果没有接等也为低电平 所以要判断这个值是否为高才能去控制他开，不然会浪费功耗。
//  577        {
//  578          open_load_1();
        ; Setup parameters for call to function open_load_1
        LCALL   ??open_load_1?relay
//  579          osal_start_timerEx( UserApp_TaskID,HOLD_LOAD_1_EVT,RELAY_HOLD_TIME );  
        ; Setup parameters for call to function osal_start_timerEx
        MOV     R4,#0x19
        MOV     R5,#0x0
        MOV     R2,#0x0
        MOV     R3,#0x2
        MOV     DPTR,#UserApp_TaskID
        MOVX    A,@DPTR
        MOV     R1,A
        LCALL   ??osal_start_timerEx?relay
        MOV     A,R1
        SJMP    ??USER_APP_COMMAND_6
//  580        } 
//  581        
//  582       else
//  583        {
//  584          close_load_1();
??USER_APP_COMMAND_5:
        ; Setup parameters for call to function close_load_1
        LCALL   ??close_load_1?relay
//  585          osal_start_timerEx( UserApp_TaskID,HOLD_LOAD_1_EVT,RELAY_HOLD_TIME );  
        ; Setup parameters for call to function osal_start_timerEx
        MOV     R4,#0x19
        MOV     R5,#0x0
        MOV     R2,#0x0
        MOV     R3,#0x2
        MOV     DPTR,#UserApp_TaskID
        MOVX    A,@DPTR
        MOV     R1,A
        LCALL   ??osal_start_timerEx?relay
        MOV     A,R1
//  586         
//  587        }
//  588        str[1]=load_1_flag;
??USER_APP_COMMAND_6:
        MOV     DPTR,#load_1_flag
        MOVX    A,@DPTR
        MOV     DPL,R6
        MOV     DPH,R7
        INC     DPTR
        MOVX    @DPTR,A
        SJMP    ??USER_APP_COMMAND_1
//  589    } 
//  590    
//  591    else
//  592    {
//  593         str[1]=load_1_flag;
??USER_APP_COMMAND_4:
        MOV     DPTR,#load_1_flag
        MOVX    A,@DPTR
        MOV     DPL,R6
        MOV     DPH,R7
        INC     DPTR
        MOVX    @DPTR,A
//  594    } 
//  595    
//  596    //2 load
//  597      if( (user_app_data[1]=='1')&&(load_2_flag == 0))
??USER_APP_COMMAND_1:
        MOV     DPL,?V0 + 0
        MOV     DPH,?V0 + 1
        INC     DPTR
        MOVX    A,@DPTR
        XRL     A,#0x31
        JNZ     ??USER_APP_COMMAND_7
        MOV     DPTR,#load_2_flag
        MOVX    A,@DPTR
        JNZ     ??USER_APP_COMMAND_7
//  598    {  
//  599       open_load_2();
        ; Setup parameters for call to function open_load_2
        LCALL   ??open_load_2?relay
//  600       osal_start_timerEx( UserApp_TaskID,HOLD_LOAD_2_EVT,RELAY_HOLD_TIME );   
        ; Setup parameters for call to function osal_start_timerEx
        MOV     R4,#0x19
        MOV     R5,#0x0
        MOV     R2,#0x0
        MOV     R3,#0x4
        MOV     DPTR,#UserApp_TaskID
        MOVX    A,@DPTR
        MOV     R1,A
        LCALL   ??osal_start_timerEx?relay
        MOV     A,R1
//  601       str[2]=1;
        MOV     DPL,R6
        MOV     DPH,R7
        INC     DPTR
        INC     DPTR
        MOV     A,#0x1
        MOVX    @DPTR,A
        LJMP    ??USER_APP_COMMAND_8 & 0xFFFF
//  602    }
//  603    
//  604    else if(user_app_data[1]=='0')
??USER_APP_COMMAND_7:
        MOV     DPL,?V0 + 0
        MOV     DPH,?V0 + 1
        INC     DPTR
        MOVX    A,@DPTR
        XRL     A,#0x30
        JNZ     ??USER_APP_COMMAND_9
//  605    {
//  606       close_load_2();
        ; Setup parameters for call to function close_load_2
        LCALL   ??close_load_2?relay
//  607       osal_start_timerEx( UserApp_TaskID,HOLD_LOAD_2_EVT,RELAY_HOLD_TIME );  
        ; Setup parameters for call to function osal_start_timerEx
        MOV     R4,#0x19
        MOV     R5,#0x0
        MOV     R2,#0x0
        MOV     R3,#0x4
        MOV     DPTR,#UserApp_TaskID
        MOVX    A,@DPTR
        MOV     R1,A
        LCALL   ??osal_start_timerEx?relay
        MOV     A,R1
//  608       str[2]=0;
        MOV     DPL,R6
        MOV     DPH,R7
        INC     DPTR
        INC     DPTR
        MOV     A,#0x0
        MOVX    @DPTR,A
        SJMP    ??USER_APP_COMMAND_8
//  609    }  
//  610        
//  611    else if(user_app_data[1]=='2')
??USER_APP_COMMAND_9:
        MOV     DPL,?V0 + 0
        MOV     DPH,?V0 + 1
        INC     DPTR
        MOVX    A,@DPTR
        XRL     A,#0x32
        JNZ     ??USER_APP_COMMAND_10
//  612    {
//  613        str[2]=load_2_flag;
        MOV     DPTR,#load_2_flag
        MOVX    A,@DPTR
        MOV     DPL,R6
        MOV     DPH,R7
        INC     DPTR
        INC     DPTR
        MOVX    @DPTR,A
        SJMP    ??USER_APP_COMMAND_8
//  614    }  
//  615    
//  616     else if(user_app_data[1]=='3')
??USER_APP_COMMAND_10:
        MOV     DPL,?V0 + 0
        MOV     DPH,?V0 + 1
        INC     DPTR
        MOVX    A,@DPTR
        XRL     A,#0x33
        JNZ     ??USER_APP_COMMAND_11
//  617    {
//  618       
//  619        if (load_2_flag == 0)
        MOV     DPTR,#load_2_flag
        MOVX    A,@DPTR
        JNZ     ??USER_APP_COMMAND_12
//  620      //    if( (MONZ_1 == 1)&&(load_1_flag == 0) )//检测是否在线的信号，如果接了灯 灯是关的 这个值为高电平 如果灯是开的为低电平 如果没有接等也为低电平 所以要判断这个值是否为高才能去控制他开，不然会浪费功耗。
//  621        {
//  622          open_load_2();
        ; Setup parameters for call to function open_load_2
        LCALL   ??open_load_2?relay
//  623          osal_start_timerEx( UserApp_TaskID,HOLD_LOAD_2_EVT,RELAY_HOLD_TIME );  
        ; Setup parameters for call to function osal_start_timerEx
        MOV     R4,#0x19
        MOV     R5,#0x0
        MOV     R2,#0x0
        MOV     R3,#0x4
        MOV     DPTR,#UserApp_TaskID
        MOVX    A,@DPTR
        MOV     R1,A
        LCALL   ??osal_start_timerEx?relay
        MOV     A,R1
        SJMP    ??USER_APP_COMMAND_13
//  624        } 
//  625        
//  626       else
//  627        {
//  628          close_load_2();
??USER_APP_COMMAND_12:
        ; Setup parameters for call to function close_load_2
        LCALL   ??close_load_2?relay
//  629          osal_start_timerEx( UserApp_TaskID,HOLD_LOAD_2_EVT,RELAY_HOLD_TIME );  
        ; Setup parameters for call to function osal_start_timerEx
        MOV     R4,#0x19
        MOV     R5,#0x0
        MOV     R2,#0x0
        MOV     R3,#0x4
        MOV     DPTR,#UserApp_TaskID
        MOVX    A,@DPTR
        MOV     R1,A
        LCALL   ??osal_start_timerEx?relay
        MOV     A,R1
//  630         
//  631        }
//  632        str[2]=load_2_flag;
??USER_APP_COMMAND_13:
        MOV     DPTR,#load_2_flag
        MOVX    A,@DPTR
        MOV     DPL,R6
        MOV     DPH,R7
        INC     DPTR
        INC     DPTR
        MOVX    @DPTR,A
        SJMP    ??USER_APP_COMMAND_8
//  633    } 
//  634    
//  635    else
//  636    {
//  637         str[2]=load_2_flag;
??USER_APP_COMMAND_11:
        MOV     DPTR,#load_2_flag
        MOVX    A,@DPTR
        MOV     DPL,R6
        MOV     DPH,R7
        INC     DPTR
        INC     DPTR
        MOVX    @DPTR,A
//  638    }
//  639       active_len=12;
??USER_APP_COMMAND_8:
        MOV     ?V0 + 2,#0xc
//  640       return active_len; 
        MOV     R1,?V0 + 2
        MOV     R7,#0x3
        LJMP    ?BANKED_LEAVE_XDATA
        CFI EndBlock cfiBlock6
//  641   
//  642 }
//  643 
//  644 /*******************************************************************************
//  645 * 函数名称: USER_SET_RS_MSG
//  646 * 函数功能: 用户自行设置RS数据
//  647 * 入口参数: 无
//  648 * 出口参数: 无
//  649 * 备注说明: 入网后向协调器发送的自身信息数据，入网后5S会自动发送
//  650 ******************************************************************************/

        RSEG BANKED_CODE:CODE:NOROOT(0)
//  651 void USER_SET_RS_MSG(void)//
USER_SET_RS_MSG:
        CFI Block cfiBlock7 Using cfiCommon0
        CFI Function USER_SET_RS_MSG
        CODE
//  652 {
        PUSH    DPL
        CFI DPL0 Frame(CFA_SP, 4)
        CFI CFA_SP SP+-4
        PUSH    DPH
        CFI DPH0 Frame(CFA_SP, 5)
        CFI CFA_SP SP+-5
        ; Saved register size: 2
        ; Auto size: 0
//  653     
//  654     DEVICE_ID=175;
        MOV     DPTR,#DEVICE_ID
        MOV     A,#-0x51
        MOVX    @DPTR,A
//  655     DEFINED_CONTROL_CHAR='E';
        MOV     DPTR,#DEFINED_CONTROL_CHAR
        MOV     A,#0x45
        MOVX    @DPTR,A
//  656     JOIN_ROLE=Send_Router;
        MOV     DPTR,#JOIN_ROLE
        MOV     A,#0x0
        MOVX    @DPTR,A
//  657     RS_LEN = 2;
        MOV     DPTR,#RS_LEN
        MOV     A,#0x2
        MOVX    @DPTR,A
//  658     RS_STR[0]=load_1_flag;
        MOV     DPTR,#load_1_flag
        MOVX    A,@DPTR
        MOV     DPTR,#RS_STR
        MOVX    @DPTR,A
//  659     RS_STR[1]=load_2_flag;
        MOV     DPTR,#load_2_flag
        MOVX    A,@DPTR
        MOV     DPTR,#RS_STR + 1
        MOVX    @DPTR,A
//  660 }
        POP     DPH
        CFI DPH0 SameValue
        CFI CFA_SP SP+-4
        POP     DPL
        CFI DPL0 SameValue
        CFI CFA_SP SP+-3
        LJMP    ?BRET
        CFI EndBlock cfiBlock7
//  661 
//  662 /*******************************************************************************
//  663 * 函数名称: SampleApp_SendInMessage
//  664 * 函数功能: 用户自行规划主动上报数据的格式。
//  665 * 入口参数: 无
//  666 * 出口参数: 无
//  667 * 备注说明: 无
//  668 ******************************************************************************/

        RSEG BANKED_CODE:CODE:NOROOT(0)
//  669 void SampleApp_SendInMessage()
SampleApp_SendInMessage:
        CFI Block cfiBlock8 Using cfiCommon0
        CFI Function SampleApp_SendInMessage
        CODE
//  670 {
        FUNCALL SampleApp_SendInMessage, osal_mem_alloc
        LOCFRAME ISTACK, 0, STACK
        LOCFRAME PSTACK, 0, STACK
        LOCFRAME XSTACK, 11, STACK
        LOCFRAME IOVERLAY, 0, STATIC
        LOCFRAME DOVERLAY, 0, STATIC
        ARGFRAME ISTACK, 0, STACK
        ARGFRAME PSTACK, 0, STACK
        ARGFRAME XSTACK, 11, STACK
        ARGFRAME IOVERLAY, 0, STATIC
        ARGFRAME DOVERLAY, 0, STATIC
        FUNCALL SampleApp_SendInMessage, USER_SEND_ADD_STR
        LOCFRAME ISTACK, 0, STACK
        LOCFRAME PSTACK, 0, STACK
        LOCFRAME XSTACK, 11, STACK
        LOCFRAME IOVERLAY, 0, STATIC
        LOCFRAME DOVERLAY, 0, STATIC
        ARGFRAME ISTACK, 0, STACK
        ARGFRAME PSTACK, 0, STACK
        ARGFRAME XSTACK, 11, STACK
        ARGFRAME IOVERLAY, 0, STATIC
        ARGFRAME DOVERLAY, 0, STATIC
        FUNCALL SampleApp_SendInMessage, USER_APP_SEND_IN
        LOCFRAME ISTACK, 0, STACK
        LOCFRAME PSTACK, 0, STACK
        LOCFRAME XSTACK, 11, STACK
        LOCFRAME IOVERLAY, 0, STATIC
        LOCFRAME DOVERLAY, 0, STATIC
        ARGFRAME ISTACK, 0, STACK
        ARGFRAME PSTACK, 0, STACK
        ARGFRAME XSTACK, 11, STACK
        ARGFRAME IOVERLAY, 0, STATIC
        ARGFRAME DOVERLAY, 0, STATIC
        FUNCALL SampleApp_SendInMessage, osal_mem_free
        LOCFRAME ISTACK, 0, STACK
        LOCFRAME PSTACK, 0, STACK
        LOCFRAME XSTACK, 11, STACK
        LOCFRAME IOVERLAY, 0, STATIC
        LOCFRAME DOVERLAY, 0, STATIC
        ARGFRAME ISTACK, 0, STACK
        ARGFRAME PSTACK, 0, STACK
        ARGFRAME XSTACK, 11, STACK
        ARGFRAME IOVERLAY, 0, STATIC
        ARGFRAME DOVERLAY, 0, STATIC
        MOV     A,#-0xb
        LCALL   ?BANKED_ENTER_XDATA
        CFI DPH0 load(1, XDATA, add(CFA_XSP16, literal(-1)))
        CFI DPL0 load(1, XDATA, add(CFA_XSP16, literal(-2)))
        CFI ?BRET_EXT load(1, XDATA, add(CFA_XSP16, literal(-3)))
        CFI ?RET_HIGH load(1, XDATA, add(CFA_XSP16, literal(-4)))
        CFI ?RET_LOW load(1, XDATA, add(CFA_XSP16, literal(-5)))
        CFI R7 load(1, XDATA, add(CFA_XSP16, literal(-6)))
        CFI V2 load(1, XDATA, add(CFA_XSP16, literal(-7)))
        CFI V1 load(1, XDATA, add(CFA_XSP16, literal(-8)))
        CFI V0 load(1, XDATA, add(CFA_XSP16, literal(-9)))
        CFI VB load(1, XDATA, add(CFA_XSP16, literal(-10)))
        CFI R6 load(1, XDATA, add(CFA_XSP16, literal(-11)))
        CFI CFA_SP SP+0
        CFI CFA_XSP16 add(XSP16, 11)
        ; Saved register size: 11
        ; Auto size: 0
//  671 
//  672   uint8 *send_str;
//  673   uint8 send_count=10+2;
        MOV     ?V0 + 2,#0xc
//  674 
//  675   send_str = osal_mem_alloc(send_count);
        ; Setup parameters for call to function osal_mem_alloc
        MOV     ?V0 + 0,?V0 + 2
        MOV     ?V0 + 1,#0x0
        MOV     R2,?V0 + 0
        MOV     R3,?V0 + 1
        LCALL   ??osal_mem_alloc?relay
        MOV     ?V0 + 0,R2
        MOV     ?V0 + 1,R3
        MOV     R6,?V0 + 0
        MOV     R7,?V0 + 1
//  676   
//  677   USER_SEND_ADD_STR(send_str);  //\添加固定帧头
        ; Setup parameters for call to function USER_SEND_ADD_STR
        MOV     A,R6
        MOV     R2,A
        MOV     A,R7
        MOV     R3,A
        LCALL   ??USER_SEND_ADD_STR?relay
//  678 
//  679   send_str[9]='/';
        MOV     DPL,R6
        MOV     DPH,R7
        INC     DPTR
        INC     DPTR
        INC     DPTR
        INC     DPTR
        INC     DPTR
        INC     DPTR
        INC     DPTR
        INC     DPTR
        INC     DPTR
        MOV     A,#0x2f
        MOVX    @DPTR,A
//  680   send_str[10]=load_1_flag;//第一个被打开  
        MOV     DPTR,#load_1_flag
        MOVX    A,@DPTR
        MOV     DPL,R6
        MOV     DPH,R7
        INC     DPTR
        INC     DPTR
        INC     DPTR
        INC     DPTR
        INC     DPTR
        INC     DPTR
        INC     DPTR
        INC     DPTR
        INC     DPTR
        INC     DPTR
        MOVX    @DPTR,A
//  681   send_str[11]=load_2_flag;  
        MOV     DPTR,#load_2_flag
        MOVX    A,@DPTR
        PUSH    A
        CFI CFA_SP SP+-1
        MOV     A,R6
        ADD     A,#0xb
        MOV     DPL,A
        MOV     A,R7
        ADDC    A,#0x0
        MOV     DPH,A
        POP     A
        CFI CFA_SP SP+0
        MOVX    @DPTR,A
//  682    
//  683   USER_APP_SEND_IN(send_count,send_str);//发送出数据
        ; Setup parameters for call to function USER_APP_SEND_IN
        MOV     A,R6
        MOV     R2,A
        MOV     A,R7
        MOV     R3,A
        MOV     R1,?V0 + 2
        LCALL   ??USER_APP_SEND_IN?relay
//  684   
//  685   osal_mem_free( send_str );
        ; Setup parameters for call to function osal_mem_free
        MOV     A,R6
        MOV     R2,A
        MOV     A,R7
        MOV     R3,A
        LCALL   ??osal_mem_free?relay
//  686 }
        MOV     R7,#0x3
        LJMP    ?BANKED_LEAVE_XDATA
        CFI EndBlock cfiBlock8
//  687 
//  688 /*******************************************************************************
//  689 * 函数名称: User_APP_Drive_init
//  690 * 函数功能: USER自行添加应用初始化的代码，如初始化外设等
//  691 * 入口参数: 无
//  692 * 出口参数: 无
//  693 * 备注说明: 无
//  694 ******************************************************************************/

        RSEG BANKED_CODE:CODE:NOROOT(0)
//  695 void User_APP_Drive_init(void)
User_APP_Drive_init:
        CFI Block cfiBlock9 Using cfiCommon0
        CFI Function User_APP_Drive_init
        CODE
//  696 {   
        ; Saved register size: 0
        ; Auto size: 0
//  697     HAL_IO_CONFIG_INIT();
        ORL     0xff,#0x1
        ORL     0xfe,#0x10
        ORL     0xfe,#0x1
        ORL     0xfe,#0x20
        SETB    0xa0.0
        CLR     0x90.4
        CLR     0x90.0
        CLR     0x90.5
        ORL     0xfd,#0x2
        ORL     0xfd,#0x1
        CLR     0x80.1
        CLR     0x80.0
        ORL     0xfd,#0x40
        ORL     0xfd,#0x4
        CLR     0x80.6
        CLR     0x80.2
        ORL     0xfd,#0x10
        ORL     0xfd,#0x20
        CLR     0x80.4
        CLR     0x80.5
//  698     //InitCS5463();//初始化CS5463
//  699     //ConfigCS5463();//配置CS5463
//  700     //P_JiaoZhun_Process();
//  701     P1DIR |= 0Xc0;//P1.7 ---led3
        ORL     0xfe,#0xc0
//  702     
//  703     //确保继电器和LED均处于关闭状态；
//  704     P1_6 = 1;
        SETB    0x90.6
//  705     P1_7 = 1;
        SETB    0x90.7
//  706     P1_5 = 1;
        SETB    0x90.5
//  707     P0_1 = 1;
        SETB    0x80.1
//  708 }
        LJMP    ?BRET
        CFI EndBlock cfiBlock9
        REQUIRE P2DIR
        REQUIRE P1DIR
        REQUIRE _A_P2
        REQUIRE _A_P1
        REQUIRE P0DIR
        REQUIRE _A_P0
//  709 
//  710 

        RSEG BANKED_CODE:CODE:NOROOT(0)
//  711 uint8 READ_NETKEY() //读取入网状态按键的状态传递到应用层
READ_NETKEY:
        CFI Block cfiBlock10 Using cfiCommon0
        CFI Function READ_NETKEY
        CODE
//  712 {
        ; Saved register size: 0
        ; Auto size: 0
//  713     return HAL_PUSH_BUTTON3();
        MOV     C,0x90.2
        CLR     A
        RLC     A
        MOV     R1,A
        LJMP    ?BRET
        CFI EndBlock cfiBlock10
        REQUIRE _A_P1
//  714 }
//  715 
//  716 
//  717 
//  718 /*
//  719 mode 0 关
//  720 1 开
//  721 2 切换
//  722 */

        RSEG BANKED_CODE:CODE:NOROOT(0)
//  723 void LED_CHANGE(uint8 Position,uint8 Mode)// 设置LED函数
LED_CHANGE:
        CFI Block cfiBlock11 Using cfiCommon0
        CFI Function LED_CHANGE
        CODE
//  724 {
        ; Saved register size: 0
        ; Auto size: 0
//  725     switch (Position )
        MOV     A,R1
        DEC     A
        JZ      ??LED_CHANGE_0
        DEC     A
        JZ      ??LED_CHANGE_1
        ADD     A,#-0x2
        JZ      ??LED_CHANGE_2
        SJMP    ??LED_CHANGE_3
//  726     {
//  727         case HAL_LED_1:      
//  728         {
//  729             if(Mode==0 || Mode==1)
??LED_CHANGE_0:
        MOV     A,R2
        JZ      ??LED_CHANGE_4
        MOV     A,#0x1
        XRL     A,R2
        JNZ     ??LED_CHANGE_5
//  730             {
//  731                 LED1_SBIT = LED1_POLARITY(Mode);
??LED_CHANGE_4:
        MOV     A,R2
        JNZ     ??LED_CHANGE_6
        MOV     R0,#0x1
        SJMP    ??LED_CHANGE_7
??LED_CHANGE_6:
        MOV     R0,#0x0
??LED_CHANGE_7:
        MOV     A,R0
        MOV     C,0xE0 /* A   */.0
        MOV     0xa0.0,C
        SJMP    ??LED_CHANGE_3
//  732             }
//  733             else if(Mode==2)
??LED_CHANGE_5:
        MOV     A,#0x2
        XRL     A,R2
        JNZ     ??LED_CHANGE_3
//  734             {
//  735                 if (LED1_SBIT) 
        MOV     C,0xa0.0
        JNC     ??LED_CHANGE_8
//  736                 { 
//  737                     LED1_SBIT = 0; 
        CLR     0xa0.0
        SJMP    ??LED_CHANGE_3
//  738                 } 
//  739                 else 
//  740                 { 
//  741                     LED1_SBIT = 1;
??LED_CHANGE_8:
        SETB    0xa0.0
//  742                 } 
//  743             }
//  744         }   
//  745         break;     
        SJMP    ??LED_CHANGE_3
//  746         
//  747         case HAL_LED_2:      
//  748         {
//  749             if(Mode==0||Mode==1)
??LED_CHANGE_1:
        MOV     A,R2
        JZ      ??LED_CHANGE_9
        MOV     A,#0x1
        XRL     A,R2
        JNZ     ??LED_CHANGE_10
//  750             {
//  751                 LED2_SBIT = LED2_POLARITY(Mode);
??LED_CHANGE_9:
        MOV     A,R2
        JZ      ??LED_CHANGE_11
        MOV     R0,#0x1
        SJMP    ??LED_CHANGE_12
??LED_CHANGE_11:
        MOV     R0,#0x0
??LED_CHANGE_12:
        MOV     A,R0
        MOV     C,0xE0 /* A   */.0
        MOV     0x90.4,C
        SJMP    ??LED_CHANGE_3
//  752             }
//  753             else if(Mode==2)
??LED_CHANGE_10:
        MOV     A,#0x2
        XRL     A,R2
        JNZ     ??LED_CHANGE_3
//  754             {
//  755                 if (LED1_SBIT) 
        MOV     C,0xa0.0
        JNC     ??LED_CHANGE_13
//  756                 { 
//  757                     LED2_SBIT = 0; 
        CLR     0x90.4
        SJMP    ??LED_CHANGE_3
//  758                 } 
//  759                 else 
//  760                 { 
//  761                     LED2_SBIT = 1;
??LED_CHANGE_13:
        SETB    0x90.4
//  762                 } 
//  763             }
//  764         }   
//  765         break;     
        SJMP    ??LED_CHANGE_3
//  766         
//  767         case HAL_LED_3:      
//  768         {
//  769             if(Mode==0 || Mode==1)
??LED_CHANGE_2:
        MOV     A,R2
        JZ      ??LED_CHANGE_14
        MOV     A,#0x1
        XRL     A,R2
        JNZ     ??LED_CHANGE_15
//  770             {
//  771                 LED3_SBIT = LED3_POLARITY(Mode);
??LED_CHANGE_14:
        MOV     A,R2
        JZ      ??LED_CHANGE_16
        MOV     R0,#0x1
        SJMP    ??LED_CHANGE_17
??LED_CHANGE_16:
        MOV     R0,#0x0
??LED_CHANGE_17:
        MOV     A,R0
        MOV     C,0xE0 /* A   */.0
        MOV     0x90.0,C
        SJMP    ??LED_CHANGE_3
//  772             }
//  773             else if(Mode==2)
??LED_CHANGE_15:
        MOV     A,#0x2
        XRL     A,R2
        JNZ     ??LED_CHANGE_3
//  774             {
//  775                 if (LED3_SBIT) 
        MOV     C,0x90.0
        JNC     ??LED_CHANGE_18
//  776                 { 
//  777                     LED3_SBIT = 0; 
        CLR     0x90.0
        SJMP    ??LED_CHANGE_3
//  778                 } 
//  779                 else 
//  780                 { 
//  781                     LED3_SBIT = 1;
??LED_CHANGE_18:
        SETB    0x90.0
//  782                 } 
//  783             }
//  784         }   
//  785         break;     
//  786         
//  787         default:
//  788         break;
//  789     }
//  790     
//  791 }
??LED_CHANGE_3:
        LJMP    ?BRET
        CFI EndBlock cfiBlock11
        REQUIRE _A_P2
        REQUIRE _A_P1
//  792 
//  793 

        RSEG BANKED_CODE:CODE:NOROOT(0)
//  794 void USER_ZDO_JOINING_MSG(void)
USER_ZDO_JOINING_MSG:
        CFI Block cfiBlock12 Using cfiCommon0
        CFI Function USER_ZDO_JOINING_MSG
        CODE
//  795 {
        FUNCALL USER_ZDO_JOINING_MSG, HalLedBlink
        LOCFRAME ISTACK, 2, STACK
        LOCFRAME PSTACK, 0, STACK
        LOCFRAME XSTACK, 0, STACK
        LOCFRAME IOVERLAY, 0, STATIC
        LOCFRAME DOVERLAY, 0, STATIC
        ARGFRAME ISTACK, 2, STACK
        ARGFRAME PSTACK, 0, STACK
        ARGFRAME XSTACK, 0, STACK
        ARGFRAME IOVERLAY, 0, STATIC
        ARGFRAME DOVERLAY, 0, STATIC
        PUSH    DPL
        CFI DPL0 Frame(CFA_SP, 4)
        CFI CFA_SP SP+-4
        PUSH    DPH
        CFI DPH0 Frame(CFA_SP, 5)
        CFI CFA_SP SP+-5
        ; Saved register size: 2
        ; Auto size: 0
//  796     HalLedBlink ( HAL_LED_1, 1, 30, 500 );
        ; Setup parameters for call to function HalLedBlink
        MOV     R4,#-0xc
        MOV     R5,#0x1
        MOV     R3,#0x1e
        MOV     R2,#0x1
        MOV     R1,#0x1
        LCALL   ??HalLedBlink?relay
//  797 }
        POP     DPH
        CFI DPH0 SameValue
        CFI CFA_SP SP+-4
        POP     DPL
        CFI DPL0 SameValue
        CFI CFA_SP SP+-3
        LJMP    ?BRET
        CFI EndBlock cfiBlock12
//  798 
//  799 

        RSEG BANKED_CODE:CODE:NOROOT(0)
//  800 void SampleAPP_ProcessZDOMsgs( zdoIncomingMsg_t *inMsg )
SampleAPP_ProcessZDOMsgs:
        CFI Block cfiBlock13 Using cfiCommon0
        CFI Function SampleAPP_ProcessZDOMsgs
        CODE
//  801 {
        FUNCALL SampleAPP_ProcessZDOMsgs, HalLedBlink
        LOCFRAME ISTACK, 0, STACK
        LOCFRAME PSTACK, 0, STACK
        LOCFRAME XSTACK, 9, STACK
        LOCFRAME IOVERLAY, 0, STATIC
        LOCFRAME DOVERLAY, 0, STATIC
        ARGFRAME ISTACK, 0, STACK
        ARGFRAME PSTACK, 0, STACK
        ARGFRAME XSTACK, 9, STACK
        ARGFRAME IOVERLAY, 0, STATIC
        ARGFRAME DOVERLAY, 0, STATIC
        FUNCALL SampleAPP_ProcessZDOMsgs, HalLedBlink
        LOCFRAME ISTACK, 0, STACK
        LOCFRAME PSTACK, 0, STACK
        LOCFRAME XSTACK, 9, STACK
        LOCFRAME IOVERLAY, 0, STATIC
        LOCFRAME DOVERLAY, 0, STATIC
        ARGFRAME ISTACK, 0, STACK
        ARGFRAME PSTACK, 0, STACK
        ARGFRAME XSTACK, 9, STACK
        ARGFRAME IOVERLAY, 0, STATIC
        ARGFRAME DOVERLAY, 0, STATIC
        MOV     A,#-0x9
        LCALL   ?BANKED_ENTER_XDATA
        CFI DPH0 load(1, XDATA, add(CFA_XSP16, literal(-1)))
        CFI DPL0 load(1, XDATA, add(CFA_XSP16, literal(-2)))
        CFI ?BRET_EXT load(1, XDATA, add(CFA_XSP16, literal(-3)))
        CFI ?RET_HIGH load(1, XDATA, add(CFA_XSP16, literal(-4)))
        CFI ?RET_LOW load(1, XDATA, add(CFA_XSP16, literal(-5)))
        CFI R7 load(1, XDATA, add(CFA_XSP16, literal(-6)))
        CFI V0 load(1, XDATA, add(CFA_XSP16, literal(-7)))
        CFI VB load(1, XDATA, add(CFA_XSP16, literal(-8)))
        CFI R6 load(1, XDATA, add(CFA_XSP16, literal(-9)))
        CFI CFA_SP SP+0
        CFI CFA_XSP16 add(XSP16, 9)
        ; Saved register size: 9
        ; Auto size: 0
        MOV     A,R2
        MOV     R6,A
        MOV     A,R3
        MOV     R7,A
//  802     
//  803     switch ( inMsg->clusterID )
        MOV     A,R6
        ADD     A,#0xc
        MOV     DPL,A
        MOV     A,R7
        ADDC    A,#0x0
        MOV     DPH,A
        MOVX    A,@DPTR
        XRL     A,#0x20
        JNZ     ??SampleAPP_ProcessZDOMsgs_0
        INC     DPTR
        MOVX    A,@DPTR
        XRL     A,#0x80
??SampleAPP_ProcessZDOMsgs_0:
        JNZ     ??SampleAPP_ProcessZDOMsgs_1
//  804     {
//  805         case End_Device_Bind_rsp:
//  806         if ( ZDO_ParseBindRsp( inMsg ) == ZSuccess )
        MOV     A,R6
        ADD     A,#0x13
        MOV     DPL,A
        MOV     A,R7
        ADDC    A,#0x0
        MOV     DPH,A
        MOVX    A,@DPTR
        MOV     R0,A
        INC     DPTR
        MOVX    A,@DPTR
        MOV     DPH,A
        MOV     DPL,R0
        MOVX    A,@DPTR
        JNZ     ??SampleAPP_ProcessZDOMsgs_2
//  807         {
//  808             // Light LED
//  809             HalLedBlink ( HAL_LED_1, 3, 50, 1000 );
        ; Setup parameters for call to function HalLedBlink
        MOV     R4,#-0x18
        MOV     R5,#0x3
        MOV     R3,#0x32
        MOV     R2,#0x3
        MOV     R1,#0x1
        LCALL   ??HalLedBlink?relay
        SJMP    ??SampleAPP_ProcessZDOMsgs_1
//  810         }
//  811 #if defined(BLINK_LEDS)
//  812         else
//  813         {
//  814             HalLedBlink ( HAL_LED_1, 6, 50, 500 );
??SampleAPP_ProcessZDOMsgs_2:
        ; Setup parameters for call to function HalLedBlink
        MOV     R4,#-0xc
        MOV     R5,#0x1
        MOV     R3,#0x32
        MOV     R2,#0x6
        MOV     R1,#0x1
        LCALL   ??HalLedBlink?relay
//  815         }
//  816 #endif
//  817         break;
//  818     }
//  819     
//  820 }
??SampleAPP_ProcessZDOMsgs_1:
        MOV     R7,#0x1
        LJMP    ?BANKED_LEAVE_XDATA
        CFI EndBlock cfiBlock13
//  821 
//  822 
//  823 
//  824 
//  825 
//  826 
//  827 /*****************************************************************************/
//  828 /*************************************用户函数********************************/
//  829 /*******************************************************************************
//  830 */
//  831 
//  832 
//  833 //开1路负载

        RSEG BANKED_CODE:CODE:NOROOT(0)
//  834 void open_load_1()
open_load_1:
        CFI Block cfiBlock14 Using cfiCommon0
        CFI Function open_load_1
        CODE
//  835 {
        PUSH    DPL
        CFI DPL0 Frame(CFA_SP, 4)
        CFI CFA_SP SP+-4
        PUSH    DPH
        CFI DPH0 Frame(CFA_SP, 5)
        CFI CFA_SP SP+-5
        ; Saved register size: 2
        ; Auto size: 0
//  836                                                                       
//  837   OUT1_SBIT = 0;
        CLR     0x80.1
//  838   OUT2_SBIT = 1;
        SETB    0x80.0
//  839   LED2_SBIT = 1; //关灯
        SETB    0x90.4
//  840   load_1_flag = 1;
        MOV     DPTR,#load_1_flag
        MOV     A,#0x1
        MOVX    @DPTR,A
//  841 }
        POP     DPH
        CFI DPH0 SameValue
        CFI CFA_SP SP+-4
        POP     DPL
        CFI DPL0 SameValue
        CFI CFA_SP SP+-3
        LJMP    ?BRET
        CFI EndBlock cfiBlock14
        REQUIRE _A_P0
        REQUIRE _A_P1
//  842 
//  843 //关1路负载

        RSEG BANKED_CODE:CODE:NOROOT(0)
//  844 void close_load_1()
close_load_1:
        CFI Block cfiBlock15 Using cfiCommon0
        CFI Function close_load_1
        CODE
//  845 {
        PUSH    DPL
        CFI DPL0 Frame(CFA_SP, 4)
        CFI CFA_SP SP+-4
        PUSH    DPH
        CFI DPH0 Frame(CFA_SP, 5)
        CFI CFA_SP SP+-5
        ; Saved register size: 2
        ; Auto size: 0
//  846 
//  847   OUT1_SBIT = 1;
        SETB    0x80.1
//  848   OUT2_SBIT = 0;
        CLR     0x80.0
//  849   LED2_SBIT = 0; //开灯
        CLR     0x90.4
//  850     load_1_flag = 0;
        MOV     DPTR,#load_1_flag
        MOV     A,#0x0
        MOVX    @DPTR,A
//  851 }
        POP     DPH
        CFI DPH0 SameValue
        CFI CFA_SP SP+-4
        POP     DPL
        CFI DPL0 SameValue
        CFI CFA_SP SP+-3
        LJMP    ?BRET
        CFI EndBlock cfiBlock15
        REQUIRE _A_P0
        REQUIRE _A_P1
//  852 

        RSEG BANKED_CODE:CODE:NOROOT(0)
//  853 void hold_load_1()
hold_load_1:
        CFI Block cfiBlock16 Using cfiCommon0
        CFI Function hold_load_1
        CODE
//  854 {
        ; Saved register size: 0
        ; Auto size: 0
//  855 #if defined(L9110)
//  856   OUT1_SBIT = 0;
//  857   OUT2_SBIT = 0;
//  858 #else
//  859   OUT1_SBIT = 1;
        SETB    0x80.1
//  860   OUT2_SBIT = 1;
        SETB    0x80.0
//  861 #endif
//  862 }
        LJMP    ?BRET
        CFI EndBlock cfiBlock16
        REQUIRE _A_P0
//  863 
//  864 //开2路负载

        RSEG BANKED_CODE:CODE:NOROOT(0)
//  865 void open_load_2()
open_load_2:
        CFI Block cfiBlock17 Using cfiCommon0
        CFI Function open_load_2
        CODE
//  866 {
        PUSH    DPL
        CFI DPL0 Frame(CFA_SP, 4)
        CFI CFA_SP SP+-4
        PUSH    DPH
        CFI DPH0 Frame(CFA_SP, 5)
        CFI CFA_SP SP+-5
        ; Saved register size: 2
        ; Auto size: 0
//  867                                                                      
//  868   OUT3_SBIT = 0;
        CLR     0x80.6
//  869   OUT4_SBIT = 1;
        SETB    0x80.2
//  870   LED3_SBIT = 1; //关灯
        SETB    0x90.0
//  871    load_2_flag = 1;
        MOV     DPTR,#load_2_flag
        MOV     A,#0x1
        MOVX    @DPTR,A
//  872 }
        POP     DPH
        CFI DPH0 SameValue
        CFI CFA_SP SP+-4
        POP     DPL
        CFI DPL0 SameValue
        CFI CFA_SP SP+-3
        LJMP    ?BRET
        CFI EndBlock cfiBlock17
        REQUIRE _A_P0
        REQUIRE _A_P1
//  873 
//  874 //关1路负载

        RSEG BANKED_CODE:CODE:NOROOT(0)
//  875 void close_load_2()
close_load_2:
        CFI Block cfiBlock18 Using cfiCommon0
        CFI Function close_load_2
        CODE
//  876 {
        PUSH    DPL
        CFI DPL0 Frame(CFA_SP, 4)
        CFI CFA_SP SP+-4
        PUSH    DPH
        CFI DPH0 Frame(CFA_SP, 5)
        CFI CFA_SP SP+-5
        ; Saved register size: 2
        ; Auto size: 0
//  877 
//  878   OUT3_SBIT = 1;
        SETB    0x80.6
//  879   OUT4_SBIT = 0;
        CLR     0x80.2
//  880   LED3_SBIT = 0; //关灯
        CLR     0x90.0
//  881   load_2_flag = 0;
        MOV     DPTR,#load_2_flag
        MOV     A,#0x0
        MOVX    @DPTR,A
//  882 }
        POP     DPH
        CFI DPH0 SameValue
        CFI CFA_SP SP+-4
        POP     DPL
        CFI DPL0 SameValue
        CFI CFA_SP SP+-3
        LJMP    ?BRET
        CFI EndBlock cfiBlock18
        REQUIRE _A_P0
        REQUIRE _A_P1
//  883 

        RSEG BANKED_CODE:CODE:NOROOT(0)
//  884 void hold_load_2()
hold_load_2:
        CFI Block cfiBlock19 Using cfiCommon0
        CFI Function hold_load_2
        CODE
//  885 {
        ; Saved register size: 0
        ; Auto size: 0
//  886 
//  887 #if defined(L9110)
//  888   OUT3_SBIT = 0;
//  889   OUT4_SBIT = 0;
//  890 #else
//  891   OUT3_SBIT = 1;
        SETB    0x80.6
//  892   OUT4_SBIT = 1;
        SETB    0x80.2
//  893 #endif
//  894 
//  895 }
        LJMP    ?BRET
        CFI EndBlock cfiBlock19
        REQUIRE _A_P0

        RSEG XDATA_ID:CODE:NOROOT(0)
`?<Initializer for bindingINClusters>`:
        DATA16
        DW 1

        RSEG XDATA_ID:CODE:NOROOT(0)
`?<Initializer for USER_SampleApp_ClusterList>`:
        DATA16
        DW 1
        DW 2
        DW 3
        DW 4
        DW 5
        DW 6
        DW 7
        DW 8
        DW 0
        DW 0
        DW 0
        DW 0
        DW 0

        RSEG XDATA_ID:CODE:NOROOT(0)
`?<Initializer for SampleApp_SimpleDesc1>`:
        DATA8
        DB 21
        DATA16
        DW 3848
        DW 1
        DATA8
        DB 0
        DB 13
        DATA16
        DW USER_SampleApp_ClusterList
        DATA8
        DB 13
        DATA16
        DW USER_SampleApp_ClusterList

        RSEG XDATA_ID:CODE:NOROOT(0)
`?<Initializer for SampleApp_SimpleDesc2>`:
        DATA8
        DB 22
        DATA16
        DW 3848
        DW 1
        DATA8
        DB 0
        DB 13
        DATA16
        DW USER_SampleApp_ClusterList
        DATA8
        DB 13
        DATA16
        DW USER_SampleApp_ClusterList

        RSEG XDATA_ID:CODE:NOROOT(0)
`?<Initializer for USER_bindingINClusters>`:
        DATA16
        DW 1

        RSEG XDATA_ID:CODE:NOROOT(0)
`?<Initializer for P_Protect_Value>`:
        DATA32
        DD 10

        RSEG XDATA_ID:CODE:NOROOT(0)
`?<Initializer for P_Value_Distance>`:
        DATA16
        DW 100

        RSEG XDATA_ID:CODE:NOROOT(0)
`?<Initializer for P_Value_Bili_Temp>`:
        DATA32
        DD 3F800000H

        RSEG XDATA_ID:CODE:NOROOT(0)
`?<Initializer for I_Value_Bili_Temp>`:
        DATA32
        DD 3F800000H

        RSEG XDATA_ROM_C:CONST:REORDER:NOROOT(0)
        DATA32
__Constant_447a0000:
        DD 447A0000H

        RSEG BANK_RELAYS:CODE:REORDER:NOROOT(0)
??USER_AFTER_RS_MSG?relay:
        LCALL   ?BDISPATCH
        DATA
        DC24    USER_AFTER_RS_MSG

        RSEG BANK_RELAYS:CODE:REORDER:NOROOT(0)
??UserApp_Init?relay:
        LCALL   ?BDISPATCH
        DATA
        DC24    UserApp_Init

        RSEG BANK_RELAYS:CODE:REORDER:NOROOT(0)
??UserApp_ProcessEvent?relay:
        LCALL   ?BDISPATCH
        DATA
        DC24    UserApp_ProcessEvent

        RSEG BANK_RELAYS:CODE:REORDER:NOROOT(0)
??SampleApp_HandleKeys?relay:
        LCALL   ?BDISPATCH
        DATA
        DC24    SampleApp_HandleKeys

        RSEG BANK_RELAYS:CODE:REORDER:NOROOT(0)
??SampleApp_ProcessBINDINGMessage?relay:
        LCALL   ?BDISPATCH
        DATA
        DC24    SampleApp_ProcessBINDINGMessage

        RSEG BANK_RELAYS:CODE:REORDER:NOROOT(0)
??USER_APP_JOIN_MSG?relay:
        LCALL   ?BDISPATCH
        DATA
        DC24    USER_APP_JOIN_MSG

        RSEG BANK_RELAYS:CODE:REORDER:NOROOT(0)
??USER_APP_COMMAND?relay:
        LCALL   ?BDISPATCH
        DATA
        DC24    USER_APP_COMMAND

        RSEG BANK_RELAYS:CODE:REORDER:NOROOT(0)
??USER_SET_RS_MSG?relay:
        LCALL   ?BDISPATCH
        DATA
        DC24    USER_SET_RS_MSG

        RSEG BANK_RELAYS:CODE:REORDER:NOROOT(0)
??SampleApp_SendInMessage?relay:
        LCALL   ?BDISPATCH
        DATA
        DC24    SampleApp_SendInMessage

        RSEG BANK_RELAYS:CODE:REORDER:NOROOT(0)
??User_APP_Drive_init?relay:
        LCALL   ?BDISPATCH
        DATA
        DC24    User_APP_Drive_init

        RSEG BANK_RELAYS:CODE:REORDER:NOROOT(0)
??READ_NETKEY?relay:
        LCALL   ?BDISPATCH
        DATA
        DC24    READ_NETKEY

        RSEG BANK_RELAYS:CODE:REORDER:NOROOT(0)
??LED_CHANGE?relay:
        LCALL   ?BDISPATCH
        DATA
        DC24    LED_CHANGE

        RSEG BANK_RELAYS:CODE:REORDER:NOROOT(0)
??USER_ZDO_JOINING_MSG?relay:
        LCALL   ?BDISPATCH
        DATA
        DC24    USER_ZDO_JOINING_MSG

        RSEG BANK_RELAYS:CODE:REORDER:NOROOT(0)
??SampleAPP_ProcessZDOMsgs?relay:
        LCALL   ?BDISPATCH
        DATA
        DC24    SampleAPP_ProcessZDOMsgs

        RSEG BANK_RELAYS:CODE:REORDER:NOROOT(0)
??open_load_1?relay:
        LCALL   ?BDISPATCH
        DATA
        DC24    open_load_1

        RSEG BANK_RELAYS:CODE:REORDER:NOROOT(0)
??close_load_1?relay:
        LCALL   ?BDISPATCH
        DATA
        DC24    close_load_1

        RSEG BANK_RELAYS:CODE:REORDER:NOROOT(0)
??hold_load_1?relay:
        LCALL   ?BDISPATCH
        DATA
        DC24    hold_load_1

        RSEG BANK_RELAYS:CODE:REORDER:NOROOT(0)
??open_load_2?relay:
        LCALL   ?BDISPATCH
        DATA
        DC24    open_load_2

        RSEG BANK_RELAYS:CODE:REORDER:NOROOT(0)
??close_load_2?relay:
        LCALL   ?BDISPATCH
        DATA
        DC24    close_load_2

        RSEG BANK_RELAYS:CODE:REORDER:NOROOT(0)
??hold_load_2?relay:
        LCALL   ?BDISPATCH
        DATA
        DC24    hold_load_2

        END
//  896 
//  897 
//  898 /**********************************END OF FILE********************************/
//  899 /*****************************************************************************/
//  900 
//  901 
//  902 
//  903 
//  904 
//  905 
//  906 
//  907 
//  908 
//  909 
//  910 
// 
// 2 459 bytes in segment BANKED_CODE
//   120 bytes in segment BANK_RELAYS
//     6 bytes in segment SFR_AN
//    68 bytes in segment XDATA_I
//    68 bytes in segment XDATA_ID
//     4 bytes in segment XDATA_ROM_C
//    84 bytes in segment XDATA_Z
// 
// 2 647 bytes of CODE  memory
//     0 bytes of CONST memory (+ 4 bytes shared)
//     0 bytes of DATA  memory (+ 6 bytes shared)
//   152 bytes of XDATA memory
//
//Errors: none
//Warnings: none
