###############################################################################
#                                                                             #
# IAR C/C++ Compiler V8.10.1.10194/W32 for 8051         11/Feb/2015  00:03:17 #
# Copyright 2004-2011 IAR Systems AB.                                         #
#                                                                             #
#    Core               =  plain                                              #
#    Code model         =  banked                                             #
#    Data model         =  large                                              #
#    Calling convention =  xdata reentrant                                    #
#    Constant location  =  data_rom                                           #
#    Dptr setup         =  1,16                                               #
#    Source file        =  D:\RE_1_2_0_FORMAL_APP(251)-14-12-8\Projects\zstac #
#                          k\Samples\SampleApp\Source\LN_1_SCEEN_1_device\LN_ #
#                          1_SCEEN_1_key.c                                    #
#    Command line       =  -f "D:\RE_1_2_0_FORMAL_APP(251)-14-12-8\Projects\z #
#                          stack\Samples\SampleApp\CC2530DB\..\..\..\Tools\CC #
#                          2530DB\f8wRouter.cfg" (-DCPU32MHZ                  #
#                          -DROOT=__near_func -DMAC_CFG_APP_PENDING_QUEUE=TRU #
#                          E -DMAC_CFG_TX_DATA_MAX=5 -DMAC_CFG_TX_MAX=8       #
#                          -DMAC_CFG_RX_MAX=5 -DRTR_NWK) -f                   #
#                          "D:\RE_1_2_0_FORMAL_APP(251)-14-12-8\Projects\zsta #
#                          ck\Samples\SampleApp\CC2530DB\..\..\..\Tools\CC253 #
#                          0DB\f8wConfig.cfg" (-DZIGBEEPRO -DSECURE=1         #
#                          -DZG_SECURE_DYNAMIC=0 -DREFLECTOR                  #
#                          -DZDAPP_CONFIG_PAN_ID=0xFFFF                       #
#                          -DNWK_START_DELAY=100 -DEXTENDED_JOINING_RANDOM_MA #
#                          SK=0x007F -DBEACON_REQUEST_DELAY=100               #
#                          -DBEACON_REQ_DELAY_MASK=0x00FF                     #
#                          -DLINK_STATUS_JITTER_MASK=0x007F                   #
#                          -DROUTE_EXPIRY_TIME=30 -DAPSC_ACK_WAIT_DURATION_PO #
#                          LLED=3000 -DNWK_INDIRECT_MSG_TIMEOUT=60            #
#                          -DMAX_RREQ_ENTRIES=8 -DAPSC_MAX_FRAME_RETRIES=3    #
#                          -DNWK_MAX_DATA_RETRIES=2                           #
#                          -DMAX_POLL_FAILURE_RETRIES=2 -DMAX_BCAST=9         #
#                          -DAPS_MAX_GROUPS=16 -DMAX_RTG_ENTRIES=30           #
#                          -DNWK_MAX_BINDING_ENTRIES=10                       #
#                          -DMAX_BINDING_CLUSTER_IDS=4 -DASSERT_RESET         #
#                          -DMAC_MAX_FRAME_SIZE=116                           #
#                          -DZDNWKMGR_MIN_TRANSMISSIONS=20 "-DCONST=const     #
#                          __code" -DGENERIC=__generic                        #
#                          -DRFD_RCVC_ALWAYS_ON=FALSE -DPOLL_RATE=8000        #
#                          -DQUEUED_POLL_RATE=100 -DRESPONSE_POLL_RATE=1000)  #
#                          -DREJOIN_POLL_RATE=440 "D:\RE_1_2_0_FORMAL_APP(251 #
#                          )-14-12-8\Projects\zstack\Samples\SampleApp\Source #
#                          \LN_1_SCEEN_1_device\LN_1_SCEEN_1_key.c" -D        #
#                          NV_INIT -D NV_RESTORE -D HOLD_AUTO_START -D        #
#                          MT_TASK -D MT_APP_FUNC -D MT_SYS_FUNC -D           #
#                          MT_ZDO_FUNC -D MT_ZDO_MGMT -D ISR_KEYINTERRUPT -D  #
#                          WDT_IN_PM1 -D OSC32K_CRYSTAL_INSTALLED=0 -D        #
#                          xLARGER_NETWORK -D xNO_32768_XOSC -D POWER_PA -D   #
#                          xEN_WALL_SOKET -D LN_1_SCEEN_1 -lC                 #
#                          "D:\RE_1_2_0_FORMAL_APP(251)-14-12-8\Projects\zsta #
#                          ck\Samples\SampleApp\CC2530DB\LN_1_SCEEN_1_ROUTER\ #
#                          List\" -lA "D:\RE_1_2_0_FORMAL_APP(251)-14-12-8\Pr #
#                          ojects\zstack\Samples\SampleApp\CC2530DB\LN_1_SCEE #
#                          N_1_ROUTER\List\" --diag_suppress Pe001,Pa010 -o   #
#                          "D:\RE_1_2_0_FORMAL_APP(251)-14-12-8\Projects\zsta #
#                          ck\Samples\SampleApp\CC2530DB\LN_1_SCEEN_1_ROUTER\ #
#                          Obj\" -e --no_cse --no_unroll --no_inline          #
#                          --no_code_motion --no_tbaa --debug --core=plain    #
#                          --dptr=16,1 --data_model=large                     #
#                          --code_model=banked --calling_convention=xdata_ree #
#                          ntrant --place_constants=data_rom                  #
#                          --nr_virtual_regs 16 -I "D:\RE_1_2_0_FORMAL_APP(25 #
#                          1)-14-12-8\Projects\zstack\Samples\SampleApp\CC253 #
#                          0DB\" -I "D:\RE_1_2_0_FORMAL_APP(251)-14-12-8\Proj #
#                          ects\zstack\Samples\SampleApp\CC2530DB\..\Source\" #
#                           -I "D:\RE_1_2_0_FORMAL_APP(251)-14-12-8\Projects\ #
#                          zstack\Samples\SampleApp\CC2530DB\..\Source\LN_1_S #
#                          CEEN_1_device\" -I "D:\RE_1_2_0_FORMAL_APP(251)-14 #
#                          -12-8\Projects\zstack\Samples\SampleApp\CC2530DB\. #
#                          .\..\..\ZMain\TI2530DB\" -I                        #
#                          "D:\RE_1_2_0_FORMAL_APP(251)-14-12-8\Projects\zsta #
#                          ck\Samples\SampleApp\CC2530DB\..\..\..\..\..\Compo #
#                          nents\hal\include\" -I "D:\RE_1_2_0_FORMAL_APP(251 #
#                          )-14-12-8\Projects\zstack\Samples\SampleApp\CC2530 #
#                          DB\..\..\..\..\..\Components\hal\target\CC2530EB\" #
#                           -I "D:\RE_1_2_0_FORMAL_APP(251)-14-12-8\Projects\ #
#                          zstack\Samples\SampleApp\CC2530DB\..\..\..\..\..\C #
#                          omponents\mac\include\" -I                         #
#                          "D:\RE_1_2_0_FORMAL_APP(251)-14-12-8\Projects\zsta #
#                          ck\Samples\SampleApp\CC2530DB\..\..\..\..\..\Compo #
#                          nents\mac\high_level\" -I                          #
#                          "D:\RE_1_2_0_FORMAL_APP(251)-14-12-8\Projects\zsta #
#                          ck\Samples\SampleApp\CC2530DB\..\..\..\..\..\Compo #
#                          nents\mac\low_level\srf04\" -I                     #
#                          "D:\RE_1_2_0_FORMAL_APP(251)-14-12-8\Projects\zsta #
#                          ck\Samples\SampleApp\CC2530DB\..\..\..\..\..\Compo #
#                          nents\mac\low_level\srf04\single_chip\" -I         #
#                          "D:\RE_1_2_0_FORMAL_APP(251)-14-12-8\Projects\zsta #
#                          ck\Samples\SampleApp\CC2530DB\..\..\..\..\..\Compo #
#                          nents\mt\" -I "D:\RE_1_2_0_FORMAL_APP(251)-14-12-8 #
#                          \Projects\zstack\Samples\SampleApp\CC2530DB\..\..\ #
#                          ..\..\..\Components\osal\include\" -I              #
#                          "D:\RE_1_2_0_FORMAL_APP(251)-14-12-8\Projects\zsta #
#                          ck\Samples\SampleApp\CC2530DB\..\..\..\..\..\Compo #
#                          nents\services\saddr\" -I                          #
#                          "D:\RE_1_2_0_FORMAL_APP(251)-14-12-8\Projects\zsta #
#                          ck\Samples\SampleApp\CC2530DB\..\..\..\..\..\Compo #
#                          nents\services\sdata\" -I                          #
#                          "D:\RE_1_2_0_FORMAL_APP(251)-14-12-8\Projects\zsta #
#                          ck\Samples\SampleApp\CC2530DB\..\..\..\..\..\Compo #
#                          nents\stack\af\" -I "D:\RE_1_2_0_FORMAL_APP(251)-1 #
#                          4-12-8\Projects\zstack\Samples\SampleApp\CC2530DB\ #
#                          ..\..\..\..\..\Components\stack\nwk\" -I           #
#                          "D:\RE_1_2_0_FORMAL_APP(251)-14-12-8\Projects\zsta #
#                          ck\Samples\SampleApp\CC2530DB\..\..\..\..\..\Compo #
#                          nents\stack\sapi\" -I "D:\RE_1_2_0_FORMAL_APP(251) #
#                          -14-12-8\Projects\zstack\Samples\SampleApp\CC2530D #
#                          B\..\..\..\..\..\Components\stack\sec\" -I         #
#                          "D:\RE_1_2_0_FORMAL_APP(251)-14-12-8\Projects\zsta #
#                          ck\Samples\SampleApp\CC2530DB\..\..\..\..\..\Compo #
#                          nents\stack\sys\" -I "D:\RE_1_2_0_FORMAL_APP(251)- #
#                          14-12-8\Projects\zstack\Samples\SampleApp\CC2530DB #
#                          \..\..\..\..\..\Components\stack\zdo\" -I          #
#                          "D:\RE_1_2_0_FORMAL_APP(251)-14-12-8\Projects\zsta #
#                          ck\Samples\SampleApp\CC2530DB\..\..\..\..\..\Compo #
#                          nents\zmac\" -I "D:\RE_1_2_0_FORMAL_APP(251)-14-12 #
#                          -8\Projects\zstack\Samples\SampleApp\CC2530DB\..\. #
#                          .\..\..\..\Components\zmac\f8w\" -On               #
#                          --require_prototypes                               #
#    List file          =  D:\RE_1_2_0_FORMAL_APP(251)-14-12-8\Projects\zstac #
#                          k\Samples\SampleApp\CC2530DB\LN_1_SCEEN_1_ROUTER\L #
#                          ist\LN_1_SCEEN_1_key.lst                           #
#    Object file        =  D:\RE_1_2_0_FORMAL_APP(251)-14-12-8\Projects\zstac #
#                          k\Samples\SampleApp\CC2530DB\LN_1_SCEEN_1_ROUTER\O #
#                          bj\LN_1_SCEEN_1_key.r51                            #
#                                                                             #
#                                                                             #
###############################################################################

D:\RE_1_2_0_FORMAL_APP(251)-14-12-8\Projects\zstack\Samples\SampleApp\Source\LN_1_SCEEN_1_device\LN_1_SCEEN_1_key.c
      1          /**************************************************************************************************
      2            Filename:       hal_key.c
      3            Revised:        $Date: 2010-09-15 19:02:45 -0700 (Wed, 15 Sep 2010) $
      4            Revision:       $Revision: 23815 $
      5          
      6            Description:    This file contains the interface to the HAL KEY Service.
      7          
      8          
      9            Copyright 2006-2010 Texas Instruments Incorporated. All rights reserved.
     10          
     11            IMPORTANT: Your use of this Software is limited to those specific rights
     12            granted under the terms of a software license agreement between the user
     13            who downloaded the software, his/her employer (which must be your employer)
     14            and Texas Instruments Incorporated (the "License").  You may not use this
     15            Software unless you agree to abide by the terms of the License. The License
     16            limits your use, and you acknowledge, that the Software may not be modified,
     17            copied or distributed unless embedded on a Texas Instruments microcontroller
     18            or used solely and exclusively in conjunction with a Texas Instruments radio
     19            frequency transceiver, which is integrated into your product.  Other than for
     20            the foregoing purpose, you may not use, reproduce, copy, prepare derivative
     21            works of, modify, distribute, perform, display or sell this Software and/or
     22            its documentation for any purpose.
     23          
     24            YOU FURTHER ACKNOWLEDGE AND AGREE THAT THE SOFTWARE AND DOCUMENTATION ARE
     25            PROVIDED AS IS?WITHOUT WARRANTY OF ANY KIND, EITHER EXPRESS OR IMPLIED,
     26            INCLUDING WITHOUT LIMITATION, ANY WARRANTY OF MERCHANTABILITY, TITLE,
     27            NON-INFRINGEMENT AND FITNESS FOR A PARTICULAR PURPOSE. IN NO EVENT SHALL
     28            TEXAS INSTRUMENTS OR ITS LICENSORS BE LIABLE OR OBLIGATED UNDER CONTRACT,
     29            NEGLIGENCE, STRICT LIABILITY, CONTRIBUTION, BREACH OF WARRANTY, OR OTHER
     30            LEGAL EQUITABLE THEORY ANY DIRECT OR INDIRECT DAMAGES OR EXPENSES
     31            INCLUDING BUT NOT LIMITED TO ANY INCIDENTAL, SPECIAL, INDIRECT, PUNITIVE
     32            OR CONSEQUENTIAL DAMAGES, LOST PROFITS OR LOST DATA, COST OF PROCUREMENT
     33            OF SUBSTITUTE GOODS, TECHNOLOGY, SERVICES, OR ANY CLAIMS BY THIRD PARTIES
     34            (INCLUDING BUT NOT LIMITED TO ANY DEFENSE THEREOF), OR OTHER SIMILAR COSTS.
     35          
     36            Should you have any questions regarding your right to use this Software,
     37            contact Texas Instruments Incorporated at www.TI.com.
     38          **************************************************************************************************/
     39          /*********************************************************************
     40           NOTE: If polling is used, the hal_driver task schedules the KeyRead()
     41                 to occur every 100ms.  This should be long enough to naturally
     42                 debounce the keys.  The KeyRead() function remembers the key
     43                 state of the previous poll and will only return a non-zero
     44                 value if the key state changes.
     45          
     46           NOTE: If interrupts are used, the KeyRead() function is scheduled
     47                 25ms after the interrupt occurs by the ISR.  This delay is used
     48                 for key debouncing.  The ISR disables any further Key interrupt
     49                 until KeyRead() is executed.  KeyRead() will re-enable Key
     50                 interrupts after executing.  Unlike polling, when interrupts
     51                 are enabled, the previous key state is not remembered.  This
     52                 means that KeyRead() will return the current state of the keys
     53                 (not a change in state of the keys).
     54          
     55           NOTE: If interrupts are used, the KeyRead() fucntion is scheduled by
     56                 the ISR.  Therefore, the joystick movements will only be detected
     57                 during a pushbutton interrupt caused by S1 or the center joystick
     58                 pushbutton.
     59          
     60           NOTE: When a switch like S1 is pushed, the S1 signal goes from a normally
     61                 high state to a low state.  This transition is typically clean.  The
     62                 duration of the low state is around 200ms.  When the signal returns
     63                 to the high state, there is a high likelihood of signal bounce, which
     64                 causes a unwanted interrupts.  Normally, we would set the interrupt
     65                 edge to falling edge to generate an interrupt when S1 is pushed, but
     66                 because of the signal bounce, it is better to set the edge to rising
     67                 edge to generate an interrupt when S1 is released.  The debounce logic
     68                 can then filter out the signal bounce.  The result is that we typically
     69                 get only 1 interrupt per button push.  This mechanism is not totally
     70                 foolproof because occasionally, signal bound occurs during the falling
     71                 edge as well.  A similar mechanism is used to handle the joystick
     72                 pushbutton on the DB.  For the EB, we do not have independent control
     73                 of the interrupt edge for the S1 and center joystick pushbutton.  As
     74                 a result, only one or the other pushbuttons work reasonably well with
     75                 interrupts.  The default is the make the S1 switch on the EB work more
     76                 reliably.
     77          
     78          *********************************************************************/
     79          
     80          /**************************************************************************************************
     81           *                                            INCLUDES
     82           **************************************************************************************************/
     83          /*
     84          #include "hal_mcu.h"
     85          #include "hal_defs.h"
     86          #include "hal_types.h"
     87          #include "hal_board.h"
     88          #include "hal_drivers.h"
     89          #include "hal_adc.h"
     90          #include "hal_key.h"
     91          #include "osal.h"
     92          #include "hal_led.h"
     93          #include "ZDApp.h"
     94          #include "device.h"
     95          #include "IO_config.h"
     96          //#include "ZDO_LIB.h"
     97          #include "ZDObject.h"
     98          #include "common_device.h"
     99          */
    100          
    101          #include "hal_mcu.h"

   \                                 In  segment SFR_AN, at 0x80
   \   union <unnamed> volatile __sfr _A_P0
   \                     _A_P0:
   \   000000                DS 1

   \                                 In  segment SFR_AN, at 0x89
   \   unsigned char volatile __sfr P0IFG
   \                     P0IFG:
   \   000000                DS 1

   \                                 In  segment SFR_AN, at 0x8a
   \   unsigned char volatile __sfr P1IFG
   \                     P1IFG:
   \   000000                DS 1

   \                                 In  segment SFR_AN, at 0x8b
   \   unsigned char volatile __sfr P2IFG
   \                     P2IFG:
   \   000000                DS 1

   \                                 In  segment SFR_AN, at 0x8c
   \   unsigned char volatile __sfr PICTL
   \                     PICTL:
   \   000000                DS 1

   \                                 In  segment SFR_AN, at 0x8d
   \   unsigned char volatile __sfr P1IEN
   \                     P1IEN:
   \   000000                DS 1

   \                                 In  segment SFR_AN, at 0x90
   \   union <unnamed> volatile __sfr _A_P1
   \                     _A_P1:
   \   000000                DS 1

   \                                 In  segment SFR_AN, at 0x9a
   \   unsigned char volatile __sfr IEN2
   \                     IEN2:
   \   000000                DS 1

   \                                 In  segment SFR_AN, at 0xa8
   \   union <unnamed> volatile __sfr _A_IEN0
   \                     _A_IEN0:
   \   000000                DS 1

   \                                 In  segment SFR_AN, at 0xab
   \   unsigned char volatile __sfr P0IEN
   \                     P0IEN:
   \   000000                DS 1

   \                                 In  segment SFR_AN, at 0xac
   \   unsigned char volatile __sfr P2IEN
   \                     P2IEN:
   \   000000                DS 1

   \                                 In  segment SFR_AN, at 0xb8
   \   union <unnamed> volatile __sfr _A_IEN1
   \                     _A_IEN1:
   \   000000                DS 1

   \                                 In  segment SFR_AN, at 0xe8
   \   union <unnamed> volatile __sfr _A_IRCON2
   \                     _A_IRCON2:
   \   000000                DS 1

   \                                 In  segment SFR_AN, at 0xf3
   \   unsigned char volatile __sfr P0SEL
   \                     P0SEL:
   \   000000                DS 1

   \                                 In  segment SFR_AN, at 0xf4
   \   unsigned char volatile __sfr P1SEL
   \                     P1SEL:
   \   000000                DS 1

   \                                 In  segment SFR_AN, at 0xfd
   \   unsigned char volatile __sfr P0DIR
   \                     P0DIR:
   \   000000                DS 1

   \                                 In  segment SFR_AN, at 0xfe
   \   unsigned char volatile __sfr P1DIR
   \                     P1DIR:
   \   000000                DS 1
    102          #include "hal_defs.h"
    103          #include "hal_types.h"
    104          #include "hal_board.h"
    105          #include "hal_drivers.h"
    106          #include "hal_adc.h"
    107          #include "hal_key.h"
    108          #include "osal.h"
    109          #include "IO_config.h"
    110          #include "common_device.h"
    111          #include "device.h"
    112          #include "ZDObject.h"
    113          
    114          
    115          
    116          
    117          extern void Delay_1u(uint32 microSecs); 
    118          
    119            extern uint8 zdoDiscCounter;
    120          
    121          #if (defined HAL_KEY) && (HAL_KEY == TRUE)
    122          
    123          /**************************************************************************************************
    124           *                                              MACROS
    125           **************************************************************************************************/
    126          
    127          /**************************************************************************************************
    128           *                                            CONSTANTS
    129           **************************************************************************************************/
    130          #define HAL_KEY_RISING_EDGE   0
    131          #define HAL_KEY_FALLING_EDGE  1
    132          
    133          #define HAL_KEY_DEBOUNCE_VALUE  50
    134          #define HAL_KEY_CLICKED_VALUE  600  //600ms 内没按键中断则按键检测结束，发送检测到的按键次数到应用层
    135          #define HAL_KEY_HOLD_VALUE  9400    //9.4s  按键长按10s（9.4s+600ms）以后判断为长按按钮操作
    136          #define HAL_KEY_DOBULETICK_VALUE   1000
    137          /* CPU port interrupt */
    138          #define HAL_KEY_CPU_PORT_0_IF P0IF
    139          #define HAL_KEY_CPU_PORT_1_IF P1IF
    140          #define HAL_KEY_CPU_PORT_2_IF P2IF
    141          
    142          /* SW_6 is at P0.5 */
    143          #define HAL_KEY_SW_6_PORT   P0
    144          #define HAL_KEY_SW_6_BIT    BV(5)
    145          #define HAL_KEY_SW_6_SEL    P0SEL
    146          #define HAL_KEY_SW_6_DIR    P0DIR
    147          /* edge interrupt */
    148          #define HAL_KEY_SW_6_EDGEBIT  BV(0)
    149          #define HAL_KEY_SW_6_EDGE     HAL_KEY_FALLING_EDGE
    150          /* SW_6 interrupts */
    151          #define HAL_KEY_SW_6_IEN      IEN1  /* CPU interrupt mask register */
    152          #define HAL_KEY_SW_6_IENBIT   BV(5) /* Mask bit for all of Port_0 */
    153          #define HAL_KEY_SW_6_ICTL     P0IEN /* Port Interrupt Control register */
    154          #define HAL_KEY_SW_6_ICTLBIT  BV(5) /* P0IEN - P0.1 enable/disable bit BV(1)*/
    155          #define HAL_KEY_SW_6_PXIFG    P0IFG /* Interrupt flag at source */
    156          
    157          
    158          /* SW_6 is at P0.4 */
    159          #define HAL_KEY_SW_7_PORT   P0
    160          #define HAL_KEY_SW_7_BIT    BV(4)
    161          #define HAL_KEY_SW_7_SEL    P0SEL
    162          #define HAL_KEY_SW_7_DIR    P0DIR
    163          /* edge interrupt */
    164          #define HAL_KEY_SW_7_EDGEBIT  BV(1)
    165          #define HAL_KEY_SW_7_EDGE     HAL_KEY_FALLING_EDGE
    166          /* SW_6 interrupts */
    167          #define HAL_KEY_SW_7_IEN      IEN1  /* CPU interrupt mask register */
    168          #define HAL_KEY_SW_7_IENBIT   BV(5) /* Mask bit for all of Port_0 */
    169          #define HAL_KEY_SW_7_ICTL     P0IEN /* Port Interrupt Control register */
    170          #define HAL_KEY_SW_7_ICTLBIT  BV(4) /* P0IEN - P0.1 enable/disable bit BV(1)*/
    171          #define HAL_KEY_SW_7_PXIFG    P0IFG /* Interrupt flag at source */
    172          
    173          
    174          /* SW_8 is at P0.6 */
    175          #define HAL_KEY_SW_9_PORT   P0
    176          #define HAL_KEY_SW_9_BIT    BV(6)
    177          #define HAL_KEY_SW_9_SEL    P0SEL
    178          #define HAL_KEY_SW_9_DIR    P0DIR
    179          /* edge interrupt */
    180          #define HAL_KEY_SW_9_EDGEBIT  BV(0)//p1端口的触发模式设置 在PICTL的低第二位（位1）
    181          #define HAL_KEY_SW_9_EDGE     HAL_KEY_FALLING_EDGE  // 
    182          /* SW_8 interrupts */
    183          #define HAL_KEY_SW_9_IEN      IEN1  /* CPU interrupt mask register */
    184          #define HAL_KEY_SW_9_IENBIT   BV(5) /* Mask bit for all of Port_1 */
    185          #define HAL_KEY_SW_9_ICTL     P0IEN /* Port Interrupt Control register */
    186          #define HAL_KEY_SW_9_ICTLBIT  BV(6) /* P1IEN - P1.2 enable/disable bit */ 
    187          #define HAL_KEY_SW_9_PXIFG    P0IFG /* Interrupt flag at source */
    188          
    189          
    190          /* SW_9 is at P1.2 */
    191          #define HAL_KEY_SW_8_PORT   P1
    192          #define HAL_KEY_SW_8_BIT    BV(2)
    193          #define HAL_KEY_SW_8_SEL    P1SEL
    194          #define HAL_KEY_SW_8_DIR    P1DIR
    195          /* edge interrupt */
    196          #define HAL_KEY_SW_8_EDGEBIT  BV(1)//p1端口的触发模式设置 在PICTL的低第三位（位2）P1.5为高4位地址
    197          #define HAL_KEY_SW_8_EDGE     HAL_KEY_FALLING_EDGE  // 
    198          /* SW_9 interrupts */
    199          #define HAL_KEY_SW_8_IEN      IEN2  /* CPU interrupt mask register */
    200          #define HAL_KEY_SW_8_IENBIT   BV(4) /* Mask bit for all of Port_1 */
    201          #define HAL_KEY_SW_8_ICTL     P1IEN /* Port Interrupt Control register */
    202          #define HAL_KEY_SW_8_ICTLBIT  BV(2) /* P1IEN - P1.4 enable/disable bit */ 
    203          #define HAL_KEY_SW_8_PXIFG    P1IFG /* Interrupt flag at source */
    204          
    205            
    206          /* SW_9 is at P2.0 */
    207          #define HAL_KEY_SW_5_PORT   P2
    208          #define HAL_KEY_SW_5_BIT    BV(0)
    209          #define HAL_KEY_SW_5_SEL    P2SEL
    210          #define HAL_KEY_SW_5_DIR    P2DIR
    211          /* edge interrupt */
    212          #define HAL_KEY_SW_5_EDGEBIT  BV(3)//p1端口的触发模式设置 在PICTL的低第三位（位2）P1.5为高4位地址
    213          #define HAL_KEY_SW_5_EDGE     HAL_KEY_FALLING_EDGE  // 
    214          /* SW_9 interrupts */
    215          #define HAL_KEY_SW_5_IEN      IEN2  /* CPU interrupt mask register */
    216          #define HAL_KEY_SW_5_IENBIT   BV(1) /* Mask bit for all of Port_1 */
    217          #define HAL_KEY_SW_5_ICTL     P2IEN /* Port Interrupt Control register */
    218          #define HAL_KEY_SW_5_ICTLBIT  BV(0) /* P1IEN - P1.4 enable/disable bit */ 
    219          #define HAL_KEY_SW_5_PXIFG    P2IFG /* Interrupt flag at source */
    220          
    221            
    222          
    223          
    224          
    225          #define KEY_FORBITON_TIME   300
    226          
    227          /**************************************************************************************************
    228           *                                            TYPEDEFS
    229           **************************************************************************************************/
    230          
    231          
    232          /**************************************************************************************************
    233           *                                        GLOBAL VARIABLES
    234           **************************************************************************************************/

   \                                 In  segment XDATA_Z, align 1, keep-with-next
    235          static uint8 halKeySavedKeys;     /* used to store previous key state in polling mode */
   \                     halKeySavedKeys:
   \   000000                DS 1
   \   000001                REQUIRE __INIT_XDATA_Z

   \                                 In  segment XDATA_Z, align 1, keep-with-next
    236           halKeyCBack_t pHalKeyProcessFunction;
   \                     pHalKeyProcessFunction:
   \   000000                DS 2
   \   000002                REQUIRE __INIT_XDATA_Z

   \                                 In  segment XDATA_Z, align 1, keep-with-next
    237          static uint8 HalKeyConfigured;
   \                     HalKeyConfigured:
   \   000000                DS 1
   \   000001                REQUIRE __INIT_XDATA_Z

   \                                 In  segment XDATA_Z, align 1, keep-with-next
    238          bool Hal_KeyIntEnable;            /* interrupt enable/disable flag */
   \                     Hal_KeyIntEnable:
   \   000000                DS 1
   \   000001                REQUIRE __INIT_XDATA_Z
    239          
    240          /**************************************************************************************************
    241           *                                        FUNCTIONS - Local
    242           **************************************************************************************************/
    243          void halProcessKeyInterrupt(void);
    244          uint8 halGetJoyKeyInput(void);

   \                                 In  segment XDATA_Z, align 1, keep-with-next
    245          uint8 kpush0=0;
   \                     kpush0:
   \   000000                DS 1
   \   000001                REQUIRE __INIT_XDATA_Z

   \                                 In  segment XDATA_Z, align 1, keep-with-next
    246          uint8 kpush1=0;
   \                     kpush1:
   \   000000                DS 1
   \   000001                REQUIRE __INIT_XDATA_Z

   \                                 In  segment XDATA_Z, align 1, keep-with-next
    247          uint8 key_ISR_FLAG=0;
   \                     key_ISR_FLAG:
   \   000000                DS 1
   \   000001                REQUIRE __INIT_XDATA_Z

   \                                 In  segment XDATA_Z, align 1, keep-with-next
    248          uint8 KEY_NET_ISR_FLAG=0;//test p1.2口的单击 双击
   \                     KEY_NET_ISR_FLAG:
   \   000000                DS 1
   \   000001                REQUIRE __INIT_XDATA_Z

   \                                 In  segment XDATA_Z, align 1, keep-with-next
    249          uint8 key_double_flag = 0;//按键双击状态
   \                     key_double_flag:
   \   000000                DS 1
   \   000001                REQUIRE __INIT_XDATA_Z
    250          

   \                                 In  segment XDATA_Z, align 1, keep-with-next
    251          uint8 key_holdtime_waiting_flag = 0;//等待长按时间（10s）标志 ，0无等待 1正在等待
   \                     key_holdtime_waiting_flag:
   \   000000                DS 1
   \   000001                REQUIRE __INIT_XDATA_Z
    252          

   \                                 In  segment XDATA_Z, align 1, keep-with-next
    253          uint8 key_hold_flag = 0;  //按键长按标志
   \                     key_hold_flag:
   \   000000                DS 1
   \   000001                REQUIRE __INIT_XDATA_Z
    254          

   \                                 In  segment XDATA_Z, align 1, keep-with-next
    255          uint8 Forbitten_ON_flag=0;
   \                     Forbitten_ON_flag:
   \   000000                DS 1
   \   000001                REQUIRE __INIT_XDATA_Z
    256          

   \                                 In  segment XDATA_Z, align 1, keep-with-next
    257          uint8 KEY_NUMBER_FLAG_A = 0;//按键标志
   \                     KEY_NUMBER_FLAG_A:
   \   000000                DS 1
   \   000001                REQUIRE __INIT_XDATA_Z
    258          
    259          
    260          
    261          /**************************************************************************************************
    262           *                                        FUNCTIONS - API
    263           **************************************************************************************************/
    264          
    265          
    266          /**************************************************************************************************
    267           * @fn      HalKeyInit
    268           *
    269           * @brief   Initilize Key Service
    270           *
    271           * @param   none
    272           *
    273           * @return  None
    274           **************************************************************************************************/

   \                                 In  segment BANKED_CODE, align 1, keep-with-next
    275          void HalKeyInit( void )
   \                     HalKeyInit:
    276          {
   \   000000   C082         PUSH    DPL
   \   000002   C083         PUSH    DPH
   \   000004                ; Saved register size: 2
   \   000004                ; Auto size: 0
    277            /* Initialize previous key to 0 */
    278            halKeySavedKeys = 0;
   \   000004   90....       MOV     DPTR,#halKeySavedKeys
   \   000007   7400         MOV     A,#0x0
   \   000009   F0           MOVX    @DPTR,A
    279            
    280            HAL_KEY_SW_6_SEL &= ~(HAL_KEY_SW_6_BIT);    /* Set pin function to GPIO */
   \   00000A   53F3DF       ANL     0xf3,#0xdf
    281            HAL_KEY_SW_6_DIR &= ~(HAL_KEY_SW_6_BIT);    /* Set pin direction to Input */
   \   00000D   53FDDF       ANL     0xfd,#0xdf
    282            
    283            HAL_KEY_SW_7_SEL &= ~(HAL_KEY_SW_7_BIT);    /* Set pin function to GPIO */
   \   000010   53F3EF       ANL     0xf3,#0xef
    284            HAL_KEY_SW_7_DIR &= ~(HAL_KEY_SW_7_BIT);    /* Set pin direction to Input */
   \   000013   53FDEF       ANL     0xfd,#0xef
    285            
    286            HAL_KEY_SW_8_SEL &= ~(HAL_KEY_SW_8_BIT);    /* Set pin function to GPIO */
   \   000016   53F4FB       ANL     0xf4,#0xfb
    287            HAL_KEY_SW_8_DIR &= ~(HAL_KEY_SW_8_BIT);    /* Set pin direction to Input */
   \   000019   53FEFB       ANL     0xfe,#0xfb
    288            
    289            HAL_KEY_SW_9_SEL &= ~(HAL_KEY_SW_9_BIT);    /* Set pin function to GPIO */
   \   00001C   53F3BF       ANL     0xf3,#0xbf
    290            HAL_KEY_SW_9_DIR &= ~(HAL_KEY_SW_9_BIT);    /* Set pin direction to Input */
   \   00001F   53FDBF       ANL     0xfd,#0xbf
    291          
    292          
    293            /* Initialize callback function */
    294            pHalKeyProcessFunction  = NULL;
   \   000022   90....       MOV     DPTR,#pHalKeyProcessFunction
   \   000025   7400         MOV     A,#0x0
   \   000027   F0           MOVX    @DPTR,A
   \   000028   A3           INC     DPTR
   \   000029   7400         MOV     A,#0x0
   \   00002B   F0           MOVX    @DPTR,A
    295          
    296            /* Start with key is not configured */
    297            HalKeyConfigured = FALSE;
   \   00002C   90....       MOV     DPTR,#HalKeyConfigured
   \   00002F   7400         MOV     A,#0x0
   \   000031   F0           MOVX    @DPTR,A
    298          }
   \   000032   D083         POP     DPH
   \   000034   D082         POP     DPL
   \   000036   02....       LJMP    ?BRET
   \   000039                REQUIRE P0SEL
   \   000039                REQUIRE P0DIR
   \   000039                REQUIRE P1SEL
   \   000039                REQUIRE P1DIR
    299          
    300          
    301          /**************************************************************************************************
    302           * @fn      HalKeyConfig
    303           *
    304           * @brief   Configure the Key serivce
    305           *
    306           * @param   interruptEnable - TRUE/FALSE, enable/disable interrupt
    307           *          cback - pointer to the CallBack function
    308           *
    309           * @return  None
    310           **************************************************************************************************/

   \                                 In  segment BANKED_CODE, align 1, keep-with-next
    311          void HalKeyConfig (bool interruptEnable, halKeyCBack_t cback)
   \                     HalKeyConfig:
    312          {
   \   000000   74F7         MOV     A,#-0x9
   \   000002   12....       LCALL   ?BANKED_ENTER_XDATA
   \   000005                ; Saved register size: 9
   \   000005                ; Auto size: 0
   \   000005   89..         MOV     ?V0 + 0,R1
   \   000007   EA           MOV     A,R2
   \   000008   FE           MOV     R6,A
   \   000009   EB           MOV     A,R3
   \   00000A   FF           MOV     R7,A
    313            /* Enable/Disable Interrupt or */
    314            Hal_KeyIntEnable = interruptEnable;
   \   00000B   E5..         MOV     A,?V0 + 0
   \   00000D   90....       MOV     DPTR,#Hal_KeyIntEnable
   \   000010   F0           MOVX    @DPTR,A
    315          
    316            /* Register the callback fucntion */
    317            pHalKeyProcessFunction = cback;
   \   000011   90....       MOV     DPTR,#pHalKeyProcessFunction
   \   000014   EE           MOV     A,R6
   \   000015   F0           MOVX    @DPTR,A
   \   000016   A3           INC     DPTR
   \   000017   EF           MOV     A,R7
   \   000018   F0           MOVX    @DPTR,A
    318          
    319            /* Determine if interrupt is enable or not */
    320            if (Hal_KeyIntEnable)
   \   000019   90....       MOV     DPTR,#Hal_KeyIntEnable
   \   00001C   E0           MOVX    A,@DPTR
   \   00001D   605F         JZ      ??HalKeyConfig_0
    321            {
    322                /* Rising/Falling edge configuratinn */
    323          
    324             
    325          //P2.0
    326               PICTL &= ~(HAL_KEY_SW_5_EDGEBIT);    /* Clear the edge bit */
   \   00001F   538CF7       ANL     0x8c,#0xf7
    327              /* For falling edge, the bit must be set. */
    328            #if (HAL_KEY_SW_5_EDGE == HAL_KEY_FALLING_EDGE)//2530的上升 下降沿触发是按端口设置的，即P0要么是上升要么全是下降
    329              PICTL |= HAL_KEY_SW_5_EDGEBIT;
   \   000022   438C08       ORL     0x8c,#0x8
    330            #endif
    331              HAL_KEY_SW_5_ICTL |= HAL_KEY_SW_5_ICTLBIT;//P1IEN | 00100000  即P1.5使能中断
   \   000025   43AC01       ORL     0xac,#0x1
    332              HAL_KEY_SW_5_IEN |= HAL_KEY_SW_5_IENBIT;//使能整个CPU的P1口中断
   \   000028   439A02       ORL     0x9a,#0x2
    333              HAL_KEY_SW_5_PXIFG &= ~(HAL_KEY_SW_5_BIT);//清中断标记位
   \   00002B   538BFE       ANL     0x8b,#0xfe
    334          
    335              //P0.5  
    336              PICTL &= ~(HAL_KEY_SW_6_EDGEBIT);    /* Clear the edge bit */
   \   00002E   538CFE       ANL     0x8c,#0xfe
    337              /* For falling edge, the bit must be set. */
    338            #if (HAL_KEY_SW_6_EDGE == HAL_KEY_FALLING_EDGE)//2530的上升 下降沿触发是按端口设置的，即P0要么是上升要么全是下降
    339              PICTL |= HAL_KEY_SW_6_EDGEBIT;
   \   000031   438C01       ORL     0x8c,#0x1
    340            #endif
    341              HAL_KEY_SW_6_ICTL |= HAL_KEY_SW_6_ICTLBIT;//P0IEN | 00010000  即P0.4使能中断
   \   000034   43AB20       ORL     0xab,#0x20
    342              HAL_KEY_SW_6_IEN |= HAL_KEY_SW_6_IENBIT;//使能整个CPU的P0口中断
   \   000037   D2BD         SETB    0xb8.5
    343              HAL_KEY_SW_6_PXIFG &= ~(HAL_KEY_SW_6_BIT);//清中断标记位
   \   000039   5389DF       ANL     0x89,#0xdf
    344              
    345              //P0.4
    346              PICTL &= ~(HAL_KEY_SW_7_EDGEBIT);    /* Clear the edge bit */
   \   00003C   538CFD       ANL     0x8c,#0xfd
    347              /* For falling edge, the bit must be set. */
    348            #if (HAL_KEY_SW_7_EDGE == HAL_KEY_FALLING_EDGE)//2530的上升 下降沿触发是按端口设置的，即P0要么是上升要么全是下降
    349              PICTL |= HAL_KEY_SW_7_EDGEBIT;
   \   00003F   438C02       ORL     0x8c,#0x2
    350            #endif
    351              HAL_KEY_SW_7_ICTL |= HAL_KEY_SW_7_ICTLBIT;//P0IEN | 00010000  即P0.4使能中断
   \   000042   43AB10       ORL     0xab,#0x10
    352              HAL_KEY_SW_7_IEN |= HAL_KEY_SW_7_IENBIT;//使能整个CPU的P0口中断
   \   000045   D2BD         SETB    0xb8.5
    353              HAL_KEY_SW_7_PXIFG &= ~(HAL_KEY_SW_7_BIT);//清中断标记位
   \   000047   5389EF       ANL     0x89,#0xef
    354              
    355              //P1.2
    356               PICTL &= ~(HAL_KEY_SW_8_EDGEBIT);    /* Clear the edge bit */
   \   00004A   538CFD       ANL     0x8c,#0xfd
    357              /* For falling edge, the bit must be set. */
    358            #if (HAL_KEY_SW_8_EDGE == HAL_KEY_FALLING_EDGE)
    359              PICTL |= HAL_KEY_SW_8_EDGEBIT;			//P1.0~p1.3下降沿 。p1.2 按键下降沿
   \   00004D   438C02       ORL     0x8c,#0x2
    360            #endif
    361              HAL_KEY_SW_8_ICTL |= HAL_KEY_SW_8_ICTLBIT;//P1IEN | 00000100  即P1.2使能中断
   \   000050   438D04       ORL     0x8d,#0x4
    362              HAL_KEY_SW_8_IEN |= HAL_KEY_SW_8_IENBIT;//使能整个CPU的P1口中断
   \   000053   439A10       ORL     0x9a,#0x10
    363              HAL_KEY_SW_8_PXIFG &= ~(HAL_KEY_SW_8_BIT);//清中断标记位
   \   000056   538AFB       ANL     0x8a,#0xfb
    364             
    365              
    366          
    367          //P0.6
    368               PICTL &= ~(HAL_KEY_SW_9_EDGEBIT);    /* Clear the edge bit */
   \   000059   538CFE       ANL     0x8c,#0xfe
    369              /* For falling edge, the bit must be set. */
    370            #if (HAL_KEY_SW_9_EDGE == HAL_KEY_FALLING_EDGE)//2530的上升 下降沿触发是按端口设置的，即P0要么是上升要么全是下降
    371              PICTL |= HAL_KEY_SW_9_EDGEBIT;
   \   00005C   438C01       ORL     0x8c,#0x1
    372            #endif
    373              HAL_KEY_SW_9_ICTL |= HAL_KEY_SW_9_ICTLBIT;//P1IEN | 00100000  即P1.5使能中断
   \   00005F   43AB40       ORL     0xab,#0x40
    374              HAL_KEY_SW_9_IEN |= HAL_KEY_SW_9_IENBIT;//使能整个CPU的P1口中断
   \   000062   D2BD         SETB    0xb8.5
    375              HAL_KEY_SW_9_PXIFG &= ~(HAL_KEY_SW_9_BIT);//清中断标记位
   \   000064   5389BF       ANL     0x89,#0xbf
    376              
    377          
    378              /* Do this only after the hal_key is configured - to work with sleep stuff */
    379              if (HalKeyConfigured == TRUE)
   \   000067   90....       MOV     DPTR,#HalKeyConfigured
   \   00006A   E0           MOVX    A,@DPTR
   \   00006B   6401         XRL     A,#0x1
   \   00006D   7021         JNZ     ??HalKeyConfig_1
    380              {
    381                osal_stop_timerEx(Hal_TaskID, HAL_KEY_EVENT);  /* Cancel polling if active */
   \   00006F                ; Setup parameters for call to function osal_stop_timerEx
   \   00006F   7A01         MOV     R2,#0x1
   \   000071   7B00         MOV     R3,#0x0
   \   000073   90....       MOV     DPTR,#Hal_TaskID
   \   000076   E0           MOVX    A,@DPTR
   \   000077   F9           MOV     R1,A
   \   000078   12....       LCALL   ??osal_stop_timerEx?relay
   \   00007B   E9           MOV     A,R1
   \   00007C   8012         SJMP    ??HalKeyConfig_1
    382              }
    383            }
    384            else    /* Interrupts NOT enabled */
    385            {
    386              HAL_KEY_SW_6_ICTL &= ~(HAL_KEY_SW_6_ICTLBIT); /* don't generate interrupt */
   \                     ??HalKeyConfig_0:
   \   00007E   53ABDF       ANL     0xab,#0xdf
    387              HAL_KEY_SW_6_IEN &= ~(HAL_KEY_SW_6_IENBIT);   /* Clear interrupt enable bit */
   \   000081   C2BD         CLR     0xb8.5
    388          
    389              osal_set_event(Hal_TaskID, HAL_KEY_EVENT);
   \   000083                ; Setup parameters for call to function osal_set_event
   \   000083   7A01         MOV     R2,#0x1
   \   000085   7B00         MOV     R3,#0x0
   \   000087   90....       MOV     DPTR,#Hal_TaskID
   \   00008A   E0           MOVX    A,@DPTR
   \   00008B   F9           MOV     R1,A
   \   00008C   12....       LCALL   ??osal_set_event?relay
   \   00008F   E9           MOV     A,R1
    390            }
    391          
    392            /* Key now is configured */
    393            HalKeyConfigured = TRUE;
   \                     ??HalKeyConfig_1:
   \   000090   90....       MOV     DPTR,#HalKeyConfigured
   \   000093   7401         MOV     A,#0x1
   \   000095   F0           MOVX    @DPTR,A
    394          }
   \   000096   7F01         MOV     R7,#0x1
   \   000098   02....       LJMP    ?BANKED_LEAVE_XDATA
   \   00009B                REQUIRE PICTL
   \   00009B                REQUIRE P2IEN
   \   00009B                REQUIRE IEN2
   \   00009B                REQUIRE P2IFG
   \   00009B                REQUIRE P0IEN
   \   00009B                REQUIRE _A_IEN1
   \   00009B                REQUIRE P0IFG
   \   00009B                REQUIRE P1IEN
   \   00009B                REQUIRE P1IFG
    395          
    396          
    397          /**************************************************************************************************
    398           * @fn      HalKeyRead
    399           *
    400           * @brief   Read the current value of a key
    401           *
    402           * @param   None
    403           *
    404           * @return  keys - current keys status
    405           **************************************************************************************************/

   \                                 In  segment BANKED_CODE, align 1, keep-with-next
    406          uint8 HalKeyRead ( void )
   \                     HalKeyRead:
    407          {
   \   000000                ; Saved register size: 0
   \   000000                ; Auto size: 0
    408            uint8 keys = 0;
   \   000000   7900         MOV     R1,#0x0
    409          
    410            if (HAL_PUSH_BUTTON1())
   \   000002   A293         MOV     C,0x90.3
   \   000004   5005         JNC     ??HalKeyRead_0
    411            {
    412              keys |= HAL_KEY_SW_6;
   \   000006   D3           SETB    C
   \   000007   E9           MOV     A,R1
   \   000008   92E5         MOV     0xE0 /* A   */.5,C
   \   00000A   F9           MOV     R1,A
    413            }
    414          
    415            
    416          
    417            return keys;
   \                     ??HalKeyRead_0:
   \   00000B   02....       LJMP    ?BRET
   \   00000E                REQUIRE _A_P1
    418          }
    419          
    420          
    421          /**************************************************************************************************
    422           * @fn      HalKeyPoll
    423           *
    424           * @brief   Called by hal_driver to poll the keys
    425           *
    426           * @param   None
    427           *
    428           * @return  None
    429          
    430          对应关系：
    431          P1.2 HAL_PUSH_BUTTON3 左边第一个按键 HAL_KEY_SW_8_PXIFG   HAL_KEY_SW_8 对应左边第一个灯 LED1 P1.0 key_other2_present_flag
    432          P1.5 HAL_PUSH_BUTTON2 中间按键      HAL_KEY_SW_7_PXIFG   HAL_KEY_SW_7 对应左边中间灯  LED2    P0.6 key_other3_present_flag
    433          P1.6 HAL_PUSH_BUTTON1 右边最后一个按键      HAL_KEY_SW_6_PXIFG   HAL_KEY_SW_6 对应右边灯  LED3 P0.5 key_other4_present_flag
    434          P1.7 HAL_PUSH_BUTTON5 系统内置按键      HAL_KEY_SW_9_PXIFG   HAL_KEY_SW_9 对应右边灯  LED5     P2.0 key_other1_present_flag
    435          
    436          
    437            
    438          
    439           **************************************************************************************************/

   \                                 In  segment BANKED_CODE, align 1, keep-with-next
    440          void HalKeyPoll (void)
   \                     HalKeyPoll:
    441          {
   \   000000   74F7         MOV     A,#-0x9
   \   000002   12....       LCALL   ?BANKED_ENTER_XDATA
   \   000005                ; Saved register size: 9
   \   000005                ; Auto size: 0
    442           uint8 keys = 0;
   \   000005   7E00         MOV     R6,#0x0
    443          
    444            
    445          
    446            /* If interrupts are not enabled, previous key status and current key status
    447             * are compared to find out if a key has changed status.
    448             */
    449            if (!Hal_KeyIntEnable)
   \   000007   90....       MOV     DPTR,#Hal_KeyIntEnable
   \   00000A   E0           MOVX    A,@DPTR
   \   00000B   7012         JNZ     ??HalKeyPoll_0
    450            {
    451              if (keys == halKeySavedKeys)
   \   00000D   90....       MOV     DPTR,#halKeySavedKeys
   \   000010   E0           MOVX    A,@DPTR
   \   000011   6E           XRL     A,R6
   \   000012   7003         JNZ     $+5
   \   000014   02....       LJMP    ??HalKeyPoll_1 & 0xFFFF
    452              {
    453                 /* Exit - since no keys have changed */
    454                return;
    455              }
    456              /* Store the current keys for comparation next time */
    457              halKeySavedKeys = keys;
   \   000017   EE           MOV     A,R6
   \   000018   90....       MOV     DPTR,#halKeySavedKeys
   \   00001B   F0           MOVX    @DPTR,A
   \   00001C   02....       LJMP    ??HalKeyPoll_2 & 0xFFFF
    458            }
    459            else
    460            {
    461              /* Key interrupt handled here */
    462          
    463              
    464              //P1.2   为系统设置按钮 对应的指示灯位 P2.0
    465                if ((key_ISR_FLAG==HAL_KEY_SW_8) && (!(HAL_PUSH_BUTTON3())))//初步理解，设置p1.2为上升沿触发，触发唤醒系统后，25ms到这，判断是否为1，是1则读取见键值
   \                     ??HalKeyPoll_0:
   \   00001F   90....       MOV     DPTR,#key_ISR_FLAG
   \   000022   E0           MOVX    A,@DPTR
   \   000023   6480         XRL     A,#0x80
   \   000025   704B         JNZ     ??HalKeyPoll_3
   \   000027   A292         MOV     C,0x90.2
   \   000029   4047         JC      ??HalKeyPoll_3
    466             {
    467               
    468               
    469               if(key_holdtime_waiting_flag)
   \   00002B   90....       MOV     DPTR,#key_holdtime_waiting_flag
   \   00002E   E0           MOVX    A,@DPTR
   \   00002F   6019         JZ      ??HalKeyPoll_4
    470          	 {
    471          	   key_holdtime_waiting_flag = 0;//在等待长按时间时再次按下按钮 此时需要清等待长按时间标志以及取消之前设置的等待长按时间满以后进入事件
   \   000031   90....       MOV     DPTR,#key_holdtime_waiting_flag
   \   000034   7400         MOV     A,#0x0
   \   000036   F0           MOVX    @DPTR,A
    472          	   osal_stop_timerEx (Hal_TaskID, HAL_KEY_HOLD_EVENT);//  停止之前进入的事件
   \   000037                ; Setup parameters for call to function osal_stop_timerEx
   \   000037   7A40         MOV     R2,#0x40
   \   000039   7B00         MOV     R3,#0x0
   \   00003B   90....       MOV     DPTR,#Hal_TaskID
   \   00003E   E0           MOVX    A,@DPTR
   \   00003F   F9           MOV     R1,A
   \   000040   12....       LCALL   ??osal_stop_timerEx?relay
   \   000043   E9           MOV     A,R1
    473          	   KEY_NET_ISR_FLAG = 0;// 等待长按时间被打断后 重新计数按键次数
   \   000044   90....       MOV     DPTR,#KEY_NET_ISR_FLAG
   \   000047   7400         MOV     A,#0x0
   \   000049   F0           MOVX    @DPTR,A
    474          	 }
    475               
    476               KEY_NET_ISR_FLAG++;//test 测试单击 双击等程序
   \                     ??HalKeyPoll_4:
   \   00004A   90....       MOV     DPTR,#KEY_NET_ISR_FLAG
   \   00004D   E0           MOVX    A,@DPTR
   \   00004E   2401         ADD     A,#0x1
   \   000050   F0           MOVX    @DPTR,A
    477               osal_stop_timerEx (Hal_TaskID, HAL_KEY_MULTI_CLICK_EVENT);//  停止之前进入的事件
   \   000051                ; Setup parameters for call to function osal_stop_timerEx
   \   000051   7A20         MOV     R2,#0x20
   \   000053   7B00         MOV     R3,#0x0
   \   000055   90....       MOV     DPTR,#Hal_TaskID
   \   000058   E0           MOVX    A,@DPTR
   \   000059   F9           MOV     R1,A
   \   00005A   12....       LCALL   ??osal_stop_timerEx?relay
   \   00005D   E9           MOV     A,R1
    478               osal_start_timerEx (Hal_TaskID, HAL_KEY_MULTI_CLICK_EVENT, HAL_KEY_CLICKED_VALUE);//600mS后触发检测几击程序
   \   00005E                ; Setup parameters for call to function osal_start_timerEx
   \   00005E   7C58         MOV     R4,#0x58
   \   000060   7D02         MOV     R5,#0x2
   \   000062   7A20         MOV     R2,#0x20
   \   000064   7B00         MOV     R3,#0x0
   \   000066   90....       MOV     DPTR,#Hal_TaskID
   \   000069   E0           MOVX    A,@DPTR
   \   00006A   F9           MOV     R1,A
   \   00006B   12....       LCALL   ??osal_start_timerEx?relay
   \   00006E   E9           MOV     A,R1
   \   00006F   02....       LJMP    ??HalKeyPoll_2 & 0xFFFF
    479             } 
    480              
    481              // P0.6  对应第一个左边的按钮 灯为LED1 
    482             else if ((key_ISR_FLAG==HAL_KEY_SW_9) && (!HAL_PUSH_BUTTON5()))//初步理解，设置p1.5为上升沿触发，触发唤醒系统后，25ms到这，判断是否为1，是1则读取见键值
   \                     ??HalKeyPoll_3:
   \   000072   90....       MOV     DPTR,#key_ISR_FLAG
   \   000075   E0           MOVX    A,@DPTR
   \   000076   6440         XRL     A,#0x40
   \   000078   6003         JZ      $+5
   \   00007A   02....       LJMP    ??HalKeyPoll_5 & 0xFFFF
   \   00007D   A286         MOV     C,0x80.6
   \   00007F   5003         JNC     $+5
   \   000081   02....       LJMP    ??HalKeyPoll_5 & 0xFFFF
    483             {
    484                 
    485               P0IEN &= ~BV(6);
   \   000084   53ABBF       ANL     0xab,#0xbf
    486               osal_stop_timerEx (UserApp_TaskID, HAL_KEY_INTERRUPT_STOP_1);
   \   000087                ; Setup parameters for call to function osal_stop_timerEx
   \   000087   7A10         MOV     R2,#0x10
   \   000089   7B00         MOV     R3,#0x0
   \   00008B   90....       MOV     DPTR,#UserApp_TaskID
   \   00008E   E0           MOVX    A,@DPTR
   \   00008F   F9           MOV     R1,A
   \   000090   12....       LCALL   ??osal_stop_timerEx?relay
   \   000093   E9           MOV     A,R1
    487               osal_start_timerEx (UserApp_TaskID, HAL_KEY_INTERRUPT_STOP_1, KEY_FORBITON_TIME);
   \   000094                ; Setup parameters for call to function osal_start_timerEx
   \   000094   7C2C         MOV     R4,#0x2c
   \   000096   7D01         MOV     R5,#0x1
   \   000098   7A10         MOV     R2,#0x10
   \   00009A   7B00         MOV     R3,#0x0
   \   00009C   90....       MOV     DPTR,#UserApp_TaskID
   \   00009F   E0           MOVX    A,@DPTR
   \   0000A0   F9           MOV     R1,A
   \   0000A1   12....       LCALL   ??osal_start_timerEx?relay
   \   0000A4   E9           MOV     A,R1
    488                
    489                if(!(HAL_PUSH_BUTTON3()))//P1.2按下
   \   0000A5   A292         MOV     C,0x90.2
   \   0000A7   400E         JC      ??HalKeyPoll_6
    490               {
    491               SampleApp_send_in_binding_req(SAMPLEAPP_ENDPOINT1,bindingINClusters,1);
   \   0000A9                ; Setup parameters for call to function SampleApp_send_in_binding_req
   \   0000A9   7C01         MOV     R4,#0x1
   \   0000AB   7A..         MOV     R2,#bindingINClusters & 0xff
   \   0000AD   7B..         MOV     R3,#(bindingINClusters >> 8) & 0xff
   \   0000AF   7915         MOV     R1,#0x15
   \   0000B1   12....       LCALL   ??SampleApp_send_in_binding_req?relay
   \   0000B4   02....       LJMP    ??HalKeyPoll_2 & 0xFFFF
    492               }
    493                else
    494               {
    495                 if ( (load_1_flag == 0) &&(Forbitten_ON_flag==0))
   \                     ??HalKeyPoll_6:
   \   0000B7   90....       MOV     DPTR,#load_1_flag
   \   0000BA   E0           MOVX    A,@DPTR
   \   0000BB   701C         JNZ     ??HalKeyPoll_7
   \   0000BD   90....       MOV     DPTR,#Forbitten_ON_flag
   \   0000C0   E0           MOVX    A,@DPTR
   \   0000C1   7016         JNZ     ??HalKeyPoll_7
    496                  {
    497                     open_load_1();
   \   0000C3                ; Setup parameters for call to function open_load_1
   \   0000C3   12....       LCALL   ??open_load_1?relay
    498                     osal_start_timerEx( UserApp_TaskID,HOLD_LOAD_1_EVT,RELAY_HOLD_TIME );   
   \   0000C6                ; Setup parameters for call to function osal_start_timerEx
   \   0000C6   7C19         MOV     R4,#0x19
   \   0000C8   7D00         MOV     R5,#0x0
   \   0000CA   7A00         MOV     R2,#0x0
   \   0000CC   7B02         MOV     R3,#0x2
   \   0000CE   90....       MOV     DPTR,#UserApp_TaskID
   \   0000D1   E0           MOVX    A,@DPTR
   \   0000D2   F9           MOV     R1,A
   \   0000D3   12....       LCALL   ??osal_start_timerEx?relay
   \   0000D6   E9           MOV     A,R1
   \   0000D7   8014         SJMP    ??HalKeyPoll_8
    499                   } 
    500                   
    501                  else
    502                   {
    503                     close_load_1();
   \                     ??HalKeyPoll_7:
   \   0000D9                ; Setup parameters for call to function close_load_1
   \   0000D9   12....       LCALL   ??close_load_1?relay
    504                     osal_start_timerEx( UserApp_TaskID,HOLD_LOAD_1_EVT,RELAY_HOLD_TIME );   
   \   0000DC                ; Setup parameters for call to function osal_start_timerEx
   \   0000DC   7C19         MOV     R4,#0x19
   \   0000DE   7D00         MOV     R5,#0x0
   \   0000E0   7A00         MOV     R2,#0x0
   \   0000E2   7B02         MOV     R3,#0x2
   \   0000E4   90....       MOV     DPTR,#UserApp_TaskID
   \   0000E7   E0           MOVX    A,@DPTR
   \   0000E8   F9           MOV     R1,A
   \   0000E9   12....       LCALL   ??osal_start_timerEx?relay
   \   0000EC   E9           MOV     A,R1
    505                   } 
    506                  
    507                if( (devState==DEV_END_DEVICE) || (devState==DEV_ROUTER) )
   \                     ??HalKeyPoll_8:
   \   0000ED   90....       MOV     DPTR,#devState
   \   0000F0   E0           MOVX    A,@DPTR
   \   0000F1   6406         XRL     A,#0x6
   \   0000F3   600B         JZ      ??HalKeyPoll_9
   \   0000F5   90....       MOV     DPTR,#devState
   \   0000F8   E0           MOVX    A,@DPTR
   \   0000F9   6407         XRL     A,#0x7
   \   0000FB   6003         JZ      $+5
   \   0000FD   02....       LJMP    ??HalKeyPoll_2 & 0xFFFF
    508                   {
    509                      SampleApp_SendInMessage();
   \                     ??HalKeyPoll_9:
   \   000100                ; Setup parameters for call to function SampleApp_SendInMessage
   \   000100   12....       LCALL   ??SampleApp_SendInMessage?relay
   \   000103   02....       LJMP    ??HalKeyPoll_2 & 0xFFFF
    510                   }
    511                }
    512             }
    513             
    514             // P0.4 对应中间的按钮 指示灯也是中间的 
    515            else  if ((key_ISR_FLAG==HAL_KEY_SW_7) && (!HAL_PUSH_BUTTON2()))//初步理解，设置p1.5为上升沿触发，触发唤醒系统后，25ms到这，判断是否为1，是1则读取见键值
   \                     ??HalKeyPoll_5:
   \   000106   90....       MOV     DPTR,#key_ISR_FLAG
   \   000109   E0           MOVX    A,@DPTR
   \   00010A   6410         XRL     A,#0x10
   \   00010C   707F         JNZ     ??HalKeyPoll_2
   \   00010E   A284         MOV     C,0x80.4
   \   000110   407B         JC      ??HalKeyPoll_2
    516             {
    517               
    518                P1IEN &= ~BV(1);//p1.1 
   \   000112   538DFD       ANL     0x8d,#0xfd
    519                osal_stop_timerEx (UserApp_TaskID, HAL_KEY_INTERRUPT_STOP_2);//  停止之前进入的事件
   \   000115                ; Setup parameters for call to function osal_stop_timerEx
   \   000115   7A20         MOV     R2,#0x20
   \   000117   7B00         MOV     R3,#0x0
   \   000119   90....       MOV     DPTR,#UserApp_TaskID
   \   00011C   E0           MOVX    A,@DPTR
   \   00011D   F9           MOV     R1,A
   \   00011E   12....       LCALL   ??osal_stop_timerEx?relay
   \   000121   E9           MOV     A,R1
    520                osal_start_timerEx (UserApp_TaskID, HAL_KEY_INTERRUPT_STOP_2, KEY_FORBITON_TIME);
   \   000122                ; Setup parameters for call to function osal_start_timerEx
   \   000122   7C2C         MOV     R4,#0x2c
   \   000124   7D01         MOV     R5,#0x1
   \   000126   7A20         MOV     R2,#0x20
   \   000128   7B00         MOV     R3,#0x0
   \   00012A   90....       MOV     DPTR,#UserApp_TaskID
   \   00012D   E0           MOVX    A,@DPTR
   \   00012E   F9           MOV     R1,A
   \   00012F   12....       LCALL   ??osal_start_timerEx?relay
   \   000132   E9           MOV     A,R1
    521               
    522               //  if((MONZ_2 == 1)&&(load_2_flag ==0))//检测是否在线的信号，如果接了灯 灯是关的 这个值为高电平 如果灯是开的为低电平 如果没有接等也为低电平 所以要判断这个值是否为高才能去控制他开，不然会浪费功耗。
    523                
    524               if(!(HAL_PUSH_BUTTON3()))//P1.2按下
   \   000133   A292         MOV     C,0x90.2
   \   000135   400D         JC      ??HalKeyPoll_10
    525               {
    526                 SampleApp_send_in_binding_req(SAMPLEAPP_ENDPOINT2,bindingINClusters,1);
   \   000137                ; Setup parameters for call to function SampleApp_send_in_binding_req
   \   000137   7C01         MOV     R4,#0x1
   \   000139   7A..         MOV     R2,#bindingINClusters & 0xff
   \   00013B   7B..         MOV     R3,#(bindingINClusters >> 8) & 0xff
   \   00013D   7916         MOV     R1,#0x16
   \   00013F   12....       LCALL   ??SampleApp_send_in_binding_req?relay
   \   000142   8049         SJMP    ??HalKeyPoll_2
    527               }
    528                else
    529               {
    530                     if ( (load_2_flag == 0) &&(Forbitten_ON_flag==0))
   \                     ??HalKeyPoll_10:
   \   000144   90....       MOV     DPTR,#load_2_flag
   \   000147   E0           MOVX    A,@DPTR
   \   000148   701C         JNZ     ??HalKeyPoll_11
   \   00014A   90....       MOV     DPTR,#Forbitten_ON_flag
   \   00014D   E0           MOVX    A,@DPTR
   \   00014E   7016         JNZ     ??HalKeyPoll_11
    531                {
    532                   open_load_2();
   \   000150                ; Setup parameters for call to function open_load_2
   \   000150   12....       LCALL   ??open_load_2?relay
    533                   osal_start_timerEx( UserApp_TaskID,HOLD_LOAD_2_EVT,RELAY_HOLD_TIME );   
   \   000153                ; Setup parameters for call to function osal_start_timerEx
   \   000153   7C19         MOV     R4,#0x19
   \   000155   7D00         MOV     R5,#0x0
   \   000157   7A00         MOV     R2,#0x0
   \   000159   7B04         MOV     R3,#0x4
   \   00015B   90....       MOV     DPTR,#UserApp_TaskID
   \   00015E   E0           MOVX    A,@DPTR
   \   00015F   F9           MOV     R1,A
   \   000160   12....       LCALL   ??osal_start_timerEx?relay
   \   000163   E9           MOV     A,R1
   \   000164   8014         SJMP    ??HalKeyPoll_12
    534                 } 
    535                 
    536                else
    537                 {
    538                  close_load_2();
   \                     ??HalKeyPoll_11:
   \   000166                ; Setup parameters for call to function close_load_2
   \   000166   12....       LCALL   ??close_load_2?relay
    539                  osal_start_timerEx( UserApp_TaskID,HOLD_LOAD_2_EVT,RELAY_HOLD_TIME );       
   \   000169                ; Setup parameters for call to function osal_start_timerEx
   \   000169   7C19         MOV     R4,#0x19
   \   00016B   7D00         MOV     R5,#0x0
   \   00016D   7A00         MOV     R2,#0x0
   \   00016F   7B04         MOV     R3,#0x4
   \   000171   90....       MOV     DPTR,#UserApp_TaskID
   \   000174   E0           MOVX    A,@DPTR
   \   000175   F9           MOV     R1,A
   \   000176   12....       LCALL   ??osal_start_timerEx?relay
   \   000179   E9           MOV     A,R1
    540                 } 
    541             
    542          
    543             if( (devState==DEV_END_DEVICE) || (devState==DEV_ROUTER) )
   \                     ??HalKeyPoll_12:
   \   00017A   90....       MOV     DPTR,#devState
   \   00017D   E0           MOVX    A,@DPTR
   \   00017E   6406         XRL     A,#0x6
   \   000180   6008         JZ      ??HalKeyPoll_13
   \   000182   90....       MOV     DPTR,#devState
   \   000185   E0           MOVX    A,@DPTR
   \   000186   6407         XRL     A,#0x7
   \   000188   7003         JNZ     ??HalKeyPoll_2
    544                 {
    545                    SampleApp_SendInMessage();
   \                     ??HalKeyPoll_13:
   \   00018A                ; Setup parameters for call to function SampleApp_SendInMessage
   \   00018A   12....       LCALL   ??SampleApp_SendInMessage?relay
    546                 }
    547               }
    548             }
    549             
    550            
    551             /*
    552                 //P1.6 对应第三个按钮 最右边的 对应指示灯LED3 P0.5
    553            else if ((key_ISR_FLAG==HAL_KEY_SW_6) && (!(HAL_PUSH_BUTTON1())))//初步理解，设置p1.2为上升沿触发，触发唤醒系统后，25ms到这，判断是否为1，是1则读取见键值
    554             {
    555                P1IEN &= ~BV(3);
    556                osal_stop_timerEx (UserApp_TaskID, HAL_KEY_INTERRUPT_STOP_3);//  停止之前进入的事件
    557                osal_start_timerEx (UserApp_TaskID, HAL_KEY_INTERRUPT_STOP_3, KEY_FORBITON_TIME);
    558               
    559               //  if((MONZ_2 == 1)&&(load_2_flag ==0))//检测是否在线的信号，如果接了灯 灯是关的 这个值为高电平 如果灯是开的为低电平 如果没有接等也为低电平 所以要判断这个值是否为高才能去控制他开，不然会浪费功耗。
    560               
    561                 if(!(HAL_PUSH_BUTTON3()))//P1.7按下
    562               {
    563                SampleApp_send_in_binding_req(SAMPLEAPP_ENDPOINT3,bindingINClusters,1);
    564               }
    565                else
    566               {
    567               
    568                if ( (load_3_flag == 0) &&( (zdoDiscCounter==20)|| (zdoDiscCounter==1)) )
    569                {
    570                   open_load_3();
    571                   osal_start_timerEx( UserApp_TaskID,HOLD_LOAD_3_EVT,RELAY_HOLD_TIME );   
    572                 } 
    573                 
    574                else
    575                 {
    576                  close_load_3();
    577                  osal_start_timerEx( UserApp_TaskID,HOLD_LOAD_3_EVT,RELAY_HOLD_TIME );      
    578                 } 
    579               
    580                if( (devState==DEV_END_DEVICE) || (devState==DEV_ROUTER) )
    581                 {
    582                    SampleApp_SendInMessage();
    583                 } 
    584              }
    585             }
    586          */
    587            }
    588          
    589            
    590          
    591           
    592            /* Invoke Callback if new keys were depressed */
    593            if (keys && (pHalKeyProcessFunction))
   \                     ??HalKeyPoll_2:
   \   00018D   EE           MOV     A,R6
   \   00018E   6024         JZ      ??HalKeyPoll_1
   \   000190   90....       MOV     DPTR,#pHalKeyProcessFunction
   \   000193   E0           MOVX    A,@DPTR
   \   000194   F8           MOV     R0,A
   \   000195   A3           INC     DPTR
   \   000196   E0           MOVX    A,@DPTR
   \   000197   F9           MOV     R1,A
   \   000198   E8           MOV     A,R0
   \   000199   49           ORL     A,R1
   \   00019A   6018         JZ      ??HalKeyPoll_1
    594            {
    595              (pHalKeyProcessFunction) (keys, HAL_KEY_STATE_NORMAL);
   \   00019C                ; Setup parameters for indirect call
   \   00019C   7A00         MOV     R2,#0x0
   \   00019E   EE           MOV     A,R6
   \   00019F   F9           MOV     R1,A
   \   0001A0   90....       MOV     DPTR,#pHalKeyProcessFunction
   \   0001A3   E0           MOVX    A,@DPTR
   \   0001A4   F8           MOV     R0,A
   \   0001A5   A3           INC     DPTR
   \   0001A6   E0           MOVX    A,@DPTR
   \   0001A7   F583         MOV     DPH,A
   \   0001A9   8882         MOV     DPL,R0
   \   0001AB   12....       LCALL   ?CALL_IND
    596              key_ISR_FLAG=0;
   \   0001AE   90....       MOV     DPTR,#key_ISR_FLAG
   \   0001B1   7400         MOV     A,#0x0
   \   0001B3   F0           MOVX    @DPTR,A
    597            }
    598          }
   \                     ??HalKeyPoll_1:
   \   0001B4   7F01         MOV     R7,#0x1
   \   0001B6   02....       LJMP    ?BANKED_LEAVE_XDATA
   \   0001B9                REQUIRE _A_P1
   \   0001B9                REQUIRE _A_P0
   \   0001B9                REQUIRE P0IEN
   \   0001B9                REQUIRE P1IEN
    599          
    600          
    601          
    602          
    603          /**************************************************************************************************
    604           * @fn      halGetJoyKeyInput
    605           *
    606           * @brief   Map the ADC value to its corresponding key.
    607           *
    608           * @param   None
    609           *
    610           * @return  keys - current joy key status
    611           **************************************************************************************************/

   \                                 In  segment BANKED_CODE, align 1, keep-with-next
    612          uint8 halGetJoyKeyInput(void)
   \                     halGetJoyKeyInput:
    613          {
   \   000000                ; Saved register size: 0
   \   000000                ; Auto size: 0
    614            /* The joystick control is encoded as an analog voltage.
    615             * Read the JOY_LEVEL analog value and map it to joy movement.
    616             */
    617            uint8 adc;
                         ^
Warning[Pe177]: variable "adc" was declared but never referenced
    618            uint8 ksave0 = 0;
   \   000000   7900         MOV     R1,#0x0
    619            uint8 ksave1;
                         ^
Warning[Pe177]: variable "ksave1" was declared but never referenced
    620          
    621          
    622          
    623            return ksave0;
   \   000002   02....       LJMP    ?BRET
    624          }
    625          
    626          
    627          
    628          
    629          
    630          /**************************************************************************************************
    631           * @fn      halProcessKeyInterrupt
    632           *
    633           * @brief   Checks to see if it's a valid key interrupt, saves interrupt driven key states for
    634           *          processing by HalKeyRead(), and debounces keys by scheduling HalKeyRead() 25ms later.
    635           *
    636           * @param
    637           *
    638           * @return
    639           **************************************************************************************************/

   \                                 In  segment BANKED_CODE, align 1, keep-with-next
    640          void halProcessKeyInterrupt (void)
   \                     halProcessKeyInterrupt:
    641          {
   \   000000   74F7         MOV     A,#-0x9
   \   000002   12....       LCALL   ?BANKED_ENTER_XDATA
   \   000005                ; Saved register size: 9
   \   000005                ; Auto size: 0
    642            bool valid=FALSE;
   \   000005   7E00         MOV     R6,#0x0
    643            
    644          
    645            if (HAL_KEY_SW_5_PXIFG & HAL_KEY_SW_5_BIT)  /* Interrupt Flag has been set */
   \   000007   E58B         MOV     A,0x8b
   \   000009   A2E0         MOV     C,0xE0 /* A   */.0
   \   00000B   5005         JNC     ??halProcessKeyInterrupt_0
    646            {
    647              HAL_KEY_SW_5_PXIFG &= ~(HAL_KEY_SW_5_BIT); /* Clear Interrupt Flag */
   \   00000D   538BFE       ANL     0x8b,#0xfe
    648              valid = TRUE;
   \   000010   7E01         MOV     R6,#0x1
    649            }
    650          
    651            if (HAL_KEY_SW_6_PXIFG & HAL_KEY_SW_6_BIT)  /* Interrupt Flag has been set */
   \                     ??halProcessKeyInterrupt_0:
   \   000012   E589         MOV     A,0x89
   \   000014   A2E5         MOV     C,0xE0 /* A   */.5
   \   000016   5005         JNC     ??halProcessKeyInterrupt_1
    652            {
    653              HAL_KEY_SW_6_PXIFG &= ~(HAL_KEY_SW_6_BIT); /* Clear Interrupt Flag */
   \   000018   5389DF       ANL     0x89,#0xdf
    654              valid = TRUE;
   \   00001B   7E01         MOV     R6,#0x1
    655            }
    656          
    657              if (HAL_KEY_SW_7_PXIFG & HAL_KEY_SW_7_BIT)  /* Interrupt Flag has been set */
   \                     ??halProcessKeyInterrupt_1:
   \   00001D   E589         MOV     A,0x89
   \   00001F   A2E4         MOV     C,0xE0 /* A   */.4
   \   000021   5005         JNC     ??halProcessKeyInterrupt_2
    658            {
    659              HAL_KEY_SW_7_PXIFG &= ~(HAL_KEY_SW_7_BIT); /* Clear Interrupt Flag */
   \   000023   5389EF       ANL     0x89,#0xef
    660              valid = TRUE;
   \   000026   7E01         MOV     R6,#0x1
    661          
    662            }
    663            
    664              if (HAL_KEY_SW_8_PXIFG & HAL_KEY_SW_8_BIT)  /* Interrupt Flag has been set */
   \                     ??halProcessKeyInterrupt_2:
   \   000028   E58A         MOV     A,0x8a
   \   00002A   A2E2         MOV     C,0xE0 /* A   */.2
   \   00002C   5005         JNC     ??halProcessKeyInterrupt_3
    665            {
    666              HAL_KEY_SW_8_PXIFG &= ~(HAL_KEY_SW_8_BIT); /* Clear Interrupt Flag */
   \   00002E   538AFB       ANL     0x8a,#0xfb
    667              valid = TRUE;
   \   000031   7E01         MOV     R6,#0x1
    668          
    669            }
    670            
    671              if (HAL_KEY_SW_9_PXIFG & HAL_KEY_SW_9_BIT)  /* Interrupt Flag has been set */
   \                     ??halProcessKeyInterrupt_3:
   \   000033   E589         MOV     A,0x89
   \   000035   A2E6         MOV     C,0xE0 /* A   */.6
   \   000037   5005         JNC     ??halProcessKeyInterrupt_4
    672            {
    673              HAL_KEY_SW_9_PXIFG &= ~(HAL_KEY_SW_9_BIT); /* Clear Interrupt Flag */
   \   000039   5389BF       ANL     0x89,#0xbf
    674              valid = TRUE;
   \   00003C   7E01         MOV     R6,#0x1
    675          
    676           }
    677           
    678            if (valid)
   \                     ??halProcessKeyInterrupt_4:
   \   00003E   EE           MOV     A,R6
   \   00003F   6011         JZ      ??halProcessKeyInterrupt_5
    679           {
    680              osal_start_timerEx (Hal_TaskID, HAL_KEY_EVENT, HAL_KEY_DEBOUNCE_VALUE);
   \   000041                ; Setup parameters for call to function osal_start_timerEx
   \   000041   7C32         MOV     R4,#0x32
   \   000043   7D00         MOV     R5,#0x0
   \   000045   7A01         MOV     R2,#0x1
   \   000047   7B00         MOV     R3,#0x0
   \   000049   90....       MOV     DPTR,#Hal_TaskID
   \   00004C   E0           MOVX    A,@DPTR
   \   00004D   F9           MOV     R1,A
   \   00004E   12....       LCALL   ??osal_start_timerEx?relay
   \   000051   E9           MOV     A,R1
    681            }
    682          }
   \                     ??halProcessKeyInterrupt_5:
   \   000052   7F01         MOV     R7,#0x1
   \   000054   02....       LJMP    ?BANKED_LEAVE_XDATA
   \   000057                REQUIRE P2IFG
   \   000057                REQUIRE P0IFG
   \   000057                REQUIRE P1IFG
    683          
    684          /**************************************************************************************************
    685           * @fn      HalKeyEnterSleep
    686           *
    687           * @brief  - Get called to enter sleep mode
    688           *
    689           * @param
    690           *
    691           * @return
    692           **************************************************************************************************/

   \                                 In  segment BANKED_CODE, align 1, keep-with-next
    693          void HalKeyEnterSleep ( void )
   \                     HalKeyEnterSleep:
    694          {
   \   000000                ; Saved register size: 0
   \   000000                ; Auto size: 0
    695          }
   \   000000   02....       LJMP    ?BRET
    696          
    697          /**************************************************************************************************
    698           * @fn      HalKeyExitSleep
    699           *
    700           * @brief   - Get called when sleep is over
    701           *
    702           * @param
    703           *
    704           * @return  - return saved keys
    705           **************************************************************************************************/

   \                                 In  segment BANKED_CODE, align 1, keep-with-next
    706          uint8 HalKeyExitSleep ( void )
   \                     HalKeyExitSleep:
    707          {
   \   000000   C082         PUSH    DPL
   \   000002   C083         PUSH    DPH
   \   000004                ; Saved register size: 2
   \   000004                ; Auto size: 0
    708            /* Wake up and read keys */
    709            return ( HalKeyRead () );
   \   000004                ; Setup parameters for call to function HalKeyRead
   \   000004   12....       LCALL   ??HalKeyRead?relay
   \   000007   D083         POP     DPH
   \   000009   D082         POP     DPL
   \   00000B   02....       LJMP    ?BRET
    710          }
    711          
    712          /***************************************************************************************************
    713           *                                    INTERRUPT SERVICE ROUTINE
    714           ***************************************************************************************************/
    715          
    716          /**************************************************************************************************
    717           * @fn      halKeyPort0Isr
    718           *
    719           * @brief   Port0 ISR
    720           *
    721           * @param
    722           *
    723           * @return
    724           **************************************************************************************************/

   \                                 In  segment NEAR_CODE, align 1, keep-with-next
    725          HAL_ISR_FUNCTION( halKeyPort0Isr, P0INT_VECTOR )
   \                     halKeyPort0Isr:
    726          {
   \   000000   C0E0         PUSH    A
   \   000002   74F2         MOV     A,#-0xe
   \   000004   12....       LCALL   ?INTERRUPT_ENTER_XSP
   \   000007                ; Saved register size: 15
   \   000007                ; Auto size: 0
    727            HAL_ENTER_ISR();
   \   000007   A2AF         MOV     C,0xa8.7
   \   000009   E4           CLR     A
   \   00000A   33           RLC     A
   \   00000B   FE           MOV     R6,A
   \   00000C   D2AF         SETB    0xa8.7
    728          
    729            ///uint8 P1IEN_FLAG_1=0,P1IEN_FLAG_2=0,P1IEN_FLAG_3=0;
    730          
    731             if (HAL_KEY_SW_6_PXIFG & HAL_KEY_SW_6_BIT)
   \   00000E   E589         MOV     A,0x89
   \   000010   A2E5         MOV     C,0xE0 /* A   */.5
   \   000012   5009         JNC     ??halKeyPort0Isr_0
    732            {
    733                  //P1IEN_FLAG_1 = P1IEN & 0X08;//p1.3
    734               //if(P1IEN_FLAG_1==0X08)
    735              //{
    736              key_ISR_FLAG =HAL_KEY_SW_6;
   \   000014   90....       MOV     DPTR,#key_ISR_FLAG
   \   000017   7420         MOV     A,#0x20
   \   000019   F0           MOVX    @DPTR,A
    737              halProcessKeyInterrupt();
   \   00001A                ; Setup parameters for call to function halProcessKeyInterrupt
   \   00001A   12....       LCALL   ??halProcessKeyInterrupt?relay
    738              //HAL_KEY_SW_6_PXIFG = 0;
    739              //}
    740             }
    741             
    742              if (HAL_KEY_SW_7_PXIFG & HAL_KEY_SW_7_BIT)
   \                     ??halKeyPort0Isr_0:
   \   00001D   E589         MOV     A,0x89
   \   00001F   A2E4         MOV     C,0xE0 /* A   */.4
   \   000021   5009         JNC     ??halKeyPort0Isr_1
    743            {
    744              
    745               //P1IEN_FLAG_2 = P1IEN & 0X02;//p1.1
    746               //if(P1IEN_FLAG_2==0X02)
    747              //{
    748                halProcessKeyInterrupt();
   \   000023                ; Setup parameters for call to function halProcessKeyInterrupt
   \   000023   12....       LCALL   ??halProcessKeyInterrupt?relay
    749                //HAL_KEY_SW_7_PXIFG = 0;
    750                key_ISR_FLAG =HAL_KEY_SW_7;
   \   000026   90....       MOV     DPTR,#key_ISR_FLAG
   \   000029   7410         MOV     A,#0x10
   \   00002B   F0           MOVX    @DPTR,A
    751              //}
    752            }
    753          
    754             if(HAL_KEY_SW_9_PXIFG & HAL_KEY_SW_9_BIT)//p1.2中断标志
   \                     ??halKeyPort0Isr_1:
   \   00002C   E589         MOV     A,0x89
   \   00002E   A2E6         MOV     C,0xE0 /* A   */.6
   \   000030   5009         JNC     ??halKeyPort0Isr_2
    755            {
    756              
    757               //P1IEN_FLAG_3 = P1IEN & 0X04;//p1.2
    758               //if(P1IEN_FLAG_3==0X04)
    759              //{
    760               halProcessKeyInterrupt();
   \   000032                ; Setup parameters for call to function halProcessKeyInterrupt
   \   000032   12....       LCALL   ??halProcessKeyInterrupt?relay
    761               //HAL_KEY_SW_9_PXIFG = 0;//清除p1.2标志
    762               key_ISR_FLAG =HAL_KEY_SW_9;
   \   000035   90....       MOV     DPTR,#key_ISR_FLAG
   \   000038   7440         MOV     A,#0x40
   \   00003A   F0           MOVX    @DPTR,A
    763              //}
    764           
    765            }
    766          
    767            CLEAR_SLEEP_MODE();
    768            HAL_EXIT_ISR();
   \                     ??halKeyPort0Isr_2:
   \   00003B   EE           MOV     A,R6
   \   00003C   A2E0         MOV     C,0xE0 /* A   */.0
   \   00003E   92AF         MOV     0xa8.7,C
    769          }
   \   000040   7F01         MOV     R7,#0x1
   \   000042   02....       LJMP    ?INTERRUPT_LEAVE_XSP
   \   000045                REQUIRE _A_IEN0
   \   000045                REQUIRE P0IFG
    770          
    771          
    772          /**************************************************************************************************
    773           * @fn      halKeyPort1Isr
    774           *
    775           * @brief   Port1 ISR
    776           *
    777           * @param
    778           *
    779           * @return
    780           **************************************************************************************************/

   \                                 In  segment NEAR_CODE, align 1, keep-with-next
    781          HAL_ISR_FUNCTION( halKeyPort1Isr, P1INT_VECTOR )
   \                     halKeyPort1Isr:
    782          {
   \   000000   C0E0         PUSH    A
   \   000002   74F2         MOV     A,#-0xe
   \   000004   12....       LCALL   ?INTERRUPT_ENTER_XSP
   \   000007                ; Saved register size: 15
   \   000007                ; Auto size: 0
    783            HAL_ENTER_ISR();
   \   000007   A2AF         MOV     C,0xa8.7
   \   000009   E4           CLR     A
   \   00000A   33           RLC     A
   \   00000B   FE           MOV     R6,A
   \   00000C   D2AF         SETB    0xa8.7
    784            //uint8 keys=0;
    785               if(HAL_KEY_SW_8_PXIFG & HAL_KEY_SW_8_BIT)//p1.7中断标志
   \   00000E   E58A         MOV     A,0x8a
   \   000010   A2E2         MOV     C,0xE0 /* A   */.2
   \   000012   500C         JNC     ??halKeyPort1Isr_0
    786            {
    787              
    788               halProcessKeyInterrupt();
   \   000014                ; Setup parameters for call to function halProcessKeyInterrupt
   \   000014   12....       LCALL   ??halProcessKeyInterrupt?relay
    789               HAL_KEY_SW_8_PXIFG = 0;//清除p1.2标志
   \   000017   758A00       MOV     0x8a,#0x0
    790               key_ISR_FLAG =HAL_KEY_SW_8;
   \   00001A   90....       MOV     DPTR,#key_ISR_FLAG
   \   00001D   7480         MOV     A,#-0x80
   \   00001F   F0           MOVX    @DPTR,A
    791           
    792            }
    793            
    794            /*
    795              Clear the CPU interrupt flag for Port_1
    796              PxIFG has to be cleared before PxIF
    797            */
    798            HAL_KEY_CPU_PORT_1_IF = 0;
   \                     ??halKeyPort1Isr_0:
   \   000020   C2EB         CLR     0xe8.3
    799           // PCON = 0x00;//唤醒
    800            
    801            CLEAR_SLEEP_MODE();
    802            HAL_EXIT_ISR();
   \   000022   EE           MOV     A,R6
   \   000023   A2E0         MOV     C,0xE0 /* A   */.0
   \   000025   92AF         MOV     0xa8.7,C
    803            
    804          }
   \   000027   7F01         MOV     R7,#0x1
   \   000029   02....       LJMP    ?INTERRUPT_LEAVE_XSP
   \   00002C                REQUIRE _A_IEN0
   \   00002C                REQUIRE P1IFG
   \   00002C                REQUIRE _A_IRCON2
    805          
    806          
    807          
    808          
    809          /**************************************************************************************************
    810           * @fn      halKeyPort2Isr
    811           *
    812           * @brief   Port2 ISR
    813           *
    814           * @param
    815           *
    816           * @return
    817           **************************************************************************************************/

   \                                 In  segment NEAR_CODE, align 1, keep-with-next
    818          HAL_ISR_FUNCTION( halKeyPort2Isr, P2INT_VECTOR )
   \                     halKeyPort2Isr:
    819          {
   \   000000   C0E0         PUSH    A
   \   000002   74F2         MOV     A,#-0xe
   \   000004   12....       LCALL   ?INTERRUPT_ENTER_XSP
   \   000007                ; Saved register size: 15
   \   000007                ; Auto size: 0
    820            
    821            HAL_ENTER_ISR();
   \   000007   A2AF         MOV     C,0xa8.7
   \   000009   E4           CLR     A
   \   00000A   33           RLC     A
   \   00000B   FE           MOV     R6,A
   \   00000C   D2AF         SETB    0xa8.7
    822            //uint8 keys=0;
    823               if(HAL_KEY_SW_5_PXIFG & HAL_KEY_SW_5_BIT)//p1.7中断标志
   \   00000E   E58B         MOV     A,0x8b
   \   000010   A2E0         MOV     C,0xE0 /* A   */.0
   \   000012   500C         JNC     ??halKeyPort2Isr_0
    824            {
    825              
    826               halProcessKeyInterrupt();
   \   000014                ; Setup parameters for call to function halProcessKeyInterrupt
   \   000014   12....       LCALL   ??halProcessKeyInterrupt?relay
    827               HAL_KEY_SW_5_PXIFG = 0;//清除p1.2标志
   \   000017   758B00       MOV     0x8b,#0x0
    828               key_ISR_FLAG =HAL_KEY_SW_5;
   \   00001A   90....       MOV     DPTR,#key_ISR_FLAG
   \   00001D   7404         MOV     A,#0x4
   \   00001F   F0           MOVX    @DPTR,A
    829           
    830            }
    831            
    832            
    833            CLEAR_SLEEP_MODE();
    834            HAL_EXIT_ISR();  
   \                     ??halKeyPort2Isr_0:
   \   000020   EE           MOV     A,R6
   \   000021   A2E0         MOV     C,0xE0 /* A   */.0
   \   000023   92AF         MOV     0xa8.7,C
    835          }
   \   000025   7F01         MOV     R7,#0x1
   \   000027   02....       LJMP    ?INTERRUPT_LEAVE_XSP
   \   00002A                REQUIRE _A_IEN0
   \   00002A                REQUIRE P2IFG

   \                                 In  segment INTVEC, offset 0x33, root
   \                     `??halKeyPort2Isr??INTVEC 51`:
   \   000033   02....       LJMP       (halKeyPort2Isr)

   \                                 In  segment INTVEC, offset 0x6b, root
   \                     `??halKeyPort0Isr??INTVEC 107`:
   \   00006B   02....       LJMP       (halKeyPort0Isr)

   \                                 In  segment INTVEC, offset 0x7b, root
   \                     `??halKeyPort1Isr??INTVEC 123`:
   \   00007B   02....       LJMP       (halKeyPort1Isr)

   \                                 In  segment BANK_RELAYS, align 1
   \                     ??HalKeyInit?relay:
   \   000000   12....       LCALL   ?BDISPATCH
   \   000003   ......       DC24    HalKeyInit

   \                                 In  segment BANK_RELAYS, align 1
   \                     ??HalKeyConfig?relay:
   \   000000   12....       LCALL   ?BDISPATCH
   \   000003   ......       DC24    HalKeyConfig

   \                                 In  segment BANK_RELAYS, align 1
   \                     ??HalKeyRead?relay:
   \   000000   12....       LCALL   ?BDISPATCH
   \   000003   ......       DC24    HalKeyRead

   \                                 In  segment BANK_RELAYS, align 1
   \                     ??HalKeyPoll?relay:
   \   000000   12....       LCALL   ?BDISPATCH
   \   000003   ......       DC24    HalKeyPoll

   \                                 In  segment BANK_RELAYS, align 1
   \                     ??halGetJoyKeyInput?relay:
   \   000000   12....       LCALL   ?BDISPATCH
   \   000003   ......       DC24    halGetJoyKeyInput

   \                                 In  segment BANK_RELAYS, align 1
   \                     ??halProcessKeyInterrupt?relay:
   \   000000   12....       LCALL   ?BDISPATCH
   \   000003   ......       DC24    halProcessKeyInterrupt

   \                                 In  segment BANK_RELAYS, align 1
   \                     ??HalKeyEnterSleep?relay:
   \   000000   12....       LCALL   ?BDISPATCH
   \   000003   ......       DC24    HalKeyEnterSleep

   \                                 In  segment BANK_RELAYS, align 1
   \                     ??HalKeyExitSleep?relay:
   \   000000   12....       LCALL   ?BDISPATCH
   \   000003   ......       DC24    HalKeyExitSleep
    836          
    837          
    838          
    839          
    840          #else
    841          
    842          void Key_Check(void){}
    843          void HalKeyInit(void){}
    844          void HalKeyConfig(bool interruptEnable, halKeyCBack_t cback){}
    845          uint8 HalKeyRead(void){ return 0;}
    846          void HalKeyPoll(void){}
    847          void HalKey_double_detect(void);
    848          #endif /* HAL_KEY */
    849          
    850          
    851          
    852          
    853          
    854          /**************************************************************************************************
    855          **************************************************************************************************/
    856          
    857          
    858          

   Maximum stack usage in bytes:

     Function                       ISTACK PSTACK XSTACK
     --------                       ------ ------ ------
     HalKeyConfig                       0      0      9
       -> osal_stop_timerEx             0      0     18
       -> osal_set_event                0      0     18
     HalKeyEnterSleep                   0      0      0
     HalKeyExitSleep                    2      0      0
       -> HalKeyRead                    4      0      0
     HalKeyInit                         2      0      0
     HalKeyPoll                         0      0      9
       -> osal_stop_timerEx             0      0     18
       -> osal_stop_timerEx             0      0     18
       -> osal_start_timerEx            0      0     18
       -> osal_stop_timerEx             0      0     18
       -> osal_start_timerEx            0      0     18
       -> SampleApp_send_in_binding_req
                                        0      0     18
       -> open_load_1                   0      0     18
       -> osal_start_timerEx            0      0     18
       -> close_load_1                  0      0     18
       -> osal_start_timerEx            0      0     18
       -> SampleApp_SendInMessage       0      0     18
       -> osal_stop_timerEx             0      0     18
       -> osal_start_timerEx            0      0     18
       -> SampleApp_send_in_binding_req
                                        0      0     18
       -> open_load_2                   0      0     18
       -> osal_start_timerEx            0      0     18
       -> close_load_2                  0      0     18
       -> osal_start_timerEx            0      0     18
       -> SampleApp_SendInMessage       0      0     18
     HalKeyRead                         0      0      0
     halGetJoyKeyInput                  0      0      0
     halKeyPort0Isr                    15      0      0
       -> halProcessKeyInterrupt       30      0      0
       -> halProcessKeyInterrupt       30      0      0
       -> halProcessKeyInterrupt       30      0      0
     halKeyPort1Isr                    15      0      0
       -> halProcessKeyInterrupt       30      0      0
     halKeyPort2Isr                    15      0      0
       -> halProcessKeyInterrupt       30      0      0
     halProcessKeyInterrupt             0      0      9
       -> osal_start_timerEx            0      0     18


   Segment part sizes:

     Function/Label                 Bytes
     --------------                 -----
     _A_P0                             1
     P0IFG                             1
     P1IFG                             1
     P2IFG                             1
     PICTL                             1
     P1IEN                             1
     _A_P1                             1
     IEN2                              1
     _A_IEN0                           1
     P0IEN                             1
     P2IEN                             1
     _A_IEN1                           1
     _A_IRCON2                         1
     P0SEL                             1
     P1SEL                             1
     P0DIR                             1
     P1DIR                             1
     halKeySavedKeys                   1
     pHalKeyProcessFunction            2
     HalKeyConfigured                  1
     Hal_KeyIntEnable                  1
     kpush0                            1
     kpush1                            1
     key_ISR_FLAG                      1
     KEY_NET_ISR_FLAG                  1
     key_double_flag                   1
     key_holdtime_waiting_flag         1
     key_hold_flag                     1
     Forbitten_ON_flag                 1
     KEY_NUMBER_FLAG_A                 1
     HalKeyInit                       57
     HalKeyConfig                    155
     HalKeyRead                       14
     HalKeyPoll                      441
     halGetJoyKeyInput                 5
     halProcessKeyInterrupt           87
     HalKeyEnterSleep                  3
     HalKeyExitSleep                  14
     halKeyPort0Isr                   69
     halKeyPort1Isr                   44
     halKeyPort2Isr                   42
     ??halKeyPort2Isr??INTVEC 51       3
     ??halKeyPort0Isr??INTVEC 107      3
     ??halKeyPort1Isr??INTVEC 123      3
     ??HalKeyInit?relay                6
     ??HalKeyConfig?relay              6
     ??HalKeyRead?relay                6
     ??HalKeyPoll?relay                6
     ??halGetJoyKeyInput?relay         6
     ??halProcessKeyInterrupt?relay    6
     ??HalKeyEnterSleep?relay          6
     ??HalKeyExitSleep?relay           6

 
 776 bytes in segment BANKED_CODE
  48 bytes in segment BANK_RELAYS
   9 bytes in segment INTVEC
 155 bytes in segment NEAR_CODE
  17 bytes in segment SFR_AN
  14 bytes in segment XDATA_Z
 
 979 bytes of CODE  memory (+  9 bytes shared)
   0 bytes of DATA  memory (+ 17 bytes shared)
  14 bytes of XDATA memory

Errors: none
Warnings: 2
