///////////////////////////////////////////////////////////////////////////////
//                                                                            /
// IAR C/C++ Compiler V8.10.1.10194/W32 for 8051        12/Dec/2014  00:51:38 /
// Copyright 2004-2011 IAR Systems AB.                                        /
//                                                                            /
//    Core               =  plain                                             /
//    Code model         =  banked                                            /
//    Data model         =  large                                             /
//    Calling convention =  xdata reentrant                                   /
//    Constant location  =  data_rom                                          /
//    Dptr setup         =  1,16                                              /
//    Source file        =  D:\RE_1_2_0_FORMAL_APP(251)-14-12-8\Projects\zsta /
//                          ck\Samples\SampleApp\Source\IRR_enddevice\IRR_STU /
//                          DY_User_app.c                                     /
//    Command line       =  -f "D:\RE_1_2_0_FORMAL_APP(251)-14-12-8\Projects\ /
//                          zstack\Samples\SampleApp\CC2530DB\..\..\..\Tools\ /
//                          CC2530DB\f8wEndev.cfg" (-DCPU32MHZ                /
//                          -DROOT=__near_func -DMAC_CFG_TX_DATA_MAX=3        /
//                          -DMAC_CFG_TX_MAX=6 -DMAC_CFG_RX_MAX=3) -f         /
//                          "D:\RE_1_2_0_FORMAL_APP(251)-14-12-8\Projects\zst /
//                          ack\Samples\SampleApp\CC2530DB\..\..\..\Tools\CC2 /
//                          530DB\f8wConfig.cfg" (-DZIGBEEPRO -DSECURE=1      /
//                          -DZG_SECURE_DYNAMIC=0 -DREFLECTOR                 /
//                          -DZDAPP_CONFIG_PAN_ID=0xFFFF                      /
//                          -DNWK_START_DELAY=100 -DEXTENDED_JOINING_RANDOM_M /
//                          ASK=0x007F -DBEACON_REQUEST_DELAY=100             /
//                          -DBEACON_REQ_DELAY_MASK=0x00FF                    /
//                          -DLINK_STATUS_JITTER_MASK=0x007F                  /
//                          -DROUTE_EXPIRY_TIME=30 -DAPSC_ACK_WAIT_DURATION_P /
//                          OLLED=3000 -DNWK_INDIRECT_MSG_TIMEOUT=60          /
//                          -DMAX_RREQ_ENTRIES=8 -DAPSC_MAX_FRAME_RETRIES=3   /
//                          -DNWK_MAX_DATA_RETRIES=2                          /
//                          -DMAX_POLL_FAILURE_RETRIES=2 -DMAX_BCAST=9        /
//                          -DAPS_MAX_GROUPS=16 -DMAX_RTG_ENTRIES=30          /
//                          -DNWK_MAX_BINDING_ENTRIES=1                       /
//                          -DMAX_BINDING_CLUSTER_IDS=4 -DASSERT_RESET        /
//                          -DMAC_MAX_FRAME_SIZE=116                          /
//                          -DZDNWKMGR_MIN_TRANSMISSIONS=20 "-DCONST=const    /
//                          __code" -DGENERIC=__generic                       /
//                          -DRFD_RCVC_ALWAYS_ON=FALSE -DPOLL_RATE=8000       /
//                          -DQUEUED_POLL_RATE=100 -DRESPONSE_POLL_RATE=1000) /
//                           -DREJOIN_POLL_RATE=440                           /
//                          "D:\RE_1_2_0_FORMAL_APP(251)-14-12-8\Projects\zst /
//                          ack\Samples\SampleApp\Source\IRR_enddevice\IRR_ST /
//                          UDY_User_app.c" -D NV_INIT -D NV_RESTORE -D       /
//                          HOLD_AUTO_START -D MT_TASK -D xMT_APP_FUNC -D     /
//                          MT_SYS_FUNC -D MT_ZDO_FUNC -D xMT_ZDO_MGMT -D     /
//                          ISR_KEYINTERRUPT -D POWER_SAVING -D               /
//                          LONG_POLL_TIMES -D HAVE_TEST_FUN -D               /
//                          RESUME_TIME_TEST -D IRR_ED -D M_V332 -lC          /
//                          "D:\RE_1_2_0_FORMAL_APP(251)-14-12-8\Projects\zst /
//                          ack\Samples\SampleApp\CC2530DB\IRR_ED_device\List /
//                          \" -lA "D:\RE_1_2_0_FORMAL_APP(251)-14-12-8\Proje /
//                          cts\zstack\Samples\SampleApp\CC2530DB\IRR_ED_devi /
//                          ce\List\" --diag_suppress Pe001,Pa010 -o          /
//                          "D:\RE_1_2_0_FORMAL_APP(251)-14-12-8\Projects\zst /
//                          ack\Samples\SampleApp\CC2530DB\IRR_ED_device\Obj\ /
//                          " -e --no_cse --no_unroll --no_inline             /
//                          --no_code_motion --no_tbaa --debug --core=plain   /
//                          --dptr=16,1 --data_model=large                    /
//                          --code_model=banked --calling_convention=xdata_re /
//                          entrant --place_constants=data_rom                /
//                          --nr_virtual_regs 16 -I                           /
//                          "D:\RE_1_2_0_FORMAL_APP(251)-14-12-8\Projects\zst /
//                          ack\Samples\SampleApp\CC2530DB\" -I               /
//                          "D:\RE_1_2_0_FORMAL_APP(251)-14-12-8\Projects\zst /
//                          ack\Samples\SampleApp\CC2530DB\..\Source\" -I     /
//                          "D:\RE_1_2_0_FORMAL_APP(251)-14-12-8\Projects\zst /
//                          ack\Samples\SampleApp\CC2530DB\..\Source\rssi_tes /
//                          t\h\" -I "D:\RE_1_2_0_FORMAL_APP(251)-14-12-8\Pro /
//                          jects\zstack\Samples\SampleApp\CC2530DB\..\Source /
//                          \IRR_enddevice\" -I "D:\RE_1_2_0_FORMAL_APP(251)- /
//                          14-12-8\Projects\zstack\Samples\SampleApp\CC2530D /
//                          B\..\..\..\ZMain\TI2530DB\" -I                    /
//                          "D:\RE_1_2_0_FORMAL_APP(251)-14-12-8\Projects\zst /
//                          ack\Samples\SampleApp\CC2530DB\..\..\..\..\..\Com /
//                          ponents\hal\include\" -I                          /
//                          "D:\RE_1_2_0_FORMAL_APP(251)-14-12-8\Projects\zst /
//                          ack\Samples\SampleApp\CC2530DB\..\..\..\..\..\Com /
//                          ponents\hal\target\CC2530EB\" -I                  /
//                          "D:\RE_1_2_0_FORMAL_APP(251)-14-12-8\Projects\zst /
//                          ack\Samples\SampleApp\CC2530DB\..\..\..\..\..\Com /
//                          ponents\mac\include\" -I                          /
//                          "D:\RE_1_2_0_FORMAL_APP(251)-14-12-8\Projects\zst /
//                          ack\Samples\SampleApp\CC2530DB\..\..\..\..\..\Com /
//                          ponents\mac\high_level\" -I                       /
//                          "D:\RE_1_2_0_FORMAL_APP(251)-14-12-8\Projects\zst /
//                          ack\Samples\SampleApp\CC2530DB\..\..\..\..\..\Com /
//                          ponents\mac\low_level\srf04\" -I                  /
//                          "D:\RE_1_2_0_FORMAL_APP(251)-14-12-8\Projects\zst /
//                          ack\Samples\SampleApp\CC2530DB\..\..\..\..\..\Com /
//                          ponents\mac\low_level\srf04\single_chip\" -I      /
//                          "D:\RE_1_2_0_FORMAL_APP(251)-14-12-8\Projects\zst /
//                          ack\Samples\SampleApp\CC2530DB\..\..\..\..\..\Com /
//                          ponents\mt\" -I "D:\RE_1_2_0_FORMAL_APP(251)-14-1 /
//                          2-8\Projects\zstack\Samples\SampleApp\CC2530DB\.. /
//                          \..\..\..\..\Components\osal\include\" -I         /
//                          "D:\RE_1_2_0_FORMAL_APP(251)-14-12-8\Projects\zst /
//                          ack\Samples\SampleApp\CC2530DB\..\..\..\..\..\Com /
//                          ponents\services\saddr\" -I                       /
//                          "D:\RE_1_2_0_FORMAL_APP(251)-14-12-8\Projects\zst /
//                          ack\Samples\SampleApp\CC2530DB\..\..\..\..\..\Com /
//                          ponents\services\sdata\" -I                       /
//                          "D:\RE_1_2_0_FORMAL_APP(251)-14-12-8\Projects\zst /
//                          ack\Samples\SampleApp\CC2530DB\..\..\..\..\..\Com /
//                          ponents\stack\af\" -I "D:\RE_1_2_0_FORMAL_APP(251 /
//                          )-14-12-8\Projects\zstack\Samples\SampleApp\CC253 /
//                          0DB\..\..\..\..\..\Components\stack\nwk\" -I      /
//                          "D:\RE_1_2_0_FORMAL_APP(251)-14-12-8\Projects\zst /
//                          ack\Samples\SampleApp\CC2530DB\..\..\..\..\..\Com /
//                          ponents\stack\sapi\" -I                           /
//                          "D:\RE_1_2_0_FORMAL_APP(251)-14-12-8\Projects\zst /
//                          ack\Samples\SampleApp\CC2530DB\..\..\..\..\..\Com /
//                          ponents\stack\sec\" -I "D:\RE_1_2_0_FORMAL_APP(25 /
//                          1)-14-12-8\Projects\zstack\Samples\SampleApp\CC25 /
//                          30DB\..\..\..\..\..\Components\stack\sys\" -I     /
//                          "D:\RE_1_2_0_FORMAL_APP(251)-14-12-8\Projects\zst /
//                          ack\Samples\SampleApp\CC2530DB\..\..\..\..\..\Com /
//                          ponents\stack\zdo\" -I "D:\RE_1_2_0_FORMAL_APP(25 /
//                          1)-14-12-8\Projects\zstack\Samples\SampleApp\CC25 /
//                          30DB\..\..\..\..\..\Components\zmac\" -I          /
//                          "D:\RE_1_2_0_FORMAL_APP(251)-14-12-8\Projects\zst /
//                          ack\Samples\SampleApp\CC2530DB\..\..\..\..\..\Com /
//                          ponents\zmac\f8w\" -On --require_prototypes       /
//    List file          =  D:\RE_1_2_0_FORMAL_APP(251)-14-12-8\Projects\zsta /
//                          ck\Samples\SampleApp\CC2530DB\IRR_ED_device\List\ /
//                          IRR_STUDY_User_app.s51                            /
//                                                                            /
//                                                                            /
///////////////////////////////////////////////////////////////////////////////

        NAME IRR_STUDY_User_app

        RTMODEL "__SystemLibrary", "CLib"
        RTMODEL "__calling_convention", "xdata_reentrant"
        RTMODEL "__code_model", "banked"
        RTMODEL "__core", "plain"
        RTMODEL "__data_model", "large"
        RTMODEL "__dptr_size", "16"
        RTMODEL "__extended_stack", "disabled"
        RTMODEL "__location_for_constants", "data"
        RTMODEL "__number_of_dptrs", "1"
        RTMODEL "__rt_version", "1"

        RSEG DOVERLAY:DATA:NOROOT(0)
        RSEG IOVERLAY:IDATA:NOROOT(0)
        RSEG ISTACK:IDATA:NOROOT(0)
        RSEG PSTACK:XDATA:NOROOT(0)
        RSEG XSTACK:XDATA:NOROOT(0)

        EXTERN ?BANKED_ENTER_XDATA
        EXTERN ?BANKED_LEAVE_XDATA
        EXTERN ?BDISPATCH
        EXTERN ?BRET
        EXTERN ?DEALLOC_XSTACK8
        EXTERN ?PUSH_XSTACK_I_TWO
        EXTERN ?US_DIV_MOD
        EXTERN ?V0
        EXTERN __INIT_XDATA_I
        EXTERN __INIT_XDATA_Z

        PUBLIC ??LED_CHANGE?relay
        FUNCTION ??LED_CHANGE?relay,0203H
        PUBLIC ??READ_NETKEY?relay
        FUNCTION ??READ_NETKEY?relay,0203H
        PUBLIC ??SampleAPP_ProcessZDOMsgs?relay
        FUNCTION ??SampleAPP_ProcessZDOMsgs?relay,0203H
        PUBLIC ??SampleApp_HandleKeys?relay
        FUNCTION ??SampleApp_HandleKeys?relay,0203H
        PUBLIC ??SampleApp_ProcessBINDINGMessage?relay
        FUNCTION ??SampleApp_ProcessBINDINGMessage?relay,0203H
        PUBLIC ??SampleApp_SendInMessage?relay
        FUNCTION ??SampleApp_SendInMessage?relay,0203H
        PUBLIC ??USER_AFTER_RS_MSG?relay
        FUNCTION ??USER_AFTER_RS_MSG?relay,0203H
        PUBLIC ??USER_APP_COMMAND?relay
        FUNCTION ??USER_APP_COMMAND?relay,0203H
        PUBLIC ??USER_APP_JOIN_MSG?relay
        FUNCTION ??USER_APP_JOIN_MSG?relay,0203H
        PUBLIC ??USER_MAYBE_BUTTERY_MSG?relay
        FUNCTION ??USER_MAYBE_BUTTERY_MSG?relay,0203H
        PUBLIC ??USER_SET_NOMAL_POLL_TIME?relay
        FUNCTION ??USER_SET_NOMAL_POLL_TIME?relay,0203H
        PUBLIC ??USER_SET_RS_MSG?relay
        FUNCTION ??USER_SET_RS_MSG?relay,0203H
        PUBLIC ??USER_ZDO_JOINING_MSG?relay
        FUNCTION ??USER_ZDO_JOINING_MSG?relay,0203H
        PUBLIC ??UserApp_Init?relay
        FUNCTION ??UserApp_Init?relay,0203H
        PUBLIC ??UserApp_ProcessEvent?relay
        FUNCTION ??UserApp_ProcessEvent?relay,0203H
        PUBLIC ??User_APP_Drive_init?relay
        FUNCTION ??User_APP_Drive_init?relay,0203H
        PUBLIC ??changePollRate?relay
        FUNCTION ??changePollRate?relay,0203H
        PUBLIC BUTTERY_ALARM_BIT
        PUBLIC BUTTERY_LOW_FLAG
        PUBLIC CASH_TIME_FLAG
        PUBLIC CR2_DATA_NODETECT_FLAG
        PUBLIC CmdType
        PUBLIC DEEP_POLL_FLAG
        PUBLIC DEFINED_CONTROL_CHAR
        PUBLIC DEVICE_ID
        PUBLIC FRONT_ALARM_FLAG
        PUBLIC HIGH_BUTTERY_FLAG
        PUBLIC Heart_mesg_count
        PUBLIC Hour_count
        PUBLIC IRCodeIndex
        PUBLIC JOIN_ROLE
        PUBLIC LED_CHANGE
        FUNCTION LED_CHANGE,0203H
        ARGFRAME XSTACK, 0, STACK
        PUBLIC LOW_POWER_MODE
        PUBLIC NORMAL_POLL_TIME
        PUBWEAK P0IEN
        PUBWEAK P0IFG
        PUBWEAK P1DIR
        PUBWEAK P1IEN
        PUBWEAK P1IFG
        PUBLIC POLLRATE_TIME_VALUE
        PUBLIC READ_NETKEY
        FUNCTION READ_NETKEY,0203H
        ARGFRAME XSTACK, 0, STACK
        PUBLIC RS_LEN
        PUBLIC RS_STR
        PUBLIC SHORT_ADRESS
        PUBLIC SampleAPP_ProcessZDOMsgs
        FUNCTION SampleAPP_ProcessZDOMsgs,021203H
        ARGFRAME XSTACK, 14, STACK
        ARGFRAME IOVERLAY, 0, STATIC
        ARGFRAME DOVERLAY, 0, STATIC
        LOCFRAME XSTACK, 9, STACK
        PUBLIC SampleApp_HandleKeys
        FUNCTION SampleApp_HandleKeys,021203H
        ARGFRAME XSTACK, 14, STACK
        ARGFRAME IOVERLAY, 0, STATIC
        ARGFRAME DOVERLAY, 0, STATIC
        LOCFRAME XSTACK, 9, STACK
        PUBLIC SampleApp_ProcessBINDINGMessage
        FUNCTION SampleApp_ProcessBINDINGMessage,0203H
        ARGFRAME XSTACK, 0, STACK
        PUBLIC SampleApp_SendInMessage
        FUNCTION SampleApp_SendInMessage,021203H
        ARGFRAME XSTACK, 14, STACK
        ARGFRAME IOVERLAY, 0, STATIC
        ARGFRAME DOVERLAY, 0, STATIC
        LOCFRAME ISTACK, 1, STACK
        LOCFRAME XSTACK, 11, STACK
        PUBLIC USER_AFTER_RS_MSG
        FUNCTION USER_AFTER_RS_MSG,0203H
        ARGFRAME XSTACK, 0, STACK
        PUBLIC USER_APP_COMMAND
        FUNCTION USER_APP_COMMAND,021203H
        ARGFRAME XSTACK, 0, STACK
        LOCFRAME ISTACK, 1, STACK
        LOCFRAME XSTACK, 11, STACK
        PUBLIC USER_APP_JOIN_MSG
        FUNCTION USER_APP_JOIN_MSG,021203H
        ARGFRAME XSTACK, 0, STACK
        LOCFRAME XSTACK, 10, STACK
        PUBLIC USER_DATA_LEN
        PUBLIC USER_DATA_STR
        PUBLIC USER_DATA_TYPE
        PUBLIC USER_MAYBE_BUTTERY_MSG
        FUNCTION USER_MAYBE_BUTTERY_MSG,021203H
        ARGFRAME XSTACK, 0, STACK
        LOCFRAME XSTACK, 10, STACK
        PUBLIC USER_SET_NOMAL_POLL_TIME
        FUNCTION USER_SET_NOMAL_POLL_TIME,0203H
        ARGFRAME XSTACK, 0, STACK
        LOCFRAME ISTACK, 2, STACK
        PUBLIC USER_SET_RS_MSG
        FUNCTION USER_SET_RS_MSG,021203H
        ARGFRAME XSTACK, 0, STACK
        LOCFRAME ISTACK, 2, STACK
        PUBLIC USER_ZDO_JOINING_MSG
        FUNCTION USER_ZDO_JOINING_MSG,021203H
        ARGFRAME XSTACK, 0, STACK
        LOCFRAME ISTACK, 2, STACK
        PUBLIC UserApp_Init
        FUNCTION UserApp_Init,021203H
        ARGFRAME XSTACK, 0, STACK
        LOCFRAME XSTACK, 9, STACK
        PUBLIC UserApp_ProcessEvent
        FUNCTION UserApp_ProcessEvent,021203H
        ARGFRAME XSTACK, 0, STACK
        LOCFRAME XSTACK, 14, STACK
        PUBLIC UserApp_TaskID
        PUBLIC User_APP_Drive_init
        FUNCTION User_APP_Drive_init,021203H
        ARGFRAME XSTACK, 9, STACK
        ARGFRAME IOVERLAY, 0, STATIC
        ARGFRAME DOVERLAY, 0, STATIC
        LOCFRAME XSTACK, 14, STACK
        PUBWEAK _A_IEN0
        PUBWEAK _A_P0
        PUBWEAK _A_P1
        PUBLIC active_battery_voltage
        PUBLIC bindingINClusters
        PUBLIC changePollRate
        FUNCTION changePollRate,021203H
        ARGFRAME XSTACK, 11, STACK
        ARGFRAME IOVERLAY, 0, STATIC
        ARGFRAME DOVERLAY, 0, STATIC
        LOCFRAME ISTACK, 2, STACK
        PUBLIC forever_forbiten_flag
        PUBLIC longPollRateFlag
        PUBLIC more_detect_low_power_flag
        PUBLIC poll_count
        
        CFI Names cfiNames0
        CFI StackFrame CFA_SP SP IDATA
        CFI StackFrame CFA_PSP16 PSP16 XDATA
        CFI StackFrame CFA_XSP16 XSP16 XDATA
        CFI StaticOverlayFrame CFA_IOVERLAY IOVERLAY
        CFI StaticOverlayFrame CFA_DOVERLAY DOVERLAY
        CFI Resource `PSW.CY`:1, `B.BR0`:1, `B.BR1`:1, `B.BR2`:1, `B.BR3`:1
        CFI Resource `B.BR4`:1, `B.BR5`:1, `B.BR6`:1, `B.BR7`:1, `VB.BR8`:1
        CFI Resource `VB.BR9`:1, `VB.BR10`:1, `VB.BR11`:1, `VB.BR12`:1
        CFI Resource `VB.BR13`:1, `VB.BR14`:1, `VB.BR15`:1, VB:8, B:8, A:8
        CFI Resource PSW:8, DPL0:8, DPH0:8, R0:8, R1:8, R2:8, R3:8, R4:8, R5:8
        CFI Resource R6:8, R7:8, V0:8, V1:8, V2:8, V3:8, V4:8, V5:8, V6:8, V7:8
        CFI Resource V8:8, V9:8, V10:8, V11:8, V12:8, V13:8, V14:8, V15:8, SP:8
        CFI Resource PSPH:8, PSPL:8, PSP16:16, XSPH:8, XSPL:8, XSP16:16
        CFI VirtualResource ?RET:24
        CFI Resource ?BRET_EXT:8
        CFI VirtualResource ?RET_HIGH:8, ?RET_LOW:8
        CFI ResourceParts PSP16 PSPH, PSPL
        CFI ResourceParts XSP16 XSPH, XSPL
        CFI ResourceParts ?RET ?BRET_EXT, ?RET_HIGH, ?RET_LOW
        CFI EndNames cfiNames0
        
        CFI Common cfiCommon0 Using cfiNames0
        CFI CodeAlign 1
        CFI DataAlign -1
        CFI ReturnAddress ?RET CODE
        CFI CFA_DOVERLAY Used
        CFI CFA_IOVERLAY Used
        CFI CFA_SP SP+-3
        CFI CFA_PSP16 PSP16+0
        CFI CFA_XSP16 XSP16+0
        CFI `PSW.CY` SameValue
        CFI `B.BR0` SameValue
        CFI `B.BR1` SameValue
        CFI `B.BR2` SameValue
        CFI `B.BR3` SameValue
        CFI `B.BR4` SameValue
        CFI `B.BR5` SameValue
        CFI `B.BR6` SameValue
        CFI `B.BR7` SameValue
        CFI `VB.BR8` SameValue
        CFI `VB.BR9` SameValue
        CFI `VB.BR10` SameValue
        CFI `VB.BR11` SameValue
        CFI `VB.BR12` SameValue
        CFI `VB.BR13` SameValue
        CFI `VB.BR14` SameValue
        CFI `VB.BR15` SameValue
        CFI VB SameValue
        CFI B Undefined
        CFI A Undefined
        CFI PSW SameValue
        CFI DPL0 SameValue
        CFI DPH0 SameValue
        CFI R0 Undefined
        CFI R1 Undefined
        CFI R2 Undefined
        CFI R3 Undefined
        CFI R4 Undefined
        CFI R5 Undefined
        CFI R6 SameValue
        CFI R7 SameValue
        CFI V0 SameValue
        CFI V1 SameValue
        CFI V2 SameValue
        CFI V3 SameValue
        CFI V4 SameValue
        CFI V5 SameValue
        CFI V6 SameValue
        CFI V7 SameValue
        CFI V8 SameValue
        CFI V9 SameValue
        CFI V10 SameValue
        CFI V11 SameValue
        CFI V12 SameValue
        CFI V13 SameValue
        CFI V14 SameValue
        CFI V15 SameValue
        CFI PSPH Undefined
        CFI PSPL Undefined
        CFI XSPH Undefined
        CFI XSPL Undefined
        CFI ?RET Concat
        CFI ?BRET_EXT Frame(CFA_SP, 3)
        CFI ?RET_HIGH Frame(CFA_SP, 2)
        CFI ?RET_LOW Frame(CFA_SP, 1)
        CFI EndCommon cfiCommon0
        
RegisterForKeys     SYMBOL "RegisterForKeys"
osal_msg_receive    SYMBOL "osal_msg_receive"
osal_msg_deallocate SYMBOL "osal_msg_deallocate"
osal_start_timerEx  SYMBOL "osal_start_timerEx"
myApp_ReadBattery   SYMBOL "myApp_ReadBattery"
osal_stop_timerEx   SYMBOL "osal_stop_timerEx"
osal_pwrmgr_device  SYMBOL "osal_pwrmgr_device"
NLME_SetPollRate    SYMBOL "NLME_SetPollRate"
APPLY_TO_JOIN_OF_KEY SYMBOL "APPLY_TO_JOIN_OF_KEY"
SampleApp_PermitJoin SYMBOL "SampleApp_PermitJoin"
HalLedBlink         SYMBOL "HalLedBlink"
RESTORE_TO_FACTORY  SYMBOL "RESTORE_TO_FACTORY"
SampleApp_GetShortAddr SYMBOL "SampleApp_GetShortAddr"
osal_mem_free       SYMBOL "osal_mem_free"
irCodeRx            SYMBOL "irCodeRx"
irCodeTx            SYMBOL "irCodeTx"
osal_mem_alloc      SYMBOL "osal_mem_alloc"
USER_SEND_ADD_STR   SYMBOL "USER_SEND_ADD_STR"
USER_APP_SEND_IN    SYMBOL "USER_APP_SEND_IN"
osal_nv_item_init   SYMBOL "osal_nv_item_init"
osal_nv_read        SYMBOL "osal_nv_read"
irrInit             SYMBOL "irrInit"
??APPLY_TO_JOIN_OF_KEY?relay SYMBOL "?relay", APPLY_TO_JOIN_OF_KEY
??HalLedBlink?relay SYMBOL "?relay", HalLedBlink
??NLME_SetPollRate?relay SYMBOL "?relay", NLME_SetPollRate
??RESTORE_TO_FACTORY?relay SYMBOL "?relay", RESTORE_TO_FACTORY
??RegisterForKeys?relay SYMBOL "?relay", RegisterForKeys
??SampleApp_GetShortAddr?relay SYMBOL "?relay", SampleApp_GetShortAddr
??SampleApp_PermitJoin?relay SYMBOL "?relay", SampleApp_PermitJoin
??USER_APP_SEND_IN?relay SYMBOL "?relay", USER_APP_SEND_IN
??USER_SEND_ADD_STR?relay SYMBOL "?relay", USER_SEND_ADD_STR
??irCodeRx?relay    SYMBOL "?relay", irCodeRx
??irCodeTx?relay    SYMBOL "?relay", irCodeTx
??irrInit?relay     SYMBOL "?relay", irrInit
??myApp_ReadBattery?relay SYMBOL "?relay", myApp_ReadBattery
??osal_mem_alloc?relay SYMBOL "?relay", osal_mem_alloc
??osal_mem_free?relay SYMBOL "?relay", osal_mem_free
??osal_msg_deallocate?relay SYMBOL "?relay", osal_msg_deallocate
??osal_msg_receive?relay SYMBOL "?relay", osal_msg_receive
??osal_nv_item_init?relay SYMBOL "?relay", osal_nv_item_init
??osal_nv_read?relay SYMBOL "?relay", osal_nv_read
??osal_pwrmgr_device?relay SYMBOL "?relay", osal_pwrmgr_device
??osal_start_timerEx?relay SYMBOL "?relay", osal_start_timerEx
??osal_stop_timerEx?relay SYMBOL "?relay", osal_stop_timerEx
LED_CHANGE          SYMBOL "LED_CHANGE"
??LED_CHANGE?relay  SYMBOL "?relay", LED_CHANGE
READ_NETKEY         SYMBOL "READ_NETKEY"
??READ_NETKEY?relay SYMBOL "?relay", READ_NETKEY
SampleAPP_ProcessZDOMsgs SYMBOL "SampleAPP_ProcessZDOMsgs"
??SampleAPP_ProcessZDOMsgs?relay SYMBOL "?relay", SampleAPP_ProcessZDOMsgs
SampleApp_HandleKeys SYMBOL "SampleApp_HandleKeys"
??SampleApp_HandleKeys?relay SYMBOL "?relay", SampleApp_HandleKeys
SampleApp_ProcessBINDINGMessage SYMBOL "SampleApp_ProcessBINDINGMessage"
??SampleApp_ProcessBINDINGMessage?relay SYMBOL "?relay", SampleApp_ProcessBINDINGMessage
SampleApp_SendInMessage SYMBOL "SampleApp_SendInMessage"
??SampleApp_SendInMessage?relay SYMBOL "?relay", SampleApp_SendInMessage
USER_AFTER_RS_MSG   SYMBOL "USER_AFTER_RS_MSG"
??USER_AFTER_RS_MSG?relay SYMBOL "?relay", USER_AFTER_RS_MSG
USER_APP_COMMAND    SYMBOL "USER_APP_COMMAND"
??USER_APP_COMMAND?relay SYMBOL "?relay", USER_APP_COMMAND
USER_APP_JOIN_MSG   SYMBOL "USER_APP_JOIN_MSG"
??USER_APP_JOIN_MSG?relay SYMBOL "?relay", USER_APP_JOIN_MSG
USER_MAYBE_BUTTERY_MSG SYMBOL "USER_MAYBE_BUTTERY_MSG"
??USER_MAYBE_BUTTERY_MSG?relay SYMBOL "?relay", USER_MAYBE_BUTTERY_MSG
USER_SET_NOMAL_POLL_TIME SYMBOL "USER_SET_NOMAL_POLL_TIME"
??USER_SET_NOMAL_POLL_TIME?relay SYMBOL "?relay", USER_SET_NOMAL_POLL_TIME
USER_SET_RS_MSG     SYMBOL "USER_SET_RS_MSG"
??USER_SET_RS_MSG?relay SYMBOL "?relay", USER_SET_RS_MSG
USER_ZDO_JOINING_MSG SYMBOL "USER_ZDO_JOINING_MSG"
??USER_ZDO_JOINING_MSG?relay SYMBOL "?relay", USER_ZDO_JOINING_MSG
UserApp_Init        SYMBOL "UserApp_Init"
??UserApp_Init?relay SYMBOL "?relay", UserApp_Init
UserApp_ProcessEvent SYMBOL "UserApp_ProcessEvent"
??UserApp_ProcessEvent?relay SYMBOL "?relay", UserApp_ProcessEvent
User_APP_Drive_init SYMBOL "User_APP_Drive_init"
??User_APP_Drive_init?relay SYMBOL "?relay", User_APP_Drive_init
changePollRate      SYMBOL "changePollRate"
??changePollRate?relay SYMBOL "?relay", changePollRate

        EXTERN RegisterForKeys
        FUNCTION RegisterForKeys,0202H
        ARGFRAME ISTACK, 0, STACK
        ARGFRAME PSTACK, 0, STACK
        ARGFRAME XSTACK, 9, STACK
        ARGFRAME IOVERLAY, 0, STATIC
        ARGFRAME DOVERLAY, 0, STATIC
        EXTERN osal_msg_receive
        FUNCTION osal_msg_receive,0202H
        ARGFRAME ISTACK, 0, STACK
        ARGFRAME PSTACK, 0, STACK
        ARGFRAME XSTACK, 14, STACK
        ARGFRAME IOVERLAY, 0, STATIC
        ARGFRAME DOVERLAY, 0, STATIC
        EXTERN osal_msg_deallocate
        FUNCTION osal_msg_deallocate,0202H
        ARGFRAME ISTACK, 0, STACK
        ARGFRAME PSTACK, 0, STACK
        ARGFRAME XSTACK, 14, STACK
        ARGFRAME IOVERLAY, 0, STATIC
        ARGFRAME DOVERLAY, 0, STATIC
        EXTERN osal_start_timerEx
        FUNCTION osal_start_timerEx,0202H
        ARGFRAME ISTACK, 2, STACK
        ARGFRAME PSTACK, 0, STACK
        ARGFRAME XSTACK, 14, STACK
        ARGFRAME IOVERLAY, 0, STATIC
        ARGFRAME DOVERLAY, 0, STATIC
        EXTERN myApp_ReadBattery
        FUNCTION myApp_ReadBattery,0202H
        ARGFRAME ISTACK, 2, STACK
        ARGFRAME PSTACK, 0, STACK
        ARGFRAME XSTACK, 14, STACK
        ARGFRAME IOVERLAY, 0, STATIC
        ARGFRAME DOVERLAY, 0, STATIC
        EXTERN osal_stop_timerEx
        FUNCTION osal_stop_timerEx,0202H
        ARGFRAME ISTACK, 0, STACK
        ARGFRAME PSTACK, 0, STACK
        ARGFRAME XSTACK, 14, STACK
        ARGFRAME IOVERLAY, 0, STATIC
        ARGFRAME DOVERLAY, 0, STATIC
        EXTERN osal_pwrmgr_device
        FUNCTION osal_pwrmgr_device,0202H
        ARGFRAME ISTACK, 0, STACK
        ARGFRAME PSTACK, 0, STACK
        ARGFRAME XSTACK, 14, STACK
        ARGFRAME IOVERLAY, 0, STATIC
        ARGFRAME DOVERLAY, 0, STATIC
        EXTERN NLME_SetPollRate
        FUNCTION NLME_SetPollRate,0202H
        ARGFRAME ISTACK, 2, STACK
        ARGFRAME PSTACK, 0, STACK
        ARGFRAME XSTACK, 14, STACK
        ARGFRAME IOVERLAY, 0, STATIC
        ARGFRAME DOVERLAY, 0, STATIC
        EXTERN APPLY_TO_JOIN_OF_KEY
        FUNCTION APPLY_TO_JOIN_OF_KEY,0202H
        ARGFRAME ISTACK, 0, STACK
        ARGFRAME PSTACK, 0, STACK
        ARGFRAME XSTACK, 9, STACK
        ARGFRAME IOVERLAY, 0, STATIC
        ARGFRAME DOVERLAY, 0, STATIC
        EXTERN SampleApp_PermitJoin
        FUNCTION SampleApp_PermitJoin,0202H
        ARGFRAME ISTACK, 0, STACK
        ARGFRAME PSTACK, 0, STACK
        ARGFRAME XSTACK, 9, STACK
        ARGFRAME IOVERLAY, 0, STATIC
        ARGFRAME DOVERLAY, 0, STATIC
        EXTERN HalLedBlink
        FUNCTION HalLedBlink,0202H
        ARGFRAME ISTACK, 2, STACK
        ARGFRAME PSTACK, 0, STACK
        ARGFRAME XSTACK, 10, STACK
        ARGFRAME IOVERLAY, 0, STATIC
        ARGFRAME DOVERLAY, 0, STATIC
        EXTERN RESTORE_TO_FACTORY
        FUNCTION RESTORE_TO_FACTORY,0202H
        ARGFRAME ISTACK, 0, STACK
        ARGFRAME PSTACK, 0, STACK
        ARGFRAME XSTACK, 9, STACK
        ARGFRAME IOVERLAY, 0, STATIC
        ARGFRAME DOVERLAY, 0, STATIC
        EXTERN SampleApp_GetShortAddr
        FUNCTION SampleApp_GetShortAddr,0202H
        ARGFRAME ISTACK, 0, STACK
        ARGFRAME PSTACK, 0, STACK
        ARGFRAME XSTACK, 10, STACK
        ARGFRAME IOVERLAY, 0, STATIC
        ARGFRAME DOVERLAY, 0, STATIC
        EXTERN osal_mem_free
        FUNCTION osal_mem_free,0202H
        ARGFRAME ISTACK, 0, STACK
        ARGFRAME PSTACK, 0, STACK
        ARGFRAME XSTACK, 11, STACK
        ARGFRAME IOVERLAY, 0, STATIC
        ARGFRAME DOVERLAY, 0, STATIC
        EXTERN irCodeRx
        FUNCTION irCodeRx,0202H
        ARGFRAME ISTACK, 0, STACK
        ARGFRAME PSTACK, 0, STACK
        ARGFRAME XSTACK, 11, STACK
        ARGFRAME IOVERLAY, 0, STATIC
        ARGFRAME DOVERLAY, 0, STATIC
        EXTERN irCodeTx
        FUNCTION irCodeTx,0202H
        ARGFRAME ISTACK, 0, STACK
        ARGFRAME PSTACK, 0, STACK
        ARGFRAME XSTACK, 11, STACK
        ARGFRAME IOVERLAY, 0, STATIC
        ARGFRAME DOVERLAY, 0, STATIC
        EXTERN osal_mem_alloc
        FUNCTION osal_mem_alloc,0202H
        ARGFRAME ISTACK, 0, STACK
        ARGFRAME PSTACK, 0, STACK
        ARGFRAME XSTACK, 11, STACK
        ARGFRAME IOVERLAY, 0, STATIC
        ARGFRAME DOVERLAY, 0, STATIC
        EXTERN USER_SEND_ADD_STR
        FUNCTION USER_SEND_ADD_STR,0202H
        ARGFRAME ISTACK, 0, STACK
        ARGFRAME PSTACK, 0, STACK
        ARGFRAME XSTACK, 11, STACK
        ARGFRAME IOVERLAY, 0, STATIC
        ARGFRAME DOVERLAY, 0, STATIC
        EXTERN USER_APP_SEND_IN
        FUNCTION USER_APP_SEND_IN,0202H
        ARGFRAME ISTACK, 0, STACK
        ARGFRAME PSTACK, 0, STACK
        ARGFRAME XSTACK, 11, STACK
        ARGFRAME IOVERLAY, 0, STATIC
        ARGFRAME DOVERLAY, 0, STATIC
        EXTERN osal_nv_item_init
        FUNCTION osal_nv_item_init,0202H
        ARGFRAME ISTACK, 0, STACK
        ARGFRAME PSTACK, 0, STACK
        ARGFRAME XSTACK, 12, STACK
        ARGFRAME IOVERLAY, 0, STATIC
        ARGFRAME DOVERLAY, 0, STATIC
        EXTERN osal_nv_read
        FUNCTION osal_nv_read,0202H
        ARGFRAME ISTACK, 0, STACK
        ARGFRAME PSTACK, 0, STACK
        ARGFRAME XSTACK, 14, STACK
        ARGFRAME IOVERLAY, 0, STATIC
        ARGFRAME DOVERLAY, 0, STATIC
        EXTERN irrInit
        FUNCTION irrInit,0202H
        ARGFRAME ISTACK, 0, STACK
        ARGFRAME PSTACK, 0, STACK
        ARGFRAME XSTACK, 10, STACK
        ARGFRAME IOVERLAY, 0, STATIC
        ARGFRAME DOVERLAY, 0, STATIC
        EXTERN ??APPLY_TO_JOIN_OF_KEY?relay
        FUNCTION ??APPLY_TO_JOIN_OF_KEY?relay,00H
        EXTERN ??HalLedBlink?relay
        FUNCTION ??HalLedBlink?relay,00H
        EXTERN ??NLME_SetPollRate?relay
        FUNCTION ??NLME_SetPollRate?relay,00H
        EXTERN ??RESTORE_TO_FACTORY?relay
        FUNCTION ??RESTORE_TO_FACTORY?relay,00H
        EXTERN ??RegisterForKeys?relay
        FUNCTION ??RegisterForKeys?relay,00H
        EXTERN ??SampleApp_GetShortAddr?relay
        FUNCTION ??SampleApp_GetShortAddr?relay,00H
        EXTERN ??SampleApp_PermitJoin?relay
        FUNCTION ??SampleApp_PermitJoin?relay,00H
        EXTERN ??USER_APP_SEND_IN?relay
        FUNCTION ??USER_APP_SEND_IN?relay,00H
        EXTERN ??USER_SEND_ADD_STR?relay
        FUNCTION ??USER_SEND_ADD_STR?relay,00H
        EXTERN ??irCodeRx?relay
        FUNCTION ??irCodeRx?relay,00H
        EXTERN ??irCodeTx?relay
        FUNCTION ??irCodeTx?relay,00H
        EXTERN ??irrInit?relay
        FUNCTION ??irrInit?relay,00H
        EXTERN ??myApp_ReadBattery?relay
        FUNCTION ??myApp_ReadBattery?relay,00H
        EXTERN ??osal_mem_alloc?relay
        FUNCTION ??osal_mem_alloc?relay,00H
        EXTERN ??osal_mem_free?relay
        FUNCTION ??osal_mem_free?relay,00H
        EXTERN ??osal_msg_deallocate?relay
        FUNCTION ??osal_msg_deallocate?relay,00H
        EXTERN ??osal_msg_receive?relay
        FUNCTION ??osal_msg_receive?relay,00H
        EXTERN ??osal_nv_item_init?relay
        FUNCTION ??osal_nv_item_init?relay,00H
        EXTERN ??osal_nv_read?relay
        FUNCTION ??osal_nv_read?relay,00H
        EXTERN ??osal_pwrmgr_device?relay
        FUNCTION ??osal_pwrmgr_device?relay,00H
        EXTERN ??osal_start_timerEx?relay
        FUNCTION ??osal_start_timerEx?relay,00H
        EXTERN ??osal_stop_timerEx?relay
        FUNCTION ??osal_stop_timerEx?relay,00H
        EXTERN HEART_NEED_ACK_FLAG
        EXTERN SampleApp_TaskID
        EXTERN devState
        EXTERN key_double_flag
        EXTERN key_hold_flag
        EXTERN shortddr_mem

// D:\RE_1_2_0_FORMAL_APP(251)-14-12-8\Projects\zstack\Samples\SampleApp\Source\IRR_enddevice\IRR_STUDY_User_app.c
//    1 /**************************************************************************************************
//    2   Filename:       SampleApp.c
//    3   Revised:        $Date: 2007-10-27 17:16:54 -0700 (Sat, 27 Oct 2007) $
//    4   Revision:       $Revision: 15793 $
//    5 
//    6   Description:    Sample Application (no Profile).
//    7 
//    8 
//    9   Copyright 2007 Texas Instruments Incorporated. All rights reserved.
//   10 
//   11   IMPORTANT: Your use of this Software is limited to those specific rights
//   12   granted under the terms of a software license agreement between the user
//   13   who downloaded the software, his/her employer (which must be your employer)
//   14   and Texas Instruments Incorporated (the "License").  You may not use this
//   15   Software unless you agree to abide by the terms of the License. The License
//   16   limits your use, and you acknowledge, that the Software may not be modified,
//   17   copied or distributed unless embedded on a Texas Instruments microcontroller
//   18   or used solely and exclusively in conjunction with a Texas Instruments radio
//   19   frequency transceiver, which is integrated into your product.  Other than for
//   20   the foregoing purpose, you may not use, reproduce, copy, prepare derivative
//   21   works of, modify, distribute, perform, display or sell this Software and/or
//   22   its documentation for any purpose.
//   23 
//   24   YOU FURTHER ACKNOWLEDGE AND AGREE THAT THE SOFTWARE AND DOCUMENTATION ARE
//   25   PROVIDED AS IS?WITHOUT WARRANTY OF ANY KIND, EITHER EXPRESS OR IMPLIED,
//   26   INCLUDING WITHOUT LIMITATION, ANY WARRANTY OF MERCHANTABILITY, TITLE,
//   27   NON-INFRINGEMENT AND FITNESS FOR A PARTICULAR PURPOSE. IN NO EVENT SHALL
//   28   TEXAS INSTRUMENTS OR ITS LICENSORS BE LIABLE OR OBLIGATED UNDER CONTRACT,
//   29   NEGLIGENCE, STRICT LIABILITY, CONTRIBUTION, BREACH OF WARRANTY, OR OTHER
//   30   LEGAL EQUITABLE THEORY ANY DIRECT OR INDIRECT DAMAGES OR EXPENSES
//   31   INCLUDING BUT NOT LIMITED TO ANY INCIDENTAL, SPECIAL, INDIRECT, PUNITIVE
//   32   OR CONSEQUENTIAL DAMAGES, LOST PROFITS OR LOST DATA, COST OF PROCUREMENT
//   33   OF SUBSTITUTE GOODS, TECHNOLOGY, SERVICES, OR ANY CLAIMS BY THIRD PARTIES
//   34   (INCLUDING BUT NOT LIMITED TO ANY DEFENSE THEREOF), OR OTHER SIMILAR COSTS.
//   35 
//   36   Should you have any questions regarding your right to use this Software,
//   37   contact Texas Instruments Incorporated at www.TI.com.
//   38 **************************************************************************************************/
//   39 
//   40 /*********************************************************************
//   41   This application isn't intended to do anything useful, it is
//   42   intended to be a simple example of an application's structure.
//   43 
//   44   This application sends it's messages either as broadcast or
//   45   broadcast filtered group messages.  The other (more normal)
//   46   message addressing is unicast.  Most of the other sample
//   47   applications are written to support the unicast message model.
//   48 
//   49   Key control:
//   50     SW1:  Sends a flash command to all devices in Group 1.
//   51     SW2:  Adds/Removes (toggles) this device in and out
//   52           of Group 1.  This will enable and disable the
//   53           reception of the flash command.
//   54 *********************************************************************/
//   55 
//   56 /*********************************************************************
//   57  * INCLUDES
//   58  */
//   59 
//   60 
//   61 
//   62 
//   63 #include "OSAL.h"
//   64 #include "ZGlobals.h"
//   65 #include "AF.h"
//   66 #include "aps_groups.h"
//   67 #include "ZDApp.h"
//   68 #include "device.h"
//   69 #include "OnBoard.h"

        ASEGN SFR_AN:DATA:NOROOT,080H
// union <unnamed> volatile __sfr _A_P0
_A_P0:
        DATA8
        DS 1

        ASEGN SFR_AN:DATA:NOROOT,089H
// unsigned char volatile __sfr P0IFG
P0IFG:
        DATA8
        DS 1

        ASEGN SFR_AN:DATA:NOROOT,08aH
// unsigned char volatile __sfr P1IFG
P1IFG:
        DATA8
        DS 1

        ASEGN SFR_AN:DATA:NOROOT,08dH
// unsigned char volatile __sfr P1IEN
P1IEN:
        DATA8
        DS 1

        ASEGN SFR_AN:DATA:NOROOT,090H
// union <unnamed> volatile __sfr _A_P1
_A_P1:
        DATA8
        DS 1

        ASEGN SFR_AN:DATA:NOROOT,0a8H
// union <unnamed> volatile __sfr _A_IEN0
_A_IEN0:
        DATA8
        DS 1

        ASEGN SFR_AN:DATA:NOROOT,0abH
// unsigned char volatile __sfr P0IEN
P0IEN:
        DATA8
        DS 1

        ASEGN SFR_AN:DATA:NOROOT,0feH
// unsigned char volatile __sfr P1DIR
P1DIR:
        DATA8
        DS 1
//   70 #include "MT_UART.h"
//   71 #include "mac_rx.h"
//   72 
//   73 /* HAL */
//   74 #include "hal_led.h"
//   75 #include "hal_key.h"
//   76 #include "OSAL_Nv.h"
//   77 
//   78 #include "AddrMgr.h"
//   79 #include "nwk_util.h"
//   80 #include "ZDObject.h"
//   81 #include "ZDO_LIB.h"
//   82 #include "common_device.h"
//   83 #include "IO_config.h"
//   84 #include "OSAL_PwrMgr.h"
//   85 
//   86 #if defined(IRR_ED)
//   87 #include "IRR.h"
//   88 #include "m25p16.h"
//   89 
//   90 #endif
//   91 

        RSEG XDATA_Z:XDATA:NOROOT(0)
        DATA8
//   92 uint8 UserApp_TaskID;
UserApp_TaskID:
        DS 1
        REQUIRE __INIT_XDATA_Z

        RSEG XDATA_Z:XDATA:NOROOT(0)
        DATA8
//   93 uint8 RS_LEN=0;
RS_LEN:
        DS 1
        REQUIRE __INIT_XDATA_Z

        RSEG XDATA_Z:XDATA:NOROOT(0)
        DATA8
//   94 uint8 RS_STR[10];
RS_STR:
        DS 10
        REQUIRE __INIT_XDATA_Z

        RSEG XDATA_Z:XDATA:NOROOT(0)
        DATA32
//   95 uint8 SHORT_ADRESS[4];
SHORT_ADRESS:
        DS 4
        REQUIRE __INIT_XDATA_Z

        RSEG XDATA_Z:XDATA:NOROOT(0)
        DATA8
//   96 uint8 USER_DATA_LEN=0;
USER_DATA_LEN:
        DS 1
        REQUIRE __INIT_XDATA_Z

        RSEG XDATA_Z:XDATA:NOROOT(0)
        DATA8
//   97 uint8 USER_DATA_TYPE=0;
USER_DATA_TYPE:
        DS 1
        REQUIRE __INIT_XDATA_Z

        RSEG XDATA_Z:XDATA:NOROOT(0)
        DATA16
//   98 uint8 *USER_DATA_STR;
USER_DATA_STR:
        DS 2
        REQUIRE __INIT_XDATA_Z
//   99 
//  100 

        RSEG XDATA_Z:XDATA:NOROOT(0)
        DATA8
//  101 uint8 DEVICE_ID;
DEVICE_ID:
        DS 1
        REQUIRE __INIT_XDATA_Z

        RSEG XDATA_Z:XDATA:NOROOT(0)
        DATA8
//  102 uint8 DEFINED_CONTROL_CHAR;
DEFINED_CONTROL_CHAR:
        DS 1
        REQUIRE __INIT_XDATA_Z

        RSEG XDATA_Z:XDATA:NOROOT(0)
        DATA8
//  103 uint8 JOIN_ROLE;
JOIN_ROLE:
        DS 1
        REQUIRE __INIT_XDATA_Z

        RSEG XDATA_I:XDATA:NOROOT(0)
//  104 uint16 NORMAL_POLL_TIME=7000;
NORMAL_POLL_TIME:
        DATA16
        DS 2
        REQUIRE `?<Initializer for NORMAL_POLL_TIME>`
        REQUIRE __INIT_XDATA_I
//  105 

        RSEG XDATA_Z:XDATA:NOROOT(0)
        DATA8
//  106 uint8 DEEP_POLL_FLAG;
DEEP_POLL_FLAG:
        DS 1
        REQUIRE __INIT_XDATA_Z

        RSEG XDATA_Z:XDATA:NOROOT(0)
        DATA8
//  107 uint8 FRONT_ALARM_FLAG=0;
FRONT_ALARM_FLAG:
        DS 1
        REQUIRE __INIT_XDATA_Z
//  108 

        RSEG XDATA_Z:XDATA:NOROOT(0)
        DATA16
//  109 uint16 active_battery_voltage=0;
active_battery_voltage:
        DS 2
        REQUIRE __INIT_XDATA_Z

        RSEG XDATA_Z:XDATA:NOROOT(0)
        DATA8
//  110 uint8 CASH_TIME_FLAG=0;
CASH_TIME_FLAG:
        DS 1
        REQUIRE __INIT_XDATA_Z

        RSEG XDATA_Z:XDATA:NOROOT(0)
        DATA8
//  111 uint8 HIGH_BUTTERY_FLAG = 0; //大于2.9V
HIGH_BUTTERY_FLAG:
        DS 1
        REQUIRE __INIT_XDATA_Z
//  112 

        RSEG XDATA_Z:XDATA:NOROOT(0)
        DATA8
//  113 uint8 LOW_POWER_MODE=0;  // 低于2.5V ，进入放电模式
LOW_POWER_MODE:
        DS 1
        REQUIRE __INIT_XDATA_Z

        RSEG XDATA_Z:XDATA:NOROOT(0)
        DATA16
//  114 uint16 Heart_mesg_count;  
Heart_mesg_count:
        DS 2
        REQUIRE __INIT_XDATA_Z

        RSEG XDATA_Z:XDATA:NOROOT(0)
        DATA8
//  115 uint8 poll_count=0;    //
poll_count:
        DS 1
        REQUIRE __INIT_XDATA_Z

        RSEG XDATA_Z:XDATA:NOROOT(0)
        DATA8
//  116 uint8 Hour_count=0;
Hour_count:
        DS 1
        REQUIRE __INIT_XDATA_Z

        RSEG XDATA_Z:XDATA:NOROOT(0)
        DATA8
//  117 uint8 more_detect_low_power_flag=0;
more_detect_low_power_flag:
        DS 1
        REQUIRE __INIT_XDATA_Z

        RSEG XDATA_Z:XDATA:NOROOT(0)
        DATA8
//  118 uint8 BUTTERY_LOW_FLAG=0;
BUTTERY_LOW_FLAG:
        DS 1
        REQUIRE __INIT_XDATA_Z

        RSEG XDATA_Z:XDATA:NOROOT(0)
        DATA8
//  119 uint8 BUTTERY_ALARM_BIT=0;
BUTTERY_ALARM_BIT:
        DS 1
        REQUIRE __INIT_XDATA_Z

        RSEG XDATA_Z:XDATA:NOROOT(0)
        DATA8
//  120 uint8 POLLRATE_TIME_VALUE = 0;
POLLRATE_TIME_VALUE:
        DS 1
        REQUIRE __INIT_XDATA_Z
//  121 
//  122 

        RSEG XDATA_Z:XDATA:NOROOT(0)
        DATA8
//  123 uint8   CR2_DATA_NODETECT_FLAG = 0; //设置标记位，发送数据的时候禁止中断
CR2_DATA_NODETECT_FLAG:
        DS 1
        REQUIRE __INIT_XDATA_Z
//  124 void CR2_DATA_NODETECT_MSG(void);
//  125    
//  126 
//  127 

        RSEG XDATA_Z:XDATA:NOROOT(0)
        DATA8
//  128 uint8 forever_forbiten_flag=0;
forever_forbiten_flag:
        DS 1
        REQUIRE __INIT_XDATA_Z

        RSEG XDATA_Z:XDATA:NOROOT(0)
        DATA16
//  129 cId_t bindingINClusters[1];
bindingINClusters:
        DS 2
        REQUIRE __INIT_XDATA_Z
//  130 
//  131 

        RSEG XDATA_Z:XDATA:NOROOT(0)
        DATA8
//  132     	uint8 CmdType;  //命令类型： '1' 学习，'2' 使用
CmdType:
        DS 1
        REQUIRE __INIT_XDATA_Z

        RSEG XDATA_Z:XDATA:NOROOT(0)
        DATA16
//  133 	uint16 IRCodeIndex;   //
IRCodeIndex:
        DS 2
        REQUIRE __INIT_XDATA_Z

        RSEG XDATA_I:XDATA:NOROOT(0)
//  134 uint8 longPollRateFlag = 1;
longPollRateFlag:
        DATA8
        DS 1
        REQUIRE `?<Initializer for longPollRateFlag>`
        REQUIRE __INIT_XDATA_I
//  135 
//  136 uint8 USER_APP_COMMAND(uint8 *user_app_data,uint8 *str); 
//  137 void USER_APP_JOIN_MSG(void);
//  138 void SampleApp_ProcessBINDINGMessage(afIncomingMSGPacket_t *pkt);
//  139 void SampleAPP_ProcessZDOMsgs( zdoIncomingMsg_t *inMsg );
//  140 
//  141 void User_APP_Drive_init(void);
//  142 void SampleApp_HandleKeys( uint8 shift, uint8 keys );//本用户应用按键函数
//  143 void USER_SET_RS_MSG(void);//设置RS数据
//  144 
//  145 void USER_AFTER_RS_MSG(void);
//  146 
//  147 void USER_ZDO_JOINING_MSG(void); //ZDO层入网的时候处理函数 就是闪烁灯
//  148 uint8 READ_NETKEY(void); //读取入网状态按键的状态传递到应用层
//  149 void LED_CHANGE(uint8 Position,uint8 Mode);// 设置LED函数
//  150 
//  151 void changePollRate(void);
//  152 

        RSEG BANKED_CODE:CODE:NOROOT(0)
//  153 void UserApp_Init( uint8 task_id )
UserApp_Init:
        CFI Block cfiBlock0 Using cfiCommon0
        CFI Function UserApp_Init
        CODE
//  154 {
        FUNCALL UserApp_Init, RegisterForKeys
        LOCFRAME ISTACK, 0, STACK
        LOCFRAME PSTACK, 0, STACK
        LOCFRAME XSTACK, 9, STACK
        LOCFRAME IOVERLAY, 0, STATIC
        LOCFRAME DOVERLAY, 0, STATIC
        ARGFRAME ISTACK, 0, STACK
        ARGFRAME PSTACK, 0, STACK
        ARGFRAME XSTACK, 9, STACK
        ARGFRAME IOVERLAY, 0, STATIC
        ARGFRAME DOVERLAY, 0, STATIC
        FUNCALL UserApp_Init, User_APP_Drive_init
        LOCFRAME ISTACK, 0, STACK
        LOCFRAME PSTACK, 0, STACK
        LOCFRAME XSTACK, 9, STACK
        LOCFRAME IOVERLAY, 0, STATIC
        LOCFRAME DOVERLAY, 0, STATIC
        ARGFRAME ISTACK, 0, STACK
        ARGFRAME PSTACK, 0, STACK
        ARGFRAME XSTACK, 9, STACK
        ARGFRAME IOVERLAY, 0, STATIC
        ARGFRAME DOVERLAY, 0, STATIC
        MOV     A,#-0x9
        LCALL   ?BANKED_ENTER_XDATA
        CFI DPH0 load(1, XDATA, add(CFA_XSP16, literal(-1)))
        CFI DPL0 load(1, XDATA, add(CFA_XSP16, literal(-2)))
        CFI ?BRET_EXT load(1, XDATA, add(CFA_XSP16, literal(-3)))
        CFI ?RET_HIGH load(1, XDATA, add(CFA_XSP16, literal(-4)))
        CFI ?RET_LOW load(1, XDATA, add(CFA_XSP16, literal(-5)))
        CFI R7 load(1, XDATA, add(CFA_XSP16, literal(-6)))
        CFI V0 load(1, XDATA, add(CFA_XSP16, literal(-7)))
        CFI VB load(1, XDATA, add(CFA_XSP16, literal(-8)))
        CFI R6 load(1, XDATA, add(CFA_XSP16, literal(-9)))
        CFI CFA_SP SP+0
        CFI CFA_XSP16 add(XSP16, 9)
        ; Saved register size: 9
        ; Auto size: 0
        MOV     A,R1
        MOV     R6,A
//  155 
//  156   UserApp_TaskID = task_id;
        MOV     A,R6
        MOV     DPTR,#UserApp_TaskID
        MOVX    @DPTR,A
//  157   
//  158   RegisterForKeys(task_id);
        ; Setup parameters for call to function RegisterForKeys
        MOV     A,R6
        MOV     R1,A
        LCALL   ??RegisterForKeys?relay
        MOV     A,R1
//  159   
//  160   User_APP_Drive_init();
        ; Setup parameters for call to function User_APP_Drive_init
        LCALL   ??User_APP_Drive_init?relay
//  161 
//  162 }
        MOV     R7,#0x1
        LJMP    ?BANKED_LEAVE_XDATA
        CFI EndBlock cfiBlock0
//  163 
//  164 /*********************************************************************
//  165  * @fn      SampleApp_ProcessEvent
//  166  *
//  167  * @brief   Generic Application Task event processor.  This function
//  168  *          is called to process all events for the task.  Events
//  169  *          include timers, messages and any other user defined events.
//  170  *
//  171  * @param   task_id  - The OSAL assigned task ID.
//  172  * @param   events - events to process.  This is a bit map and can
//  173  *                   contain more than one event.
//  174  *
//  175  * @return  none
//  176  */

        RSEG BANKED_CODE:CODE:NOROOT(0)
//  177 uint16 UserApp_ProcessEvent( uint8 task_id, uint16 events )
UserApp_ProcessEvent:
        CFI Block cfiBlock1 Using cfiCommon0
        CFI Function UserApp_ProcessEvent
        CODE
//  178 {
        FUNCALL UserApp_ProcessEvent, osal_msg_receive
        LOCFRAME ISTACK, 0, STACK
        LOCFRAME PSTACK, 0, STACK
        LOCFRAME XSTACK, 14, STACK
        LOCFRAME IOVERLAY, 0, STATIC
        LOCFRAME DOVERLAY, 0, STATIC
        ARGFRAME ISTACK, 0, STACK
        ARGFRAME PSTACK, 0, STACK
        ARGFRAME XSTACK, 14, STACK
        ARGFRAME IOVERLAY, 0, STATIC
        ARGFRAME DOVERLAY, 0, STATIC
        FUNCALL UserApp_ProcessEvent, SampleAPP_ProcessZDOMsgs
        LOCFRAME ISTACK, 0, STACK
        LOCFRAME PSTACK, 0, STACK
        LOCFRAME XSTACK, 14, STACK
        LOCFRAME IOVERLAY, 0, STATIC
        LOCFRAME DOVERLAY, 0, STATIC
        ARGFRAME ISTACK, 0, STACK
        ARGFRAME PSTACK, 0, STACK
        ARGFRAME XSTACK, 14, STACK
        ARGFRAME IOVERLAY, 0, STATIC
        ARGFRAME DOVERLAY, 0, STATIC
        FUNCALL UserApp_ProcessEvent, SampleApp_HandleKeys
        LOCFRAME ISTACK, 0, STACK
        LOCFRAME PSTACK, 0, STACK
        LOCFRAME XSTACK, 14, STACK
        LOCFRAME IOVERLAY, 0, STATIC
        LOCFRAME DOVERLAY, 0, STATIC
        ARGFRAME ISTACK, 0, STACK
        ARGFRAME PSTACK, 0, STACK
        ARGFRAME XSTACK, 14, STACK
        ARGFRAME IOVERLAY, 0, STATIC
        ARGFRAME DOVERLAY, 0, STATIC
        FUNCALL UserApp_ProcessEvent, osal_msg_deallocate
        LOCFRAME ISTACK, 0, STACK
        LOCFRAME PSTACK, 0, STACK
        LOCFRAME XSTACK, 14, STACK
        LOCFRAME IOVERLAY, 0, STATIC
        LOCFRAME DOVERLAY, 0, STATIC
        ARGFRAME ISTACK, 0, STACK
        ARGFRAME PSTACK, 0, STACK
        ARGFRAME XSTACK, 14, STACK
        ARGFRAME IOVERLAY, 0, STATIC
        ARGFRAME DOVERLAY, 0, STATIC
        FUNCALL UserApp_ProcessEvent, osal_msg_receive
        LOCFRAME ISTACK, 0, STACK
        LOCFRAME PSTACK, 0, STACK
        LOCFRAME XSTACK, 14, STACK
        LOCFRAME IOVERLAY, 0, STATIC
        LOCFRAME DOVERLAY, 0, STATIC
        ARGFRAME ISTACK, 0, STACK
        ARGFRAME PSTACK, 0, STACK
        ARGFRAME XSTACK, 14, STACK
        ARGFRAME IOVERLAY, 0, STATIC
        ARGFRAME DOVERLAY, 0, STATIC
        FUNCALL UserApp_ProcessEvent, osal_start_timerEx
        LOCFRAME ISTACK, 0, STACK
        LOCFRAME PSTACK, 0, STACK
        LOCFRAME XSTACK, 14, STACK
        LOCFRAME IOVERLAY, 0, STATIC
        LOCFRAME DOVERLAY, 0, STATIC
        ARGFRAME ISTACK, 0, STACK
        ARGFRAME PSTACK, 0, STACK
        ARGFRAME XSTACK, 14, STACK
        ARGFRAME IOVERLAY, 0, STATIC
        ARGFRAME DOVERLAY, 0, STATIC
        FUNCALL UserApp_ProcessEvent, SampleApp_SendInMessage
        LOCFRAME ISTACK, 0, STACK
        LOCFRAME PSTACK, 0, STACK
        LOCFRAME XSTACK, 14, STACK
        LOCFRAME IOVERLAY, 0, STATIC
        LOCFRAME DOVERLAY, 0, STATIC
        ARGFRAME ISTACK, 0, STACK
        ARGFRAME PSTACK, 0, STACK
        ARGFRAME XSTACK, 14, STACK
        ARGFRAME IOVERLAY, 0, STATIC
        ARGFRAME DOVERLAY, 0, STATIC
        FUNCALL UserApp_ProcessEvent, myApp_ReadBattery
        LOCFRAME ISTACK, 0, STACK
        LOCFRAME PSTACK, 0, STACK
        LOCFRAME XSTACK, 14, STACK
        LOCFRAME IOVERLAY, 0, STATIC
        LOCFRAME DOVERLAY, 0, STATIC
        ARGFRAME ISTACK, 0, STACK
        ARGFRAME PSTACK, 0, STACK
        ARGFRAME XSTACK, 14, STACK
        ARGFRAME IOVERLAY, 0, STATIC
        ARGFRAME DOVERLAY, 0, STATIC
        FUNCALL UserApp_ProcessEvent, osal_start_timerEx
        LOCFRAME ISTACK, 0, STACK
        LOCFRAME PSTACK, 0, STACK
        LOCFRAME XSTACK, 14, STACK
        LOCFRAME IOVERLAY, 0, STATIC
        LOCFRAME DOVERLAY, 0, STATIC
        ARGFRAME ISTACK, 0, STACK
        ARGFRAME PSTACK, 0, STACK
        ARGFRAME XSTACK, 14, STACK
        ARGFRAME IOVERLAY, 0, STATIC
        ARGFRAME DOVERLAY, 0, STATIC
        FUNCALL UserApp_ProcessEvent, osal_stop_timerEx
        LOCFRAME ISTACK, 0, STACK
        LOCFRAME PSTACK, 0, STACK
        LOCFRAME XSTACK, 14, STACK
        LOCFRAME IOVERLAY, 0, STATIC
        LOCFRAME DOVERLAY, 0, STATIC
        ARGFRAME ISTACK, 0, STACK
        ARGFRAME PSTACK, 0, STACK
        ARGFRAME XSTACK, 14, STACK
        ARGFRAME IOVERLAY, 0, STATIC
        ARGFRAME DOVERLAY, 0, STATIC
        FUNCALL UserApp_ProcessEvent, osal_start_timerEx
        LOCFRAME ISTACK, 0, STACK
        LOCFRAME PSTACK, 0, STACK
        LOCFRAME XSTACK, 14, STACK
        LOCFRAME IOVERLAY, 0, STATIC
        LOCFRAME DOVERLAY, 0, STATIC
        ARGFRAME ISTACK, 0, STACK
        ARGFRAME PSTACK, 0, STACK
        ARGFRAME XSTACK, 14, STACK
        ARGFRAME IOVERLAY, 0, STATIC
        ARGFRAME DOVERLAY, 0, STATIC
        FUNCALL UserApp_ProcessEvent, osal_pwrmgr_device
        LOCFRAME ISTACK, 0, STACK
        LOCFRAME PSTACK, 0, STACK
        LOCFRAME XSTACK, 14, STACK
        LOCFRAME IOVERLAY, 0, STATIC
        LOCFRAME DOVERLAY, 0, STATIC
        ARGFRAME ISTACK, 0, STACK
        ARGFRAME PSTACK, 0, STACK
        ARGFRAME XSTACK, 14, STACK
        ARGFRAME IOVERLAY, 0, STATIC
        ARGFRAME DOVERLAY, 0, STATIC
        FUNCALL UserApp_ProcessEvent, SampleApp_SendInMessage
        LOCFRAME ISTACK, 0, STACK
        LOCFRAME PSTACK, 0, STACK
        LOCFRAME XSTACK, 14, STACK
        LOCFRAME IOVERLAY, 0, STATIC
        LOCFRAME DOVERLAY, 0, STATIC
        ARGFRAME ISTACK, 0, STACK
        ARGFRAME PSTACK, 0, STACK
        ARGFRAME XSTACK, 14, STACK
        ARGFRAME IOVERLAY, 0, STATIC
        ARGFRAME DOVERLAY, 0, STATIC
        FUNCALL UserApp_ProcessEvent, osal_start_timerEx
        LOCFRAME ISTACK, 0, STACK
        LOCFRAME PSTACK, 0, STACK
        LOCFRAME XSTACK, 14, STACK
        LOCFRAME IOVERLAY, 0, STATIC
        LOCFRAME DOVERLAY, 0, STATIC
        ARGFRAME ISTACK, 0, STACK
        ARGFRAME PSTACK, 0, STACK
        ARGFRAME XSTACK, 14, STACK
        ARGFRAME IOVERLAY, 0, STATIC
        ARGFRAME DOVERLAY, 0, STATIC
        FUNCALL UserApp_ProcessEvent, osal_start_timerEx
        LOCFRAME ISTACK, 0, STACK
        LOCFRAME PSTACK, 0, STACK
        LOCFRAME XSTACK, 14, STACK
        LOCFRAME IOVERLAY, 0, STATIC
        LOCFRAME DOVERLAY, 0, STATIC
        ARGFRAME ISTACK, 0, STACK
        ARGFRAME PSTACK, 0, STACK
        ARGFRAME XSTACK, 14, STACK
        ARGFRAME IOVERLAY, 0, STATIC
        ARGFRAME DOVERLAY, 0, STATIC
        FUNCALL UserApp_ProcessEvent, NLME_SetPollRate
        LOCFRAME ISTACK, 0, STACK
        LOCFRAME PSTACK, 0, STACK
        LOCFRAME XSTACK, 14, STACK
        LOCFRAME IOVERLAY, 0, STATIC
        LOCFRAME DOVERLAY, 0, STATIC
        ARGFRAME ISTACK, 0, STACK
        ARGFRAME PSTACK, 0, STACK
        ARGFRAME XSTACK, 14, STACK
        ARGFRAME IOVERLAY, 0, STATIC
        ARGFRAME DOVERLAY, 0, STATIC
        FUNCALL UserApp_ProcessEvent, osal_start_timerEx
        LOCFRAME ISTACK, 0, STACK
        LOCFRAME PSTACK, 0, STACK
        LOCFRAME XSTACK, 14, STACK
        LOCFRAME IOVERLAY, 0, STATIC
        LOCFRAME DOVERLAY, 0, STATIC
        ARGFRAME ISTACK, 0, STACK
        ARGFRAME PSTACK, 0, STACK
        ARGFRAME XSTACK, 14, STACK
        ARGFRAME IOVERLAY, 0, STATIC
        ARGFRAME DOVERLAY, 0, STATIC
        FUNCALL UserApp_ProcessEvent, NLME_SetPollRate
        LOCFRAME ISTACK, 0, STACK
        LOCFRAME PSTACK, 0, STACK
        LOCFRAME XSTACK, 14, STACK
        LOCFRAME IOVERLAY, 0, STATIC
        LOCFRAME DOVERLAY, 0, STATIC
        ARGFRAME ISTACK, 0, STACK
        ARGFRAME PSTACK, 0, STACK
        ARGFRAME XSTACK, 14, STACK
        ARGFRAME IOVERLAY, 0, STATIC
        ARGFRAME DOVERLAY, 0, STATIC
        MOV     A,#-0xe
        LCALL   ?BANKED_ENTER_XDATA
        CFI DPH0 load(1, XDATA, add(CFA_XSP16, literal(-1)))
        CFI DPL0 load(1, XDATA, add(CFA_XSP16, literal(-2)))
        CFI ?BRET_EXT load(1, XDATA, add(CFA_XSP16, literal(-3)))
        CFI ?RET_HIGH load(1, XDATA, add(CFA_XSP16, literal(-4)))
        CFI ?RET_LOW load(1, XDATA, add(CFA_XSP16, literal(-5)))
        CFI R7 load(1, XDATA, add(CFA_XSP16, literal(-6)))
        CFI V5 load(1, XDATA, add(CFA_XSP16, literal(-7)))
        CFI V4 load(1, XDATA, add(CFA_XSP16, literal(-8)))
        CFI V3 load(1, XDATA, add(CFA_XSP16, literal(-9)))
        CFI V2 load(1, XDATA, add(CFA_XSP16, literal(-10)))
        CFI V1 load(1, XDATA, add(CFA_XSP16, literal(-11)))
        CFI V0 load(1, XDATA, add(CFA_XSP16, literal(-12)))
        CFI VB load(1, XDATA, add(CFA_XSP16, literal(-13)))
        CFI R6 load(1, XDATA, add(CFA_XSP16, literal(-14)))
        CFI CFA_SP SP+0
        CFI CFA_XSP16 add(XSP16, 14)
        ; Saved register size: 14
        ; Auto size: 0
        MOV     ?V0 + 2,R1
        MOV     A,R2
        MOV     R6,A
        MOV     A,R3
        MOV     R7,A
//  179   afIncomingMSGPacket_t *MSGpkt;
//  180  
//  181   if ( events & SYS_EVENT_MSG )
        MOV     A,R6
        ANL     A,#0x0
        MOV     R0,A
        MOV     A,R7
        ANL     A,#0x80
        MOV     R1,A
        MOV     A,R0
        ORL     A,R1
        JZ      ??UserApp_ProcessEvent_0
//  182   {
//  183     MSGpkt = (afIncomingMSGPacket_t *)osal_msg_receive( UserApp_TaskID );
        ; Setup parameters for call to function osal_msg_receive
        MOV     DPTR,#UserApp_TaskID
        MOVX    A,@DPTR
        MOV     R1,A
        LCALL   ??osal_msg_receive?relay
        MOV     ?V0 + 4,R2
        MOV     ?V0 + 5,R3
        MOV     ?V0 + 0,?V0 + 4
        MOV     ?V0 + 1,?V0 + 5
//  184     while ( MSGpkt )                                           
??UserApp_ProcessEvent_1:
        MOV     A,?V0 + 0
        ORL     A,?V0 + 1
        JZ      ??UserApp_ProcessEvent_2
//  185     {                                                                     
//  186       switch ( MSGpkt->hdr.event )
        MOV     DPL,?V0 + 0
        MOV     DPH,?V0 + 1
        MOVX    A,@DPTR
        ADD     A,#0x40
        JZ      ??UserApp_ProcessEvent_3
        ADD     A,#-0x13
        JNZ     ??UserApp_ProcessEvent_4
//  187       {
//  188         
//  189          
//  190          case ZDO_CB_MSG:
//  191           SampleAPP_ProcessZDOMsgs( (zdoIncomingMsg_t *)MSGpkt );
        ; Setup parameters for call to function SampleAPP_ProcessZDOMsgs
        MOV     R2,?V0 + 0
        MOV     R3,?V0 + 1
        LCALL   ??SampleAPP_ProcessZDOMsgs?relay
//  192           break; 
        SJMP    ??UserApp_ProcessEvent_4
//  193           
//  194         case KEY_CHANGE:      
//  195           SampleApp_HandleKeys( ((keyChange_t *)MSGpkt)->state, ((keyChange_t *)MSGpkt)->keys );
??UserApp_ProcessEvent_3:
        ; Setup parameters for call to function SampleApp_HandleKeys
        MOV     DPL,?V0 + 0
        MOV     DPH,?V0 + 1
        INC     DPTR
        INC     DPTR
        INC     DPTR
        MOVX    A,@DPTR
        MOV     R2,A
        MOV     DPL,?V0 + 0
        MOV     DPH,?V0 + 1
        INC     DPTR
        INC     DPTR
        MOVX    A,@DPTR
        MOV     R1,A
        LCALL   ??SampleApp_HandleKeys?relay
//  196           break;                                             
//  197 
//  198         default:
//  199           break;
//  200       }
//  201 
//  202       // Release the memory
//  203       //释放消息占用的内存
//  204       osal_msg_deallocate( (uint8 *)MSGpkt );
??UserApp_ProcessEvent_4:
        ; Setup parameters for call to function osal_msg_deallocate
        MOV     R2,?V0 + 0
        MOV     R3,?V0 + 1
        LCALL   ??osal_msg_deallocate?relay
        MOV     A,R1
//  205 
//  206       // Next - if one is available
//  207       MSGpkt = (afIncomingMSGPacket_t *)osal_msg_receive( UserApp_TaskID );
        ; Setup parameters for call to function osal_msg_receive
        MOV     DPTR,#UserApp_TaskID
        MOVX    A,@DPTR
        MOV     R1,A
        LCALL   ??osal_msg_receive?relay
        MOV     ?V0 + 4,R2
        MOV     ?V0 + 5,R3
        MOV     ?V0 + 0,?V0 + 4
        MOV     ?V0 + 1,?V0 + 5
        SJMP    ??UserApp_ProcessEvent_1
//  208     }//end： while ( MSGpkt )
//  209 
//  210     return (events ^ SYS_EVENT_MSG);
??UserApp_ProcessEvent_2:
        MOV     A,R6
        XRL     A,#0x0
        MOV     R2,A
        MOV     A,R7
        XRL     A,#0x80
        MOV     R3,A
        LJMP    ??UserApp_ProcessEvent_5 & 0xFFFF
//  211   }
//  212   
//  213   
//  214  //用户自行添加事件
//  215  //test
//  216   if ( events & USER_TEST_EVT )
??UserApp_ProcessEvent_0:
        MOV     A,R6
        MOV     C,0xE0 /* A   */.0
        JNC     ??UserApp_ProcessEvent_6
//  217   {
//  218     HAL_TOGGLE_LED1();
        MOV     C,0x90.0
        JNC     ??UserApp_ProcessEvent_7
        CLR     0x90.0
        SJMP    ??UserApp_ProcessEvent_8
??UserApp_ProcessEvent_7:
        SETB    0x90.0
//  219       osal_start_timerEx( UserApp_TaskID, USER_TEST_EVT,10000);
??UserApp_ProcessEvent_8:
        ; Setup parameters for call to function osal_start_timerEx
        MOV     R4,#0x10
        MOV     R5,#0x27
        MOV     R2,#0x1
        MOV     R3,#0x0
        MOV     DPTR,#UserApp_TaskID
        MOVX    A,@DPTR
        MOV     R1,A
        LCALL   ??osal_start_timerEx?relay
        MOV     A,R1
//  220     
//  221      return (events ^ USER_TEST_EVT );
        MOV     A,R6
        XRL     A,#0x1
        MOV     R2,A
        MOV     A,R7
        XRL     A,#0x0
        MOV     R3,A
        LJMP    ??UserApp_ProcessEvent_5 & 0xFFFF
//  222   } 
//  223   
//  224   if ( events & SAMPLEAPP_SEND_LOWBUTTERY_EVT )
??UserApp_ProcessEvent_6:
        MOV     A,R6
        ANL     A,#0x4
        JZ      ??UserApp_ProcessEvent_9
//  225   {
//  226   
//  227     BUTTERY_LOW_FLAG =1;
        MOV     DPTR,#BUTTERY_LOW_FLAG
        MOV     A,#0x1
        MOVX    @DPTR,A
//  228     SampleApp_SendInMessage();
        ; Setup parameters for call to function SampleApp_SendInMessage
        LCALL   ??SampleApp_SendInMessage?relay
//  229     
//  230    return ( events ^ SAMPLEAPP_SEND_LOWBUTTERY_EVT);
        MOV     A,R6
        XRL     A,#0x4
        MOV     R2,A
        MOV     A,R7
        XRL     A,#0x0
        MOV     R3,A
        LJMP    ??UserApp_ProcessEvent_5 & 0xFFFF
//  231   }
//  232   
//  233    if ( events & SAMPLEAPP_SEND_NBJC_EVT )
??UserApp_ProcessEvent_9:
        MOV     A,R6
        ANL     A,#0x8
        JNZ     $+5
        LJMP    ??UserApp_ProcessEvent_10 & 0xFFFF
//  234   {
//  235         active_battery_voltage=myApp_ReadBattery();
        ; Setup parameters for call to function myApp_ReadBattery
        LCALL   ??myApp_ReadBattery?relay
        MOV     DPTR,#active_battery_voltage
        MOV     A,R2
        MOVX    @DPTR,A
        INC     DPTR
        MOV     A,R3
        MOVX    @DPTR,A
//  236       //  BUTTERY_LOW_FLAG =1;
//  237      //   SampleApp_SendInMessage();
//  238          if(active_battery_voltage<=245)
        MOV     DPTR,#active_battery_voltage
        CLR     C
        MOVX    A,@DPTR
        SUBB    A,#-0xa
        INC     DPTR
        MOVX    A,@DPTR
        SUBB    A,#0x0
        JNC     ??UserApp_ProcessEvent_11
//  239           {
//  240             P0IEN &=~BV(4);
        ANL     0xab,#0xef
//  241             P1IEN &=~BV(5);
        ANL     0x8d,#0xdf
//  242             forever_forbiten_flag=1;
        MOV     DPTR,#forever_forbiten_flag
        MOV     A,#0x1
        MOVX    @DPTR,A
//  243             
//  244        
//  245             more_detect_low_power_flag++;
        MOV     DPTR,#more_detect_low_power_flag
        MOVX    A,@DPTR
        ADD     A,#0x1
        MOVX    @DPTR,A
//  246             if(more_detect_low_power_flag>=3)
        MOV     DPTR,#more_detect_low_power_flag
        MOVX    A,@DPTR
        CLR     C
        SUBB    A,#0x3
        JC      ??UserApp_ProcessEvent_12
//  247             {
//  248             LOW_POWER_MODE=1;
        MOV     DPTR,#LOW_POWER_MODE
        MOV     A,#0x1
        MOVX    @DPTR,A
//  249             osal_start_timerEx( UserApp_TaskID, SAMPLEAPP_SEND_LOWBUTTERY_EVT,60000 );
        ; Setup parameters for call to function osal_start_timerEx
        MOV     R4,#0x60
        MOV     R5,#-0x16
        MOV     R2,#0x4
        MOV     R3,#0x0
        MOV     DPTR,#UserApp_TaskID
        MOVX    A,@DPTR
        MOV     R1,A
        LCALL   ??osal_start_timerEx?relay
        MOV     A,R1
//  250             osal_stop_timerEx( UserApp_TaskID, SAMPLEAPP_SEND_NBJC_EVT);   
        ; Setup parameters for call to function osal_stop_timerEx
        MOV     R2,#0x8
        MOV     R3,#0x0
        MOV     DPTR,#UserApp_TaskID
        MOVX    A,@DPTR
        MOV     R1,A
        LCALL   ??osal_stop_timerEx?relay
        MOV     A,R1
        SJMP    ??UserApp_ProcessEvent_13
//  251             }
//  252             else
//  253             {
//  254    
//  255 
//  256             osal_start_timerEx( UserApp_TaskID, SAMPLEAPP_SEND_NBJC_EVT,3000 );   
??UserApp_ProcessEvent_12:
        ; Setup parameters for call to function osal_start_timerEx
        MOV     R4,#-0x48
        MOV     R5,#0xb
        MOV     R2,#0x8
        MOV     R3,#0x0
        MOV     DPTR,#UserApp_TaskID
        MOVX    A,@DPTR
        MOV     R1,A
        LCALL   ??osal_start_timerEx?relay
        MOV     A,R1
        SJMP    ??UserApp_ProcessEvent_13
//  257             } 
//  258           }
//  259           else
//  260           {
//  261            more_detect_low_power_flag=0;
??UserApp_ProcessEvent_11:
        MOV     DPTR,#more_detect_low_power_flag
        MOV     A,#0x0
        MOVX    @DPTR,A
//  262            forever_forbiten_flag=0;  
        MOV     DPTR,#forever_forbiten_flag
        MOV     A,#0x0
        MOVX    @DPTR,A
//  263            osal_pwrmgr_device( PWRMGR_BATTERY );
        ; Setup parameters for call to function osal_pwrmgr_device
        MOV     R1,#0x1
        LCALL   ??osal_pwrmgr_device?relay
//  264 
//  265           }
//  266          
//  267    return ( events ^ SAMPLEAPP_SEND_NBJC_EVT);
??UserApp_ProcessEvent_13:
        MOV     A,R6
        XRL     A,#0x8
        MOV     R2,A
        MOV     A,R7
        XRL     A,#0x0
        MOV     R3,A
        LJMP    ??UserApp_ProcessEvent_5 & 0xFFFF
//  268   }
//  269   
//  270   
//  271   
//  272      if ( events & CR2_DATA_DETECT_EVT )
??UserApp_ProcessEvent_10:
        MOV     A,R6
        ANL     A,#0x2
        JZ      ??UserApp_ProcessEvent_14
//  273   {
//  274     
//  275     if( (PUSH4_SBIT==0) && (forever_forbiten_flag==0))
        MOV     C,0x80.4
        JC      ??UserApp_ProcessEvent_15
        MOV     DPTR,#forever_forbiten_flag
        MOVX    A,@DPTR
        JNZ     ??UserApp_ProcessEvent_15
//  276     // if(PUSH4_SBIT==0)
//  277     { 
//  278       if( (CASH_TIME_FLAG==1) ||(HIGH_BUTTERY_FLAG==1)) //消除警告后再过1S再打开，防止莫名的误报,如果电池大于2.9V则直接开启中断
        MOV     DPTR,#CASH_TIME_FLAG
        MOVX    A,@DPTR
        XRL     A,#0x1
        JZ      ??UserApp_ProcessEvent_16
        MOV     DPTR,#HIGH_BUTTERY_FLAG
        MOVX    A,@DPTR
        XRL     A,#0x1
        JNZ     ??UserApp_ProcessEvent_17
//  279       {
//  280         EA=0;
??UserApp_ProcessEvent_16:
        CLR     0xa8.7
//  281         P0IEN |=BV(4);
        ORL     0xab,#0x10
//  282         P1IEN |=BV(5);
        ORL     0x8d,#0x20
//  283         P0IFG=0;
        MOV     0x89,#0x0
//  284         P1IFG=0;
        MOV     0x8a,#0x0
//  285         EA=1;
        SETB    0xa8.7
//  286         
//  287         if(FRONT_ALARM_FLAG==1)//如果是因为报警导致的禁止中断
        MOV     DPTR,#FRONT_ALARM_FLAG
        MOVX    A,@DPTR
        XRL     A,#0x1
        JNZ     ??UserApp_ProcessEvent_18
//  288         {
//  289           FRONT_ALARM_FLAG=0;
        MOV     DPTR,#FRONT_ALARM_FLAG
        MOV     A,#0x0
        MOVX    @DPTR,A
//  290           SampleApp_SendInMessage();//补发消警消息上去
        ; Setup parameters for call to function SampleApp_SendInMessage
        LCALL   ??SampleApp_SendInMessage?relay
//  291         }
//  292         CASH_TIME_FLAG=0;
??UserApp_ProcessEvent_18:
        MOV     DPTR,#CASH_TIME_FLAG
        MOV     A,#0x0
        MOVX    @DPTR,A
        SJMP    ??UserApp_ProcessEvent_19
//  293       }
//  294       else
//  295       {
//  296         //刚刚消除警告，且电池有电，则再延迟1S，再打开中断
//  297         CASH_TIME_FLAG=1;
??UserApp_ProcessEvent_17:
        MOV     DPTR,#CASH_TIME_FLAG
        MOV     A,#0x1
        MOVX    @DPTR,A
//  298         osal_start_timerEx( UserApp_TaskID, CR2_DATA_DETECT_EVT,1000);
        ; Setup parameters for call to function osal_start_timerEx
        MOV     R4,#-0x18
        MOV     R5,#0x3
        MOV     R2,#0x2
        MOV     R3,#0x0
        MOV     DPTR,#UserApp_TaskID
        MOVX    A,@DPTR
        MOV     R1,A
        LCALL   ??osal_start_timerEx?relay
        MOV     A,R1
        SJMP    ??UserApp_ProcessEvent_19
//  299       }  
//  300     }
//  301     else
//  302     {
//  303      osal_start_timerEx( UserApp_TaskID, CR2_DATA_DETECT_EVT,500);
??UserApp_ProcessEvent_15:
        ; Setup parameters for call to function osal_start_timerEx
        MOV     R4,#-0xc
        MOV     R5,#0x1
        MOV     R2,#0x2
        MOV     R3,#0x0
        MOV     DPTR,#UserApp_TaskID
        MOVX    A,@DPTR
        MOV     R1,A
        LCALL   ??osal_start_timerEx?relay
        MOV     A,R1
//  304     }  
//  305       return (events ^ CR2_DATA_DETECT_EVT );
??UserApp_ProcessEvent_19:
        MOV     A,R6
        XRL     A,#0x2
        MOV     R2,A
        MOV     A,R7
        XRL     A,#0x0
        MOV     R3,A
        SJMP    ??UserApp_ProcessEvent_5
//  306   }
//  307   
//  308   if ( events & RE_SET_POLL_EVT )
??UserApp_ProcessEvent_14:
        MOV     A,R6
        ANL     A,#0x10
        JZ      ??UserApp_ProcessEvent_20
//  309   {
//  310     if(poll_count++>=5)
        MOV     DPTR,#poll_count
        MOVX    A,@DPTR
        MOV     R0,A
        MOV     A,#0x1
        ADD     A,R0
        MOV     DPTR,#poll_count
        MOVX    @DPTR,A
        MOV     A,R0
        CLR     C
        SUBB    A,#0x5
        JC      ??UserApp_ProcessEvent_21
//  311     { 
//  312       poll_count=0;
        MOV     DPTR,#poll_count
        MOV     A,#0x0
        MOVX    @DPTR,A
//  313       NLME_SetPollRate(0); //直接不POLL了，靠心跳的POLL来做
        ; Setup parameters for call to function NLME_SetPollRate
        MOV     R2,#0x0
        MOV     R3,#0x0
        LCALL   ??NLME_SetPollRate?relay
//  314       DEEP_POLL_FLAG =1;
        MOV     DPTR,#DEEP_POLL_FLAG
        MOV     A,#0x1
        MOVX    @DPTR,A
        SJMP    ??UserApp_ProcessEvent_22
//  315     }  
//  316     else
//  317     {
//  318       osal_start_timerEx( UserApp_TaskID, RE_SET_POLL_EVT,60000);//10分钟
??UserApp_ProcessEvent_21:
        ; Setup parameters for call to function osal_start_timerEx
        MOV     R4,#0x60
        MOV     R5,#-0x16
        MOV     R2,#0x10
        MOV     R3,#0x0
        MOV     DPTR,#UserApp_TaskID
        MOVX    A,@DPTR
        MOV     R1,A
        LCALL   ??osal_start_timerEx?relay
        MOV     A,R1
//  319     }  
//  320     return ( events ^ RE_SET_POLL_EVT);
??UserApp_ProcessEvent_22:
        MOV     A,R6
        XRL     A,#0x10
        MOV     R2,A
        MOV     A,R7
        XRL     A,#0x0
        MOV     R3,A
        SJMP    ??UserApp_ProcessEvent_5
//  321   }
//  322   
//  323   
//  324   
//  325     if( events & RESUME_POLL_RATE )
??UserApp_ProcessEvent_20:
        MOV     A,R6
        ANL     A,#0x20
        JZ      ??UserApp_ProcessEvent_23
//  326   {
//  327 	  longPollRateFlag = 1;
        MOV     DPTR,#longPollRateFlag
        MOV     A,#0x1
        MOVX    @DPTR,A
//  328 	  //setDC6688sleep();
//  329 	  NLME_SetPollRate( POLLRATE_TIME_VALUE * 500 );//set the poll rate to quick ,and   
        ; Setup parameters for call to function NLME_SetPollRate
        MOV     DPTR,#POLLRATE_TIME_VALUE
        MOVX    A,@DPTR
        MOV     R2,A
        MOV     R3,#0x0
        MOV     A,R2
        MOV     B,#-0xc
        MUL     AB
        XCH     A,R2
        MOV     R0,B
        MOV     B,#0x1
        MUL     AB
        ADD     A,R0
        MOV     R0,A
        MOV     B,#-0xc
        MOV     A,R3
        MUL     AB
        ADD     A,R0
        MOV     R3,A
        LCALL   ??NLME_SetPollRate?relay
//  330 	  //NLME_SetPollRate( 5000 );//set the poll rate to quick ,and   
//  331 	  return ( events ^ RESUME_POLL_RATE);
        MOV     A,R6
        XRL     A,#0x20
        MOV     R2,A
        MOV     A,R7
        XRL     A,#0x0
        MOV     R3,A
        SJMP    ??UserApp_ProcessEvent_5
//  332   }
//  333 
//  334 
//  335   return 0;
??UserApp_ProcessEvent_23:
        MOV     R2,#0x0
        MOV     R3,#0x0
??UserApp_ProcessEvent_5:
        MOV     R7,#0x6
        LJMP    ?BANKED_LEAVE_XDATA
        CFI EndBlock cfiBlock1
        REQUIRE _A_P1
        REQUIRE P0IEN
        REQUIRE P1IEN
        REQUIRE _A_P0
        REQUIRE _A_IEN0
        REQUIRE P0IFG
        REQUIRE P1IFG
//  336 }
//  337 
//  338 // 按键命令传输到USER层，用户自行添加删除

        RSEG BANKED_CODE:CODE:NOROOT(0)
//  339 void SampleApp_HandleKeys( uint8 shift, uint8 keys )
SampleApp_HandleKeys:
        CFI Block cfiBlock2 Using cfiCommon0
        CFI Function SampleApp_HandleKeys
        CODE
//  340 {
        FUNCALL SampleApp_HandleKeys, APPLY_TO_JOIN_OF_KEY
        LOCFRAME ISTACK, 0, STACK
        LOCFRAME PSTACK, 0, STACK
        LOCFRAME XSTACK, 9, STACK
        LOCFRAME IOVERLAY, 0, STATIC
        LOCFRAME DOVERLAY, 0, STATIC
        ARGFRAME ISTACK, 0, STACK
        ARGFRAME PSTACK, 0, STACK
        ARGFRAME XSTACK, 9, STACK
        ARGFRAME IOVERLAY, 0, STATIC
        ARGFRAME DOVERLAY, 0, STATIC
        FUNCALL SampleApp_HandleKeys, SampleApp_PermitJoin
        LOCFRAME ISTACK, 0, STACK
        LOCFRAME PSTACK, 0, STACK
        LOCFRAME XSTACK, 9, STACK
        LOCFRAME IOVERLAY, 0, STATIC
        LOCFRAME DOVERLAY, 0, STATIC
        ARGFRAME ISTACK, 0, STACK
        ARGFRAME PSTACK, 0, STACK
        ARGFRAME XSTACK, 9, STACK
        ARGFRAME IOVERLAY, 0, STATIC
        ARGFRAME DOVERLAY, 0, STATIC
        FUNCALL SampleApp_HandleKeys, SampleApp_PermitJoin
        LOCFRAME ISTACK, 0, STACK
        LOCFRAME PSTACK, 0, STACK
        LOCFRAME XSTACK, 9, STACK
        LOCFRAME IOVERLAY, 0, STATIC
        LOCFRAME DOVERLAY, 0, STATIC
        ARGFRAME ISTACK, 0, STACK
        ARGFRAME PSTACK, 0, STACK
        ARGFRAME XSTACK, 9, STACK
        ARGFRAME IOVERLAY, 0, STATIC
        ARGFRAME DOVERLAY, 0, STATIC
        FUNCALL SampleApp_HandleKeys, HalLedBlink
        LOCFRAME ISTACK, 0, STACK
        LOCFRAME PSTACK, 0, STACK
        LOCFRAME XSTACK, 9, STACK
        LOCFRAME IOVERLAY, 0, STATIC
        LOCFRAME DOVERLAY, 0, STATIC
        ARGFRAME ISTACK, 0, STACK
        ARGFRAME PSTACK, 0, STACK
        ARGFRAME XSTACK, 9, STACK
        ARGFRAME IOVERLAY, 0, STATIC
        ARGFRAME DOVERLAY, 0, STATIC
        FUNCALL SampleApp_HandleKeys, RESTORE_TO_FACTORY
        LOCFRAME ISTACK, 0, STACK
        LOCFRAME PSTACK, 0, STACK
        LOCFRAME XSTACK, 9, STACK
        LOCFRAME IOVERLAY, 0, STATIC
        LOCFRAME DOVERLAY, 0, STATIC
        ARGFRAME ISTACK, 0, STACK
        ARGFRAME PSTACK, 0, STACK
        ARGFRAME XSTACK, 9, STACK
        ARGFRAME IOVERLAY, 0, STATIC
        ARGFRAME DOVERLAY, 0, STATIC
        FUNCALL SampleApp_HandleKeys, osal_start_timerEx
        LOCFRAME ISTACK, 0, STACK
        LOCFRAME PSTACK, 0, STACK
        LOCFRAME XSTACK, 9, STACK
        LOCFRAME IOVERLAY, 0, STATIC
        LOCFRAME DOVERLAY, 0, STATIC
        ARGFRAME ISTACK, 0, STACK
        ARGFRAME PSTACK, 0, STACK
        ARGFRAME XSTACK, 9, STACK
        ARGFRAME IOVERLAY, 0, STATIC
        ARGFRAME DOVERLAY, 0, STATIC
        FUNCALL SampleApp_HandleKeys, SampleApp_SendInMessage
        LOCFRAME ISTACK, 0, STACK
        LOCFRAME PSTACK, 0, STACK
        LOCFRAME XSTACK, 9, STACK
        LOCFRAME IOVERLAY, 0, STATIC
        LOCFRAME DOVERLAY, 0, STATIC
        ARGFRAME ISTACK, 0, STACK
        ARGFRAME PSTACK, 0, STACK
        ARGFRAME XSTACK, 9, STACK
        ARGFRAME IOVERLAY, 0, STATIC
        ARGFRAME DOVERLAY, 0, STATIC
        MOV     A,#-0x9
        LCALL   ?BANKED_ENTER_XDATA
        CFI DPH0 load(1, XDATA, add(CFA_XSP16, literal(-1)))
        CFI DPL0 load(1, XDATA, add(CFA_XSP16, literal(-2)))
        CFI ?BRET_EXT load(1, XDATA, add(CFA_XSP16, literal(-3)))
        CFI ?RET_HIGH load(1, XDATA, add(CFA_XSP16, literal(-4)))
        CFI ?RET_LOW load(1, XDATA, add(CFA_XSP16, literal(-5)))
        CFI R7 load(1, XDATA, add(CFA_XSP16, literal(-6)))
        CFI V0 load(1, XDATA, add(CFA_XSP16, literal(-7)))
        CFI VB load(1, XDATA, add(CFA_XSP16, literal(-8)))
        CFI R6 load(1, XDATA, add(CFA_XSP16, literal(-9)))
        CFI CFA_SP SP+0
        CFI CFA_XSP16 add(XSP16, 9)
        ; Saved register size: 9
        ; Auto size: 0
        MOV     A,R1
        MOV     R6,A
        MOV     A,R2
        MOV     R7,A
//  341   uint8 startOptions;
//  342  // uint8 logicalType;
//  343   zAddrType_t dstAddr;
//  344   
//  345 
//  346    if ( keys &  HAL_KEY_SW_8 )
        MOV     A,R7
        MOV     C,0xE0 /* A   */.7
        JNC     ??SampleApp_HandleKeys_0
//  347   {   
//  348     
//  349         
//  350       if(key_double_flag==1)
        MOV     DPTR,#key_double_flag
        MOVX    A,@DPTR
        XRL     A,#0x1
        JZ      ??SampleApp_HandleKeys_1
//  351       {
//  352        //if(DEEP_POLL_FLAG==1)
//  353        //{
//  354         // HalLedBlink ( HAL_LED_1, 1, 50, 600 );
//  355          //NLME_SetPollRate( 15000 ); 
//  356          //DEEP_POLL_FLAG =0; 
//  357          //osal_start_timerEx( UserApp_TaskID, RE_SET_POLL_EVT,60000);//10分钟
//  358        //}
//  359       }
//  360     
//  361        else if(key_double_flag==4)
        MOV     DPTR,#key_double_flag
        MOVX    A,@DPTR
        XRL     A,#0x4
        JNZ     ??SampleApp_HandleKeys_2
//  362     {
//  363          APPLY_TO_JOIN_OF_KEY();
        ; Setup parameters for call to function APPLY_TO_JOIN_OF_KEY
        LCALL   ??APPLY_TO_JOIN_OF_KEY?relay
        SJMP    ??SampleApp_HandleKeys_1
//  364     }
//  365     
//  366    
//  367    else if(key_double_flag==6)
??SampleApp_HandleKeys_2:
        MOV     DPTR,#key_double_flag
        MOVX    A,@DPTR
        XRL     A,#0x6
        JNZ     ??SampleApp_HandleKeys_3
//  368     {
//  369         SampleApp_PermitJoin(240);
        ; Setup parameters for call to function SampleApp_PermitJoin
        MOV     R1,#-0x10
        LCALL   ??SampleApp_PermitJoin?relay
        SJMP    ??SampleApp_HandleKeys_1
//  370     }
//  371 
//  372     else if(key_double_flag==8)
??SampleApp_HandleKeys_3:
        MOV     DPTR,#key_double_flag
        MOVX    A,@DPTR
        XRL     A,#0x8
        JNZ     ??SampleApp_HandleKeys_1
//  373     {
//  374         SampleApp_PermitJoin(0);
        ; Setup parameters for call to function SampleApp_PermitJoin
        MOV     R1,#0x0
        LCALL   ??SampleApp_PermitJoin?relay
//  375     }
//  376     
//  377    
//  378 
//  379      if(key_hold_flag==1) 
??SampleApp_HandleKeys_1:
        MOV     DPTR,#key_hold_flag
        MOVX    A,@DPTR
        XRL     A,#0x1
        JNZ     ??SampleApp_HandleKeys_4
//  380     {   
//  381       HalLedBlink ( HAL_LED_1, 4, 50, 800 );
        ; Setup parameters for call to function HalLedBlink
        MOV     R4,#0x20
        MOV     R5,#0x3
        MOV     R3,#0x32
        MOV     R2,#0x4
        MOV     R1,#0x1
        LCALL   ??HalLedBlink?relay
//  382       RESTORE_TO_FACTORY();
        ; Setup parameters for call to function RESTORE_TO_FACTORY
        LCALL   ??RESTORE_TO_FACTORY?relay
//  383      osal_start_timerEx( SampleApp_TaskID,SAMPLEAPP_RESTORE_EVT,7000 );
        ; Setup parameters for call to function osal_start_timerEx
        MOV     R4,#0x58
        MOV     R5,#0x1b
        MOV     R2,#0x10
        MOV     R3,#0x0
        MOV     DPTR,#SampleApp_TaskID
        MOVX    A,@DPTR
        MOV     R1,A
        LCALL   ??osal_start_timerEx?relay
        MOV     A,R1
        SJMP    ??SampleApp_HandleKeys_4
//  384      }
//  385   
//  386   }
//  387   
//  388    else if ( (keys &  HAL_KEY_SW_9) || (keys &  HAL_KEY_SW_6) )
??SampleApp_HandleKeys_0:
        MOV     A,#0x60
        ANL     A,R7
        JZ      ??SampleApp_HandleKeys_4
//  389   { 
//  390    if( (devState==DEV_END_DEVICE) || (devState==DEV_ROUTER) )
        MOV     DPTR,#devState
        MOVX    A,@DPTR
        XRL     A,#0x6
        JZ      ??SampleApp_HandleKeys_5
        MOV     DPTR,#devState
        MOVX    A,@DPTR
        XRL     A,#0x7
        JNZ     ??SampleApp_HandleKeys_4
//  391    {
//  392     SampleApp_SendInMessage();
??SampleApp_HandleKeys_5:
        ; Setup parameters for call to function SampleApp_SendInMessage
        LCALL   ??SampleApp_SendInMessage?relay
//  393 
//  394    }
//  395   }
//  396  
//  397 }
??SampleApp_HandleKeys_4:
        MOV     R7,#0x1
        LJMP    ?BANKED_LEAVE_XDATA
        CFI EndBlock cfiBlock2
//  398 
//  399 
//  400 

        RSEG BANKED_CODE:CODE:NOROOT(0)
//  401 void SampleApp_ProcessBINDINGMessage(afIncomingMSGPacket_t *pkt)
SampleApp_ProcessBINDINGMessage:
        CFI Block cfiBlock3 Using cfiCommon0
        CFI Function SampleApp_ProcessBINDINGMessage
        CODE
//  402 {
        ; Saved register size: 0
        ; Auto size: 0
//  403 
//  404   
//  405 }
        LJMP    ?BRET
        CFI EndBlock cfiBlock3
//  406 
//  407 
//  408 // 入网后添加函数

        RSEG BANKED_CODE:CODE:NOROOT(0)
//  409 void USER_APP_JOIN_MSG(void)
USER_APP_JOIN_MSG:
        CFI Block cfiBlock4 Using cfiCommon0
        CFI Function USER_APP_JOIN_MSG
        CODE
//  410 {
        FUNCALL USER_APP_JOIN_MSG, HalLedBlink
        LOCFRAME ISTACK, 0, STACK
        LOCFRAME PSTACK, 0, STACK
        LOCFRAME XSTACK, 10, STACK
        LOCFRAME IOVERLAY, 0, STATIC
        LOCFRAME DOVERLAY, 0, STATIC
        ARGFRAME ISTACK, 0, STACK
        ARGFRAME PSTACK, 0, STACK
        ARGFRAME XSTACK, 10, STACK
        ARGFRAME IOVERLAY, 0, STATIC
        ARGFRAME DOVERLAY, 0, STATIC
        FUNCALL USER_APP_JOIN_MSG, NLME_SetPollRate
        LOCFRAME ISTACK, 0, STACK
        LOCFRAME PSTACK, 0, STACK
        LOCFRAME XSTACK, 10, STACK
        LOCFRAME IOVERLAY, 0, STATIC
        LOCFRAME DOVERLAY, 0, STATIC
        ARGFRAME ISTACK, 0, STACK
        ARGFRAME PSTACK, 0, STACK
        ARGFRAME XSTACK, 10, STACK
        ARGFRAME IOVERLAY, 0, STATIC
        ARGFRAME DOVERLAY, 0, STATIC
        FUNCALL USER_APP_JOIN_MSG, SampleApp_GetShortAddr
        LOCFRAME ISTACK, 0, STACK
        LOCFRAME PSTACK, 0, STACK
        LOCFRAME XSTACK, 10, STACK
        LOCFRAME IOVERLAY, 0, STATIC
        LOCFRAME DOVERLAY, 0, STATIC
        ARGFRAME ISTACK, 0, STACK
        ARGFRAME PSTACK, 0, STACK
        ARGFRAME XSTACK, 10, STACK
        ARGFRAME IOVERLAY, 0, STATIC
        ARGFRAME DOVERLAY, 0, STATIC
        FUNCALL USER_APP_JOIN_MSG, osal_mem_free
        LOCFRAME ISTACK, 0, STACK
        LOCFRAME PSTACK, 0, STACK
        LOCFRAME XSTACK, 10, STACK
        LOCFRAME IOVERLAY, 0, STATIC
        LOCFRAME DOVERLAY, 0, STATIC
        ARGFRAME ISTACK, 0, STACK
        ARGFRAME PSTACK, 0, STACK
        ARGFRAME XSTACK, 10, STACK
        ARGFRAME IOVERLAY, 0, STATIC
        ARGFRAME DOVERLAY, 0, STATIC
        MOV     A,#-0xa
        LCALL   ?BANKED_ENTER_XDATA
        CFI DPH0 load(1, XDATA, add(CFA_XSP16, literal(-1)))
        CFI DPL0 load(1, XDATA, add(CFA_XSP16, literal(-2)))
        CFI ?BRET_EXT load(1, XDATA, add(CFA_XSP16, literal(-3)))
        CFI ?RET_HIGH load(1, XDATA, add(CFA_XSP16, literal(-4)))
        CFI ?RET_LOW load(1, XDATA, add(CFA_XSP16, literal(-5)))
        CFI R7 load(1, XDATA, add(CFA_XSP16, literal(-6)))
        CFI V1 load(1, XDATA, add(CFA_XSP16, literal(-7)))
        CFI V0 load(1, XDATA, add(CFA_XSP16, literal(-8)))
        CFI VB load(1, XDATA, add(CFA_XSP16, literal(-9)))
        CFI R6 load(1, XDATA, add(CFA_XSP16, literal(-10)))
        CFI CFA_SP SP+0
        CFI CFA_XSP16 add(XSP16, 10)
        ; Saved register size: 10
        ; Auto size: 0
//  411     HalLedBlink ( HAL_LED_1, 1, 99, 2500 );//用BLINK模拟灯亮两秒后熄灭
        ; Setup parameters for call to function HalLedBlink
        MOV     R4,#-0x3c
        MOV     R5,#0x9
        MOV     R3,#0x63
        MOV     R2,#0x1
        MOV     R1,#0x1
        LCALL   ??HalLedBlink?relay
//  412     //NLME_SetPollRate( 2000 );//set the poll rate to quick ,and   
//  413     NLME_SetPollRate( POLLRATE_TIME_VALUE * 500 );//set the poll rate to quick ,and       
        ; Setup parameters for call to function NLME_SetPollRate
        MOV     DPTR,#POLLRATE_TIME_VALUE
        MOVX    A,@DPTR
        MOV     R2,A
        MOV     R3,#0x0
        MOV     A,R2
        MOV     B,#-0xc
        MUL     AB
        XCH     A,R2
        MOV     R0,B
        MOV     B,#0x1
        MUL     AB
        ADD     A,R0
        MOV     R0,A
        MOV     B,#-0xc
        MOV     A,R3
        MUL     AB
        ADD     A,R0
        MOV     R3,A
        LCALL   ??NLME_SetPollRate?relay
//  414  
//  415     DEEP_POLL_FLAG =0; 
        MOV     DPTR,#DEEP_POLL_FLAG
        MOV     A,#0x0
        MOVX    @DPTR,A
//  416     HEART_NEED_ACK_FLAG =0;
        MOV     DPTR,#HEART_NEED_ACK_FLAG
        MOV     A,#0x0
        MOVX    @DPTR,A
//  417     Heart_mesg_count=0;
        MOV     DPTR,#Heart_mesg_count
        MOV     A,#0x0
        MOVX    @DPTR,A
        INC     DPTR
        MOV     A,#0x0
        MOVX    @DPTR,A
//  418     
//  419     
//  420   
//  421     
//  422     uint8 *Sample_Cmd_shorAddr;
//  423     Sample_Cmd_shorAddr=SampleApp_GetShortAddr();
        ; Setup parameters for call to function SampleApp_GetShortAddr
        LCALL   ??SampleApp_GetShortAddr?relay
        MOV     ?V0 + 0,R2
        MOV     ?V0 + 1,R3
        MOV     R6,?V0 + 0
        MOV     R7,?V0 + 1
//  424     SHORT_ADRESS[0]=*Sample_Cmd_shorAddr++;
        MOV     DPL,R6
        MOV     DPH,R7
        MOVX    A,@DPTR
        MOV     DPTR,#SHORT_ADRESS
        MOVX    @DPTR,A
        MOV     DPL,R6
        MOV     DPH,R7
        INC     DPTR
        MOV     R6,DPL
        MOV     R7,DPH
//  425     SHORT_ADRESS[1]=*Sample_Cmd_shorAddr++;
        MOV     DPL,R6
        MOV     DPH,R7
        MOVX    A,@DPTR
        MOV     DPTR,#SHORT_ADRESS + 1
        MOVX    @DPTR,A
        MOV     DPL,R6
        MOV     DPH,R7
        INC     DPTR
        MOV     R6,DPL
        MOV     R7,DPH
//  426     SHORT_ADRESS[2]=*Sample_Cmd_shorAddr++;
        MOV     DPL,R6
        MOV     DPH,R7
        MOVX    A,@DPTR
        MOV     DPTR,#SHORT_ADRESS + 2
        MOVX    @DPTR,A
        MOV     DPL,R6
        MOV     DPH,R7
        INC     DPTR
        MOV     R6,DPL
        MOV     R7,DPH
//  427     SHORT_ADRESS[3]=*Sample_Cmd_shorAddr;
        MOV     DPL,R6
        MOV     DPH,R7
        MOVX    A,@DPTR
        MOV     DPTR,#SHORT_ADRESS + 3
        MOVX    @DPTR,A
//  428     osal_mem_free( shortddr_mem );
        ; Setup parameters for call to function osal_mem_free
        MOV     DPTR,#shortddr_mem
        MOVX    A,@DPTR
        MOV     R2,A
        INC     DPTR
        MOVX    A,@DPTR
        MOV     R3,A
        LCALL   ??osal_mem_free?relay
//  429     
//  430 
//  431   // USER自行添加入网后的操作代码
//  432  
//  433 }
        MOV     R7,#0x2
        LJMP    ?BANKED_LEAVE_XDATA
        CFI EndBlock cfiBlock4
//  434 
//  435 
//  436 // 收到命令后添加函数
//  437 // user_app_data 上位机发过来的有效数据 字母后面开始 13开始
//  438 //user_rf_data 需要填入的返回数据数组

        RSEG BANKED_CODE:CODE:NOROOT(0)
//  439 uint8 USER_APP_COMMAND(uint8 *user_app_data,uint8 *str)
USER_APP_COMMAND:
        CFI Block cfiBlock5 Using cfiCommon0
        CFI Function USER_APP_COMMAND
        CODE
//  440 {
        FUNCALL USER_APP_COMMAND, irCodeRx
        LOCFRAME ISTACK, 0, STACK
        LOCFRAME PSTACK, 0, STACK
        LOCFRAME XSTACK, 11, STACK
        LOCFRAME IOVERLAY, 0, STATIC
        LOCFRAME DOVERLAY, 0, STATIC
        ARGFRAME ISTACK, 0, STACK
        ARGFRAME PSTACK, 0, STACK
        ARGFRAME XSTACK, 11, STACK
        ARGFRAME IOVERLAY, 0, STATIC
        ARGFRAME DOVERLAY, 0, STATIC
        FUNCALL USER_APP_COMMAND, changePollRate
        LOCFRAME ISTACK, 0, STACK
        LOCFRAME PSTACK, 0, STACK
        LOCFRAME XSTACK, 11, STACK
        LOCFRAME IOVERLAY, 0, STATIC
        LOCFRAME DOVERLAY, 0, STATIC
        ARGFRAME ISTACK, 0, STACK
        ARGFRAME PSTACK, 0, STACK
        ARGFRAME XSTACK, 11, STACK
        ARGFRAME IOVERLAY, 0, STATIC
        ARGFRAME DOVERLAY, 0, STATIC
        FUNCALL USER_APP_COMMAND, irCodeTx
        LOCFRAME ISTACK, 0, STACK
        LOCFRAME PSTACK, 0, STACK
        LOCFRAME XSTACK, 11, STACK
        LOCFRAME IOVERLAY, 0, STATIC
        LOCFRAME DOVERLAY, 0, STATIC
        ARGFRAME ISTACK, 0, STACK
        ARGFRAME PSTACK, 0, STACK
        ARGFRAME XSTACK, 11, STACK
        ARGFRAME IOVERLAY, 0, STATIC
        ARGFRAME DOVERLAY, 0, STATIC
        FUNCALL USER_APP_COMMAND, changePollRate
        LOCFRAME ISTACK, 0, STACK
        LOCFRAME PSTACK, 0, STACK
        LOCFRAME XSTACK, 11, STACK
        LOCFRAME IOVERLAY, 0, STATIC
        LOCFRAME DOVERLAY, 0, STATIC
        ARGFRAME ISTACK, 0, STACK
        ARGFRAME PSTACK, 0, STACK
        ARGFRAME XSTACK, 11, STACK
        ARGFRAME IOVERLAY, 0, STATIC
        ARGFRAME DOVERLAY, 0, STATIC
        MOV     A,#-0xb
        LCALL   ?BANKED_ENTER_XDATA
        CFI DPH0 load(1, XDATA, add(CFA_XSP16, literal(-1)))
        CFI DPL0 load(1, XDATA, add(CFA_XSP16, literal(-2)))
        CFI ?BRET_EXT load(1, XDATA, add(CFA_XSP16, literal(-3)))
        CFI ?RET_HIGH load(1, XDATA, add(CFA_XSP16, literal(-4)))
        CFI ?RET_LOW load(1, XDATA, add(CFA_XSP16, literal(-5)))
        CFI R7 load(1, XDATA, add(CFA_XSP16, literal(-6)))
        CFI V2 load(1, XDATA, add(CFA_XSP16, literal(-7)))
        CFI V1 load(1, XDATA, add(CFA_XSP16, literal(-8)))
        CFI V0 load(1, XDATA, add(CFA_XSP16, literal(-9)))
        CFI VB load(1, XDATA, add(CFA_XSP16, literal(-10)))
        CFI R6 load(1, XDATA, add(CFA_XSP16, literal(-11)))
        CFI CFA_SP SP+0
        CFI CFA_XSP16 add(XSP16, 11)
        ; Saved register size: 11
        ; Auto size: 0
        MOV     A,R2
        MOV     R6,A
        MOV     A,R3
        MOV     R7,A
        MOV     ?V0 + 0,R4
        MOV     ?V0 + 1,R5
//  441   uint8 active_len=0;
        MOV     ?V0 + 2,#0x0
//  442   
//  443     str[0] = '/';
        MOV     DPL,?V0 + 0
        MOV     DPH,?V0 + 1
        MOV     A,#0x2f
        MOVX    @DPTR,A
//  444 
//  445    CmdType = user_app_data[0];//窗帘设备命令类型 学习 使用
        MOV     DPL,R6
        MOV     DPH,R7
        MOVX    A,@DPTR
        MOV     DPTR,#CmdType
        MOVX    @DPTR,A
//  446    IRCodeIndex = (user_app_data[1]- '0')*100 +
//  447                  (user_app_data[2]- '0')*10 +
//  448                  (user_app_data[3]- '0');      //编码序号
        MOV     DPL,R6
        MOV     DPH,R7
        INC     DPTR
        MOVX    A,@DPTR
        MOV     R0,A
        MOV     R1,#0x0
        MOV     A,R0
        MOV     B,#0x64
        MUL     AB
        XCH     A,R0
        MOV     R2,B
        MOV     B,#0x0
        MUL     AB
        ADD     A,R2
        MOV     R2,A
        MOV     B,#0x64
        MOV     A,R1
        MUL     AB
        ADD     A,R2
        MOV     R1,A
        MOV     DPL,R6
        MOV     DPH,R7
        INC     DPTR
        INC     DPTR
        MOVX    A,@DPTR
        MOV     R2,A
        MOV     R3,#0x0
        MOV     A,R2
        MOV     B,#0xa
        MUL     AB
        XCH     A,R2
        MOV     R4,B
        MOV     B,#0x0
        MUL     AB
        ADD     A,R4
        MOV     R4,A
        MOV     B,#0xa
        MOV     A,R3
        MUL     AB
        ADD     A,R4
        MOV     R3,A
        MOV     A,R0
        ADD     A,R2
        MOV     R0,A
        MOV     A,R1
        ADDC    A,R3
        MOV     R1,A
        MOV     DPL,R6
        MOV     DPH,R7
        INC     DPTR
        INC     DPTR
        INC     DPTR
        MOVX    A,@DPTR
        MOV     R2,A
        MOV     R3,#0x0
        MOV     A,R0
        ADD     A,R2
        MOV     R0,A
        MOV     A,R1
        ADDC    A,R3
        MOV     R1,A
        MOV     A,R0
        ADD     A,#0x30
        MOV     R0,A
        MOV     A,R1
        ADDC    A,#-0x15
        MOV     R1,A
        MOV     DPTR,#IRCodeIndex
        MOV     A,R0
        MOVX    @DPTR,A
        INC     DPTR
        MOV     A,R1
        MOVX    @DPTR,A
//  449 
//  450 
//  451    if('1' == CmdType)		//'1' 表示学习
        MOV     DPTR,#CmdType
        MOVX    A,@DPTR
        XRL     A,#0x31
        JNZ     ??USER_APP_COMMAND_0
//  452    {
//  453      irCodeRx(IRCodeIndex);
        ; Setup parameters for call to function irCodeRx
        MOV     DPTR,#IRCodeIndex
        MOVX    A,@DPTR
        MOV     R2,A
        INC     DPTR
        MOVX    A,@DPTR
        MOV     R3,A
        LCALL   ??irCodeRx?relay
//  454      changePollRate();
        ; Setup parameters for call to function changePollRate
        LCALL   ??changePollRate?relay
        SJMP    ??USER_APP_COMMAND_1
//  455 
//  456    }
//  457    else if('2' == CmdType)	//'2' 表示使用
??USER_APP_COMMAND_0:
        MOV     DPTR,#CmdType
        MOVX    A,@DPTR
        XRL     A,#0x32
        JNZ     ??USER_APP_COMMAND_1
//  458    {   
//  459      irCodeTx(IRCodeIndex);
        ; Setup parameters for call to function irCodeTx
        MOV     DPTR,#IRCodeIndex
        MOVX    A,@DPTR
        MOV     R2,A
        INC     DPTR
        MOVX    A,@DPTR
        MOV     R3,A
        LCALL   ??irCodeTx?relay
//  460      changePollRate();
        ; Setup parameters for call to function changePollRate
        LCALL   ??changePollRate?relay
//  461      //active_len=11;
//  462      //return active_len;
//  463    }
//  464    str[1] = CmdType - '0';//数据回填
??USER_APP_COMMAND_1:
        MOV     DPTR,#CmdType
        MOVX    A,@DPTR
        ADD     A,#-0x30
        MOV     DPL,?V0 + 0
        MOV     DPH,?V0 + 1
        INC     DPTR
        MOVX    @DPTR,A
//  465    str[3] = IRCodeIndex;//数据回填
        MOV     DPTR,#IRCodeIndex
        MOVX    A,@DPTR
        MOV     R0,A
        INC     DPTR
        MOVX    A,@DPTR
        MOV     R1,A
        MOV     A,R0
        MOV     DPL,?V0 + 0
        MOV     DPH,?V0 + 1
        INC     DPTR
        INC     DPTR
        INC     DPTR
        MOVX    @DPTR,A
//  466    str[2] = IRCodeIndex >> 8;
        MOV     DPTR,#IRCodeIndex
        MOVX    A,@DPTR
        MOV     R0,A
        INC     DPTR
        MOVX    A,@DPTR
        MOV     R1,A
        CLR     A
        MOV     A,R1
        MOV     R0,A
        MOV     DPL,?V0 + 0
        MOV     DPH,?V0 + 1
        INC     DPTR
        INC     DPTR
        MOVX    @DPTR,A
//  467    active_len=13;
        MOV     ?V0 + 2,#0xd
//  468    return active_len;
        MOV     R1,?V0 + 2
        MOV     R7,#0x3
        LJMP    ?BANKED_LEAVE_XDATA
        CFI EndBlock cfiBlock5
//  469 }
//  470 
//  471 

        RSEG BANKED_CODE:CODE:NOROOT(0)
//  472 void USER_SET_RS_MSG(void)//用户自行设置RS数据
USER_SET_RS_MSG:
        CFI Block cfiBlock6 Using cfiCommon0
        CFI Function USER_SET_RS_MSG
        CODE
//  473 {
        FUNCALL USER_SET_RS_MSG, myApp_ReadBattery
        LOCFRAME ISTACK, 2, STACK
        LOCFRAME PSTACK, 0, STACK
        LOCFRAME XSTACK, 0, STACK
        LOCFRAME IOVERLAY, 0, STATIC
        LOCFRAME DOVERLAY, 0, STATIC
        ARGFRAME ISTACK, 2, STACK
        ARGFRAME PSTACK, 0, STACK
        ARGFRAME XSTACK, 0, STACK
        ARGFRAME IOVERLAY, 0, STATIC
        ARGFRAME DOVERLAY, 0, STATIC
        FUNCALL USER_SET_RS_MSG, osal_start_timerEx
        LOCFRAME ISTACK, 2, STACK
        LOCFRAME PSTACK, 0, STACK
        LOCFRAME XSTACK, 0, STACK
        LOCFRAME IOVERLAY, 0, STATIC
        LOCFRAME DOVERLAY, 0, STATIC
        ARGFRAME ISTACK, 2, STACK
        ARGFRAME PSTACK, 0, STACK
        ARGFRAME XSTACK, 0, STACK
        ARGFRAME IOVERLAY, 0, STATIC
        ARGFRAME DOVERLAY, 0, STATIC
        PUSH    DPL
        CFI DPL0 Frame(CFA_SP, 4)
        CFI CFA_SP SP+-4
        PUSH    DPH
        CFI DPH0 Frame(CFA_SP, 5)
        CFI CFA_SP SP+-5
        ; Saved register size: 2
        ; Auto size: 0
//  474     DEVICE_ID=22;
        MOV     DPTR,#DEVICE_ID
        MOV     A,#0x16
        MOVX    @DPTR,A
//  475     DEFINED_CONTROL_CHAR='T';
        MOV     DPTR,#DEFINED_CONTROL_CHAR
        MOV     A,#0x54
        MOVX    @DPTR,A
//  476     JOIN_ROLE=Send_Endvice;
        MOV     DPTR,#JOIN_ROLE
        MOV     A,#0x1
        MOVX    @DPTR,A
//  477     RS_LEN = 1;
        MOV     DPTR,#RS_LEN
        MOV     A,#0x1
        MOVX    @DPTR,A
//  478     RS_STR[0]=0;// 确实是报警的;
        MOV     DPTR,#RS_STR
        MOV     A,#0x0
        MOVX    @DPTR,A
//  479     
//  480     // 对于电池设备每次RS后面可以跟一个电池有电的标记，如果是有电的话
//  481     
//  482     active_battery_voltage=myApp_ReadBattery();
        ; Setup parameters for call to function myApp_ReadBattery
        LCALL   ??myApp_ReadBattery?relay
        MOV     DPTR,#active_battery_voltage
        MOV     A,R2
        MOVX    @DPTR,A
        INC     DPTR
        MOV     A,R3
        MOVX    @DPTR,A
//  483     
//  484     if(active_battery_voltage>265)
        MOV     DPTR,#active_battery_voltage
        CLR     C
        MOVX    A,@DPTR
        SUBB    A,#0xa
        INC     DPTR
        MOVX    A,@DPTR
        SUBB    A,#0x1
        JC      ??USER_SET_RS_MSG_0
//  485     {
//  486       BUTTERY_ALARM_BIT=0;
        MOV     DPTR,#BUTTERY_ALARM_BIT
        MOV     A,#0x0
        MOVX    @DPTR,A
//  487       osal_start_timerEx( UserApp_TaskID, SAMPLEAPP_SEND_LOWBUTTERY_EVT,20000 );
        ; Setup parameters for call to function osal_start_timerEx
        MOV     R4,#0x20
        MOV     R5,#0x4e
        MOV     R2,#0x4
        MOV     R3,#0x0
        MOV     DPTR,#UserApp_TaskID
        MOVX    A,@DPTR
        MOV     R1,A
        LCALL   ??osal_start_timerEx?relay
        MOV     A,R1
//  488     }
//  489 
//  490   
//  491 }
??USER_SET_RS_MSG_0:
        POP     DPH
        CFI DPH0 SameValue
        CFI CFA_SP SP+-4
        POP     DPL
        CFI DPL0 SameValue
        CFI CFA_SP SP+-3
        LJMP    ?BRET
        CFI EndBlock cfiBlock6
//  492 
//  493 
//  494 /*
//  495  用户自行规划主动上报数据的格式。
//  496 */

        RSEG BANKED_CODE:CODE:NOROOT(0)
//  497 void SampleApp_SendInMessage(void)
SampleApp_SendInMessage:
        CFI Block cfiBlock7 Using cfiCommon0
        CFI Function SampleApp_SendInMessage
        CODE
//  498 { 
        FUNCALL SampleApp_SendInMessage, osal_mem_alloc
        LOCFRAME ISTACK, 0, STACK
        LOCFRAME PSTACK, 0, STACK
        LOCFRAME XSTACK, 11, STACK
        LOCFRAME IOVERLAY, 0, STATIC
        LOCFRAME DOVERLAY, 0, STATIC
        ARGFRAME ISTACK, 0, STACK
        ARGFRAME PSTACK, 0, STACK
        ARGFRAME XSTACK, 11, STACK
        ARGFRAME IOVERLAY, 0, STATIC
        ARGFRAME DOVERLAY, 0, STATIC
        FUNCALL SampleApp_SendInMessage, USER_SEND_ADD_STR
        LOCFRAME ISTACK, 0, STACK
        LOCFRAME PSTACK, 0, STACK
        LOCFRAME XSTACK, 11, STACK
        LOCFRAME IOVERLAY, 0, STATIC
        LOCFRAME DOVERLAY, 0, STATIC
        ARGFRAME ISTACK, 0, STACK
        ARGFRAME PSTACK, 0, STACK
        ARGFRAME XSTACK, 11, STACK
        ARGFRAME IOVERLAY, 0, STATIC
        ARGFRAME DOVERLAY, 0, STATIC
        FUNCALL SampleApp_SendInMessage, USER_APP_SEND_IN
        LOCFRAME ISTACK, 0, STACK
        LOCFRAME PSTACK, 0, STACK
        LOCFRAME XSTACK, 11, STACK
        LOCFRAME IOVERLAY, 0, STATIC
        LOCFRAME DOVERLAY, 0, STATIC
        ARGFRAME ISTACK, 0, STACK
        ARGFRAME PSTACK, 0, STACK
        ARGFRAME XSTACK, 11, STACK
        ARGFRAME IOVERLAY, 0, STATIC
        ARGFRAME DOVERLAY, 0, STATIC
        FUNCALL SampleApp_SendInMessage, osal_mem_free
        LOCFRAME ISTACK, 0, STACK
        LOCFRAME PSTACK, 0, STACK
        LOCFRAME XSTACK, 11, STACK
        LOCFRAME IOVERLAY, 0, STATIC
        LOCFRAME DOVERLAY, 0, STATIC
        ARGFRAME ISTACK, 0, STACK
        ARGFRAME PSTACK, 0, STACK
        ARGFRAME XSTACK, 11, STACK
        ARGFRAME IOVERLAY, 0, STATIC
        ARGFRAME DOVERLAY, 0, STATIC
        MOV     A,#-0xb
        LCALL   ?BANKED_ENTER_XDATA
        CFI DPH0 load(1, XDATA, add(CFA_XSP16, literal(-1)))
        CFI DPL0 load(1, XDATA, add(CFA_XSP16, literal(-2)))
        CFI ?BRET_EXT load(1, XDATA, add(CFA_XSP16, literal(-3)))
        CFI ?RET_HIGH load(1, XDATA, add(CFA_XSP16, literal(-4)))
        CFI ?RET_LOW load(1, XDATA, add(CFA_XSP16, literal(-5)))
        CFI R7 load(1, XDATA, add(CFA_XSP16, literal(-6)))
        CFI V2 load(1, XDATA, add(CFA_XSP16, literal(-7)))
        CFI V1 load(1, XDATA, add(CFA_XSP16, literal(-8)))
        CFI V0 load(1, XDATA, add(CFA_XSP16, literal(-9)))
        CFI VB load(1, XDATA, add(CFA_XSP16, literal(-10)))
        CFI R6 load(1, XDATA, add(CFA_XSP16, literal(-11)))
        CFI CFA_SP SP+0
        CFI CFA_XSP16 add(XSP16, 11)
        ; Saved register size: 11
        ; Auto size: 0
//  499   uint8 *send_str;
//  500   uint8 send_count=0;
        MOV     ?V0 + 2,#0x0
//  501   send_count = 10+3;
        MOV     ?V0 + 2,#0xd
//  502   send_str = osal_mem_alloc(send_count);
        ; Setup parameters for call to function osal_mem_alloc
        MOV     ?V0 + 0,?V0 + 2
        MOV     ?V0 + 1,#0x0
        MOV     R2,?V0 + 0
        MOV     R3,?V0 + 1
        LCALL   ??osal_mem_alloc?relay
        MOV     ?V0 + 0,R2
        MOV     ?V0 + 1,R3
        MOV     R6,?V0 + 0
        MOV     R7,?V0 + 1
//  503   
//  504   USER_SEND_ADD_STR(send_str);  //\添加固定帧头
        ; Setup parameters for call to function USER_SEND_ADD_STR
        MOV     A,R6
        MOV     R2,A
        MOV     A,R7
        MOV     R3,A
        LCALL   ??USER_SEND_ADD_STR?relay
//  505 
//  506    if(BUTTERY_LOW_FLAG==1)
        MOV     DPTR,#BUTTERY_LOW_FLAG
        MOVX    A,@DPTR
        XRL     A,#0x1
        JNZ     ??SampleApp_SendInMessage_0
//  507    {  
//  508     send_str[9]=0xA1; 
        MOV     DPL,R6
        MOV     DPH,R7
        INC     DPTR
        INC     DPTR
        INC     DPTR
        INC     DPTR
        INC     DPTR
        INC     DPTR
        INC     DPTR
        INC     DPTR
        INC     DPTR
        MOV     A,#-0x5f
        MOVX    @DPTR,A
//  509     send_str[10]=1;//1代表 电池告警标记位
        MOV     DPL,R6
        MOV     DPH,R7
        INC     DPTR
        INC     DPTR
        INC     DPTR
        INC     DPTR
        INC     DPTR
        INC     DPTR
        INC     DPTR
        INC     DPTR
        INC     DPTR
        INC     DPTR
        MOV     A,#0x1
        MOVX    @DPTR,A
//  510     send_str[11]=BUTTERY_ALARM_BIT;//active_battery_voltage;//1; //代表 电池告警事件
        MOV     DPTR,#BUTTERY_ALARM_BIT
        MOVX    A,@DPTR
        PUSH    A
        CFI CFA_SP SP+-1
        MOV     A,R6
        ADD     A,#0xb
        MOV     DPL,A
        MOV     A,R7
        ADDC    A,#0x0
        MOV     DPH,A
        POP     A
        CFI CFA_SP SP+0
        MOVX    @DPTR,A
//  511     BUTTERY_LOW_FLAG = 0;
        MOV     DPTR,#BUTTERY_LOW_FLAG
        MOV     A,#0x0
        MOVX    @DPTR,A
//  512     USER_APP_SEND_IN(12,send_str);//发送出数据
        ; Setup parameters for call to function USER_APP_SEND_IN
        MOV     A,R6
        MOV     R2,A
        MOV     A,R7
        MOV     R3,A
        MOV     R1,#0xc
        LCALL   ??USER_APP_SEND_IN?relay
//  513    }
//  514    
//  515  
//  516   osal_mem_free( send_str );
??SampleApp_SendInMessage_0:
        ; Setup parameters for call to function osal_mem_free
        MOV     A,R6
        MOV     R2,A
        MOV     A,R7
        MOV     R3,A
        LCALL   ??osal_mem_free?relay
//  517 }
        MOV     R7,#0x3
        LJMP    ?BANKED_LEAVE_XDATA
        CFI EndBlock cfiBlock7
//  518 
//  519 

        RSEG BANKED_CODE:CODE:NOROOT(0)
//  520 void User_APP_Drive_init(void)
User_APP_Drive_init:
        CFI Block cfiBlock8 Using cfiCommon0
        CFI Function User_APP_Drive_init
        CODE
//  521 {
        FUNCALL User_APP_Drive_init, osal_nv_item_init
        LOCFRAME ISTACK, 0, STACK
        LOCFRAME PSTACK, 0, STACK
        LOCFRAME XSTACK, 12, STACK
        LOCFRAME IOVERLAY, 0, STATIC
        LOCFRAME DOVERLAY, 0, STATIC
        ARGFRAME ISTACK, 0, STACK
        ARGFRAME PSTACK, 0, STACK
        ARGFRAME XSTACK, 12, STACK
        ARGFRAME IOVERLAY, 0, STATIC
        ARGFRAME DOVERLAY, 0, STATIC
        FUNCALL User_APP_Drive_init, osal_nv_read
        LOCFRAME ISTACK, 0, STACK
        LOCFRAME PSTACK, 0, STACK
        LOCFRAME XSTACK, 14, STACK
        LOCFRAME IOVERLAY, 0, STATIC
        LOCFRAME DOVERLAY, 0, STATIC
        ARGFRAME ISTACK, 0, STACK
        ARGFRAME PSTACK, 0, STACK
        ARGFRAME XSTACK, 14, STACK
        ARGFRAME IOVERLAY, 0, STATIC
        ARGFRAME DOVERLAY, 0, STATIC
        FUNCALL User_APP_Drive_init, irrInit
        LOCFRAME ISTACK, 0, STACK
        LOCFRAME PSTACK, 0, STACK
        LOCFRAME XSTACK, 10, STACK
        LOCFRAME IOVERLAY, 0, STATIC
        LOCFRAME DOVERLAY, 0, STATIC
        ARGFRAME ISTACK, 0, STACK
        ARGFRAME PSTACK, 0, STACK
        ARGFRAME XSTACK, 10, STACK
        ARGFRAME IOVERLAY, 0, STATIC
        ARGFRAME DOVERLAY, 0, STATIC
        MOV     A,#-0xa
        LCALL   ?BANKED_ENTER_XDATA
        CFI DPH0 load(1, XDATA, add(CFA_XSP16, literal(-1)))
        CFI DPL0 load(1, XDATA, add(CFA_XSP16, literal(-2)))
        CFI ?BRET_EXT load(1, XDATA, add(CFA_XSP16, literal(-3)))
        CFI ?RET_HIGH load(1, XDATA, add(CFA_XSP16, literal(-4)))
        CFI ?RET_LOW load(1, XDATA, add(CFA_XSP16, literal(-5)))
        CFI R7 load(1, XDATA, add(CFA_XSP16, literal(-6)))
        CFI V1 load(1, XDATA, add(CFA_XSP16, literal(-7)))
        CFI V0 load(1, XDATA, add(CFA_XSP16, literal(-8)))
        CFI VB load(1, XDATA, add(CFA_XSP16, literal(-9)))
        CFI R6 load(1, XDATA, add(CFA_XSP16, literal(-10)))
        CFI CFA_SP SP+0
        CFI CFA_XSP16 add(XSP16, 10)
        ; Saved register size: 10
        ; Auto size: 0
//  522   HAL_IO_CONFIG_INIT();
        ORL     0xfe,#0x1
        ORL     0xfe,#0x2
        SETB    0x90.0
        SETB    0x90.1
//  523   
//  524   osal_nv_item_init( ZCD_NV_POLLRATE_TIME, 1, &POLLRATE_TIME_VALUE );  
        ; Setup parameters for call to function osal_nv_item_init
        MOV     ?V0 + 0,#POLLRATE_TIME_VALUE & 0xff
        MOV     ?V0 + 1,#(POLLRATE_TIME_VALUE >> 8) & 0xff
        MOV     R0,#?V0 + 0
        LCALL   ?PUSH_XSTACK_I_TWO
        CFI CFA_XSP16 add(XSP16, 12)
        MOV     R4,#0x1
        MOV     R5,#0x0
        MOV     R2,#0x18
        MOV     R3,#0x4
        LCALL   ??osal_nv_item_init?relay
        MOV     A,#0x2
        LCALL   ?DEALLOC_XSTACK8
        CFI CFA_XSP16 add(XSP16, 10)
        MOV     A,R1
//  525   osal_nv_read( ZCD_NV_POLLRATE_TIME, 0, 1, &POLLRATE_TIME_VALUE );
        ; Setup parameters for call to function osal_nv_read
        MOV     ?V0 + 0,#POLLRATE_TIME_VALUE & 0xff
        MOV     ?V0 + 1,#(POLLRATE_TIME_VALUE >> 8) & 0xff
        MOV     R0,#?V0 + 0
        LCALL   ?PUSH_XSTACK_I_TWO
        CFI CFA_XSP16 add(XSP16, 12)
        MOV     ?V0 + 0,#0x1
        MOV     ?V0 + 1,#0x0
        MOV     R0,#?V0 + 0
        LCALL   ?PUSH_XSTACK_I_TWO
        CFI CFA_XSP16 add(XSP16, 14)
        MOV     R4,#0x0
        MOV     R5,#0x0
        MOV     R2,#0x18
        MOV     R3,#0x4
        LCALL   ??osal_nv_read?relay
        MOV     A,#0x4
        LCALL   ?DEALLOC_XSTACK8
        CFI CFA_XSP16 add(XSP16, 10)
        MOV     A,R1
//  526   
//  527   if((POLLRATE_TIME_VALUE == 0xFF)||(POLLRATE_TIME_VALUE == 0))
        MOV     DPTR,#POLLRATE_TIME_VALUE
        MOVX    A,@DPTR
        XRL     A,#0xff
        JZ      ??User_APP_Drive_init_0
        MOV     DPTR,#POLLRATE_TIME_VALUE
        MOVX    A,@DPTR
        JNZ     ??User_APP_Drive_init_1
//  528     POLLRATE_TIME_VALUE = 4;//4*500 ms   
??User_APP_Drive_init_0:
        MOV     DPTR,#POLLRATE_TIME_VALUE
        MOV     A,#0x4
        MOVX    @DPTR,A
//  529   
//  530 #if defined (M_V332)  
//  531 #else
//  532   PERCFG |= 0x20;  
//  533 #endif  
//  534   irrInit();
??User_APP_Drive_init_1:
        ; Setup parameters for call to function irrInit
        LCALL   ??irrInit?relay
//  535 }
        MOV     R7,#0x2
        LJMP    ?BANKED_LEAVE_XDATA
        CFI EndBlock cfiBlock8
        REQUIRE P1DIR
        REQUIRE _A_P1
//  536 

        RSEG BANKED_CODE:CODE:NOROOT(0)
//  537 uint8 READ_NETKEY() //读取入网状态按键的状态传递到应用层
READ_NETKEY:
        CFI Block cfiBlock9 Using cfiCommon0
        CFI Function READ_NETKEY
        CODE
//  538 {
        ; Saved register size: 0
        ; Auto size: 0
//  539 
//  540   return HAL_PUSH_BUTTON3();
        MOV     C,0x90.2
        CLR     A
        RLC     A
        MOV     R1,A
        LJMP    ?BRET
        CFI EndBlock cfiBlock9
        REQUIRE _A_P1
//  541 }
//  542 
//  543 
//  544 
//  545 /*
//  546 mode 0 关
//  547 1 开
//  548 2 切换
//  549 */

        RSEG BANKED_CODE:CODE:NOROOT(0)
//  550 void LED_CHANGE(uint8 Position,uint8 Mode)// 设置LED函数
LED_CHANGE:
        CFI Block cfiBlock10 Using cfiCommon0
        CFI Function LED_CHANGE
        CODE
//  551 {
        ; Saved register size: 0
        ; Auto size: 0
//  552  switch (Position )
        MOV     A,R1
        DEC     A
        JZ      ??LED_CHANGE_0
        DEC     A
        JZ      ??LED_CHANGE_1
        ADD     A,#-0x2
        JZ      ??LED_CHANGE_2
        ADD     A,#-0x4
        JNZ     $+5
        LJMP    ??LED_CHANGE_3 & 0xFFFF
        ADD     A,#-0x8
        JNZ     $+5
        LJMP    ??LED_CHANGE_4 & 0xFFFF
        LJMP    ??LED_CHANGE_5 & 0xFFFF
//  553     {
//  554       case HAL_LED_1:      
//  555         {
//  556          if(Mode==0 || Mode==1)
??LED_CHANGE_0:
        MOV     A,R2
        JZ      ??LED_CHANGE_6
        MOV     A,#0x1
        XRL     A,R2
        JNZ     ??LED_CHANGE_7
//  557          {
//  558           LED1_SBIT = LED1_POLARITY(Mode);
??LED_CHANGE_6:
        MOV     A,R2
        JNZ     ??LED_CHANGE_8
        MOV     R0,#0x1
        SJMP    ??LED_CHANGE_9
??LED_CHANGE_8:
        MOV     R0,#0x0
??LED_CHANGE_9:
        MOV     A,R0
        MOV     C,0xE0 /* A   */.0
        MOV     0x90.0,C
        SJMP    ??LED_CHANGE_10
//  559          }
//  560          else if(Mode==2)
??LED_CHANGE_7:
        MOV     A,#0x2
        XRL     A,R2
        JNZ     ??LED_CHANGE_10
//  561          {
//  562           if (LED1_SBIT) 
        MOV     C,0x90.0
        JNC     ??LED_CHANGE_11
//  563           { 
//  564             LED1_SBIT = 0; 
        CLR     0x90.0
        SJMP    ??LED_CHANGE_10
//  565           } 
//  566           else 
//  567           { 
//  568             LED1_SBIT = 1;
??LED_CHANGE_11:
        SETB    0x90.0
//  569           } 
//  570          }
//  571         }   
//  572         break;     
??LED_CHANGE_10:
        LJMP    ??LED_CHANGE_5 & 0xFFFF
//  573         
//  574         case HAL_LED_2:      
//  575         {
//  576          if(Mode==0||Mode==1)
??LED_CHANGE_1:
        MOV     A,R2
        JZ      ??LED_CHANGE_12
        MOV     A,#0x1
        XRL     A,R2
        JNZ     ??LED_CHANGE_13
//  577          {
//  578           LED2_SBIT = LED2_POLARITY(Mode);
??LED_CHANGE_12:
        MOV     A,R2
        JNZ     ??LED_CHANGE_14
        MOV     R0,#0x1
        SJMP    ??LED_CHANGE_15
??LED_CHANGE_14:
        MOV     R0,#0x0
??LED_CHANGE_15:
        MOV     A,R0
        MOV     C,0xE0 /* A   */.0
        MOV     0x90.1,C
        SJMP    ??LED_CHANGE_16
//  579          }
//  580          else if(Mode==2)
??LED_CHANGE_13:
        MOV     A,#0x2
        XRL     A,R2
        JNZ     ??LED_CHANGE_16
//  581          {
//  582           if (LED1_SBIT) 
        MOV     C,0x90.0
        JNC     ??LED_CHANGE_17
//  583           { 
//  584             LED2_SBIT = 0; 
        CLR     0x90.1
        SJMP    ??LED_CHANGE_5
//  585           } 
//  586           else 
//  587           { 
//  588             LED2_SBIT = 1;
??LED_CHANGE_17:
        SETB    0x90.1
//  589           } 
//  590          }
//  591         }   
//  592         break;     
??LED_CHANGE_16:
        SJMP    ??LED_CHANGE_5
//  593         
//  594         case HAL_LED_3:      
//  595         {
//  596          if(Mode==0 || Mode==1)
??LED_CHANGE_2:
        MOV     A,R2
        JZ      ??LED_CHANGE_18
        MOV     A,#0x1
        XRL     A,R2
        JNZ     ??LED_CHANGE_19
//  597          {
//  598           LED3_SBIT = LED3_POLARITY(Mode);
??LED_CHANGE_18:
        MOV     A,R2
        JZ      ??LED_CHANGE_20
        MOV     R0,#0x1
        SJMP    ??LED_CHANGE_21
??LED_CHANGE_20:
        MOV     R0,#0x0
??LED_CHANGE_21:
        MOV     A,R0
        MOV     C,0xE0 /* A   */.0
        MOV     0x90.7,C
        SJMP    ??LED_CHANGE_5
//  599          }
//  600          else if(Mode==2)
??LED_CHANGE_19:
        MOV     A,#0x2
        XRL     A,R2
        JNZ     ??LED_CHANGE_5
//  601          {
//  602           if (LED3_SBIT) 
        MOV     C,0x90.7
        JNC     ??LED_CHANGE_22
//  603           { 
//  604             LED3_SBIT = 0; 
        CLR     0x90.7
        SJMP    ??LED_CHANGE_5
//  605           } 
//  606           else 
//  607           { 
//  608             LED3_SBIT = 1;
??LED_CHANGE_22:
        SETB    0x90.7
//  609           } 
//  610          }
//  611         }   
//  612         break;  
        SJMP    ??LED_CHANGE_5
//  613         
//  614           case HAL_LED_4:      
//  615         {
//  616          if(Mode==0 || Mode==1)
??LED_CHANGE_3:
        MOV     A,R2
        JZ      ??LED_CHANGE_23
        MOV     A,#0x1
        XRL     A,R2
        JNZ     ??LED_CHANGE_24
//  617          {
//  618           LED4_SBIT = LED4_POLARITY(Mode);
??LED_CHANGE_23:
        MOV     A,R2
        JZ      ??LED_CHANGE_25
        MOV     R0,#0x1
        SJMP    ??LED_CHANGE_26
??LED_CHANGE_25:
        MOV     R0,#0x0
??LED_CHANGE_26:
        MOV     A,R0
        MOV     C,0xE0 /* A   */.0
        MOV     0x90.7,C
        SJMP    ??LED_CHANGE_5
//  619          }
//  620          else if(Mode==2)
??LED_CHANGE_24:
        MOV     A,#0x2
        XRL     A,R2
        JNZ     ??LED_CHANGE_5
//  621          {
//  622           if (LED4_SBIT) 
        MOV     C,0x90.7
        JNC     ??LED_CHANGE_27
//  623           { 
//  624             LED4_SBIT = 0; 
        CLR     0x90.7
        SJMP    ??LED_CHANGE_5
//  625           } 
//  626           else 
//  627           { 
//  628             LED4_SBIT = 1;
??LED_CHANGE_27:
        SETB    0x90.7
//  629           } 
//  630          }
//  631         }   
//  632         break;
        SJMP    ??LED_CHANGE_5
//  633         
//  634           case HAL_LED_5:      
//  635         {
//  636          if(Mode==0 || Mode==1)
??LED_CHANGE_4:
        MOV     A,R2
        JZ      ??LED_CHANGE_28
        MOV     A,#0x1
        XRL     A,R2
        JNZ     ??LED_CHANGE_29
//  637          {
//  638           LED5_SBIT = LED5_POLARITY(Mode);
??LED_CHANGE_28:
        MOV     A,R2
        JZ      ??LED_CHANGE_30
        MOV     R0,#0x1
        SJMP    ??LED_CHANGE_31
??LED_CHANGE_30:
        MOV     R0,#0x0
??LED_CHANGE_31:
        MOV     A,R0
        MOV     C,0xE0 /* A   */.0
        MOV     0x90.7,C
        SJMP    ??LED_CHANGE_5
//  639          }
//  640          else if(Mode==2)
??LED_CHANGE_29:
        MOV     A,#0x2
        XRL     A,R2
        JNZ     ??LED_CHANGE_5
//  641          {
//  642           if (LED5_SBIT) 
        MOV     C,0x90.7
        JNC     ??LED_CHANGE_32
//  643           { 
//  644             LED5_SBIT = 0; 
        CLR     0x90.7
        SJMP    ??LED_CHANGE_5
//  645           } 
//  646           else 
//  647           { 
//  648             LED5_SBIT = 1;
??LED_CHANGE_32:
        SETB    0x90.7
//  649           } 
//  650          }
//  651         }   
//  652         break;
//  653 
//  654     default:
//  655       break;
//  656     }
//  657 }
??LED_CHANGE_5:
        LJMP    ?BRET
        CFI EndBlock cfiBlock10
        REQUIRE _A_P1
//  658 
//  659 

        RSEG BANKED_CODE:CODE:NOROOT(0)
//  660 void USER_ZDO_JOINING_MSG(void)
USER_ZDO_JOINING_MSG:
        CFI Block cfiBlock11 Using cfiCommon0
        CFI Function USER_ZDO_JOINING_MSG
        CODE
//  661 {
        FUNCALL USER_ZDO_JOINING_MSG, HalLedBlink
        LOCFRAME ISTACK, 2, STACK
        LOCFRAME PSTACK, 0, STACK
        LOCFRAME XSTACK, 0, STACK
        LOCFRAME IOVERLAY, 0, STATIC
        LOCFRAME DOVERLAY, 0, STATIC
        ARGFRAME ISTACK, 2, STACK
        ARGFRAME PSTACK, 0, STACK
        ARGFRAME XSTACK, 0, STACK
        ARGFRAME IOVERLAY, 0, STATIC
        ARGFRAME DOVERLAY, 0, STATIC
        PUSH    DPL
        CFI DPL0 Frame(CFA_SP, 4)
        CFI CFA_SP SP+-4
        PUSH    DPH
        CFI DPH0 Frame(CFA_SP, 5)
        CFI CFA_SP SP+-5
        ; Saved register size: 2
        ; Auto size: 0
//  662  HalLedBlink ( HAL_LED_1, 1, 30, 500 );
        ; Setup parameters for call to function HalLedBlink
        MOV     R4,#-0xc
        MOV     R5,#0x1
        MOV     R3,#0x1e
        MOV     R2,#0x1
        MOV     R1,#0x1
        LCALL   ??HalLedBlink?relay
//  663 }
        POP     DPH
        CFI DPH0 SameValue
        CFI CFA_SP SP+-4
        POP     DPL
        CFI DPL0 SameValue
        CFI CFA_SP SP+-3
        LJMP    ?BRET
        CFI EndBlock cfiBlock11
//  664 //RS后面是否要处理相关事件或者应用，在此进行处理

        RSEG BANKED_CODE:CODE:NOROOT(0)
//  665 void USER_AFTER_RS_MSG(void)
USER_AFTER_RS_MSG:
        CFI Block cfiBlock12 Using cfiCommon0
        CFI Function USER_AFTER_RS_MSG
        CODE
//  666 {
        ; Saved register size: 0
        ; Auto size: 0
//  667 
//  668 
//  669 }
        LJMP    ?BRET
        CFI EndBlock cfiBlock12
//  670 
//  671 
//  672 //跟随心跳1分钟一次，可以用来做电池检测，如果需要的话

        RSEG BANKED_CODE:CODE:NOROOT(0)
//  673 void USER_MAYBE_BUTTERY_MSG(void)
USER_MAYBE_BUTTERY_MSG:
        CFI Block cfiBlock13 Using cfiCommon0
        CFI Function USER_MAYBE_BUTTERY_MSG
        CODE
//  674 {
        FUNCALL USER_MAYBE_BUTTERY_MSG, myApp_ReadBattery
        LOCFRAME ISTACK, 0, STACK
        LOCFRAME PSTACK, 0, STACK
        LOCFRAME XSTACK, 10, STACK
        LOCFRAME IOVERLAY, 0, STATIC
        LOCFRAME DOVERLAY, 0, STATIC
        ARGFRAME ISTACK, 0, STACK
        ARGFRAME PSTACK, 0, STACK
        ARGFRAME XSTACK, 10, STACK
        ARGFRAME IOVERLAY, 0, STATIC
        ARGFRAME DOVERLAY, 0, STATIC
        FUNCALL USER_MAYBE_BUTTERY_MSG, osal_start_timerEx
        LOCFRAME ISTACK, 0, STACK
        LOCFRAME PSTACK, 0, STACK
        LOCFRAME XSTACK, 10, STACK
        LOCFRAME IOVERLAY, 0, STATIC
        LOCFRAME DOVERLAY, 0, STATIC
        ARGFRAME ISTACK, 0, STACK
        ARGFRAME PSTACK, 0, STACK
        ARGFRAME XSTACK, 10, STACK
        ARGFRAME IOVERLAY, 0, STATIC
        ARGFRAME DOVERLAY, 0, STATIC
        MOV     A,#-0xa
        LCALL   ?BANKED_ENTER_XDATA
        CFI DPH0 load(1, XDATA, add(CFA_XSP16, literal(-1)))
        CFI DPL0 load(1, XDATA, add(CFA_XSP16, literal(-2)))
        CFI ?BRET_EXT load(1, XDATA, add(CFA_XSP16, literal(-3)))
        CFI ?RET_HIGH load(1, XDATA, add(CFA_XSP16, literal(-4)))
        CFI ?RET_LOW load(1, XDATA, add(CFA_XSP16, literal(-5)))
        CFI R7 load(1, XDATA, add(CFA_XSP16, literal(-6)))
        CFI V1 load(1, XDATA, add(CFA_XSP16, literal(-7)))
        CFI V0 load(1, XDATA, add(CFA_XSP16, literal(-8)))
        CFI VB load(1, XDATA, add(CFA_XSP16, literal(-9)))
        CFI R6 load(1, XDATA, add(CFA_XSP16, literal(-10)))
        CFI CFA_SP SP+0
        CFI CFA_XSP16 add(XSP16, 10)
        ; Saved register size: 10
        ; Auto size: 0
//  675        if(Heart_mesg_count%60==0) //暂定半小时使用ACK一次，如果失败了则重新入网 gai 30
        MOV     DPTR,#Heart_mesg_count
        MOVX    A,@DPTR
        MOV     R0,A
        INC     DPTR
        MOVX    A,@DPTR
        MOV     R1,A
        MOV     R2,#0x3c
        MOV     R3,#0x0
        LCALL   ?US_DIV_MOD
        MOV     ?V0 + 0,R2
        MOV     ?V0 + 1,R3
        MOV     A,?V0 + 0
        ORL     A,?V0 + 1
        JNZ     ??USER_MAYBE_BUTTERY_MSG_0
//  676       {
//  677           HEART_NEED_ACK_FLAG =1;
        MOV     DPTR,#HEART_NEED_ACK_FLAG
        MOV     A,#0x1
        MOVX    @DPTR,A
//  678           active_battery_voltage=myApp_ReadBattery();
        ; Setup parameters for call to function myApp_ReadBattery
        LCALL   ??myApp_ReadBattery?relay
        MOV     DPTR,#active_battery_voltage
        MOV     A,R2
        MOVX    @DPTR,A
        INC     DPTR
        MOV     A,R3
        MOVX    @DPTR,A
//  679           
//  680           if(active_battery_voltage<=265)
        MOV     DPTR,#active_battery_voltage
        CLR     C
        MOVX    A,@DPTR
        SUBB    A,#0xa
        INC     DPTR
        MOVX    A,@DPTR
        SUBB    A,#0x1
        JNC     ??USER_MAYBE_BUTTERY_MSG_1
//  681           {
//  682             if( (devState==DEV_END_DEVICE) || (devState==DEV_ROUTER) )
        MOV     DPTR,#devState
        MOVX    A,@DPTR
        XRL     A,#0x6
        JZ      ??USER_MAYBE_BUTTERY_MSG_2
        MOV     DPTR,#devState
        MOVX    A,@DPTR
        XRL     A,#0x7
        JNZ     ??USER_MAYBE_BUTTERY_MSG_0
//  683             {
//  684             BUTTERY_ALARM_BIT=1;
??USER_MAYBE_BUTTERY_MSG_2:
        MOV     DPTR,#BUTTERY_ALARM_BIT
        MOV     A,#0x1
        MOVX    @DPTR,A
//  685             osal_start_timerEx( UserApp_TaskID, SAMPLEAPP_SEND_LOWBUTTERY_EVT,
//  686                               20000 );
        ; Setup parameters for call to function osal_start_timerEx
        MOV     R4,#0x20
        MOV     R5,#0x4e
        MOV     R2,#0x4
        MOV     R3,#0x0
        MOV     DPTR,#UserApp_TaskID
        MOVX    A,@DPTR
        MOV     R1,A
        LCALL   ??osal_start_timerEx?relay
        MOV     A,R1
        SJMP    ??USER_MAYBE_BUTTERY_MSG_0
//  687             }
//  688             
//  689           }
//  690           else
//  691           {
//  692             BUTTERY_ALARM_BIT=0;
??USER_MAYBE_BUTTERY_MSG_1:
        MOV     DPTR,#BUTTERY_ALARM_BIT
        MOV     A,#0x0
        MOVX    @DPTR,A
//  693           }
//  694          
//  695     }
//  696       Heart_mesg_count++;
??USER_MAYBE_BUTTERY_MSG_0:
        MOV     DPTR,#Heart_mesg_count
        MOVX    A,@DPTR
        ADD     A,#0x1
        MOVX    @DPTR,A
        INC     DPTR
        MOVX    A,@DPTR
        ADDC    A,#0x0
        MOVX    @DPTR,A
//  697  
//  698 }
        MOV     R7,#0x2
        LJMP    ?BANKED_LEAVE_XDATA
        CFI EndBlock cfiBlock13
//  699 
//  700 
//  701 // 入网成功后，进入正常模式后设置设备的POLL RATE时间,红外人体修改为10S，维持半分钟

        RSEG BANKED_CODE:CODE:NOROOT(0)
//  702 void USER_SET_NOMAL_POLL_TIME(void)
USER_SET_NOMAL_POLL_TIME:
        CFI Block cfiBlock14 Using cfiCommon0
        CFI Function USER_SET_NOMAL_POLL_TIME
        CODE
//  703 {
        PUSH    DPL
        CFI DPL0 Frame(CFA_SP, 4)
        CFI CFA_SP SP+-4
        PUSH    DPH
        CFI DPH0 Frame(CFA_SP, 5)
        CFI CFA_SP SP+-5
        ; Saved register size: 2
        ; Auto size: 0
//  704   NORMAL_POLL_TIME=18000;
        MOV     DPTR,#NORMAL_POLL_TIME
        MOV     A,#0x50
        MOVX    @DPTR,A
        INC     DPTR
        MOV     A,#0x46
        MOVX    @DPTR,A
//  705  
//  706 
//  707 }
        POP     DPH
        CFI DPH0 SameValue
        CFI CFA_SP SP+-4
        POP     DPL
        CFI DPL0 SameValue
        CFI CFA_SP SP+-3
        LJMP    ?BRET
        CFI EndBlock cfiBlock14
//  708 
//  709 

        RSEG BANKED_CODE:CODE:NOROOT(0)
//  710 void SampleAPP_ProcessZDOMsgs( zdoIncomingMsg_t *inMsg )
SampleAPP_ProcessZDOMsgs:
        CFI Block cfiBlock15 Using cfiCommon0
        CFI Function SampleAPP_ProcessZDOMsgs
        CODE
//  711 {
        FUNCALL SampleAPP_ProcessZDOMsgs, HalLedBlink
        LOCFRAME ISTACK, 0, STACK
        LOCFRAME PSTACK, 0, STACK
        LOCFRAME XSTACK, 9, STACK
        LOCFRAME IOVERLAY, 0, STATIC
        LOCFRAME DOVERLAY, 0, STATIC
        ARGFRAME ISTACK, 0, STACK
        ARGFRAME PSTACK, 0, STACK
        ARGFRAME XSTACK, 9, STACK
        ARGFRAME IOVERLAY, 0, STATIC
        ARGFRAME DOVERLAY, 0, STATIC
        FUNCALL SampleAPP_ProcessZDOMsgs, HalLedBlink
        LOCFRAME ISTACK, 0, STACK
        LOCFRAME PSTACK, 0, STACK
        LOCFRAME XSTACK, 9, STACK
        LOCFRAME IOVERLAY, 0, STATIC
        LOCFRAME DOVERLAY, 0, STATIC
        ARGFRAME ISTACK, 0, STACK
        ARGFRAME PSTACK, 0, STACK
        ARGFRAME XSTACK, 9, STACK
        ARGFRAME IOVERLAY, 0, STATIC
        ARGFRAME DOVERLAY, 0, STATIC
        MOV     A,#-0x9
        LCALL   ?BANKED_ENTER_XDATA
        CFI DPH0 load(1, XDATA, add(CFA_XSP16, literal(-1)))
        CFI DPL0 load(1, XDATA, add(CFA_XSP16, literal(-2)))
        CFI ?BRET_EXT load(1, XDATA, add(CFA_XSP16, literal(-3)))
        CFI ?RET_HIGH load(1, XDATA, add(CFA_XSP16, literal(-4)))
        CFI ?RET_LOW load(1, XDATA, add(CFA_XSP16, literal(-5)))
        CFI R7 load(1, XDATA, add(CFA_XSP16, literal(-6)))
        CFI V0 load(1, XDATA, add(CFA_XSP16, literal(-7)))
        CFI VB load(1, XDATA, add(CFA_XSP16, literal(-8)))
        CFI R6 load(1, XDATA, add(CFA_XSP16, literal(-9)))
        CFI CFA_SP SP+0
        CFI CFA_XSP16 add(XSP16, 9)
        ; Saved register size: 9
        ; Auto size: 0
        MOV     A,R2
        MOV     R6,A
        MOV     A,R3
        MOV     R7,A
//  712   switch ( inMsg->clusterID )
        MOV     A,R6
        ADD     A,#0xc
        MOV     DPL,A
        MOV     A,R7
        ADDC    A,#0x0
        MOV     DPH,A
        MOVX    A,@DPTR
        XRL     A,#0x20
        JNZ     ??SampleAPP_ProcessZDOMsgs_0
        INC     DPTR
        MOVX    A,@DPTR
        XRL     A,#0x80
??SampleAPP_ProcessZDOMsgs_0:
        JNZ     ??SampleAPP_ProcessZDOMsgs_1
//  713   {
//  714     case End_Device_Bind_rsp:
//  715       if ( ZDO_ParseBindRsp( inMsg ) == ZSuccess )
        MOV     A,R6
        ADD     A,#0x13
        MOV     DPL,A
        MOV     A,R7
        ADDC    A,#0x0
        MOV     DPH,A
        MOVX    A,@DPTR
        MOV     R0,A
        INC     DPTR
        MOVX    A,@DPTR
        MOV     DPH,A
        MOV     DPL,R0
        MOVX    A,@DPTR
        JNZ     ??SampleAPP_ProcessZDOMsgs_2
//  716       {
//  717        HalLedBlink ( HAL_LED_1, 3, 50, 1000 );
        ; Setup parameters for call to function HalLedBlink
        MOV     R4,#-0x18
        MOV     R5,#0x3
        MOV     R3,#0x32
        MOV     R2,#0x3
        MOV     R1,#0x1
        LCALL   ??HalLedBlink?relay
        SJMP    ??SampleAPP_ProcessZDOMsgs_1
//  718       }
//  719 
//  720       else
//  721       {
//  722         HalLedBlink ( HAL_LED_1, 6, 50, 500 );
??SampleAPP_ProcessZDOMsgs_2:
        ; Setup parameters for call to function HalLedBlink
        MOV     R4,#-0xc
        MOV     R5,#0x1
        MOV     R3,#0x32
        MOV     R2,#0x6
        MOV     R1,#0x1
        LCALL   ??HalLedBlink?relay
//  723       }
//  724       break;
//  725   }
//  726  
//  727 }
??SampleAPP_ProcessZDOMsgs_1:
        MOV     R7,#0x1
        LJMP    ?BANKED_LEAVE_XDATA
        CFI EndBlock cfiBlock15
//  728 
//  729 
//  730 
//  731 
//  732 
//  733 /*******************************************************************************
//  734 函数功能：改变poll的时间间隔，如果间隔为长间隔，则改成短间隔，并设置60s后进入间
//  735 		  隔恢复事件
//  736 */

        RSEG BANKED_CODE:CODE:NOROOT(0)
//  737 void changePollRate(void)
changePollRate:
        CFI Block cfiBlock16 Using cfiCommon0
        CFI Function changePollRate
        CODE
//  738 {
        FUNCALL changePollRate, NLME_SetPollRate
        LOCFRAME ISTACK, 2, STACK
        LOCFRAME PSTACK, 0, STACK
        LOCFRAME XSTACK, 0, STACK
        LOCFRAME IOVERLAY, 0, STATIC
        LOCFRAME DOVERLAY, 0, STATIC
        ARGFRAME ISTACK, 2, STACK
        ARGFRAME PSTACK, 0, STACK
        ARGFRAME XSTACK, 0, STACK
        ARGFRAME IOVERLAY, 0, STATIC
        ARGFRAME DOVERLAY, 0, STATIC
        FUNCALL changePollRate, osal_start_timerEx
        LOCFRAME ISTACK, 2, STACK
        LOCFRAME PSTACK, 0, STACK
        LOCFRAME XSTACK, 0, STACK
        LOCFRAME IOVERLAY, 0, STATIC
        LOCFRAME DOVERLAY, 0, STATIC
        ARGFRAME ISTACK, 2, STACK
        ARGFRAME PSTACK, 0, STACK
        ARGFRAME XSTACK, 0, STACK
        ARGFRAME IOVERLAY, 0, STATIC
        ARGFRAME DOVERLAY, 0, STATIC
        PUSH    DPL
        CFI DPL0 Frame(CFA_SP, 4)
        CFI CFA_SP SP+-4
        PUSH    DPH
        CFI DPH0 Frame(CFA_SP, 5)
        CFI CFA_SP SP+-5
        ; Saved register size: 2
        ; Auto size: 0
//  739 	//osal_stop_timerEx( SampleApp_TaskID, RESUME_POLL_RATE);
//  740 	if(longPollRateFlag)
        MOV     DPTR,#longPollRateFlag
        MOVX    A,@DPTR
        JZ      ??changePollRate_0
//  741 	{
//  742 		//改变pollrate成100ms
//  743 		longPollRateFlag = 0;
        MOV     DPTR,#longPollRateFlag
        MOV     A,#0x0
        MOVX    @DPTR,A
//  744 		NLME_SetPollRate( 300 );//set the poll rate to quick ,and   
        ; Setup parameters for call to function NLME_SetPollRate
        MOV     R2,#0x2c
        MOV     R3,#0x1
        LCALL   ??NLME_SetPollRate?relay
//  745 	}
//  746 	osal_start_timerEx( UserApp_TaskID, RESUME_POLL_RATE,20000);
??changePollRate_0:
        ; Setup parameters for call to function osal_start_timerEx
        MOV     R4,#0x20
        MOV     R5,#0x4e
        MOV     R2,#0x20
        MOV     R3,#0x0
        MOV     DPTR,#UserApp_TaskID
        MOVX    A,@DPTR
        MOV     R1,A
        LCALL   ??osal_start_timerEx?relay
        MOV     A,R1
//  747 }
        POP     DPH
        CFI DPH0 SameValue
        CFI CFA_SP SP+-4
        POP     DPL
        CFI DPL0 SameValue
        CFI CFA_SP SP+-3
        LJMP    ?BRET
        CFI EndBlock cfiBlock16

        RSEG XDATA_ID:CODE:NOROOT(0)
`?<Initializer for NORMAL_POLL_TIME>`:
        DATA16
        DW 7000

        RSEG XDATA_ID:CODE:NOROOT(0)
`?<Initializer for longPollRateFlag>`:
        DATA8
        DB 1

        RSEG BANK_RELAYS:CODE:REORDER:NOROOT(0)
??UserApp_Init?relay:
        LCALL   ?BDISPATCH
        DATA
        DC24    UserApp_Init

        RSEG BANK_RELAYS:CODE:REORDER:NOROOT(0)
??UserApp_ProcessEvent?relay:
        LCALL   ?BDISPATCH
        DATA
        DC24    UserApp_ProcessEvent

        RSEG BANK_RELAYS:CODE:REORDER:NOROOT(0)
??SampleApp_HandleKeys?relay:
        LCALL   ?BDISPATCH
        DATA
        DC24    SampleApp_HandleKeys

        RSEG BANK_RELAYS:CODE:REORDER:NOROOT(0)
??SampleApp_ProcessBINDINGMessage?relay:
        LCALL   ?BDISPATCH
        DATA
        DC24    SampleApp_ProcessBINDINGMessage

        RSEG BANK_RELAYS:CODE:REORDER:NOROOT(0)
??USER_APP_JOIN_MSG?relay:
        LCALL   ?BDISPATCH
        DATA
        DC24    USER_APP_JOIN_MSG

        RSEG BANK_RELAYS:CODE:REORDER:NOROOT(0)
??USER_APP_COMMAND?relay:
        LCALL   ?BDISPATCH
        DATA
        DC24    USER_APP_COMMAND

        RSEG BANK_RELAYS:CODE:REORDER:NOROOT(0)
??USER_SET_RS_MSG?relay:
        LCALL   ?BDISPATCH
        DATA
        DC24    USER_SET_RS_MSG

        RSEG BANK_RELAYS:CODE:REORDER:NOROOT(0)
??SampleApp_SendInMessage?relay:
        LCALL   ?BDISPATCH
        DATA
        DC24    SampleApp_SendInMessage

        RSEG BANK_RELAYS:CODE:REORDER:NOROOT(0)
??User_APP_Drive_init?relay:
        LCALL   ?BDISPATCH
        DATA
        DC24    User_APP_Drive_init

        RSEG BANK_RELAYS:CODE:REORDER:NOROOT(0)
??READ_NETKEY?relay:
        LCALL   ?BDISPATCH
        DATA
        DC24    READ_NETKEY

        RSEG BANK_RELAYS:CODE:REORDER:NOROOT(0)
??LED_CHANGE?relay:
        LCALL   ?BDISPATCH
        DATA
        DC24    LED_CHANGE

        RSEG BANK_RELAYS:CODE:REORDER:NOROOT(0)
??USER_ZDO_JOINING_MSG?relay:
        LCALL   ?BDISPATCH
        DATA
        DC24    USER_ZDO_JOINING_MSG

        RSEG BANK_RELAYS:CODE:REORDER:NOROOT(0)
??USER_AFTER_RS_MSG?relay:
        LCALL   ?BDISPATCH
        DATA
        DC24    USER_AFTER_RS_MSG

        RSEG BANK_RELAYS:CODE:REORDER:NOROOT(0)
??USER_MAYBE_BUTTERY_MSG?relay:
        LCALL   ?BDISPATCH
        DATA
        DC24    USER_MAYBE_BUTTERY_MSG

        RSEG BANK_RELAYS:CODE:REORDER:NOROOT(0)
??USER_SET_NOMAL_POLL_TIME?relay:
        LCALL   ?BDISPATCH
        DATA
        DC24    USER_SET_NOMAL_POLL_TIME

        RSEG BANK_RELAYS:CODE:REORDER:NOROOT(0)
??SampleAPP_ProcessZDOMsgs?relay:
        LCALL   ?BDISPATCH
        DATA
        DC24    SampleAPP_ProcessZDOMsgs

        RSEG BANK_RELAYS:CODE:REORDER:NOROOT(0)
??changePollRate?relay:
        LCALL   ?BDISPATCH
        DATA
        DC24    changePollRate

        END
//  748 
//  749 
// 
// 2 041 bytes in segment BANKED_CODE
//   102 bytes in segment BANK_RELAYS
//     8 bytes in segment SFR_AN
//     3 bytes in segment XDATA_I
//     3 bytes in segment XDATA_ID
//    45 bytes in segment XDATA_Z
// 
// 2 146 bytes of CODE  memory
//     0 bytes of DATA  memory (+ 8 bytes shared)
//    48 bytes of XDATA memory
//
//Errors: none
//Warnings: 2
